(dp1
S'output'
p2
S''
sS'layer'
p3
S'/windows/Users/Thomas/Dropbox/appz/2011/GAE/ddl-lagoon/applications/ddlagoon/controllers/ddl.py'
p4
sS'code'
p5
S"__author__ = 'thomas'\n\ndef get():\n    return service()\n\n@service.xml\ndef ddl(id, filename):\n    return response.download()\nresponse._vars=response._caller(get)\n"
p6
sS'snapshot'
p7
(dp8
S'exception'
p9
(dp10
S'__hash__'
p11
S"<method-wrapper '__hash__' of exceptions.TypeError object>"
p12
sS'__setattr__'
p13
S"<method-wrapper '__setattr__' of exceptions.TypeError object>"
p14
sS'__reduce_ex__'
p15
S'<built-in method __reduce_ex__ of exceptions.TypeError object>'
p16
sS'__getslice__'
p17
S"<method-wrapper '__getslice__' of exceptions.TypeError object>"
p18
sS'__getitem__'
p19
S"<method-wrapper '__getitem__' of exceptions.TypeError object>"
p20
sS'__setstate__'
p21
S'<built-in method __setstate__ of exceptions.TypeError object>'
p22
sS'args'
p23
S"('download() takes at least 3 arguments (1 given)',)"
p24
sS'__reduce__'
p25
S'<built-in method __reduce__ of exceptions.TypeError object>'
p26
sS'__str__'
p27
S"<method-wrapper '__str__' of exceptions.TypeError object>"
p28
sS'__format__'
p29
S'<built-in method __format__ of exceptions.TypeError object>'
p30
sS'__getattribute__'
p31
S"<method-wrapper '__getattribute__' of exceptions.TypeError object>"
p32
sS'__class__'
p33
S"<type 'exceptions.TypeError'>"
p34
sS'__unicode__'
p35
S'<built-in method __unicode__ of exceptions.TypeError object>'
p36
sS'__delattr__'
p37
S"<method-wrapper '__delattr__' of exceptions.TypeError object>"
p38
sS'__subclasshook__'
p39
S'<built-in method __subclasshook__ of type object>'
p40
sS'__repr__'
p41
S"<method-wrapper '__repr__' of exceptions.TypeError object>"
p42
sS'__dict__'
p43
S'{}'
p44
sS'__sizeof__'
p45
S'<built-in method __sizeof__ of exceptions.TypeError object>'
p46
sS'__doc__'
p47
S"'Inappropriate argument type.'"
p48
sS'__init__'
p49
S"<method-wrapper '__init__' of exceptions.TypeError object>"
p50
sS'__new__'
p51
S'<built-in method __new__ of type object>'
p52
ssS'evalue'
p53
S'download() takes at least 3 arguments (1 given)'
p54
sS'request'
p55
ccopy_reg
_reconstructor
p56
(cgluon.html
BEAUTIFY
p57
c__builtin__
object
p58
NtRp59
(dp60
S'attributes'
p61
(dp62
sS'components'
p63
(lp64
g56
(cgluon.html
TABLE
p65
g58
NtRp66
(dp67
g61
(dp68
S'level'
p69
I5
ssS'parent'
p70
Nsg63
(lp71
g56
(cgluon.html
TR
p72
g58
NtRp73
(dp74
g61
(dp75
sg70
g66
sg63
(lp76
g56
(cgluon.html
TD
p77
g58
NtRp78
(dp79
g61
(dp80
S'_style'
p81
S'font-weight:bold;'
p82
ssg70
g73
sg63
(lp83
S'ajax'
p84
asbag56
(g77
g58
NtRp85
(dp86
g61
(dp87
S'_valign'
p88
S'top'
p89
ssg70
g73
sg63
(lp90
S':'
asbag56
(g77
g58
NtRp91
(dp92
g61
(dp93
sg70
g73
sg63
(lp94
g56
(g57
g58
NtRp95
(dp96
g61
(dp97
g69
I5
ssg70
g91
sg63
(lp98
S'False'
p99
asbasbasbag56
(g72
g58
NtRp100
(dp101
g61
(dp102
sg70
g66
sg63
(lp103
g56
(g77
g58
NtRp104
(dp105
g61
(dp106
g81
g82
ssg70
g100
sg63
(lp107
S'application'
p108
asbag56
(g77
g58
NtRp109
(dp110
g61
(dp111
g88
g89
ssg70
g100
sg63
(lp112
S':'
asbag56
(g77
g58
NtRp113
(dp114
g61
(dp115
sg70
g100
sg63
(lp116
g56
(g57
g58
NtRp117
(dp118
g61
(dp119
g69
I5
ssg70
g113
sg63
(lp120
S'ddlagoon'
p121
asbasbasbag56
(g72
g58
NtRp122
(dp123
g61
(dp124
sg70
g66
sg63
(lp125
g56
(g77
g58
NtRp126
(dp127
g61
(dp128
g81
g82
ssg70
g122
sg63
(lp129
g23
asbag56
(g77
g58
NtRp130
(dp131
g61
(dp132
g88
g89
ssg70
g122
sg63
(lp133
S':'
asbag56
(g77
g58
NtRp134
(dp135
g61
(dp136
sg70
g122
sg63
(lp137
g56
(g57
g58
NtRp138
(dp139
g61
(dp140
g69
I5
ssg70
g134
sg63
(lp141
g56
(g65
g58
NtRp142
(dp143
g61
(dp144
g69
I4
ssg70
Nsg63
(lp145
g56
(g72
g58
NtRp146
(dp147
g61
(dp148
sg70
g142
sg63
(lp149
g56
(g77
g58
NtRp150
(dp151
g61
(dp152
sg70
g146
sg63
(lp153
g56
(g57
g58
NtRp154
(dp155
g61
(dp156
g69
I4
ssg70
g150
sg63
(lp157
S'xml'
p158
asbasbasbag56
(g72
g58
NtRp159
(dp160
g61
(dp161
sg70
g142
sg63
(lp162
g56
(g77
g58
NtRp163
(dp164
g61
(dp165
sg70
g159
sg63
(lp166
g56
(g57
g58
NtRp167
(dp168
g61
(dp169
g69
I4
ssg70
g163
sg63
(lp170
S'ddl'
p171
asbasbasbag56
(g72
g58
NtRp172
(dp173
g61
(dp174
sg70
g142
sg63
(lp175
g56
(g77
g58
NtRp176
(dp177
g61
(dp178
sg70
g172
sg63
(lp179
g56
(g57
g58
NtRp180
(dp181
g61
(dp182
g69
I4
ssg70
g176
sg63
(lp183
S'1'
asbasbasbag56
(g72
g58
NtRp184
(dp185
g61
(dp186
sg70
g142
sg63
(lp187
g56
(g77
g58
NtRp188
(dp189
g61
(dp190
sg70
g184
sg63
(lp191
g56
(g57
g58
NtRp192
(dp193
g61
(dp194
g69
I4
ssg70
g188
sg63
(lp195
S'2'
asbasbasbasbasbasbasbag56
(g72
g58
NtRp196
(dp197
g61
(dp198
sg70
g66
sg63
(lp199
g56
(g77
g58
NtRp200
(dp201
g61
(dp202
g81
g82
ssg70
g196
sg63
(lp203
S'body'
p204
asbag56
(g77
g58
NtRp205
(dp206
g61
(dp207
g88
g89
ssg70
g196
sg63
(lp208
S':'
asbag56
(g77
g58
NtRp209
(dp210
g61
(dp211
sg70
g196
sg63
(lp212
g56
(g57
g58
NtRp213
(dp214
g61
(dp215
g69
I5
ssg70
g209
sg63
(lp216
S'<cStringIO.StringO object at 0x362a420>'
p217
asbasbasbag56
(g72
g58
NtRp218
(dp219
g61
(dp220
sg70
g66
sg63
(lp221
g56
(g77
g58
NtRp222
(dp223
g61
(dp224
g81
g82
ssg70
g218
sg63
(lp225
S'client'
p226
asbag56
(g77
g58
NtRp227
(dp228
g61
(dp229
g88
g89
ssg70
g218
sg63
(lp230
S':'
asbag56
(g77
g58
NtRp231
(dp232
g61
(dp233
sg70
g218
sg63
(lp234
g56
(g57
g58
NtRp235
(dp236
g61
(dp237
g69
I5
ssg70
g231
sg63
(lp238
S'127.0.0.1'
p239
asbasbasbag56
(g72
g58
NtRp240
(dp241
g61
(dp242
sg70
g66
sg63
(lp243
g56
(g77
g58
NtRp244
(dp245
g61
(dp246
g81
g82
ssg70
g240
sg63
(lp247
S'controller'
p248
asbag56
(g77
g58
NtRp249
(dp250
g61
(dp251
g88
g89
ssg70
g240
sg63
(lp252
S':'
asbag56
(g77
g58
NtRp253
(dp254
g61
(dp255
sg70
g240
sg63
(lp256
g56
(g57
g58
NtRp257
(dp258
g61
(dp259
g69
I5
ssg70
g253
sg63
(lp260
S'ddl'
p261
asbasbasbag56
(g72
g58
NtRp262
(dp263
g61
(dp264
sg70
g66
sg63
(lp265
g56
(g77
g58
NtRp266
(dp267
g61
(dp268
g81
g82
ssg70
g262
sg63
(lp269
S'cookies'
p270
asbag56
(g77
g58
NtRp271
(dp272
g61
(dp273
g88
g89
ssg70
g262
sg63
(lp274
S':'
asbag56
(g77
g58
NtRp275
(dp276
g61
(dp277
sg70
g262
sg63
(lp278
g56
(g57
g58
NtRp279
(dp280
g61
(dp281
g69
I5
ssg70
g275
sg63
(lp282
g56
(g65
g58
NtRp283
(dp284
g61
(dp285
g69
I4
ssg70
Nsg63
(lp286
g56
(g72
g58
NtRp287
(dp288
g61
(dp289
sg70
g283
sg63
(lp290
g56
(g77
g58
NtRp291
(dp292
g61
(dp293
g81
g82
ssg70
g287
sg63
(lp294
S'session_id_admin'
p295
asbag56
(g77
g58
NtRp296
(dp297
g61
(dp298
g88
g89
ssg70
g287
sg63
(lp299
S':'
asbag56
(g77
g58
NtRp300
(dp301
g61
(dp302
sg70
g287
sg63
(lp303
g56
(g57
g58
NtRp304
(dp305
g61
(dp306
g69
I4
ssg70
g300
sg63
(lp307
g56
(g65
g58
NtRp308
(dp309
g61
(dp310
g69
I3
ssg70
Nsg63
(lp311
g56
(g72
g58
NtRp312
(dp313
g61
(dp314
sg70
g308
sg63
(lp315
g56
(g77
g58
NtRp316
(dp317
g61
(dp318
g81
g82
ssg70
g312
sg63
(lp319
S'comment'
p320
asbag56
(g77
g58
NtRp321
(dp322
g61
(dp323
g88
g89
ssg70
g312
sg63
(lp324
S':'
asbag56
(g77
g58
NtRp325
(dp326
g61
(dp327
sg70
g312
sg63
(lp328
g56
(g57
g58
NtRp329
(dp330
g61
(dp331
g69
I3
ssg70
g325
sg63
(lp332
S''
asbasbasbag56
(g72
g58
NtRp333
(dp334
g61
(dp335
sg70
g308
sg63
(lp336
g56
(g77
g58
NtRp337
(dp338
g61
(dp339
g81
g82
ssg70
g333
sg63
(lp340
S'domain'
p341
asbag56
(g77
g58
NtRp342
(dp343
g61
(dp344
g88
g89
ssg70
g333
sg63
(lp345
S':'
asbag56
(g77
g58
NtRp346
(dp347
g61
(dp348
sg70
g333
sg63
(lp349
g56
(g57
g58
NtRp350
(dp351
g61
(dp352
g69
I3
ssg70
g346
sg63
(lp353
S''
asbasbasbag56
(g72
g58
NtRp354
(dp355
g61
(dp356
sg70
g308
sg63
(lp357
g56
(g77
g58
NtRp358
(dp359
g61
(dp360
g81
g82
ssg70
g354
sg63
(lp361
S'expires'
p362
asbag56
(g77
g58
NtRp363
(dp364
g61
(dp365
g88
g89
ssg70
g354
sg63
(lp366
S':'
asbag56
(g77
g58
NtRp367
(dp368
g61
(dp369
sg70
g354
sg63
(lp370
g56
(g57
g58
NtRp371
(dp372
g61
(dp373
g69
I3
ssg70
g367
sg63
(lp374
S''
asbasbasbag56
(g72
g58
NtRp375
(dp376
g61
(dp377
sg70
g308
sg63
(lp378
g56
(g77
g58
NtRp379
(dp380
g61
(dp381
g81
g82
ssg70
g375
sg63
(lp382
S'httponly'
p383
asbag56
(g77
g58
NtRp384
(dp385
g61
(dp386
g88
g89
ssg70
g375
sg63
(lp387
S':'
asbag56
(g77
g58
NtRp388
(dp389
g61
(dp390
sg70
g375
sg63
(lp391
g56
(g57
g58
NtRp392
(dp393
g61
(dp394
g69
I3
ssg70
g388
sg63
(lp395
S''
asbasbasbag56
(g72
g58
NtRp396
(dp397
g61
(dp398
sg70
g308
sg63
(lp399
g56
(g77
g58
NtRp400
(dp401
g61
(dp402
g81
g82
ssg70
g396
sg63
(lp403
S'max-age'
p404
asbag56
(g77
g58
NtRp405
(dp406
g61
(dp407
g88
g89
ssg70
g396
sg63
(lp408
S':'
asbag56
(g77
g58
NtRp409
(dp410
g61
(dp411
sg70
g396
sg63
(lp412
g56
(g57
g58
NtRp413
(dp414
g61
(dp415
g69
I3
ssg70
g409
sg63
(lp416
S''
asbasbasbag56
(g72
g58
NtRp417
(dp418
g61
(dp419
sg70
g308
sg63
(lp420
g56
(g77
g58
NtRp421
(dp422
g61
(dp423
g81
g82
ssg70
g417
sg63
(lp424
S'path'
p425
asbag56
(g77
g58
NtRp426
(dp427
g61
(dp428
g88
g89
ssg70
g417
sg63
(lp429
S':'
asbag56
(g77
g58
NtRp430
(dp431
g61
(dp432
sg70
g417
sg63
(lp433
g56
(g57
g58
NtRp434
(dp435
g61
(dp436
g69
I3
ssg70
g430
sg63
(lp437
S''
asbasbasbag56
(g72
g58
NtRp438
(dp439
g61
(dp440
sg70
g308
sg63
(lp441
g56
(g77
g58
NtRp442
(dp443
g61
(dp444
g81
g82
ssg70
g438
sg63
(lp445
S'secure'
p446
asbag56
(g77
g58
NtRp447
(dp448
g61
(dp449
g88
g89
ssg70
g438
sg63
(lp450
S':'
asbag56
(g77
g58
NtRp451
(dp452
g61
(dp453
sg70
g438
sg63
(lp454
g56
(g57
g58
NtRp455
(dp456
g61
(dp457
g69
I3
ssg70
g451
sg63
(lp458
S''
asbasbasbag56
(g72
g58
NtRp459
(dp460
g61
(dp461
sg70
g308
sg63
(lp462
g56
(g77
g58
NtRp463
(dp464
g61
(dp465
g81
g82
ssg70
g459
sg63
(lp466
S'version'
p467
asbag56
(g77
g58
NtRp468
(dp469
g61
(dp470
g88
g89
ssg70
g459
sg63
(lp471
S':'
asbag56
(g77
g58
NtRp472
(dp473
g61
(dp474
sg70
g459
sg63
(lp475
g56
(g57
g58
NtRp476
(dp477
g61
(dp478
g69
I3
ssg70
g472
sg63
(lp479
S''
asbasbasbasbasbasbasbag56
(g72
g58
NtRp480
(dp481
g61
(dp482
sg70
g283
sg63
(lp483
g56
(g77
g58
NtRp484
(dp485
g61
(dp486
g81
g82
ssg70
g480
sg63
(lp487
S'session_id_ddlagoon'
p488
asbag56
(g77
g58
NtRp489
(dp490
g61
(dp491
g88
g89
ssg70
g480
sg63
(lp492
S':'
asbag56
(g77
g58
NtRp493
(dp494
g61
(dp495
sg70
g480
sg63
(lp496
g56
(g57
g58
NtRp497
(dp498
g61
(dp499
g69
I4
ssg70
g493
sg63
(lp500
g56
(g65
g58
NtRp501
(dp502
g61
(dp503
g69
I3
ssg70
Nsg63
(lp504
g56
(g72
g58
NtRp505
(dp506
g61
(dp507
sg70
g501
sg63
(lp508
g56
(g77
g58
NtRp509
(dp510
g61
(dp511
g81
g82
ssg70
g505
sg63
(lp512
g320
asbag56
(g77
g58
NtRp513
(dp514
g61
(dp515
g88
g89
ssg70
g505
sg63
(lp516
S':'
asbag56
(g77
g58
NtRp517
(dp518
g61
(dp519
sg70
g505
sg63
(lp520
g56
(g57
g58
NtRp521
(dp522
g61
(dp523
g69
I3
ssg70
g517
sg63
(lp524
S''
asbasbasbag56
(g72
g58
NtRp525
(dp526
g61
(dp527
sg70
g501
sg63
(lp528
g56
(g77
g58
NtRp529
(dp530
g61
(dp531
g81
g82
ssg70
g525
sg63
(lp532
g341
asbag56
(g77
g58
NtRp533
(dp534
g61
(dp535
g88
g89
ssg70
g525
sg63
(lp536
S':'
asbag56
(g77
g58
NtRp537
(dp538
g61
(dp539
sg70
g525
sg63
(lp540
g56
(g57
g58
NtRp541
(dp542
g61
(dp543
g69
I3
ssg70
g537
sg63
(lp544
S''
asbasbasbag56
(g72
g58
NtRp545
(dp546
g61
(dp547
sg70
g501
sg63
(lp548
g56
(g77
g58
NtRp549
(dp550
g61
(dp551
g81
g82
ssg70
g545
sg63
(lp552
g362
asbag56
(g77
g58
NtRp553
(dp554
g61
(dp555
g88
g89
ssg70
g545
sg63
(lp556
S':'
asbag56
(g77
g58
NtRp557
(dp558
g61
(dp559
sg70
g545
sg63
(lp560
g56
(g57
g58
NtRp561
(dp562
g61
(dp563
g69
I3
ssg70
g557
sg63
(lp564
S''
asbasbasbag56
(g72
g58
NtRp565
(dp566
g61
(dp567
sg70
g501
sg63
(lp568
g56
(g77
g58
NtRp569
(dp570
g61
(dp571
g81
g82
ssg70
g565
sg63
(lp572
g383
asbag56
(g77
g58
NtRp573
(dp574
g61
(dp575
g88
g89
ssg70
g565
sg63
(lp576
S':'
asbag56
(g77
g58
NtRp577
(dp578
g61
(dp579
sg70
g565
sg63
(lp580
g56
(g57
g58
NtRp581
(dp582
g61
(dp583
g69
I3
ssg70
g577
sg63
(lp584
S''
asbasbasbag56
(g72
g58
NtRp585
(dp586
g61
(dp587
sg70
g501
sg63
(lp588
g56
(g77
g58
NtRp589
(dp590
g61
(dp591
g81
g82
ssg70
g585
sg63
(lp592
g404
asbag56
(g77
g58
NtRp593
(dp594
g61
(dp595
g88
g89
ssg70
g585
sg63
(lp596
S':'
asbag56
(g77
g58
NtRp597
(dp598
g61
(dp599
sg70
g585
sg63
(lp600
g56
(g57
g58
NtRp601
(dp602
g61
(dp603
g69
I3
ssg70
g597
sg63
(lp604
S''
asbasbasbag56
(g72
g58
NtRp605
(dp606
g61
(dp607
sg70
g501
sg63
(lp608
g56
(g77
g58
NtRp609
(dp610
g61
(dp611
g81
g82
ssg70
g605
sg63
(lp612
g425
asbag56
(g77
g58
NtRp613
(dp614
g61
(dp615
g88
g89
ssg70
g605
sg63
(lp616
S':'
asbag56
(g77
g58
NtRp617
(dp618
g61
(dp619
sg70
g605
sg63
(lp620
g56
(g57
g58
NtRp621
(dp622
g61
(dp623
g69
I3
ssg70
g617
sg63
(lp624
S''
asbasbasbag56
(g72
g58
NtRp625
(dp626
g61
(dp627
sg70
g501
sg63
(lp628
g56
(g77
g58
NtRp629
(dp630
g61
(dp631
g81
g82
ssg70
g625
sg63
(lp632
g446
asbag56
(g77
g58
NtRp633
(dp634
g61
(dp635
g88
g89
ssg70
g625
sg63
(lp636
S':'
asbag56
(g77
g58
NtRp637
(dp638
g61
(dp639
sg70
g625
sg63
(lp640
g56
(g57
g58
NtRp641
(dp642
g61
(dp643
g69
I3
ssg70
g637
sg63
(lp644
S''
asbasbasbag56
(g72
g58
NtRp645
(dp646
g61
(dp647
sg70
g501
sg63
(lp648
g56
(g77
g58
NtRp649
(dp650
g61
(dp651
g81
g82
ssg70
g645
sg63
(lp652
g467
asbag56
(g77
g58
NtRp653
(dp654
g61
(dp655
g88
g89
ssg70
g645
sg63
(lp656
S':'
asbag56
(g77
g58
NtRp657
(dp658
g61
(dp659
sg70
g645
sg63
(lp660
g56
(g57
g58
NtRp661
(dp662
g61
(dp663
g69
I3
ssg70
g657
sg63
(lp664
S''
asbasbasbasbasbasbasbag56
(g72
g58
NtRp665
(dp666
g61
(dp667
sg70
g283
sg63
(lp668
g56
(g77
g58
NtRp669
(dp670
g61
(dp671
g81
g82
ssg70
g665
sg63
(lp672
S'session_id_welcome'
p673
asbag56
(g77
g58
NtRp674
(dp675
g61
(dp676
g88
g89
ssg70
g665
sg63
(lp677
S':'
asbag56
(g77
g58
NtRp678
(dp679
g61
(dp680
sg70
g665
sg63
(lp681
g56
(g57
g58
NtRp682
(dp683
g61
(dp684
g69
I4
ssg70
g678
sg63
(lp685
g56
(g65
g58
NtRp686
(dp687
g61
(dp688
g69
I3
ssg70
Nsg63
(lp689
g56
(g72
g58
NtRp690
(dp691
g61
(dp692
sg70
g686
sg63
(lp693
g56
(g77
g58
NtRp694
(dp695
g61
(dp696
g81
g82
ssg70
g690
sg63
(lp697
g320
asbag56
(g77
g58
NtRp698
(dp699
g61
(dp700
g88
g89
ssg70
g690
sg63
(lp701
S':'
asbag56
(g77
g58
NtRp702
(dp703
g61
(dp704
sg70
g690
sg63
(lp705
g56
(g57
g58
NtRp706
(dp707
g61
(dp708
g69
I3
ssg70
g702
sg63
(lp709
S''
asbasbasbag56
(g72
g58
NtRp710
(dp711
g61
(dp712
sg70
g686
sg63
(lp713
g56
(g77
g58
NtRp714
(dp715
g61
(dp716
g81
g82
ssg70
g710
sg63
(lp717
g341
asbag56
(g77
g58
NtRp718
(dp719
g61
(dp720
g88
g89
ssg70
g710
sg63
(lp721
S':'
asbag56
(g77
g58
NtRp722
(dp723
g61
(dp724
sg70
g710
sg63
(lp725
g56
(g57
g58
NtRp726
(dp727
g61
(dp728
g69
I3
ssg70
g722
sg63
(lp729
S''
asbasbasbag56
(g72
g58
NtRp730
(dp731
g61
(dp732
sg70
g686
sg63
(lp733
g56
(g77
g58
NtRp734
(dp735
g61
(dp736
g81
g82
ssg70
g730
sg63
(lp737
g362
asbag56
(g77
g58
NtRp738
(dp739
g61
(dp740
g88
g89
ssg70
g730
sg63
(lp741
S':'
asbag56
(g77
g58
NtRp742
(dp743
g61
(dp744
sg70
g730
sg63
(lp745
g56
(g57
g58
NtRp746
(dp747
g61
(dp748
g69
I3
ssg70
g742
sg63
(lp749
S''
asbasbasbag56
(g72
g58
NtRp750
(dp751
g61
(dp752
sg70
g686
sg63
(lp753
g56
(g77
g58
NtRp754
(dp755
g61
(dp756
g81
g82
ssg70
g750
sg63
(lp757
g383
asbag56
(g77
g58
NtRp758
(dp759
g61
(dp760
g88
g89
ssg70
g750
sg63
(lp761
S':'
asbag56
(g77
g58
NtRp762
(dp763
g61
(dp764
sg70
g750
sg63
(lp765
g56
(g57
g58
NtRp766
(dp767
g61
(dp768
g69
I3
ssg70
g762
sg63
(lp769
S''
asbasbasbag56
(g72
g58
NtRp770
(dp771
g61
(dp772
sg70
g686
sg63
(lp773
g56
(g77
g58
NtRp774
(dp775
g61
(dp776
g81
g82
ssg70
g770
sg63
(lp777
g404
asbag56
(g77
g58
NtRp778
(dp779
g61
(dp780
g88
g89
ssg70
g770
sg63
(lp781
S':'
asbag56
(g77
g58
NtRp782
(dp783
g61
(dp784
sg70
g770
sg63
(lp785
g56
(g57
g58
NtRp786
(dp787
g61
(dp788
g69
I3
ssg70
g782
sg63
(lp789
S''
asbasbasbag56
(g72
g58
NtRp790
(dp791
g61
(dp792
sg70
g686
sg63
(lp793
g56
(g77
g58
NtRp794
(dp795
g61
(dp796
g81
g82
ssg70
g790
sg63
(lp797
g425
asbag56
(g77
g58
NtRp798
(dp799
g61
(dp800
g88
g89
ssg70
g790
sg63
(lp801
S':'
asbag56
(g77
g58
NtRp802
(dp803
g61
(dp804
sg70
g790
sg63
(lp805
g56
(g57
g58
NtRp806
(dp807
g61
(dp808
g69
I3
ssg70
g802
sg63
(lp809
S''
asbasbasbag56
(g72
g58
NtRp810
(dp811
g61
(dp812
sg70
g686
sg63
(lp813
g56
(g77
g58
NtRp814
(dp815
g61
(dp816
g81
g82
ssg70
g810
sg63
(lp817
g446
asbag56
(g77
g58
NtRp818
(dp819
g61
(dp820
g88
g89
ssg70
g810
sg63
(lp821
S':'
asbag56
(g77
g58
NtRp822
(dp823
g61
(dp824
sg70
g810
sg63
(lp825
g56
(g57
g58
NtRp826
(dp827
g61
(dp828
g69
I3
ssg70
g822
sg63
(lp829
S''
asbasbasbag56
(g72
g58
NtRp830
(dp831
g61
(dp832
sg70
g686
sg63
(lp833
g56
(g77
g58
NtRp834
(dp835
g61
(dp836
g81
g82
ssg70
g830
sg63
(lp837
g467
asbag56
(g77
g58
NtRp838
(dp839
g61
(dp840
g88
g89
ssg70
g830
sg63
(lp841
S':'
asbag56
(g77
g58
NtRp842
(dp843
g61
(dp844
sg70
g830
sg63
(lp845
g56
(g57
g58
NtRp846
(dp847
g61
(dp848
g69
I3
ssg70
g842
sg63
(lp849
S''
asbasbasbasbasbasbasbasbasbasbasbag56
(g72
g58
NtRp850
(dp851
g61
(dp852
sg70
g66
sg63
(lp853
g56
(g77
g58
NtRp854
(dp855
g61
(dp856
g81
g82
ssg70
g850
sg63
(lp857
S'env'
p858
asbag56
(g77
g58
NtRp859
(dp860
g61
(dp861
g88
g89
ssg70
g850
sg63
(lp862
S':'
asbag56
(g77
g58
NtRp863
(dp864
g61
(dp865
sg70
g850
sg63
(lp866
g56
(g57
g58
NtRp867
(dp868
g61
(dp869
g69
I5
ssg70
g863
sg63
(lp870
g56
(g65
g58
NtRp871
(dp872
g61
(dp873
g69
I4
ssg70
Nsg63
(lp874
g56
(g72
g58
NtRp875
(dp876
g61
(dp877
sg70
g871
sg63
(lp878
g56
(g77
g58
NtRp879
(dp880
g61
(dp881
g81
g82
ssg70
g875
sg63
(lp882
S'app_folders'
p883
asbag56
(g77
g58
NtRp884
(dp885
g61
(dp886
g88
g89
ssg70
g875
sg63
(lp887
S':'
asbag56
(g77
g58
NtRp888
(dp889
g61
(dp890
sg70
g875
sg63
(lp891
g56
(g57
g58
NtRp892
(dp893
g61
(dp894
g69
I4
ssg70
g888
sg63
(lp895
S"set(['/windows/Users/Thomas/Dropbox/appz/2011/GAE/ddl-lagoon/applications/ddlagoon/', '/windows/Users/Thomas/Dropbox/appz/2011/GAE/ddl-lagoon/applications/welcome/', '/windows/Users/Thomas/Dropbox/appz/2011/GAE/ddl-lagoon/applications/admin/'])"
p896
asbasbasbag56
(g72
g58
NtRp897
(dp898
g61
(dp899
sg70
g871
sg63
(lp900
g56
(g77
g58
NtRp901
(dp902
g61
(dp903
g81
g82
ssg70
g897
sg63
(lp904
S'applications_parent'
p905
asbag56
(g77
g58
NtRp906
(dp907
g61
(dp908
g88
g89
ssg70
g897
sg63
(lp909
S':'
asbag56
(g77
g58
NtRp910
(dp911
g61
(dp912
sg70
g897
sg63
(lp913
g56
(g57
g58
NtRp914
(dp915
g61
(dp916
g69
I4
ssg70
g910
sg63
(lp917
S'/windows/Users/Thomas/Dropbox/appz/2011/GAE/ddl-lagoon'
p918
asbasbasbag56
(g72
g58
NtRp919
(dp920
g61
(dp921
sg70
g871
sg63
(lp922
g56
(g77
g58
NtRp923
(dp924
g61
(dp925
g81
g82
ssg70
g919
sg63
(lp926
S'cmd_args'
p927
asbag56
(g77
g58
NtRp928
(dp929
g61
(dp930
g88
g89
ssg70
g919
sg63
(lp931
S':'
asbag56
(g77
g58
NtRp932
(dp933
g61
(dp934
sg70
g919
sg63
(lp935
g56
(g57
g58
NtRp936
(dp937
g61
(dp938
g69
I4
ssg70
g932
sg63
(lp939
g56
(g65
g58
NtRp940
(dp941
g61
(dp942
g69
I3
ssg70
Nsg63
(lp943
sbasbasbasbag56
(g72
g58
NtRp944
(dp945
g61
(dp946
sg70
g871
sg63
(lp947
g56
(g77
g58
NtRp948
(dp949
g61
(dp950
g81
g82
ssg70
g944
sg63
(lp951
S'cmd_options'
p952
asbag56
(g77
g58
NtRp953
(dp954
g61
(dp955
g88
g89
ssg70
g944
sg63
(lp956
S':'
asbag56
(g77
g58
NtRp957
(dp958
g61
(dp959
sg70
g944
sg63
(lp960
g56
(g57
g58
NtRp961
(dp962
g61
(dp963
g69
I4
ssg70
g957
sg63
(lp964
S"<Values at 0x2d4df38: {'verbose': False, 'ip': '127.0.0.1', 'shutdown_timeout': 5, 'taskbar': False, 'nocron': False, 'pid_filename': 'httpserver.pid', 'maxthreads': None, 'softcron': False, 'server_name': 'VPCF22AJ', 'bpython': False, 'nogui': False, 'port': 8000, 'extcron': False, 'debuglevel': 30, 'test': None, 'folder': '/windows/Users/Thomas/Dropbox/appz/2011/GAE/ddl-lagoon', 'config': '', 'import_models': False, 'winservice': '', 'shell': None, 'run': '', 'log_filename': 'httpserver.log', 'args': [''], 'ssl_ca_certificate': None, 'scheduler': None, 'profiler_filename': None, 'ssl_private_key': '', 'password': 'admin', 'request_queue_size': 5, 'ssl_certificate': '', 'cronjob': False, 'plain': False, 'quiet': False, 'interfaces': None, 'minthreads': None, 'timeout': 10, 'numthreads': None, 'nobanner': False}>"
p965
asbasbasbag56
(g72
g58
NtRp966
(dp967
g61
(dp968
sg70
g871
sg63
(lp969
g56
(g77
g58
NtRp970
(dp971
g61
(dp972
g81
g82
ssg70
g966
sg63
(lp973
S'db_sessions'
p974
asbag56
(g77
g58
NtRp975
(dp976
g61
(dp977
g88
g89
ssg70
g966
sg63
(lp978
S':'
asbag56
(g77
g58
NtRp979
(dp980
g61
(dp981
sg70
g966
sg63
(lp982
g56
(g57
g58
NtRp983
(dp984
g61
(dp985
g69
I4
ssg70
g979
sg63
(lp986
S'set([])'
p987
asbasbasbag56
(g72
g58
NtRp988
(dp989
g61
(dp990
sg70
g871
sg63
(lp991
g56
(g77
g58
NtRp992
(dp993
g61
(dp994
g81
g82
ssg70
g988
sg63
(lp995
S'debugging'
p996
asbag56
(g77
g58
NtRp997
(dp998
g61
(dp999
g88
g89
ssg70
g988
sg63
(lp1000
S':'
asbag56
(g77
g58
NtRp1001
(dp1002
g61
(dp1003
sg70
g988
sg63
(lp1004
g56
(g57
g58
NtRp1005
(dp1006
g61
(dp1007
g69
I4
ssg70
g1001
sg63
(lp1008
g99
asbasbasbag56
(g72
g58
NtRp1009
(dp1010
g61
(dp1011
sg70
g871
sg63
(lp1012
g56
(g77
g58
NtRp1013
(dp1014
g61
(dp1015
g81
g82
ssg70
g1009
sg63
(lp1016
S'gluon_parent'
p1017
asbag56
(g77
g58
NtRp1018
(dp1019
g61
(dp1020
g88
g89
ssg70
g1009
sg63
(lp1021
S':'
asbag56
(g77
g58
NtRp1022
(dp1023
g61
(dp1024
sg70
g1009
sg63
(lp1025
g56
(g57
g58
NtRp1026
(dp1027
g61
(dp1028
g69
I4
ssg70
g1022
sg63
(lp1029
S'/windows/Users/Thomas/Dropbox/appz/2011/GAE/ddl-lagoon'
p1030
asbasbasbag56
(g72
g58
NtRp1031
(dp1032
g61
(dp1033
sg70
g871
sg63
(lp1034
g56
(g77
g58
NtRp1035
(dp1036
g61
(dp1037
g81
g82
ssg70
g1031
sg63
(lp1038
S'http_accept'
p1039
asbag56
(g77
g58
NtRp1040
(dp1041
g61
(dp1042
g88
g89
ssg70
g1031
sg63
(lp1043
S':'
asbag56
(g77
g58
NtRp1044
(dp1045
g61
(dp1046
sg70
g1031
sg63
(lp1047
g56
(g57
g58
NtRp1048
(dp1049
g61
(dp1050
g69
I4
ssg70
g1044
sg63
(lp1051
S'text/html,application/xhtml+xml,application/xml;q=0.9,*/*;q=0.8'
p1052
asbasbasbag56
(g72
g58
NtRp1053
(dp1054
g61
(dp1055
sg70
g871
sg63
(lp1056
g56
(g77
g58
NtRp1057
(dp1058
g61
(dp1059
g81
g82
ssg70
g1053
sg63
(lp1060
S'http_accept_charset'
p1061
asbag56
(g77
g58
NtRp1062
(dp1063
g61
(dp1064
g88
g89
ssg70
g1053
sg63
(lp1065
S':'
asbag56
(g77
g58
NtRp1066
(dp1067
g61
(dp1068
sg70
g1053
sg63
(lp1069
g56
(g57
g58
NtRp1070
(dp1071
g61
(dp1072
g69
I4
ssg70
g1066
sg63
(lp1073
S'ISO-8859-1,utf-8;q=0.7,*;q=0.3'
p1074
asbasbasbag56
(g72
g58
NtRp1075
(dp1076
g61
(dp1077
sg70
g871
sg63
(lp1078
g56
(g77
g58
NtRp1079
(dp1080
g61
(dp1081
g81
g82
ssg70
g1075
sg63
(lp1082
S'http_accept_encoding'
p1083
asbag56
(g77
g58
NtRp1084
(dp1085
g61
(dp1086
g88
g89
ssg70
g1075
sg63
(lp1087
S':'
asbag56
(g77
g58
NtRp1088
(dp1089
g61
(dp1090
sg70
g1075
sg63
(lp1091
g56
(g57
g58
NtRp1092
(dp1093
g61
(dp1094
g69
I4
ssg70
g1088
sg63
(lp1095
S'gzip,deflate,sdch'
p1096
asbasbasbag56
(g72
g58
NtRp1097
(dp1098
g61
(dp1099
sg70
g871
sg63
(lp1100
g56
(g77
g58
NtRp1101
(dp1102
g61
(dp1103
g81
g82
ssg70
g1097
sg63
(lp1104
S'http_accept_language'
p1105
asbag56
(g77
g58
NtRp1106
(dp1107
g61
(dp1108
g88
g89
ssg70
g1097
sg63
(lp1109
S':'
asbag56
(g77
g58
NtRp1110
(dp1111
g61
(dp1112
sg70
g1097
sg63
(lp1113
g56
(g57
g58
NtRp1114
(dp1115
g61
(dp1116
g69
I4
ssg70
g1110
sg63
(lp1117
S'en-US,en;q=0.8,fr;q=0.6'
p1118
asbasbasbag56
(g72
g58
NtRp1119
(dp1120
g61
(dp1121
sg70
g871
sg63
(lp1122
g56
(g77
g58
NtRp1123
(dp1124
g61
(dp1125
g81
g82
ssg70
g1119
sg63
(lp1126
S'http_connection'
p1127
asbag56
(g77
g58
NtRp1128
(dp1129
g61
(dp1130
g88
g89
ssg70
g1119
sg63
(lp1131
S':'
asbag56
(g77
g58
NtRp1132
(dp1133
g61
(dp1134
sg70
g1119
sg63
(lp1135
g56
(g57
g58
NtRp1136
(dp1137
g61
(dp1138
g69
I4
ssg70
g1132
sg63
(lp1139
S'keep-alive'
p1140
asbasbasbag56
(g72
g58
NtRp1141
(dp1142
g61
(dp1143
sg70
g871
sg63
(lp1144
g56
(g77
g58
NtRp1145
(dp1146
g61
(dp1147
g81
g82
ssg70
g1141
sg63
(lp1148
S'http_cookie'
p1149
asbag56
(g77
g58
NtRp1150
(dp1151
g61
(dp1152
g88
g89
ssg70
g1141
sg63
(lp1153
S':'
asbag56
(g77
g58
NtRp1154
(dp1155
g61
(dp1156
sg70
g1141
sg63
(lp1157
g56
(g57
g58
NtRp1158
(dp1159
g61
(dp1160
g69
I4
ssg70
g1154
sg63
(lp1161
S'__utma_a2a=6830991484.1350583772.1319026846.1319052270.1319052278.11; session_id_welcome=127.0.0.1-47f0e8b4-66ae-4fd0-bb0a-8a2d7a2027c4; session_id_ddlagoon=127.0.0.1-8fa824f9-6faa-499d-a250-71720cf67cda; session_id_admin=127.0.0.1-c4c6f676-274b-4970-ab2f-4415e39a2b0f'
p1162
asbasbasbag56
(g72
g58
NtRp1163
(dp1164
g61
(dp1165
sg70
g871
sg63
(lp1166
g56
(g77
g58
NtRp1167
(dp1168
g61
(dp1169
g81
g82
ssg70
g1163
sg63
(lp1170
S'http_host'
p1171
asbag56
(g77
g58
NtRp1172
(dp1173
g61
(dp1174
g88
g89
ssg70
g1163
sg63
(lp1175
S':'
asbag56
(g77
g58
NtRp1176
(dp1177
g61
(dp1178
sg70
g1163
sg63
(lp1179
g56
(g57
g58
NtRp1180
(dp1181
g61
(dp1182
g69
I4
ssg70
g1176
sg63
(lp1183
S'localhost:8000'
p1184
asbasbasbag56
(g72
g58
NtRp1185
(dp1186
g61
(dp1187
sg70
g871
sg63
(lp1188
g56
(g77
g58
NtRp1189
(dp1190
g61
(dp1191
g81
g82
ssg70
g1185
sg63
(lp1192
S'http_user_agent'
p1193
asbag56
(g77
g58
NtRp1194
(dp1195
g61
(dp1196
g88
g89
ssg70
g1185
sg63
(lp1197
S':'
asbag56
(g77
g58
NtRp1198
(dp1199
g61
(dp1200
sg70
g1185
sg63
(lp1201
g56
(g57
g58
NtRp1202
(dp1203
g61
(dp1204
g69
I4
ssg70
g1198
sg63
(lp1205
S'Mozilla/5.0 (X11; Linux x86_64) AppleWebKit/535.1 (KHTML, like Gecko) Chrome/14.0.835.202 Safari/535.1'
p1206
asbasbasbag56
(g72
g58
NtRp1207
(dp1208
g61
(dp1209
sg70
g871
sg63
(lp1210
g56
(g77
g58
NtRp1211
(dp1212
g61
(dp1213
g81
g82
ssg70
g1207
sg63
(lp1214
S'is_jython'
p1215
asbag56
(g77
g58
NtRp1216
(dp1217
g61
(dp1218
g88
g89
ssg70
g1207
sg63
(lp1219
S':'
asbag56
(g77
g58
NtRp1220
(dp1221
g61
(dp1222
sg70
g1207
sg63
(lp1223
g56
(g57
g58
NtRp1224
(dp1225
g61
(dp1226
g69
I4
ssg70
g1220
sg63
(lp1227
g99
asbasbasbag56
(g72
g58
NtRp1228
(dp1229
g61
(dp1230
sg70
g871
sg63
(lp1231
g56
(g77
g58
NtRp1232
(dp1233
g61
(dp1234
g81
g82
ssg70
g1228
sg63
(lp1235
S'path_info'
p1236
asbag56
(g77
g58
NtRp1237
(dp1238
g61
(dp1239
g88
g89
ssg70
g1228
sg63
(lp1240
S':'
asbag56
(g77
g58
NtRp1241
(dp1242
g61
(dp1243
sg70
g1228
sg63
(lp1244
g56
(g57
g58
NtRp1245
(dp1246
g61
(dp1247
g69
I4
ssg70
g1241
sg63
(lp1248
S'/ddlagoon/ddl/get/xml/ddl/1/2'
p1249
asbasbasbag56
(g72
g58
NtRp1250
(dp1251
g61
(dp1252
sg70
g871
sg63
(lp1253
g56
(g77
g58
NtRp1254
(dp1255
g61
(dp1256
g81
g82
ssg70
g1250
sg63
(lp1257
S'query_string'
p1258
asbag56
(g77
g58
NtRp1259
(dp1260
g61
(dp1261
g88
g89
ssg70
g1250
sg63
(lp1262
S':'
asbag56
(g77
g58
NtRp1263
(dp1264
g61
(dp1265
sg70
g1250
sg63
(lp1266
g56
(g57
g58
NtRp1267
(dp1268
g61
(dp1269
g69
I4
ssg70
g1263
sg63
(lp1270
S''
asbasbasbag56
(g72
g58
NtRp1271
(dp1272
g61
(dp1273
sg70
g871
sg63
(lp1274
g56
(g77
g58
NtRp1275
(dp1276
g61
(dp1277
g81
g82
ssg70
g1271
sg63
(lp1278
S'remote_addr'
p1279
asbag56
(g77
g58
NtRp1280
(dp1281
g61
(dp1282
g88
g89
ssg70
g1271
sg63
(lp1283
S':'
asbag56
(g77
g58
NtRp1284
(dp1285
g61
(dp1286
sg70
g1271
sg63
(lp1287
g56
(g57
g58
NtRp1288
(dp1289
g61
(dp1290
g69
I4
ssg70
g1284
sg63
(lp1291
g239
asbasbasbag56
(g72
g58
NtRp1292
(dp1293
g61
(dp1294
sg70
g871
sg63
(lp1295
g56
(g77
g58
NtRp1296
(dp1297
g61
(dp1298
g81
g82
ssg70
g1292
sg63
(lp1299
S'remote_port'
p1300
asbag56
(g77
g58
NtRp1301
(dp1302
g61
(dp1303
g88
g89
ssg70
g1292
sg63
(lp1304
S':'
asbag56
(g77
g58
NtRp1305
(dp1306
g61
(dp1307
sg70
g1292
sg63
(lp1308
g56
(g57
g58
NtRp1309
(dp1310
g61
(dp1311
g69
I4
ssg70
g1305
sg63
(lp1312
S'35402'
p1313
asbasbasbag56
(g72
g58
NtRp1314
(dp1315
g61
(dp1316
sg70
g871
sg63
(lp1317
g56
(g77
g58
NtRp1318
(dp1319
g61
(dp1320
g81
g82
ssg70
g1314
sg63
(lp1321
S'request_method'
p1322
asbag56
(g77
g58
NtRp1323
(dp1324
g61
(dp1325
g88
g89
ssg70
g1314
sg63
(lp1326
S':'
asbag56
(g77
g58
NtRp1327
(dp1328
g61
(dp1329
sg70
g1314
sg63
(lp1330
g56
(g57
g58
NtRp1331
(dp1332
g61
(dp1333
g69
I4
ssg70
g1327
sg63
(lp1334
S'GET'
p1335
asbasbasbag56
(g72
g58
NtRp1336
(dp1337
g61
(dp1338
sg70
g871
sg63
(lp1339
g56
(g77
g58
NtRp1340
(dp1341
g61
(dp1342
g81
g82
ssg70
g1336
sg63
(lp1343
S'request_uri'
p1344
asbag56
(g77
g58
NtRp1345
(dp1346
g61
(dp1347
g88
g89
ssg70
g1336
sg63
(lp1348
S':'
asbag56
(g77
g58
NtRp1349
(dp1350
g61
(dp1351
sg70
g1336
sg63
(lp1352
g56
(g57
g58
NtRp1353
(dp1354
g61
(dp1355
g69
I4
ssg70
g1349
sg63
(lp1356
g1249
asbasbasbag56
(g72
g58
NtRp1357
(dp1358
g61
(dp1359
sg70
g871
sg63
(lp1360
g56
(g77
g58
NtRp1361
(dp1362
g61
(dp1363
g81
g82
ssg70
g1357
sg63
(lp1364
S'script_name'
p1365
asbag56
(g77
g58
NtRp1366
(dp1367
g61
(dp1368
g88
g89
ssg70
g1357
sg63
(lp1369
S':'
asbag56
(g77
g58
NtRp1370
(dp1371
g61
(dp1372
sg70
g1357
sg63
(lp1373
g56
(g57
g58
NtRp1374
(dp1375
g61
(dp1376
g69
I4
ssg70
g1370
sg63
(lp1377
S''
asbasbasbag56
(g72
g58
NtRp1378
(dp1379
g61
(dp1380
sg70
g871
sg63
(lp1381
g56
(g77
g58
NtRp1382
(dp1383
g61
(dp1384
g81
g82
ssg70
g1378
sg63
(lp1385
S'server_name'
p1386
asbag56
(g77
g58
NtRp1387
(dp1388
g61
(dp1389
g88
g89
ssg70
g1378
sg63
(lp1390
S':'
asbag56
(g77
g58
NtRp1391
(dp1392
g61
(dp1393
sg70
g1378
sg63
(lp1394
g56
(g57
g58
NtRp1395
(dp1396
g61
(dp1397
g69
I4
ssg70
g1391
sg63
(lp1398
S'VPCF22AJ'
p1399
asbasbasbag56
(g72
g58
NtRp1400
(dp1401
g61
(dp1402
sg70
g871
sg63
(lp1403
g56
(g77
g58
NtRp1404
(dp1405
g61
(dp1406
g81
g82
ssg70
g1400
sg63
(lp1407
S'server_port'
p1408
asbag56
(g77
g58
NtRp1409
(dp1410
g61
(dp1411
g88
g89
ssg70
g1400
sg63
(lp1412
S':'
asbag56
(g77
g58
NtRp1413
(dp1414
g61
(dp1415
sg70
g1400
sg63
(lp1416
g56
(g57
g58
NtRp1417
(dp1418
g61
(dp1419
g69
I4
ssg70
g1413
sg63
(lp1420
S'8000'
p1421
asbasbasbag56
(g72
g58
NtRp1422
(dp1423
g61
(dp1424
sg70
g871
sg63
(lp1425
g56
(g77
g58
NtRp1426
(dp1427
g61
(dp1428
g81
g82
ssg70
g1422
sg63
(lp1429
S'server_protocol'
p1430
asbag56
(g77
g58
NtRp1431
(dp1432
g61
(dp1433
g88
g89
ssg70
g1422
sg63
(lp1434
S':'
asbag56
(g77
g58
NtRp1435
(dp1436
g61
(dp1437
sg70
g1422
sg63
(lp1438
g56
(g57
g58
NtRp1439
(dp1440
g61
(dp1441
g69
I4
ssg70
g1435
sg63
(lp1442
S'HTTP/1.1'
p1443
asbasbasbag56
(g72
g58
NtRp1444
(dp1445
g61
(dp1446
sg70
g871
sg63
(lp1447
g56
(g77
g58
NtRp1448
(dp1449
g61
(dp1450
g81
g82
ssg70
g1444
sg63
(lp1451
S'server_software'
p1452
asbag56
(g77
g58
NtRp1453
(dp1454
g61
(dp1455
g88
g89
ssg70
g1444
sg63
(lp1456
S':'
asbag56
(g77
g58
NtRp1457
(dp1458
g61
(dp1459
sg70
g1444
sg63
(lp1460
g56
(g57
g58
NtRp1461
(dp1462
g61
(dp1463
g69
I4
ssg70
g1457
sg63
(lp1464
S'Rocket 1.2.4'
p1465
asbasbasbag56
(g72
g58
NtRp1466
(dp1467
g61
(dp1468
sg70
g871
sg63
(lp1469
g56
(g77
g58
NtRp1470
(dp1471
g61
(dp1472
g81
g82
ssg70
g1466
sg63
(lp1473
S'web2py_crontype'
p1474
asbag56
(g77
g58
NtRp1475
(dp1476
g61
(dp1477
g88
g89
ssg70
g1466
sg63
(lp1478
S':'
asbag56
(g77
g58
NtRp1479
(dp1480
g61
(dp1481
sg70
g1466
sg63
(lp1482
g56
(g57
g58
NtRp1483
(dp1484
g61
(dp1485
g69
I4
ssg70
g1479
sg63
(lp1486
S'hard'
p1487
asbasbasbag56
(g72
g58
NtRp1488
(dp1489
g61
(dp1490
sg70
g871
sg63
(lp1491
g56
(g77
g58
NtRp1492
(dp1493
g61
(dp1494
g81
g82
ssg70
g1488
sg63
(lp1495
S'web2py_original_uri'
p1496
asbag56
(g77
g58
NtRp1497
(dp1498
g61
(dp1499
g88
g89
ssg70
g1488
sg63
(lp1500
S':'
asbag56
(g77
g58
NtRp1501
(dp1502
g61
(dp1503
sg70
g1488
sg63
(lp1504
g56
(g57
g58
NtRp1505
(dp1506
g61
(dp1507
g69
I4
ssg70
g1501
sg63
(lp1508
g1249
asbasbasbag56
(g72
g58
NtRp1509
(dp1510
g61
(dp1511
sg70
g871
sg63
(lp1512
g56
(g77
g58
NtRp1513
(dp1514
g61
(dp1515
g81
g82
ssg70
g1509
sg63
(lp1516
S'web2py_path'
p1517
asbag56
(g77
g58
NtRp1518
(dp1519
g61
(dp1520
g88
g89
ssg70
g1509
sg63
(lp1521
S':'
asbag56
(g77
g58
NtRp1522
(dp1523
g61
(dp1524
sg70
g1509
sg63
(lp1525
g56
(g57
g58
NtRp1526
(dp1527
g61
(dp1528
g69
I4
ssg70
g1522
sg63
(lp1529
g918
asbasbasbag56
(g72
g58
NtRp1530
(dp1531
g61
(dp1532
sg70
g871
sg63
(lp1533
g56
(g77
g58
NtRp1534
(dp1535
g61
(dp1536
g81
g82
ssg70
g1530
sg63
(lp1537
S'web2py_version'
p1538
asbag56
(g77
g58
NtRp1539
(dp1540
g61
(dp1541
g88
g89
ssg70
g1530
sg63
(lp1542
S':'
asbag56
(g77
g58
NtRp1543
(dp1544
g61
(dp1545
sg70
g1530
sg63
(lp1546
g56
(g57
g58
NtRp1547
(dp1548
g61
(dp1549
g69
I4
ssg70
g1543
sg63
(lp1550
g56
(g65
g58
NtRp1551
(dp1552
g61
(dp1553
g69
I3
ssg70
Nsg63
(lp1554
g56
(g72
g58
NtRp1555
(dp1556
g61
(dp1557
sg70
g1551
sg63
(lp1558
g56
(g77
g58
NtRp1559
(dp1560
g61
(dp1561
sg70
g1555
sg63
(lp1562
g56
(g57
g58
NtRp1563
(dp1564
g61
(dp1565
g69
I3
ssg70
g1559
sg63
(lp1566
S'1'
asbasbasbag56
(g72
g58
NtRp1567
(dp1568
g61
(dp1569
sg70
g1551
sg63
(lp1570
g56
(g77
g58
NtRp1571
(dp1572
g61
(dp1573
sg70
g1567
sg63
(lp1574
g56
(g57
g58
NtRp1575
(dp1576
g61
(dp1577
g69
I3
ssg70
g1571
sg63
(lp1578
S'99'
p1579
asbasbasbag56
(g72
g58
NtRp1580
(dp1581
g61
(dp1582
sg70
g1551
sg63
(lp1583
g56
(g77
g58
NtRp1584
(dp1585
g61
(dp1586
sg70
g1580
sg63
(lp1587
g56
(g57
g58
NtRp1588
(dp1589
g61
(dp1590
g69
I3
ssg70
g1584
sg63
(lp1591
S'2'
asbasbasbag56
(g72
g58
NtRp1592
(dp1593
g61
(dp1594
sg70
g1551
sg63
(lp1595
g56
(g77
g58
NtRp1596
(dp1597
g61
(dp1598
sg70
g1592
sg63
(lp1599
g56
(g57
g58
NtRp1600
(dp1601
g61
(dp1602
g69
I3
ssg70
g1596
sg63
(lp1603
S'datetime.datetime(2011, 9, 26, 6, 55, 33)'
p1604
asbasbasbag56
(g72
g58
NtRp1605
(dp1606
g61
(dp1607
sg70
g1551
sg63
(lp1608
g56
(g77
g58
NtRp1609
(dp1610
g61
(dp1611
sg70
g1605
sg63
(lp1612
g56
(g57
g58
NtRp1613
(dp1614
g61
(dp1615
g69
I3
ssg70
g1609
sg63
(lp1616
S'stable'
p1617
asbasbasbasbasbasbasbag56
(g72
g58
NtRp1618
(dp1619
g61
(dp1620
sg70
g871
sg63
(lp1621
g56
(g77
g58
NtRp1622
(dp1623
g61
(dp1624
g81
g82
ssg70
g1618
sg63
(lp1625
S'wsgi_errors'
p1626
asbag56
(g77
g58
NtRp1627
(dp1628
g61
(dp1629
g88
g89
ssg70
g1618
sg63
(lp1630
S':'
asbag56
(g77
g58
NtRp1631
(dp1632
g61
(dp1633
sg70
g1618
sg63
(lp1634
g56
(g57
g58
NtRp1635
(dp1636
g61
(dp1637
g69
I4
ssg70
g1631
sg63
(lp1638
S"<open file '<stderr>', mode 'w' at 0x7f80c77741e0>"
p1639
asbasbasbag56
(g72
g58
NtRp1640
(dp1641
g61
(dp1642
sg70
g871
sg63
(lp1643
g56
(g77
g58
NtRp1644
(dp1645
g61
(dp1646
g81
g82
ssg70
g1640
sg63
(lp1647
S'wsgi_file_wrapper'
p1648
asbag56
(g77
g58
NtRp1649
(dp1650
g61
(dp1651
g88
g89
ssg70
g1640
sg63
(lp1652
S':'
asbag56
(g77
g58
NtRp1653
(dp1654
g61
(dp1655
sg70
g1640
sg63
(lp1656
g56
(g57
g58
NtRp1657
(dp1658
g61
(dp1659
g69
I4
ssg70
g1653
sg63
(lp1660
S'<class wsgiref.util.FileWrapper at 0x2789590>'
p1661
asbasbasbag56
(g72
g58
NtRp1662
(dp1663
g61
(dp1664
sg70
g871
sg63
(lp1665
g56
(g77
g58
NtRp1666
(dp1667
g61
(dp1668
g81
g82
ssg70
g1662
sg63
(lp1669
S'wsgi_input'
p1670
asbag56
(g77
g58
NtRp1671
(dp1672
g61
(dp1673
g88
g89
ssg70
g1662
sg63
(lp1674
S':'
asbag56
(g77
g58
NtRp1675
(dp1676
g61
(dp1677
sg70
g1662
sg63
(lp1678
g56
(g57
g58
NtRp1679
(dp1680
g61
(dp1681
g69
I4
ssg70
g1675
sg63
(lp1682
S'<socket._fileobject object at 0x2d0f750>'
p1683
asbasbasbag56
(g72
g58
NtRp1684
(dp1685
g61
(dp1686
sg70
g871
sg63
(lp1687
g56
(g77
g58
NtRp1688
(dp1689
g61
(dp1690
g81
g82
ssg70
g1684
sg63
(lp1691
S'wsgi_multiprocess'
p1692
asbag56
(g77
g58
NtRp1693
(dp1694
g61
(dp1695
g88
g89
ssg70
g1684
sg63
(lp1696
S':'
asbag56
(g77
g58
NtRp1697
(dp1698
g61
(dp1699
sg70
g1684
sg63
(lp1700
g56
(g57
g58
NtRp1701
(dp1702
g61
(dp1703
g69
I4
ssg70
g1697
sg63
(lp1704
g99
asbasbasbag56
(g72
g58
NtRp1705
(dp1706
g61
(dp1707
sg70
g871
sg63
(lp1708
g56
(g77
g58
NtRp1709
(dp1710
g61
(dp1711
g81
g82
ssg70
g1705
sg63
(lp1712
S'wsgi_multithread'
p1713
asbag56
(g77
g58
NtRp1714
(dp1715
g61
(dp1716
g88
g89
ssg70
g1705
sg63
(lp1717
S':'
asbag56
(g77
g58
NtRp1718
(dp1719
g61
(dp1720
sg70
g1705
sg63
(lp1721
g56
(g57
g58
NtRp1722
(dp1723
g61
(dp1724
g69
I4
ssg70
g1718
sg63
(lp1725
S'True'
p1726
asbasbasbag56
(g72
g58
NtRp1727
(dp1728
g61
(dp1729
sg70
g871
sg63
(lp1730
g56
(g77
g58
NtRp1731
(dp1732
g61
(dp1733
g81
g82
ssg70
g1727
sg63
(lp1734
S'wsgi_run_once'
p1735
asbag56
(g77
g58
NtRp1736
(dp1737
g61
(dp1738
g88
g89
ssg70
g1727
sg63
(lp1739
S':'
asbag56
(g77
g58
NtRp1740
(dp1741
g61
(dp1742
sg70
g1727
sg63
(lp1743
g56
(g57
g58
NtRp1744
(dp1745
g61
(dp1746
g69
I4
ssg70
g1740
sg63
(lp1747
g99
asbasbasbag56
(g72
g58
NtRp1748
(dp1749
g61
(dp1750
sg70
g871
sg63
(lp1751
g56
(g77
g58
NtRp1752
(dp1753
g61
(dp1754
g81
g82
ssg70
g1748
sg63
(lp1755
S'wsgi_url_scheme'
p1756
asbag56
(g77
g58
NtRp1757
(dp1758
g61
(dp1759
g88
g89
ssg70
g1748
sg63
(lp1760
S':'
asbag56
(g77
g58
NtRp1761
(dp1762
g61
(dp1763
sg70
g1748
sg63
(lp1764
g56
(g57
g58
NtRp1765
(dp1766
g61
(dp1767
g69
I4
ssg70
g1761
sg63
(lp1768
S'http'
p1769
asbasbasbag56
(g72
g58
NtRp1770
(dp1771
g61
(dp1772
sg70
g871
sg63
(lp1773
g56
(g77
g58
NtRp1774
(dp1775
g61
(dp1776
g81
g82
ssg70
g1770
sg63
(lp1777
S'wsgi_version'
p1778
asbag56
(g77
g58
NtRp1779
(dp1780
g61
(dp1781
g88
g89
ssg70
g1770
sg63
(lp1782
S':'
asbag56
(g77
g58
NtRp1783
(dp1784
g61
(dp1785
sg70
g1770
sg63
(lp1786
g56
(g57
g58
NtRp1787
(dp1788
g61
(dp1789
g69
I4
ssg70
g1783
sg63
(lp1790
g56
(g65
g58
NtRp1791
(dp1792
g61
(dp1793
g69
I3
ssg70
Nsg63
(lp1794
g56
(g72
g58
NtRp1795
(dp1796
g61
(dp1797
sg70
g1791
sg63
(lp1798
g56
(g77
g58
NtRp1799
(dp1800
g61
(dp1801
sg70
g1795
sg63
(lp1802
g56
(g57
g58
NtRp1803
(dp1804
g61
(dp1805
g69
I3
ssg70
g1799
sg63
(lp1806
S'1'
asbasbasbag56
(g72
g58
NtRp1807
(dp1808
g61
(dp1809
sg70
g1791
sg63
(lp1810
g56
(g77
g58
NtRp1811
(dp1812
g61
(dp1813
sg70
g1807
sg63
(lp1814
g56
(g57
g58
NtRp1815
(dp1816
g61
(dp1817
g69
I3
ssg70
g1811
sg63
(lp1818
S'0'
asbasbasbasbasbasbasbasbasbasbasbag56
(g72
g58
NtRp1819
(dp1820
g61
(dp1821
sg70
g66
sg63
(lp1822
g56
(g77
g58
NtRp1823
(dp1824
g61
(dp1825
g81
g82
ssg70
g1819
sg63
(lp1826
S'extension'
p1827
asbag56
(g77
g58
NtRp1828
(dp1829
g61
(dp1830
g88
g89
ssg70
g1819
sg63
(lp1831
S':'
asbag56
(g77
g58
NtRp1832
(dp1833
g61
(dp1834
sg70
g1819
sg63
(lp1835
g56
(g57
g58
NtRp1836
(dp1837
g61
(dp1838
g69
I5
ssg70
g1832
sg63
(lp1839
S'html'
p1840
asbasbasbag56
(g72
g58
NtRp1841
(dp1842
g61
(dp1843
sg70
g66
sg63
(lp1844
g56
(g77
g58
NtRp1845
(dp1846
g61
(dp1847
g81
g82
ssg70
g1841
sg63
(lp1848
S'folder'
p1849
asbag56
(g77
g58
NtRp1850
(dp1851
g61
(dp1852
g88
g89
ssg70
g1841
sg63
(lp1853
S':'
asbag56
(g77
g58
NtRp1854
(dp1855
g61
(dp1856
sg70
g1841
sg63
(lp1857
g56
(g57
g58
NtRp1858
(dp1859
g61
(dp1860
g69
I5
ssg70
g1854
sg63
(lp1861
S'/windows/Users/Thomas/Dropbox/appz/2011/GAE/ddl-lagoon/applications/ddlagoon/'
p1862
asbasbasbag56
(g72
g58
NtRp1863
(dp1864
g61
(dp1865
sg70
g66
sg63
(lp1866
g56
(g77
g58
NtRp1867
(dp1868
g61
(dp1869
g81
g82
ssg70
g1863
sg63
(lp1870
S'function'
p1871
asbag56
(g77
g58
NtRp1872
(dp1873
g61
(dp1874
g88
g89
ssg70
g1863
sg63
(lp1875
S':'
asbag56
(g77
g58
NtRp1876
(dp1877
g61
(dp1878
sg70
g1863
sg63
(lp1879
g56
(g57
g58
NtRp1880
(dp1881
g61
(dp1882
g69
I5
ssg70
g1876
sg63
(lp1883
S'get'
p1884
asbasbasbag56
(g72
g58
NtRp1885
(dp1886
g61
(dp1887
sg70
g66
sg63
(lp1888
g56
(g77
g58
NtRp1889
(dp1890
g61
(dp1891
g81
g82
ssg70
g1885
sg63
(lp1892
S'get_vars'
p1893
asbag56
(g77
g58
NtRp1894
(dp1895
g61
(dp1896
g88
g89
ssg70
g1885
sg63
(lp1897
S':'
asbag56
(g77
g58
NtRp1898
(dp1899
g61
(dp1900
sg70
g1885
sg63
(lp1901
g56
(g57
g58
NtRp1902
(dp1903
g61
(dp1904
g69
I5
ssg70
g1898
sg63
(lp1905
g56
(g65
g58
NtRp1906
(dp1907
g61
(dp1908
g69
I4
ssg70
Nsg63
(lp1909
sbasbasbasbag56
(g72
g58
NtRp1910
(dp1911
g61
(dp1912
sg70
g66
sg63
(lp1913
g56
(g77
g58
NtRp1914
(dp1915
g61
(dp1916
g81
g82
ssg70
g1910
sg63
(lp1917
S'global_settings'
p1918
asbag56
(g77
g58
NtRp1919
(dp1920
g61
(dp1921
g88
g89
ssg70
g1910
sg63
(lp1922
S':'
asbag56
(g77
g58
NtRp1923
(dp1924
g61
(dp1925
sg70
g1910
sg63
(lp1926
g56
(g57
g58
NtRp1927
(dp1928
g61
(dp1929
g69
I5
ssg70
g1923
sg63
(lp1930
g56
(g65
g58
NtRp1931
(dp1932
g61
(dp1933
g69
I4
ssg70
Nsg63
(lp1934
g56
(g72
g58
NtRp1935
(dp1936
g61
(dp1937
sg70
g1931
sg63
(lp1938
g56
(g77
g58
NtRp1939
(dp1940
g61
(dp1941
g81
g82
ssg70
g1935
sg63
(lp1942
g883
asbag56
(g77
g58
NtRp1943
(dp1944
g61
(dp1945
g88
g89
ssg70
g1935
sg63
(lp1946
S':'
asbag56
(g77
g58
NtRp1947
(dp1948
g61
(dp1949
sg70
g1935
sg63
(lp1950
g56
(g57
g58
NtRp1951
(dp1952
g61
(dp1953
g69
I4
ssg70
g1947
sg63
(lp1954
S"set(['/windows/Users/Thomas/Dropbox/appz/2011/GAE/ddl-lagoon/applications/ddlagoon/', '/windows/Users/Thomas/Dropbox/appz/2011/GAE/ddl-lagoon/applications/welcome/', '/windows/Users/Thomas/Dropbox/appz/2011/GAE/ddl-lagoon/applications/admin/'])"
p1955
asbasbasbag56
(g72
g58
NtRp1956
(dp1957
g61
(dp1958
sg70
g1931
sg63
(lp1959
g56
(g77
g58
NtRp1960
(dp1961
g61
(dp1962
g81
g82
ssg70
g1956
sg63
(lp1963
g905
asbag56
(g77
g58
NtRp1964
(dp1965
g61
(dp1966
g88
g89
ssg70
g1956
sg63
(lp1967
S':'
asbag56
(g77
g58
NtRp1968
(dp1969
g61
(dp1970
sg70
g1956
sg63
(lp1971
g56
(g57
g58
NtRp1972
(dp1973
g61
(dp1974
g69
I4
ssg70
g1968
sg63
(lp1975
g918
asbasbasbag56
(g72
g58
NtRp1976
(dp1977
g61
(dp1978
sg70
g1931
sg63
(lp1979
g56
(g77
g58
NtRp1980
(dp1981
g61
(dp1982
g81
g82
ssg70
g1976
sg63
(lp1983
g927
asbag56
(g77
g58
NtRp1984
(dp1985
g61
(dp1986
g88
g89
ssg70
g1976
sg63
(lp1987
S':'
asbag56
(g77
g58
NtRp1988
(dp1989
g61
(dp1990
sg70
g1976
sg63
(lp1991
g56
(g57
g58
NtRp1992
(dp1993
g61
(dp1994
g69
I4
ssg70
g1988
sg63
(lp1995
g56
(g65
g58
NtRp1996
(dp1997
g61
(dp1998
g69
I3
ssg70
Nsg63
(lp1999
sbasbasbasbag56
(g72
g58
NtRp2000
(dp2001
g61
(dp2002
sg70
g1931
sg63
(lp2003
g56
(g77
g58
NtRp2004
(dp2005
g61
(dp2006
g81
g82
ssg70
g2000
sg63
(lp2007
g952
asbag56
(g77
g58
NtRp2008
(dp2009
g61
(dp2010
g88
g89
ssg70
g2000
sg63
(lp2011
S':'
asbag56
(g77
g58
NtRp2012
(dp2013
g61
(dp2014
sg70
g2000
sg63
(lp2015
g56
(g57
g58
NtRp2016
(dp2017
g61
(dp2018
g69
I4
ssg70
g2012
sg63
(lp2019
S"<Values at 0x2d4df38: {'verbose': False, 'ip': '127.0.0.1', 'shutdown_timeout': 5, 'taskbar': False, 'nocron': False, 'pid_filename': 'httpserver.pid', 'maxthreads': None, 'softcron': False, 'server_name': 'VPCF22AJ', 'bpython': False, 'nogui': False, 'port': 8000, 'extcron': False, 'debuglevel': 30, 'test': None, 'folder': '/windows/Users/Thomas/Dropbox/appz/2011/GAE/ddl-lagoon', 'config': '', 'import_models': False, 'winservice': '', 'shell': None, 'run': '', 'log_filename': 'httpserver.log', 'args': [''], 'ssl_ca_certificate': None, 'scheduler': None, 'profiler_filename': None, 'ssl_private_key': '', 'password': 'admin', 'request_queue_size': 5, 'ssl_certificate': '', 'cronjob': False, 'plain': False, 'quiet': False, 'interfaces': None, 'minthreads': None, 'timeout': 10, 'numthreads': None, 'nobanner': False}>"
p2020
asbasbasbag56
(g72
g58
NtRp2021
(dp2022
g61
(dp2023
sg70
g1931
sg63
(lp2024
g56
(g77
g58
NtRp2025
(dp2026
g61
(dp2027
g81
g82
ssg70
g2021
sg63
(lp2028
g974
asbag56
(g77
g58
NtRp2029
(dp2030
g61
(dp2031
g88
g89
ssg70
g2021
sg63
(lp2032
S':'
asbag56
(g77
g58
NtRp2033
(dp2034
g61
(dp2035
sg70
g2021
sg63
(lp2036
g56
(g57
g58
NtRp2037
(dp2038
g61
(dp2039
g69
I4
ssg70
g2033
sg63
(lp2040
S'set([])'
p2041
asbasbasbag56
(g72
g58
NtRp2042
(dp2043
g61
(dp2044
sg70
g1931
sg63
(lp2045
g56
(g77
g58
NtRp2046
(dp2047
g61
(dp2048
g81
g82
ssg70
g2042
sg63
(lp2049
g996
asbag56
(g77
g58
NtRp2050
(dp2051
g61
(dp2052
g88
g89
ssg70
g2042
sg63
(lp2053
S':'
asbag56
(g77
g58
NtRp2054
(dp2055
g61
(dp2056
sg70
g2042
sg63
(lp2057
g56
(g57
g58
NtRp2058
(dp2059
g61
(dp2060
g69
I4
ssg70
g2054
sg63
(lp2061
g99
asbasbasbag56
(g72
g58
NtRp2062
(dp2063
g61
(dp2064
sg70
g1931
sg63
(lp2065
g56
(g77
g58
NtRp2066
(dp2067
g61
(dp2068
g81
g82
ssg70
g2062
sg63
(lp2069
g1017
asbag56
(g77
g58
NtRp2070
(dp2071
g61
(dp2072
g88
g89
ssg70
g2062
sg63
(lp2073
S':'
asbag56
(g77
g58
NtRp2074
(dp2075
g61
(dp2076
sg70
g2062
sg63
(lp2077
g56
(g57
g58
NtRp2078
(dp2079
g61
(dp2080
g69
I4
ssg70
g2074
sg63
(lp2081
g1030
asbasbasbag56
(g72
g58
NtRp2082
(dp2083
g61
(dp2084
sg70
g1931
sg63
(lp2085
g56
(g77
g58
NtRp2086
(dp2087
g61
(dp2088
g81
g82
ssg70
g2082
sg63
(lp2089
g1215
asbag56
(g77
g58
NtRp2090
(dp2091
g61
(dp2092
g88
g89
ssg70
g2082
sg63
(lp2093
S':'
asbag56
(g77
g58
NtRp2094
(dp2095
g61
(dp2096
sg70
g2082
sg63
(lp2097
g56
(g57
g58
NtRp2098
(dp2099
g61
(dp2100
g69
I4
ssg70
g2094
sg63
(lp2101
g99
asbasbasbag56
(g72
g58
NtRp2102
(dp2103
g61
(dp2104
sg70
g1931
sg63
(lp2105
g56
(g77
g58
NtRp2106
(dp2107
g61
(dp2108
g81
g82
ssg70
g2102
sg63
(lp2109
g1474
asbag56
(g77
g58
NtRp2110
(dp2111
g61
(dp2112
g88
g89
ssg70
g2102
sg63
(lp2113
S':'
asbag56
(g77
g58
NtRp2114
(dp2115
g61
(dp2116
sg70
g2102
sg63
(lp2117
g56
(g57
g58
NtRp2118
(dp2119
g61
(dp2120
g69
I4
ssg70
g2114
sg63
(lp2121
g1487
asbasbasbag56
(g72
g58
NtRp2122
(dp2123
g61
(dp2124
sg70
g1931
sg63
(lp2125
g56
(g77
g58
NtRp2126
(dp2127
g61
(dp2128
g81
g82
ssg70
g2122
sg63
(lp2129
g1538
asbag56
(g77
g58
NtRp2130
(dp2131
g61
(dp2132
g88
g89
ssg70
g2122
sg63
(lp2133
S':'
asbag56
(g77
g58
NtRp2134
(dp2135
g61
(dp2136
sg70
g2122
sg63
(lp2137
g56
(g57
g58
NtRp2138
(dp2139
g61
(dp2140
g69
I4
ssg70
g2134
sg63
(lp2141
g56
(g65
g58
NtRp2142
(dp2143
g61
(dp2144
g69
I3
ssg70
Nsg63
(lp2145
g56
(g72
g58
NtRp2146
(dp2147
g61
(dp2148
sg70
g2142
sg63
(lp2149
g56
(g77
g58
NtRp2150
(dp2151
g61
(dp2152
sg70
g2146
sg63
(lp2153
g56
(g57
g58
NtRp2154
(dp2155
g61
(dp2156
g69
I3
ssg70
g2150
sg63
(lp2157
S'1'
asbasbasbag56
(g72
g58
NtRp2158
(dp2159
g61
(dp2160
sg70
g2142
sg63
(lp2161
g56
(g77
g58
NtRp2162
(dp2163
g61
(dp2164
sg70
g2158
sg63
(lp2165
g56
(g57
g58
NtRp2166
(dp2167
g61
(dp2168
g69
I3
ssg70
g2162
sg63
(lp2169
S'99'
p2170
asbasbasbag56
(g72
g58
NtRp2171
(dp2172
g61
(dp2173
sg70
g2142
sg63
(lp2174
g56
(g77
g58
NtRp2175
(dp2176
g61
(dp2177
sg70
g2171
sg63
(lp2178
g56
(g57
g58
NtRp2179
(dp2180
g61
(dp2181
g69
I3
ssg70
g2175
sg63
(lp2182
S'2'
asbasbasbag56
(g72
g58
NtRp2183
(dp2184
g61
(dp2185
sg70
g2142
sg63
(lp2186
g56
(g77
g58
NtRp2187
(dp2188
g61
(dp2189
sg70
g2183
sg63
(lp2190
g56
(g57
g58
NtRp2191
(dp2192
g61
(dp2193
g69
I3
ssg70
g2187
sg63
(lp2194
S'datetime.datetime(2011, 9, 26, 6, 55, 33)'
p2195
asbasbasbag56
(g72
g58
NtRp2196
(dp2197
g61
(dp2198
sg70
g2142
sg63
(lp2199
g56
(g77
g58
NtRp2200
(dp2201
g61
(dp2202
sg70
g2196
sg63
(lp2203
g56
(g57
g58
NtRp2204
(dp2205
g61
(dp2206
g69
I3
ssg70
g2200
sg63
(lp2207
g1617
asbasbasbasbasbasbasbasbasbasbasbag56
(g72
g58
NtRp2208
(dp2209
g61
(dp2210
sg70
g66
sg63
(lp2211
g56
(g77
g58
NtRp2212
(dp2213
g61
(dp2214
g81
g82
ssg70
g2208
sg63
(lp2215
S'is_https'
p2216
asbag56
(g77
g58
NtRp2217
(dp2218
g61
(dp2219
g88
g89
ssg70
g2208
sg63
(lp2220
S':'
asbag56
(g77
g58
NtRp2221
(dp2222
g61
(dp2223
sg70
g2208
sg63
(lp2224
g56
(g57
g58
NtRp2225
(dp2226
g61
(dp2227
g69
I5
ssg70
g2221
sg63
(lp2228
g99
asbasbasbag56
(g72
g58
NtRp2229
(dp2230
g61
(dp2231
sg70
g66
sg63
(lp2232
g56
(g77
g58
NtRp2233
(dp2234
g61
(dp2235
g81
g82
ssg70
g2229
sg63
(lp2236
S'is_local'
p2237
asbag56
(g77
g58
NtRp2238
(dp2239
g61
(dp2240
g88
g89
ssg70
g2229
sg63
(lp2241
S':'
asbag56
(g77
g58
NtRp2242
(dp2243
g61
(dp2244
sg70
g2229
sg63
(lp2245
g56
(g57
g58
NtRp2246
(dp2247
g61
(dp2248
g69
I5
ssg70
g2242
sg63
(lp2249
g1726
asbasbasbag56
(g72
g58
NtRp2250
(dp2251
g61
(dp2252
sg70
g66
sg63
(lp2253
g56
(g77
g58
NtRp2254
(dp2255
g61
(dp2256
g81
g82
ssg70
g2250
sg63
(lp2257
S'is_restful'
p2258
asbag56
(g77
g58
NtRp2259
(dp2260
g61
(dp2261
g88
g89
ssg70
g2250
sg63
(lp2262
S':'
asbag56
(g77
g58
NtRp2263
(dp2264
g61
(dp2265
sg70
g2250
sg63
(lp2266
g56
(g57
g58
NtRp2267
(dp2268
g61
(dp2269
g69
I5
ssg70
g2263
sg63
(lp2270
g99
asbasbasbag56
(g72
g58
NtRp2271
(dp2272
g61
(dp2273
sg70
g66
sg63
(lp2274
g56
(g77
g58
NtRp2275
(dp2276
g61
(dp2277
g81
g82
ssg70
g2271
sg63
(lp2278
S'now'
p2279
asbag56
(g77
g58
NtRp2280
(dp2281
g61
(dp2282
g88
g89
ssg70
g2271
sg63
(lp2283
S':'
asbag56
(g77
g58
NtRp2284
(dp2285
g61
(dp2286
sg70
g2271
sg63
(lp2287
g56
(g57
g58
NtRp2288
(dp2289
g61
(dp2290
g69
I5
ssg70
g2284
sg63
(lp2291
S'datetime.datetime(2011, 10, 26, 22, 34, 3, 841231)'
p2292
asbasbasbag56
(g72
g58
NtRp2293
(dp2294
g61
(dp2295
sg70
g66
sg63
(lp2296
g56
(g77
g58
NtRp2297
(dp2298
g61
(dp2299
g81
g82
ssg70
g2293
sg63
(lp2300
S'post_vars'
p2301
asbag56
(g77
g58
NtRp2302
(dp2303
g61
(dp2304
g88
g89
ssg70
g2293
sg63
(lp2305
S':'
asbag56
(g77
g58
NtRp2306
(dp2307
g61
(dp2308
sg70
g2293
sg63
(lp2309
g56
(g57
g58
NtRp2310
(dp2311
g61
(dp2312
g69
I5
ssg70
g2306
sg63
(lp2313
g56
(g65
g58
NtRp2314
(dp2315
g61
(dp2316
g69
I4
ssg70
Nsg63
(lp2317
sbasbasbasbag56
(g72
g58
NtRp2318
(dp2319
g61
(dp2320
sg70
g66
sg63
(lp2321
g56
(g77
g58
NtRp2322
(dp2323
g61
(dp2324
g81
g82
ssg70
g2318
sg63
(lp2325
S'raw_args'
p2326
asbag56
(g77
g58
NtRp2327
(dp2328
g61
(dp2329
g88
g89
ssg70
g2318
sg63
(lp2330
S':'
asbag56
(g77
g58
NtRp2331
(dp2332
g61
(dp2333
sg70
g2318
sg63
(lp2334
g56
(g57
g58
NtRp2335
(dp2336
g61
(dp2337
g69
I5
ssg70
g2331
sg63
(lp2338
S'xml/ddl/1/2'
p2339
asbasbasbag56
(g72
g58
NtRp2340
(dp2341
g61
(dp2342
sg70
g66
sg63
(lp2343
g56
(g77
g58
NtRp2344
(dp2345
g61
(dp2346
g81
g82
ssg70
g2340
sg63
(lp2347
S'url'
p2348
asbag56
(g77
g58
NtRp2349
(dp2350
g61
(dp2351
g88
g89
ssg70
g2340
sg63
(lp2352
S':'
asbag56
(g77
g58
NtRp2353
(dp2354
g61
(dp2355
sg70
g2340
sg63
(lp2356
g56
(g57
g58
NtRp2357
(dp2358
g61
(dp2359
g69
I5
ssg70
g2353
sg63
(lp2360
S'/ddlagoon/ddl/get/xml/ddl/1/2'
p2361
asbasbasbag56
(g72
g58
NtRp2362
(dp2363
g61
(dp2364
sg70
g66
sg63
(lp2365
g56
(g77
g58
NtRp2366
(dp2367
g61
(dp2368
g81
g82
ssg70
g2362
sg63
(lp2369
S'utcnow'
p2370
asbag56
(g77
g58
NtRp2371
(dp2372
g61
(dp2373
g88
g89
ssg70
g2362
sg63
(lp2374
S':'
asbag56
(g77
g58
NtRp2375
(dp2376
g61
(dp2377
sg70
g2362
sg63
(lp2378
g56
(g57
g58
NtRp2379
(dp2380
g61
(dp2381
g69
I5
ssg70
g2375
sg63
(lp2382
S'datetime.datetime(2011, 10, 26, 21, 34, 3, 841247)'
p2383
asbasbasbag56
(g72
g58
NtRp2384
(dp2385
g61
(dp2386
sg70
g66
sg63
(lp2387
g56
(g77
g58
NtRp2388
(dp2389
g61
(dp2390
g81
g82
ssg70
g2384
sg63
(lp2391
S'uuid'
p2392
asbag56
(g77
g58
NtRp2393
(dp2394
g61
(dp2395
g88
g89
ssg70
g2384
sg63
(lp2396
S':'
asbag56
(g77
g58
NtRp2397
(dp2398
g61
(dp2399
sg70
g2384
sg63
(lp2400
g56
(g57
g58
NtRp2401
(dp2402
g61
(dp2403
g69
I5
ssg70
g2397
sg63
(lp2404
S'ddlagoon/127.0.0.1.2011-10-26.22-34-03.33ad01cb-5a9c-4529-98ef-1d274b6085d9'
p2405
asbasbasbag56
(g72
g58
NtRp2406
(dp2407
g61
(dp2408
sg70
g66
sg63
(lp2409
g56
(g77
g58
NtRp2410
(dp2411
g61
(dp2412
g81
g82
ssg70
g2406
sg63
(lp2413
S'vars'
p2414
asbag56
(g77
g58
NtRp2415
(dp2416
g61
(dp2417
g88
g89
ssg70
g2406
sg63
(lp2418
S':'
asbag56
(g77
g58
NtRp2419
(dp2420
g61
(dp2421
sg70
g2406
sg63
(lp2422
g56
(g57
g58
NtRp2423
(dp2424
g61
(dp2425
g69
I5
ssg70
g2419
sg63
(lp2426
g56
(g65
g58
NtRp2427
(dp2428
g61
(dp2429
g69
I4
ssg70
Nsg63
(lp2430
sbasbasbasbag56
(g72
g58
NtRp2431
(dp2432
g61
(dp2433
sg70
g66
sg63
(lp2434
g56
(g77
g58
NtRp2435
(dp2436
g61
(dp2437
g81
g82
ssg70
g2431
sg63
(lp2438
S'wsgi'
p2439
asbag56
(g77
g58
NtRp2440
(dp2441
g61
(dp2442
g88
g89
ssg70
g2431
sg63
(lp2443
S':'
asbag56
(g77
g58
NtRp2444
(dp2445
g61
(dp2446
sg70
g2431
sg63
(lp2447
g56
(g57
g58
NtRp2448
(dp2449
g61
(dp2450
g69
I5
ssg70
g2444
sg63
(lp2451
g56
(g65
g58
NtRp2452
(dp2453
g61
(dp2454
g69
I4
ssg70
Nsg63
(lp2455
g56
(g72
g58
NtRp2456
(dp2457
g61
(dp2458
sg70
g2452
sg63
(lp2459
g56
(g77
g58
NtRp2460
(dp2461
g61
(dp2462
g81
g82
ssg70
g2456
sg63
(lp2463
S'environ'
p2464
asbag56
(g77
g58
NtRp2465
(dp2466
g61
(dp2467
g88
g89
ssg70
g2456
sg63
(lp2468
S':'
asbag56
(g77
g58
NtRp2469
(dp2470
g61
(dp2471
sg70
g2456
sg63
(lp2472
g56
(g57
g58
NtRp2473
(dp2474
g61
(dp2475
g69
I4
ssg70
g2469
sg63
(lp2476
g56
(g65
g58
NtRp2477
(dp2478
g61
(dp2479
g69
I3
ssg70
Nsg63
(lp2480
g56
(g72
g58
NtRp2481
(dp2482
g61
(dp2483
sg70
g2477
sg63
(lp2484
g56
(g77
g58
NtRp2485
(dp2486
g61
(dp2487
g81
g82
ssg70
g2481
sg63
(lp2488
S'HTTP_ACCEPT'
p2489
asbag56
(g77
g58
NtRp2490
(dp2491
g61
(dp2492
g88
g89
ssg70
g2481
sg63
(lp2493
S':'
asbag56
(g77
g58
NtRp2494
(dp2495
g61
(dp2496
sg70
g2481
sg63
(lp2497
g56
(g57
g58
NtRp2498
(dp2499
g61
(dp2500
g69
I3
ssg70
g2494
sg63
(lp2501
g1052
asbasbasbag56
(g72
g58
NtRp2502
(dp2503
g61
(dp2504
sg70
g2477
sg63
(lp2505
g56
(g77
g58
NtRp2506
(dp2507
g61
(dp2508
g81
g82
ssg70
g2502
sg63
(lp2509
S'HTTP_ACCEPT_CHARSET'
p2510
asbag56
(g77
g58
NtRp2511
(dp2512
g61
(dp2513
g88
g89
ssg70
g2502
sg63
(lp2514
S':'
asbag56
(g77
g58
NtRp2515
(dp2516
g61
(dp2517
sg70
g2502
sg63
(lp2518
g56
(g57
g58
NtRp2519
(dp2520
g61
(dp2521
g69
I3
ssg70
g2515
sg63
(lp2522
g1074
asbasbasbag56
(g72
g58
NtRp2523
(dp2524
g61
(dp2525
sg70
g2477
sg63
(lp2526
g56
(g77
g58
NtRp2527
(dp2528
g61
(dp2529
g81
g82
ssg70
g2523
sg63
(lp2530
S'HTTP_ACCEPT_ENCODING'
p2531
asbag56
(g77
g58
NtRp2532
(dp2533
g61
(dp2534
g88
g89
ssg70
g2523
sg63
(lp2535
S':'
asbag56
(g77
g58
NtRp2536
(dp2537
g61
(dp2538
sg70
g2523
sg63
(lp2539
g56
(g57
g58
NtRp2540
(dp2541
g61
(dp2542
g69
I3
ssg70
g2536
sg63
(lp2543
g1096
asbasbasbag56
(g72
g58
NtRp2544
(dp2545
g61
(dp2546
sg70
g2477
sg63
(lp2547
g56
(g77
g58
NtRp2548
(dp2549
g61
(dp2550
g81
g82
ssg70
g2544
sg63
(lp2551
S'HTTP_ACCEPT_LANGUAGE'
p2552
asbag56
(g77
g58
NtRp2553
(dp2554
g61
(dp2555
g88
g89
ssg70
g2544
sg63
(lp2556
S':'
asbag56
(g77
g58
NtRp2557
(dp2558
g61
(dp2559
sg70
g2544
sg63
(lp2560
g56
(g57
g58
NtRp2561
(dp2562
g61
(dp2563
g69
I3
ssg70
g2557
sg63
(lp2564
g1118
asbasbasbag56
(g72
g58
NtRp2565
(dp2566
g61
(dp2567
sg70
g2477
sg63
(lp2568
g56
(g77
g58
NtRp2569
(dp2570
g61
(dp2571
g81
g82
ssg70
g2565
sg63
(lp2572
S'HTTP_CONNECTION'
p2573
asbag56
(g77
g58
NtRp2574
(dp2575
g61
(dp2576
g88
g89
ssg70
g2565
sg63
(lp2577
S':'
asbag56
(g77
g58
NtRp2578
(dp2579
g61
(dp2580
sg70
g2565
sg63
(lp2581
g56
(g57
g58
NtRp2582
(dp2583
g61
(dp2584
g69
I3
ssg70
g2578
sg63
(lp2585
g1140
asbasbasbag56
(g72
g58
NtRp2586
(dp2587
g61
(dp2588
sg70
g2477
sg63
(lp2589
g56
(g77
g58
NtRp2590
(dp2591
g61
(dp2592
g81
g82
ssg70
g2586
sg63
(lp2593
S'HTTP_COOKIE'
p2594
asbag56
(g77
g58
NtRp2595
(dp2596
g61
(dp2597
g88
g89
ssg70
g2586
sg63
(lp2598
S':'
asbag56
(g77
g58
NtRp2599
(dp2600
g61
(dp2601
sg70
g2586
sg63
(lp2602
g56
(g57
g58
NtRp2603
(dp2604
g61
(dp2605
g69
I3
ssg70
g2599
sg63
(lp2606
g1162
asbasbasbag56
(g72
g58
NtRp2607
(dp2608
g61
(dp2609
sg70
g2477
sg63
(lp2610
g56
(g77
g58
NtRp2611
(dp2612
g61
(dp2613
g81
g82
ssg70
g2607
sg63
(lp2614
S'HTTP_HOST'
p2615
asbag56
(g77
g58
NtRp2616
(dp2617
g61
(dp2618
g88
g89
ssg70
g2607
sg63
(lp2619
S':'
asbag56
(g77
g58
NtRp2620
(dp2621
g61
(dp2622
sg70
g2607
sg63
(lp2623
g56
(g57
g58
NtRp2624
(dp2625
g61
(dp2626
g69
I3
ssg70
g2620
sg63
(lp2627
g1184
asbasbasbag56
(g72
g58
NtRp2628
(dp2629
g61
(dp2630
sg70
g2477
sg63
(lp2631
g56
(g77
g58
NtRp2632
(dp2633
g61
(dp2634
g81
g82
ssg70
g2628
sg63
(lp2635
S'HTTP_USER_AGENT'
p2636
asbag56
(g77
g58
NtRp2637
(dp2638
g61
(dp2639
g88
g89
ssg70
g2628
sg63
(lp2640
S':'
asbag56
(g77
g58
NtRp2641
(dp2642
g61
(dp2643
sg70
g2628
sg63
(lp2644
g56
(g57
g58
NtRp2645
(dp2646
g61
(dp2647
g69
I3
ssg70
g2641
sg63
(lp2648
g1206
asbasbasbag56
(g72
g58
NtRp2649
(dp2650
g61
(dp2651
sg70
g2477
sg63
(lp2652
g56
(g77
g58
NtRp2653
(dp2654
g61
(dp2655
g81
g82
ssg70
g2649
sg63
(lp2656
S'PATH_INFO'
p2657
asbag56
(g77
g58
NtRp2658
(dp2659
g61
(dp2660
g88
g89
ssg70
g2649
sg63
(lp2661
S':'
asbag56
(g77
g58
NtRp2662
(dp2663
g61
(dp2664
sg70
g2649
sg63
(lp2665
g56
(g57
g58
NtRp2666
(dp2667
g61
(dp2668
g69
I3
ssg70
g2662
sg63
(lp2669
g1249
asbasbasbag56
(g72
g58
NtRp2670
(dp2671
g61
(dp2672
sg70
g2477
sg63
(lp2673
g56
(g77
g58
NtRp2674
(dp2675
g61
(dp2676
g81
g82
ssg70
g2670
sg63
(lp2677
S'QUERY_STRING'
p2678
asbag56
(g77
g58
NtRp2679
(dp2680
g61
(dp2681
g88
g89
ssg70
g2670
sg63
(lp2682
S':'
asbag56
(g77
g58
NtRp2683
(dp2684
g61
(dp2685
sg70
g2670
sg63
(lp2686
g56
(g57
g58
NtRp2687
(dp2688
g61
(dp2689
g69
I3
ssg70
g2683
sg63
(lp2690
S''
asbasbasbag56
(g72
g58
NtRp2691
(dp2692
g61
(dp2693
sg70
g2477
sg63
(lp2694
g56
(g77
g58
NtRp2695
(dp2696
g61
(dp2697
g81
g82
ssg70
g2691
sg63
(lp2698
S'REMOTE_ADDR'
p2699
asbag56
(g77
g58
NtRp2700
(dp2701
g61
(dp2702
g88
g89
ssg70
g2691
sg63
(lp2703
S':'
asbag56
(g77
g58
NtRp2704
(dp2705
g61
(dp2706
sg70
g2691
sg63
(lp2707
g56
(g57
g58
NtRp2708
(dp2709
g61
(dp2710
g69
I3
ssg70
g2704
sg63
(lp2711
g239
asbasbasbag56
(g72
g58
NtRp2712
(dp2713
g61
(dp2714
sg70
g2477
sg63
(lp2715
g56
(g77
g58
NtRp2716
(dp2717
g61
(dp2718
g81
g82
ssg70
g2712
sg63
(lp2719
S'REMOTE_PORT'
p2720
asbag56
(g77
g58
NtRp2721
(dp2722
g61
(dp2723
g88
g89
ssg70
g2712
sg63
(lp2724
S':'
asbag56
(g77
g58
NtRp2725
(dp2726
g61
(dp2727
sg70
g2712
sg63
(lp2728
g56
(g57
g58
NtRp2729
(dp2730
g61
(dp2731
g69
I3
ssg70
g2725
sg63
(lp2732
g1313
asbasbasbag56
(g72
g58
NtRp2733
(dp2734
g61
(dp2735
sg70
g2477
sg63
(lp2736
g56
(g77
g58
NtRp2737
(dp2738
g61
(dp2739
g81
g82
ssg70
g2733
sg63
(lp2740
S'REQUEST_METHOD'
p2741
asbag56
(g77
g58
NtRp2742
(dp2743
g61
(dp2744
g88
g89
ssg70
g2733
sg63
(lp2745
S':'
asbag56
(g77
g58
NtRp2746
(dp2747
g61
(dp2748
sg70
g2733
sg63
(lp2749
g56
(g57
g58
NtRp2750
(dp2751
g61
(dp2752
g69
I3
ssg70
g2746
sg63
(lp2753
g1335
asbasbasbag56
(g72
g58
NtRp2754
(dp2755
g61
(dp2756
sg70
g2477
sg63
(lp2757
g56
(g77
g58
NtRp2758
(dp2759
g61
(dp2760
g81
g82
ssg70
g2754
sg63
(lp2761
S'REQUEST_URI'
p2762
asbag56
(g77
g58
NtRp2763
(dp2764
g61
(dp2765
g88
g89
ssg70
g2754
sg63
(lp2766
S':'
asbag56
(g77
g58
NtRp2767
(dp2768
g61
(dp2769
sg70
g2754
sg63
(lp2770
g56
(g57
g58
NtRp2771
(dp2772
g61
(dp2773
g69
I3
ssg70
g2767
sg63
(lp2774
g1249
asbasbasbag56
(g72
g58
NtRp2775
(dp2776
g61
(dp2777
sg70
g2477
sg63
(lp2778
g56
(g77
g58
NtRp2779
(dp2780
g61
(dp2781
g81
g82
ssg70
g2775
sg63
(lp2782
S'SCRIPT_NAME'
p2783
asbag56
(g77
g58
NtRp2784
(dp2785
g61
(dp2786
g88
g89
ssg70
g2775
sg63
(lp2787
S':'
asbag56
(g77
g58
NtRp2788
(dp2789
g61
(dp2790
sg70
g2775
sg63
(lp2791
g56
(g57
g58
NtRp2792
(dp2793
g61
(dp2794
g69
I3
ssg70
g2788
sg63
(lp2795
S''
asbasbasbag56
(g72
g58
NtRp2796
(dp2797
g61
(dp2798
sg70
g2477
sg63
(lp2799
g56
(g77
g58
NtRp2800
(dp2801
g61
(dp2802
g81
g82
ssg70
g2796
sg63
(lp2803
S'SERVER_NAME'
p2804
asbag56
(g77
g58
NtRp2805
(dp2806
g61
(dp2807
g88
g89
ssg70
g2796
sg63
(lp2808
S':'
asbag56
(g77
g58
NtRp2809
(dp2810
g61
(dp2811
sg70
g2796
sg63
(lp2812
g56
(g57
g58
NtRp2813
(dp2814
g61
(dp2815
g69
I3
ssg70
g2809
sg63
(lp2816
g1399
asbasbasbag56
(g72
g58
NtRp2817
(dp2818
g61
(dp2819
sg70
g2477
sg63
(lp2820
g56
(g77
g58
NtRp2821
(dp2822
g61
(dp2823
g81
g82
ssg70
g2817
sg63
(lp2824
S'SERVER_PORT'
p2825
asbag56
(g77
g58
NtRp2826
(dp2827
g61
(dp2828
g88
g89
ssg70
g2817
sg63
(lp2829
S':'
asbag56
(g77
g58
NtRp2830
(dp2831
g61
(dp2832
sg70
g2817
sg63
(lp2833
g56
(g57
g58
NtRp2834
(dp2835
g61
(dp2836
g69
I3
ssg70
g2830
sg63
(lp2837
g1421
asbasbasbag56
(g72
g58
NtRp2838
(dp2839
g61
(dp2840
sg70
g2477
sg63
(lp2841
g56
(g77
g58
NtRp2842
(dp2843
g61
(dp2844
g81
g82
ssg70
g2838
sg63
(lp2845
S'SERVER_PROTOCOL'
p2846
asbag56
(g77
g58
NtRp2847
(dp2848
g61
(dp2849
g88
g89
ssg70
g2838
sg63
(lp2850
S':'
asbag56
(g77
g58
NtRp2851
(dp2852
g61
(dp2853
sg70
g2838
sg63
(lp2854
g56
(g57
g58
NtRp2855
(dp2856
g61
(dp2857
g69
I3
ssg70
g2851
sg63
(lp2858
g1443
asbasbasbag56
(g72
g58
NtRp2859
(dp2860
g61
(dp2861
sg70
g2477
sg63
(lp2862
g56
(g77
g58
NtRp2863
(dp2864
g61
(dp2865
g81
g82
ssg70
g2859
sg63
(lp2866
S'SERVER_SOFTWARE'
p2867
asbag56
(g77
g58
NtRp2868
(dp2869
g61
(dp2870
g88
g89
ssg70
g2859
sg63
(lp2871
S':'
asbag56
(g77
g58
NtRp2872
(dp2873
g61
(dp2874
sg70
g2859
sg63
(lp2875
g56
(g57
g58
NtRp2876
(dp2877
g61
(dp2878
g69
I3
ssg70
g2872
sg63
(lp2879
g1465
asbasbasbag56
(g72
g58
NtRp2880
(dp2881
g61
(dp2882
sg70
g2477
sg63
(lp2883
g56
(g77
g58
NtRp2884
(dp2885
g61
(dp2886
g81
g82
ssg70
g2880
sg63
(lp2887
S'WEB2PY_ORIGINAL_URI'
p2888
asbag56
(g77
g58
NtRp2889
(dp2890
g61
(dp2891
g88
g89
ssg70
g2880
sg63
(lp2892
S':'
asbag56
(g77
g58
NtRp2893
(dp2894
g61
(dp2895
sg70
g2880
sg63
(lp2896
g56
(g57
g58
NtRp2897
(dp2898
g61
(dp2899
g69
I3
ssg70
g2893
sg63
(lp2900
g1249
asbasbasbag56
(g72
g58
NtRp2901
(dp2902
g61
(dp2903
sg70
g2477
sg63
(lp2904
g56
(g77
g58
NtRp2905
(dp2906
g61
(dp2907
g81
g82
ssg70
g2901
sg63
(lp2908
S'wsgi.errors'
p2909
asbag56
(g77
g58
NtRp2910
(dp2911
g61
(dp2912
g88
g89
ssg70
g2901
sg63
(lp2913
S':'
asbag56
(g77
g58
NtRp2914
(dp2915
g61
(dp2916
sg70
g2901
sg63
(lp2917
g56
(g57
g58
NtRp2918
(dp2919
g61
(dp2920
g69
I3
ssg70
g2914
sg63
(lp2921
S"<open file '<stderr>', mode 'w' at 0x7f80c77741e0>"
p2922
asbasbasbag56
(g72
g58
NtRp2923
(dp2924
g61
(dp2925
sg70
g2477
sg63
(lp2926
g56
(g77
g58
NtRp2927
(dp2928
g61
(dp2929
g81
g82
ssg70
g2923
sg63
(lp2930
S'wsgi.file_wrapper'
p2931
asbag56
(g77
g58
NtRp2932
(dp2933
g61
(dp2934
g88
g89
ssg70
g2923
sg63
(lp2935
S':'
asbag56
(g77
g58
NtRp2936
(dp2937
g61
(dp2938
sg70
g2923
sg63
(lp2939
g56
(g57
g58
NtRp2940
(dp2941
g61
(dp2942
g69
I3
ssg70
g2936
sg63
(lp2943
S'<class wsgiref.util.FileWrapper at 0x2789590>'
p2944
asbasbasbag56
(g72
g58
NtRp2945
(dp2946
g61
(dp2947
sg70
g2477
sg63
(lp2948
g56
(g77
g58
NtRp2949
(dp2950
g61
(dp2951
g81
g82
ssg70
g2945
sg63
(lp2952
S'wsgi.input'
p2953
asbag56
(g77
g58
NtRp2954
(dp2955
g61
(dp2956
g88
g89
ssg70
g2945
sg63
(lp2957
S':'
asbag56
(g77
g58
NtRp2958
(dp2959
g61
(dp2960
sg70
g2945
sg63
(lp2961
g56
(g57
g58
NtRp2962
(dp2963
g61
(dp2964
g69
I3
ssg70
g2958
sg63
(lp2965
S'<cStringIO.StringO object at 0x362a420>'
p2966
asbasbasbag56
(g72
g58
NtRp2967
(dp2968
g61
(dp2969
sg70
g2477
sg63
(lp2970
g56
(g77
g58
NtRp2971
(dp2972
g61
(dp2973
g81
g82
ssg70
g2967
sg63
(lp2974
S'wsgi.multiprocess'
p2975
asbag56
(g77
g58
NtRp2976
(dp2977
g61
(dp2978
g88
g89
ssg70
g2967
sg63
(lp2979
S':'
asbag56
(g77
g58
NtRp2980
(dp2981
g61
(dp2982
sg70
g2967
sg63
(lp2983
g56
(g57
g58
NtRp2984
(dp2985
g61
(dp2986
g69
I3
ssg70
g2980
sg63
(lp2987
g99
asbasbasbag56
(g72
g58
NtRp2988
(dp2989
g61
(dp2990
sg70
g2477
sg63
(lp2991
g56
(g77
g58
NtRp2992
(dp2993
g61
(dp2994
g81
g82
ssg70
g2988
sg63
(lp2995
S'wsgi.multithread'
p2996
asbag56
(g77
g58
NtRp2997
(dp2998
g61
(dp2999
g88
g89
ssg70
g2988
sg63
(lp3000
S':'
asbag56
(g77
g58
NtRp3001
(dp3002
g61
(dp3003
sg70
g2988
sg63
(lp3004
g56
(g57
g58
NtRp3005
(dp3006
g61
(dp3007
g69
I3
ssg70
g3001
sg63
(lp3008
g1726
asbasbasbag56
(g72
g58
NtRp3009
(dp3010
g61
(dp3011
sg70
g2477
sg63
(lp3012
g56
(g77
g58
NtRp3013
(dp3014
g61
(dp3015
g81
g82
ssg70
g3009
sg63
(lp3016
S'wsgi.run_once'
p3017
asbag56
(g77
g58
NtRp3018
(dp3019
g61
(dp3020
g88
g89
ssg70
g3009
sg63
(lp3021
S':'
asbag56
(g77
g58
NtRp3022
(dp3023
g61
(dp3024
sg70
g3009
sg63
(lp3025
g56
(g57
g58
NtRp3026
(dp3027
g61
(dp3028
g69
I3
ssg70
g3022
sg63
(lp3029
g99
asbasbasbag56
(g72
g58
NtRp3030
(dp3031
g61
(dp3032
sg70
g2477
sg63
(lp3033
g56
(g77
g58
NtRp3034
(dp3035
g61
(dp3036
g81
g82
ssg70
g3030
sg63
(lp3037
S'wsgi.url_scheme'
p3038
asbag56
(g77
g58
NtRp3039
(dp3040
g61
(dp3041
g88
g89
ssg70
g3030
sg63
(lp3042
S':'
asbag56
(g77
g58
NtRp3043
(dp3044
g61
(dp3045
sg70
g3030
sg63
(lp3046
g56
(g57
g58
NtRp3047
(dp3048
g61
(dp3049
g69
I3
ssg70
g3043
sg63
(lp3050
g1769
asbasbasbag56
(g72
g58
NtRp3051
(dp3052
g61
(dp3053
sg70
g2477
sg63
(lp3054
g56
(g77
g58
NtRp3055
(dp3056
g61
(dp3057
g81
g82
ssg70
g3051
sg63
(lp3058
S'wsgi.version'
p3059
asbag56
(g77
g58
NtRp3060
(dp3061
g61
(dp3062
g88
g89
ssg70
g3051
sg63
(lp3063
S':'
asbag56
(g77
g58
NtRp3064
(dp3065
g61
(dp3066
sg70
g3051
sg63
(lp3067
g56
(g57
g58
NtRp3068
(dp3069
g61
(dp3070
g69
I3
ssg70
g3064
sg63
(lp3071
S'1'
asbasbasbasbasbasbasbasbasbasbasbasbasbsS'frames'
p3072
(lp3073
(dp3074
S'file'
p3075
S'/windows/Users/Thomas/Dropbox/appz/2011/GAE/ddl-lagoon/gluon/restricted.py'
p3076
sS'dump'
p3077
(dp3078
S'environment'
p3079
S"{'A': <class 'gluon.html.A'>, 'Auth': <class 'gluon.tools.Auth'>, 'B': <class 'gluon.html.B'>, 'BEAUTIFY': <class 'gluon.html.BEAUTIFY'>, 'BODY': <class 'gluon.html.BODY'>, 'BR': <class 'gluon.html.BR'>, 'BUTTON': <class 'gluon.html.BUTTON'>, 'CAT': <class 'gluon.html.CAT'>, 'CENTER': <class 'gluon.html.CENTER'>, 'CLEANUP': <class 'gluon.validators.CLEANUP'>, ...}"
p3080
sS'ccode'
p3081
S'<code object <module> at 0x3835210, file "/windo...pplications/ddlagoon/controllers/ddl.py", line 1>'
p3082
ssS'lnum'
p3083
I194
sS'lines'
p3084
(dp3085
I192
S'        else:'
p3086
sI193
S'            ccode = compile2(code,layer)'
p3087
sI194
S'        exec ccode in environment'
p3088
sI195
S'    except HTTP:'
p3089
sI196
S'        raise'
p3090
sI197
S'    except Exception, error:'
p3091
sI198
S'        # XXX Show exception in Wing IDE if running in debugger'
p3092
sI189
S'    try:'
p3093
sI190
S'        if type(code) == types.CodeType:'
p3094
sI191
S'            ccode = code'
p3095
ssS'call'
p3096
S'(code="__author__ = \'thomas\'\\n\\ndef get():\\n    return ser....download()\\nresponse._vars=response._caller(get)\\n", environment={\'A\': <class \'gluon.html.A\'>, \'Auth\': <class \'gluon.tools.Auth\'>, \'B\': <class \'gluon.html.B\'>, \'BEAUTIFY\': <class \'gluon.html.BEAUTIFY\'>, \'BODY\': <class \'gluon.html.BODY\'>, \'BR\': <class \'gluon.html.BR\'>, \'BUTTON\': <class \'gluon.html.BUTTON\'>, \'CAT\': <class \'gluon.html.CAT\'>, \'CENTER\': <class \'gluon.html.CENTER\'>, \'CLEANUP\': <class \'gluon.validators.CLEANUP\'>, ...}, layer=\'/windows/Users/Thomas/Dropbox/appz/2011/GAE/ddl-lagoon/applications/ddlagoon/controllers/ddl.py\')'
p3097
sS'func'
p3098
S'restricted'
p3099
sa(dp3100
g3075
S'/windows/Users/Thomas/Dropbox/appz/2011/GAE/ddl-lagoon/applications/ddlagoon/controllers/ddl.py'
p3101
sg3077
(dp3102
sg3083
I9
sg3084
(dp3103
I1
S"__author__ = 'thomas'"
p3104
sI2
S''
sI3
S'def get():'
p3105
sI4
S'    return service()'
p3106
sI5
S''
sI6
S'@service.xml'
p3107
sI7
S'def ddl(id, filename):'
p3108
sI8
S'    return response.download()'
p3109
ssg3096
S'()'
p3110
sg3098
S'<module>'
p3111
sa(dp3112
g3075
S'/windows/Users/Thomas/Dropbox/appz/2011/GAE/ddl-lagoon/gluon/globals.py'
p3113
sg3077
(dp3114
S'self'
p3115
S'undefined'
p3116
sS'f'
S'<function get>'
p3117
ssg3083
I149
sg3084
(dp3118
I144
S'        self.meta = Storage()      # used by web2py_ajax.html'
p3119
sI145
S'        self.menu = []             # used by the default view layout'
p3120
sI146
S'        self.files = []            # used by web2py_ajax.html'
p3121
sI147
S'        self.generic_patterns = [] # patterns to allow generic views'
p3122
sI148
S'        self._vars = None'
p3123
sI149
S'        self._caller = lambda f: f()'
p3124
sI150
S'        self._view_environment = None'
p3125
sI151
S'        self._custom_commit = None'
p3126
sI152
S'        self._custom_rollback = None'
p3127
sI153
S''
ssg3096
S'(f=<function get>)'
p3128
sg3098
S'<lambda>'
p3129
sa(dp3130
g3075
S'/windows/Users/Thomas/Dropbox/appz/2011/GAE/ddl-lagoon/applications/ddlagoon/controllers/ddl.py'
p3131
sg3077
(dp3132
S'global service'
p3133
S'<gluon.tools.Service object>'
p3134
ssg3083
I4
sg3084
(dp3135
I1
S"__author__ = 'thomas'"
p3136
sI2
S''
sI3
S'def get():'
p3137
sI4
S'    return service()'
p3138
sI5
S''
sI6
S'@service.xml'
p3139
sI7
S'def ddl(id, filename):'
p3140
sI8
S'    return response.download()'
p3141
ssg3096
S'()'
p3142
sg3098
S'get'
p3143
sa(dp3144
g3075
S'/windows/Users/Thomas/Dropbox/appz/2011/GAE/ddl-lagoon/gluon/tools.py'
p3145
sg3077
(dp3146
S'request.args'
p3147
S"['xml', 'ddl', '1', '2']"
p3148
sS'self'
p3149
S'<gluon.tools.Service object>'
p3150
sS'request'
p3151
S"<Storage {'body': <cStringIO.StringO object at 0..._vars': <Storage {}>, 'post_vars': <Storage {}>}>"
p3152
sS'self.serve_xml'
p3153
S'<bound method Service.serve_xml of <gluon.tools.Service object>>'
p3154
ssg3083
I3840
sg3084
(dp3155
I3840
S'            return self.serve_xml(request.args[1:])'
p3156
sI3841
S"        elif arg0 == 'json':"
p3157
sI3842
S'            return self.serve_json(request.args[1:])'
p3158
sI3843
S"        elif arg0 == 'jsonrpc':"
p3159
sI3844
S'            return self.serve_jsonrpc()'
p3160
sI3835
S"        elif arg0 == 'rss':"
p3161
sI3836
S'            return self.serve_rss(request.args[1:])'
p3162
sI3837
S"        elif arg0 == 'csv':"
p3163
sI3838
S'            return self.serve_csv(request.args[1:])'
p3164
sI3839
S"        elif arg0 == 'xml':"
p3165
ssg3096
S'(self=<gluon.tools.Service object>)'
p3166
sg3098
S'__call__'
p3167
sa(dp3168
g3075
S'/windows/Users/Thomas/Dropbox/appz/2011/GAE/ddl-lagoon/gluon/tools.py'
p3169
sg3077
(dp3170
S'request.vars'
p3171
S'<Storage {}>'
p3172
sS'args'
p3173
S"['ddl', '1', '2']"
p3174
sS'request'
p3175
S"<Storage {'body': <cStringIO.StringO object at 0..._vars': <Storage {}>, 'post_vars': <Storage {}>}>"
p3176
sS'builtindict'
p3177
S"<type 'dict'>"
p3178
ssg3083
I3632
sg3084
(dp3179
I3627
S"        response.headers['Content-Type'] = 'text/xml'"
p3180
sI3628
S'        if not args:'
p3181
sI3629
S'            args = request.args'
p3182
sI3630
S'        if args and args[0] in self.run_procedures:'
p3183
sI3631
S'            s = universal_caller(self.run_procedures[args[0]],'
p3184
sI3632
S'                                 *args[1:], **dict(request.vars))'
p3185
sI3633
S"            if hasattr(s, 'as_list'):"
p3186
sI3634
S'                s = s.as_list()'
p3187
sI3635
S'            return serializers.xml(s)'
p3188
sI3636
S'        self.error()'
p3189
ssg3096
S"(self=<gluon.tools.Service object>, args=['ddl', '1', '2'])"
p3190
sg3098
S'serve_xml'
p3191
sa(dp3192
g3075
S'/windows/Users/Thomas/Dropbox/appz/2011/GAE/ddl-lagoon/gluon/tools.py'
p3193
sg3077
(dp3194
S'arg_dict'
p3195
S"{'filename': '2', 'id': '1'}"
p3196
sS'f'
S'<function ddl>'
p3197
ssg3083
I3351
sg3084
(dp3198
I3346
S'        # However, we need to update the arg_dict with the values from the named arguments as well.'
p3199
sI3347
S'        for arg_name in named_args:'
p3200
sI3348
S'            if b.has_key(arg_name):'
p3201
sI3349
S'                arg_dict[arg_name] = b[arg_name]'
p3202
sI3350
S''
sI3351
S'        return f(**arg_dict)'
p3203
sI3352
S''
sI3353
S'    # Raise an error, the function cannot be called.'
p3204
sI3354
S'    raise HTTP(404, "Object does not exist")'
p3205
sI3355
S''
ssg3096
S"(f=<function ddl>, *a=('1', '2'), **b={})"
p3206
sg3098
S'universal_caller'
p3207
sa(dp3208
g3075
S'/windows/Users/Thomas/Dropbox/appz/2011/GAE/ddl-lagoon/applications/ddlagoon/controllers/ddl.py'
p3209
sg3077
(dp3210
S'response.download'
p3211
S"<bound method Response.download of <Storage {'st...x384d050>, 'files': [], 'view': 'ddl/get.html'}>>"
p3212
sS'global response'
p3213
S"<Storage {'status': 200, 'body': <cStringIO.Stri...0x384d050>, 'files': [], 'view': 'ddl/get.html'}>"
p3214
ssg3083
I8
sg3084
(dp3215
I1
S"__author__ = 'thomas'"
p3216
sI2
S''
sI3
S'def get():'
p3217
sI4
S'    return service()'
p3218
sI5
S''
sI6
S'@service.xml'
p3219
sI7
S'def ddl(id, filename):'
p3220
sI8
S'    return response.download()'
p3221
ssg3096
S"(id='1', filename='2')"
p3222
sg3098
S'ddl'
p3223
sasS'pyver'
p3224
S'Python 2.6.7: /usr/bin/python2.6'
p3225
sS'session'
p3226
g56
(g57
g58
NtRp3227
(dp3228
g61
(dp3229
sg63
(lp3230
g56
(g65
g58
NtRp3231
(dp3232
g61
(dp3233
g69
I5
ssg70
Nsg63
(lp3234
sbasbsS'etype'
p3235
S"<type 'exceptions.TypeError'>"
p3236
sS'date'
p3237
S'Wed Oct 26 22:34:03 2011'
p3238
sS'response'
p3239
g56
(g57
g58
NtRp3240
(dp3241
g61
(dp3242
sg63
(lp3243
g56
(g65
g58
NtRp3244
(dp3245
g61
(dp3246
g69
I5
ssg70
Nsg63
(lp3247
g56
(g72
g58
NtRp3248
(dp3249
g61
(dp3250
sg70
g3244
sg63
(lp3251
g56
(g77
g58
NtRp3252
(dp3253
g61
(dp3254
g81
g82
ssg70
g3248
sg63
(lp3255
g204
asbag56
(g77
g58
NtRp3256
(dp3257
g61
(dp3258
g88
g89
ssg70
g3248
sg63
(lp3259
S':'
asbag56
(g77
g58
NtRp3260
(dp3261
g61
(dp3262
sg70
g3248
sg63
(lp3263
g56
(g57
g58
NtRp3264
(dp3265
g61
(dp3266
g69
I5
ssg70
g3260
sg63
(lp3267
S'<cStringIO.StringO object at 0x3b73d18>'
p3268
asbasbasbag56
(g72
g58
NtRp3269
(dp3270
g61
(dp3271
sg70
g3244
sg63
(lp3272
g56
(g77
g58
NtRp3273
(dp3274
g61
(dp3275
g81
g82
ssg70
g3269
sg63
(lp3276
g270
asbag56
(g77
g58
NtRp3277
(dp3278
g61
(dp3279
g88
g89
ssg70
g3269
sg63
(lp3280
S':'
asbag56
(g77
g58
NtRp3281
(dp3282
g61
(dp3283
sg70
g3269
sg63
(lp3284
g56
(g57
g58
NtRp3285
(dp3286
g61
(dp3287
g69
I5
ssg70
g3281
sg63
(lp3288
g56
(g65
g58
NtRp3289
(dp3290
g61
(dp3291
g69
I4
ssg70
Nsg63
(lp3292
g56
(g72
g58
NtRp3293
(dp3294
g61
(dp3295
sg70
g3289
sg63
(lp3296
g56
(g77
g58
NtRp3297
(dp3298
g61
(dp3299
g81
g82
ssg70
g3293
sg63
(lp3300
S'session_id_ddlagoon'
p3301
asbag56
(g77
g58
NtRp3302
(dp3303
g61
(dp3304
g88
g89
ssg70
g3293
sg63
(lp3305
S':'
asbag56
(g77
g58
NtRp3306
(dp3307
g61
(dp3308
sg70
g3293
sg63
(lp3309
g56
(g57
g58
NtRp3310
(dp3311
g61
(dp3312
g69
I4
ssg70
g3306
sg63
(lp3313
g56
(g65
g58
NtRp3314
(dp3315
g61
(dp3316
g69
I3
ssg70
Nsg63
(lp3317
g56
(g72
g58
NtRp3318
(dp3319
g61
(dp3320
sg70
g3314
sg63
(lp3321
g56
(g77
g58
NtRp3322
(dp3323
g61
(dp3324
g81
g82
ssg70
g3318
sg63
(lp3325
g320
asbag56
(g77
g58
NtRp3326
(dp3327
g61
(dp3328
g88
g89
ssg70
g3318
sg63
(lp3329
S':'
asbag56
(g77
g58
NtRp3330
(dp3331
g61
(dp3332
sg70
g3318
sg63
(lp3333
g56
(g57
g58
NtRp3334
(dp3335
g61
(dp3336
g69
I3
ssg70
g3330
sg63
(lp3337
S''
asbasbasbag56
(g72
g58
NtRp3338
(dp3339
g61
(dp3340
sg70
g3314
sg63
(lp3341
g56
(g77
g58
NtRp3342
(dp3343
g61
(dp3344
g81
g82
ssg70
g3338
sg63
(lp3345
g341
asbag56
(g77
g58
NtRp3346
(dp3347
g61
(dp3348
g88
g89
ssg70
g3338
sg63
(lp3349
S':'
asbag56
(g77
g58
NtRp3350
(dp3351
g61
(dp3352
sg70
g3338
sg63
(lp3353
g56
(g57
g58
NtRp3354
(dp3355
g61
(dp3356
g69
I3
ssg70
g3350
sg63
(lp3357
S''
asbasbasbag56
(g72
g58
NtRp3358
(dp3359
g61
(dp3360
sg70
g3314
sg63
(lp3361
g56
(g77
g58
NtRp3362
(dp3363
g61
(dp3364
g81
g82
ssg70
g3358
sg63
(lp3365
g362
asbag56
(g77
g58
NtRp3366
(dp3367
g61
(dp3368
g88
g89
ssg70
g3358
sg63
(lp3369
S':'
asbag56
(g77
g58
NtRp3370
(dp3371
g61
(dp3372
sg70
g3358
sg63
(lp3373
g56
(g57
g58
NtRp3374
(dp3375
g61
(dp3376
g69
I3
ssg70
g3370
sg63
(lp3377
S''
asbasbasbag56
(g72
g58
NtRp3378
(dp3379
g61
(dp3380
sg70
g3314
sg63
(lp3381
g56
(g77
g58
NtRp3382
(dp3383
g61
(dp3384
g81
g82
ssg70
g3378
sg63
(lp3385
g383
asbag56
(g77
g58
NtRp3386
(dp3387
g61
(dp3388
g88
g89
ssg70
g3378
sg63
(lp3389
S':'
asbag56
(g77
g58
NtRp3390
(dp3391
g61
(dp3392
sg70
g3378
sg63
(lp3393
g56
(g57
g58
NtRp3394
(dp3395
g61
(dp3396
g69
I3
ssg70
g3390
sg63
(lp3397
S''
asbasbasbag56
(g72
g58
NtRp3398
(dp3399
g61
(dp3400
sg70
g3314
sg63
(lp3401
g56
(g77
g58
NtRp3402
(dp3403
g61
(dp3404
g81
g82
ssg70
g3398
sg63
(lp3405
g404
asbag56
(g77
g58
NtRp3406
(dp3407
g61
(dp3408
g88
g89
ssg70
g3398
sg63
(lp3409
S':'
asbag56
(g77
g58
NtRp3410
(dp3411
g61
(dp3412
sg70
g3398
sg63
(lp3413
g56
(g57
g58
NtRp3414
(dp3415
g61
(dp3416
g69
I3
ssg70
g3410
sg63
(lp3417
S''
asbasbasbag56
(g72
g58
NtRp3418
(dp3419
g61
(dp3420
sg70
g3314
sg63
(lp3421
g56
(g77
g58
NtRp3422
(dp3423
g61
(dp3424
g81
g82
ssg70
g3418
sg63
(lp3425
g425
asbag56
(g77
g58
NtRp3426
(dp3427
g61
(dp3428
g88
g89
ssg70
g3418
sg63
(lp3429
S':'
asbag56
(g77
g58
NtRp3430
(dp3431
g61
(dp3432
sg70
g3418
sg63
(lp3433
g56
(g57
g58
NtRp3434
(dp3435
g61
(dp3436
g69
I3
ssg70
g3430
sg63
(lp3437
S'/'
asbasbasbag56
(g72
g58
NtRp3438
(dp3439
g61
(dp3440
sg70
g3314
sg63
(lp3441
g56
(g77
g58
NtRp3442
(dp3443
g61
(dp3444
g81
g82
ssg70
g3438
sg63
(lp3445
g446
asbag56
(g77
g58
NtRp3446
(dp3447
g61
(dp3448
g88
g89
ssg70
g3438
sg63
(lp3449
S':'
asbag56
(g77
g58
NtRp3450
(dp3451
g61
(dp3452
sg70
g3438
sg63
(lp3453
g56
(g57
g58
NtRp3454
(dp3455
g61
(dp3456
g69
I3
ssg70
g3450
sg63
(lp3457
S''
asbasbasbag56
(g72
g58
NtRp3458
(dp3459
g61
(dp3460
sg70
g3314
sg63
(lp3461
g56
(g77
g58
NtRp3462
(dp3463
g61
(dp3464
g81
g82
ssg70
g3458
sg63
(lp3465
g467
asbag56
(g77
g58
NtRp3466
(dp3467
g61
(dp3468
g88
g89
ssg70
g3458
sg63
(lp3469
S':'
asbag56
(g77
g58
NtRp3470
(dp3471
g61
(dp3472
sg70
g3458
sg63
(lp3473
g56
(g57
g58
NtRp3474
(dp3475
g61
(dp3476
g69
I3
ssg70
g3470
sg63
(lp3477
S''
asbasbasbasbasbasbasbasbasbasbasbag56
(g72
g58
NtRp3478
(dp3479
g61
(dp3480
sg70
g3244
sg63
(lp3481
g56
(g77
g58
NtRp3482
(dp3483
g61
(dp3484
g81
g82
ssg70
g3478
sg63
(lp3485
S'files'
p3486
asbag56
(g77
g58
NtRp3487
(dp3488
g61
(dp3489
g88
g89
ssg70
g3478
sg63
(lp3490
S':'
asbag56
(g77
g58
NtRp3491
(dp3492
g61
(dp3493
sg70
g3478
sg63
(lp3494
g56
(g57
g58
NtRp3495
(dp3496
g61
(dp3497
g69
I5
ssg70
g3491
sg63
(lp3498
g56
(g65
g58
NtRp3499
(dp3500
g61
(dp3501
g69
I4
ssg70
Nsg63
(lp3502
sbasbasbasbag56
(g72
g58
NtRp3503
(dp3504
g61
(dp3505
sg70
g3244
sg63
(lp3506
g56
(g77
g58
NtRp3507
(dp3508
g61
(dp3509
g81
g82
ssg70
g3503
sg63
(lp3510
S'flash'
p3511
asbag56
(g77
g58
NtRp3512
(dp3513
g61
(dp3514
g88
g89
ssg70
g3503
sg63
(lp3515
S':'
asbag56
(g77
g58
NtRp3516
(dp3517
g61
(dp3518
sg70
g3503
sg63
(lp3519
g56
(g57
g58
NtRp3520
(dp3521
g61
(dp3522
g69
I5
ssg70
g3516
sg63
(lp3523
S''
asbasbasbag56
(g72
g58
NtRp3524
(dp3525
g61
(dp3526
sg70
g3244
sg63
(lp3527
g56
(g77
g58
NtRp3528
(dp3529
g61
(dp3530
g81
g82
ssg70
g3524
sg63
(lp3531
S'generic_patterns'
p3532
asbag56
(g77
g58
NtRp3533
(dp3534
g61
(dp3535
g88
g89
ssg70
g3524
sg63
(lp3536
S':'
asbag56
(g77
g58
NtRp3537
(dp3538
g61
(dp3539
sg70
g3524
sg63
(lp3540
g56
(g57
g58
NtRp3541
(dp3542
g61
(dp3543
g69
I5
ssg70
g3537
sg63
(lp3544
g56
(g65
g58
NtRp3545
(dp3546
g61
(dp3547
g69
I4
ssg70
Nsg63
(lp3548
g56
(g72
g58
NtRp3549
(dp3550
g61
(dp3551
sg70
g3545
sg63
(lp3552
g56
(g77
g58
NtRp3553
(dp3554
g61
(dp3555
sg70
g3549
sg63
(lp3556
g56
(g57
g58
NtRp3557
(dp3558
g61
(dp3559
g69
I4
ssg70
g3553
sg63
(lp3560
S'*'
asbasbasbasbasbasbasbag56
(g72
g58
NtRp3561
(dp3562
g61
(dp3563
sg70
g3244
sg63
(lp3564
g56
(g77
g58
NtRp3565
(dp3566
g61
(dp3567
g81
g82
ssg70
g3561
sg63
(lp3568
S'headers'
p3569
asbag56
(g77
g58
NtRp3570
(dp3571
g61
(dp3572
g88
g89
ssg70
g3561
sg63
(lp3573
S':'
asbag56
(g77
g58
NtRp3574
(dp3575
g61
(dp3576
sg70
g3561
sg63
(lp3577
g56
(g57
g58
NtRp3578
(dp3579
g61
(dp3580
g69
I5
ssg70
g3574
sg63
(lp3581
g56
(g65
g58
NtRp3582
(dp3583
g61
(dp3584
g69
I4
ssg70
Nsg63
(lp3585
g56
(g72
g58
NtRp3586
(dp3587
g61
(dp3588
sg70
g3582
sg63
(lp3589
g56
(g77
g58
NtRp3590
(dp3591
g61
(dp3592
g81
g82
ssg70
g3586
sg63
(lp3593
S'Cache-Control'
p3594
asbag56
(g77
g58
NtRp3595
(dp3596
g61
(dp3597
g88
g89
ssg70
g3586
sg63
(lp3598
S':'
asbag56
(g77
g58
NtRp3599
(dp3600
g61
(dp3601
sg70
g3586
sg63
(lp3602
g56
(g57
g58
NtRp3603
(dp3604
g61
(dp3605
g69
I4
ssg70
g3599
sg63
(lp3606
S'no-store, no-cache, must-revalidate, post-check=0, pre-check=0'
p3607
asbasbasbag56
(g72
g58
NtRp3608
(dp3609
g61
(dp3610
sg70
g3582
sg63
(lp3611
g56
(g77
g58
NtRp3612
(dp3613
g61
(dp3614
g81
g82
ssg70
g3608
sg63
(lp3615
S'Content-Type'
p3616
asbag56
(g77
g58
NtRp3617
(dp3618
g61
(dp3619
g88
g89
ssg70
g3608
sg63
(lp3620
S':'
asbag56
(g77
g58
NtRp3621
(dp3622
g61
(dp3623
sg70
g3608
sg63
(lp3624
g56
(g57
g58
NtRp3625
(dp3626
g61
(dp3627
g69
I4
ssg70
g3621
sg63
(lp3628
S'text/xml'
p3629
asbasbasbag56
(g72
g58
NtRp3630
(dp3631
g61
(dp3632
sg70
g3582
sg63
(lp3633
g56
(g77
g58
NtRp3634
(dp3635
g61
(dp3636
g81
g82
ssg70
g3630
sg63
(lp3637
S'Expires'
p3638
asbag56
(g77
g58
NtRp3639
(dp3640
g61
(dp3641
g88
g89
ssg70
g3630
sg63
(lp3642
S':'
asbag56
(g77
g58
NtRp3643
(dp3644
g61
(dp3645
sg70
g3630
sg63
(lp3646
g56
(g57
g58
NtRp3647
(dp3648
g61
(dp3649
g69
I4
ssg70
g3643
sg63
(lp3650
S'Wed, 26 Oct 2011 21:34:03 GMT'
p3651
asbasbasbag56
(g72
g58
NtRp3652
(dp3653
g61
(dp3654
sg70
g3582
sg63
(lp3655
g56
(g77
g58
NtRp3656
(dp3657
g61
(dp3658
g81
g82
ssg70
g3652
sg63
(lp3659
S'Pragma'
p3660
asbag56
(g77
g58
NtRp3661
(dp3662
g61
(dp3663
g88
g89
ssg70
g3652
sg63
(lp3664
S':'
asbag56
(g77
g58
NtRp3665
(dp3666
g61
(dp3667
sg70
g3652
sg63
(lp3668
g56
(g57
g58
NtRp3669
(dp3670
g61
(dp3671
g69
I4
ssg70
g3665
sg63
(lp3672
S'no-cache'
p3673
asbasbasbag56
(g72
g58
NtRp3674
(dp3675
g61
(dp3676
sg70
g3582
sg63
(lp3677
g56
(g77
g58
NtRp3678
(dp3679
g61
(dp3680
g81
g82
ssg70
g3674
sg63
(lp3681
S'X-Powered-By'
p3682
asbag56
(g77
g58
NtRp3683
(dp3684
g61
(dp3685
g88
g89
ssg70
g3674
sg63
(lp3686
S':'
asbag56
(g77
g58
NtRp3687
(dp3688
g61
(dp3689
sg70
g3674
sg63
(lp3690
g56
(g57
g58
NtRp3691
(dp3692
g61
(dp3693
g69
I4
ssg70
g3687
sg63
(lp3694
S'web2py'
p3695
asbasbasbasbasbasbasbag56
(g72
g58
NtRp3696
(dp3697
g61
(dp3698
sg70
g3244
sg63
(lp3699
g56
(g77
g58
NtRp3700
(dp3701
g61
(dp3702
g81
g82
ssg70
g3696
sg63
(lp3703
S'menu'
p3704
asbag56
(g77
g58
NtRp3705
(dp3706
g61
(dp3707
g88
g89
ssg70
g3696
sg63
(lp3708
S':'
asbag56
(g77
g58
NtRp3709
(dp3710
g61
(dp3711
sg70
g3696
sg63
(lp3712
g56
(g57
g58
NtRp3713
(dp3714
g61
(dp3715
g69
I5
ssg70
g3709
sg63
(lp3716
g56
(g65
g58
NtRp3717
(dp3718
g61
(dp3719
g69
I4
ssg70
Nsg63
(lp3720
g56
(g72
g58
NtRp3721
(dp3722
g61
(dp3723
sg70
g3717
sg63
(lp3724
g56
(g77
g58
NtRp3725
(dp3726
g61
(dp3727
sg70
g3721
sg63
(lp3728
g56
(g57
g58
NtRp3729
(dp3730
g61
(dp3731
g69
I4
ssg70
g3725
sg63
(lp3732
g56
(g65
g58
NtRp3733
(dp3734
g61
(dp3735
g69
I3
ssg70
Nsg63
(lp3736
g56
(g72
g58
NtRp3737
(dp3738
g61
(dp3739
sg70
g3733
sg63
(lp3740
g56
(g77
g58
NtRp3741
(dp3742
g61
(dp3743
sg70
g3737
sg63
(lp3744
g56
(g57
g58
NtRp3745
(dp3746
g61
(dp3747
g69
I3
ssg70
g3741
sg63
(lp3748
cgluon.languages
lazyT_unpickle
p3749
(S's\x04\x00\x00\x00Home'
tRp3750
asbasbasbag56
(g72
g58
NtRp3751
(dp3752
g61
(dp3753
sg70
g3733
sg63
(lp3754
g56
(g77
g58
NtRp3755
(dp3756
g61
(dp3757
sg70
g3751
sg63
(lp3758
g56
(g57
g58
NtRp3759
(dp3760
g61
(dp3761
g69
I3
ssg70
g3755
sg63
(lp3762
g99
asbasbasbag56
(g72
g58
NtRp3763
(dp3764
g61
(dp3765
sg70
g3733
sg63
(lp3766
g56
(g77
g58
NtRp3767
(dp3768
g61
(dp3769
sg70
g3763
sg63
(lp3770
g56
(g57
g58
NtRp3771
(dp3772
g61
(dp3773
g69
I3
ssg70
g3767
sg63
(lp3774
S'/ddlagoon/default/index'
p3775
asbasbasbag56
(g72
g58
NtRp3776
(dp3777
g61
(dp3778
sg70
g3733
sg63
(lp3779
g56
(g77
g58
NtRp3780
(dp3781
g61
(dp3782
sg70
g3776
sg63
(lp3783
g56
(g57
g58
NtRp3784
(dp3785
g61
(dp3786
g69
I3
ssg70
g3780
sg63
(lp3787
g56
(g65
g58
NtRp3788
(dp3789
g61
(dp3790
g69
I2
ssg70
Nsg63
(lp3791
sbasbasbasbasbasbasbasbag56
(g72
g58
NtRp3792
(dp3793
g61
(dp3794
sg70
g3717
sg63
(lp3795
g56
(g77
g58
NtRp3796
(dp3797
g61
(dp3798
sg70
g3792
sg63
(lp3799
g56
(g57
g58
NtRp3800
(dp3801
g61
(dp3802
g69
I4
ssg70
g3796
sg63
(lp3803
g56
(g65
g58
NtRp3804
(dp3805
g61
(dp3806
g69
I3
ssg70
Nsg63
(lp3807
g56
(g72
g58
NtRp3808
(dp3809
g61
(dp3810
sg70
g3804
sg63
(lp3811
g56
(g77
g58
NtRp3812
(dp3813
g61
(dp3814
sg70
g3808
sg63
(lp3815
g56
(g57
g58
NtRp3816
(dp3817
g61
(dp3818
g69
I3
ssg70
g3812
sg63
(lp3819
g3749
(S's\x08\x00\x00\x00This App'
tRp3820
asbasbasbag56
(g72
g58
NtRp3821
(dp3822
g61
(dp3823
sg70
g3804
sg63
(lp3824
g56
(g77
g58
NtRp3825
(dp3826
g61
(dp3827
sg70
g3821
sg63
(lp3828
g56
(g57
g58
NtRp3829
(dp3830
g61
(dp3831
g69
I3
ssg70
g3825
sg63
(lp3832
g99
asbasbasbag56
(g72
g58
NtRp3833
(dp3834
g61
(dp3835
sg70
g3804
sg63
(lp3836
g56
(g77
g58
NtRp3837
(dp3838
g61
(dp3839
sg70
g3833
sg63
(lp3840
g56
(g57
g58
NtRp3841
(dp3842
g61
(dp3843
g69
I3
ssg70
g3837
sg63
(lp3844
S'/admin/default/design/ddlagoon'
p3845
asbasbasbag56
(g72
g58
NtRp3846
(dp3847
g61
(dp3848
sg70
g3804
sg63
(lp3849
g56
(g77
g58
NtRp3850
(dp3851
g61
(dp3852
sg70
g3846
sg63
(lp3853
g56
(g57
g58
NtRp3854
(dp3855
g61
(dp3856
g69
I3
ssg70
g3850
sg63
(lp3857
g56
(g65
g58
NtRp3858
(dp3859
g61
(dp3860
g69
I2
ssg70
Nsg63
(lp3861
g56
(g72
g58
NtRp3862
(dp3863
g61
(dp3864
sg70
g3858
sg63
(lp3865
g56
(g77
g58
NtRp3866
(dp3867
g61
(dp3868
sg70
g3862
sg63
(lp3869
g56
(g57
g58
NtRp3870
(dp3871
g61
(dp3872
g69
I2
ssg70
g3866
sg63
(lp3873
g56
(g65
g58
NtRp3874
(dp3875
g61
(dp3876
g69
I1
ssg70
Nsg63
(lp3877
g56
(g72
g58
NtRp3878
(dp3879
g61
(dp3880
sg70
g3874
sg63
(lp3881
g56
(g77
g58
NtRp3882
(dp3883
g61
(dp3884
sg70
g3878
sg63
(lp3885
g56
(g57
g58
NtRp3886
(dp3887
g61
(dp3888
g69
I1
ssg70
g3882
sg63
(lp3889
g3749
(S's\n\x00\x00\x00Controller'
tRp3890
asbasbasbag56
(g72
g58
NtRp3891
(dp3892
g61
(dp3893
sg70
g3874
sg63
(lp3894
g56
(g77
g58
NtRp3895
(dp3896
g61
(dp3897
sg70
g3891
sg63
(lp3898
g56
(g57
g58
NtRp3899
(dp3900
g61
(dp3901
g69
I1
ssg70
g3895
sg63
(lp3902
I00
asbasbasbag56
(g72
g58
NtRp3903
(dp3904
g61
(dp3905
sg70
g3874
sg63
(lp3906
g56
(g77
g58
NtRp3907
(dp3908
g61
(dp3909
sg70
g3903
sg63
(lp3910
g56
(g57
g58
NtRp3911
(dp3912
g61
(dp3913
g69
I1
ssg70
g3907
sg63
(lp3914
S'/admin/default/edit/ddlagoon/controllers/ddl.py'
p3915
asbasbasbasbasbasbasbag56
(g72
g58
NtRp3916
(dp3917
g61
(dp3918
sg70
g3858
sg63
(lp3919
g56
(g77
g58
NtRp3920
(dp3921
g61
(dp3922
sg70
g3916
sg63
(lp3923
g56
(g57
g58
NtRp3924
(dp3925
g61
(dp3926
g69
I2
ssg70
g3920
sg63
(lp3927
g56
(g65
g58
NtRp3928
(dp3929
g61
(dp3930
g69
I1
ssg70
Nsg63
(lp3931
g56
(g72
g58
NtRp3932
(dp3933
g61
(dp3934
sg70
g3928
sg63
(lp3935
g56
(g77
g58
NtRp3936
(dp3937
g61
(dp3938
sg70
g3932
sg63
(lp3939
g56
(g57
g58
NtRp3940
(dp3941
g61
(dp3942
g69
I1
ssg70
g3936
sg63
(lp3943
g3749
(S's\x04\x00\x00\x00View'
tRp3944
asbasbasbag56
(g72
g58
NtRp3945
(dp3946
g61
(dp3947
sg70
g3928
sg63
(lp3948
g56
(g77
g58
NtRp3949
(dp3950
g61
(dp3951
sg70
g3945
sg63
(lp3952
g56
(g57
g58
NtRp3953
(dp3954
g61
(dp3955
g69
I1
ssg70
g3949
sg63
(lp3956
I00
asbasbasbag56
(g72
g58
NtRp3957
(dp3958
g61
(dp3959
sg70
g3928
sg63
(lp3960
g56
(g77
g58
NtRp3961
(dp3962
g61
(dp3963
sg70
g3957
sg63
(lp3964
g56
(g57
g58
NtRp3965
(dp3966
g61
(dp3967
g69
I1
ssg70
g3961
sg63
(lp3968
S'/admin/default/edit/ddlagoon/views/ddl/get.html'
p3969
asbasbasbasbasbasbasbag56
(g72
g58
NtRp3970
(dp3971
g61
(dp3972
sg70
g3858
sg63
(lp3973
g56
(g77
g58
NtRp3974
(dp3975
g61
(dp3976
sg70
g3970
sg63
(lp3977
g56
(g57
g58
NtRp3978
(dp3979
g61
(dp3980
g69
I2
ssg70
g3974
sg63
(lp3981
g56
(g65
g58
NtRp3982
(dp3983
g61
(dp3984
g69
I1
ssg70
Nsg63
(lp3985
g56
(g72
g58
NtRp3986
(dp3987
g61
(dp3988
sg70
g3982
sg63
(lp3989
g56
(g77
g58
NtRp3990
(dp3991
g61
(dp3992
sg70
g3986
sg63
(lp3993
g56
(g57
g58
NtRp3994
(dp3995
g61
(dp3996
g69
I1
ssg70
g3990
sg63
(lp3997
g3749
(S's\x06\x00\x00\x00Layout'
tRp3998
asbasbasbag56
(g72
g58
NtRp3999
(dp4000
g61
(dp4001
sg70
g3982
sg63
(lp4002
g56
(g77
g58
NtRp4003
(dp4004
g61
(dp4005
sg70
g3999
sg63
(lp4006
g56
(g57
g58
NtRp4007
(dp4008
g61
(dp4009
g69
I1
ssg70
g4003
sg63
(lp4010
I00
asbasbasbag56
(g72
g58
NtRp4011
(dp4012
g61
(dp4013
sg70
g3982
sg63
(lp4014
g56
(g77
g58
NtRp4015
(dp4016
g61
(dp4017
sg70
g4011
sg63
(lp4018
g56
(g57
g58
NtRp4019
(dp4020
g61
(dp4021
g69
I1
ssg70
g4015
sg63
(lp4022
S'/admin/default/edit/ddlagoon/views/layout.html'
p4023
asbasbasbasbasbasbasbag56
(g72
g58
NtRp4024
(dp4025
g61
(dp4026
sg70
g3858
sg63
(lp4027
g56
(g77
g58
NtRp4028
(dp4029
g61
(dp4030
sg70
g4024
sg63
(lp4031
g56
(g57
g58
NtRp4032
(dp4033
g61
(dp4034
g69
I2
ssg70
g4028
sg63
(lp4035
g56
(g65
g58
NtRp4036
(dp4037
g61
(dp4038
g69
I1
ssg70
Nsg63
(lp4039
g56
(g72
g58
NtRp4040
(dp4041
g61
(dp4042
sg70
g4036
sg63
(lp4043
g56
(g77
g58
NtRp4044
(dp4045
g61
(dp4046
sg70
g4040
sg63
(lp4047
g56
(g57
g58
NtRp4048
(dp4049
g61
(dp4050
g69
I1
ssg70
g4044
sg63
(lp4051
g3749
(S's\n\x00\x00\x00Stylesheet'
tRp4052
asbasbasbag56
(g72
g58
NtRp4053
(dp4054
g61
(dp4055
sg70
g4036
sg63
(lp4056
g56
(g77
g58
NtRp4057
(dp4058
g61
(dp4059
sg70
g4053
sg63
(lp4060
g56
(g57
g58
NtRp4061
(dp4062
g61
(dp4063
g69
I1
ssg70
g4057
sg63
(lp4064
I00
asbasbasbag56
(g72
g58
NtRp4065
(dp4066
g61
(dp4067
sg70
g4036
sg63
(lp4068
g56
(g77
g58
NtRp4069
(dp4070
g61
(dp4071
sg70
g4065
sg63
(lp4072
g56
(g57
g58
NtRp4073
(dp4074
g61
(dp4075
g69
I1
ssg70
g4069
sg63
(lp4076
S'/admin/default/edit/ddlagoon/static/base.css'
p4077
asbasbasbasbasbasbasbag56
(g72
g58
NtRp4078
(dp4079
g61
(dp4080
sg70
g3858
sg63
(lp4081
g56
(g77
g58
NtRp4082
(dp4083
g61
(dp4084
sg70
g4078
sg63
(lp4085
g56
(g57
g58
NtRp4086
(dp4087
g61
(dp4088
g69
I2
ssg70
g4082
sg63
(lp4089
g56
(g65
g58
NtRp4090
(dp4091
g61
(dp4092
g69
I1
ssg70
Nsg63
(lp4093
g56
(g72
g58
NtRp4094
(dp4095
g61
(dp4096
sg70
g4090
sg63
(lp4097
g56
(g77
g58
NtRp4098
(dp4099
g61
(dp4100
sg70
g4094
sg63
(lp4101
g56
(g57
g58
NtRp4102
(dp4103
g61
(dp4104
g69
I1
ssg70
g4098
sg63
(lp4105
g3749
(S's\x08\x00\x00\x00DB Model'
tRp4106
asbasbasbag56
(g72
g58
NtRp4107
(dp4108
g61
(dp4109
sg70
g4090
sg63
(lp4110
g56
(g77
g58
NtRp4111
(dp4112
g61
(dp4113
sg70
g4107
sg63
(lp4114
g56
(g57
g58
NtRp4115
(dp4116
g61
(dp4117
g69
I1
ssg70
g4111
sg63
(lp4118
I00
asbasbasbag56
(g72
g58
NtRp4119
(dp4120
g61
(dp4121
sg70
g4090
sg63
(lp4122
g56
(g77
g58
NtRp4123
(dp4124
g61
(dp4125
sg70
g4119
sg63
(lp4126
g56
(g57
g58
NtRp4127
(dp4128
g61
(dp4129
g69
I1
ssg70
g4123
sg63
(lp4130
S'/admin/default/edit/ddlagoon/models/db.py'
p4131
asbasbasbasbasbasbasbag56
(g72
g58
NtRp4132
(dp4133
g61
(dp4134
sg70
g3858
sg63
(lp4135
g56
(g77
g58
NtRp4136
(dp4137
g61
(dp4138
sg70
g4132
sg63
(lp4139
g56
(g57
g58
NtRp4140
(dp4141
g61
(dp4142
g69
I2
ssg70
g4136
sg63
(lp4143
g56
(g65
g58
NtRp4144
(dp4145
g61
(dp4146
g69
I1
ssg70
Nsg63
(lp4147
g56
(g72
g58
NtRp4148
(dp4149
g61
(dp4150
sg70
g4144
sg63
(lp4151
g56
(g77
g58
NtRp4152
(dp4153
g61
(dp4154
sg70
g4148
sg63
(lp4155
g56
(g57
g58
NtRp4156
(dp4157
g61
(dp4158
g69
I1
ssg70
g4152
sg63
(lp4159
g3749
(S's\n\x00\x00\x00Menu Model'
tRp4160
asbasbasbag56
(g72
g58
NtRp4161
(dp4162
g61
(dp4163
sg70
g4144
sg63
(lp4164
g56
(g77
g58
NtRp4165
(dp4166
g61
(dp4167
sg70
g4161
sg63
(lp4168
g56
(g57
g58
NtRp4169
(dp4170
g61
(dp4171
g69
I1
ssg70
g4165
sg63
(lp4172
I00
asbasbasbag56
(g72
g58
NtRp4173
(dp4174
g61
(dp4175
sg70
g4144
sg63
(lp4176
g56
(g77
g58
NtRp4177
(dp4178
g61
(dp4179
sg70
g4173
sg63
(lp4180
g56
(g57
g58
NtRp4181
(dp4182
g61
(dp4183
g69
I1
ssg70
g4177
sg63
(lp4184
S'/admin/default/edit/ddlagoon/models/menu.py'
p4185
asbasbasbasbasbasbasbag56
(g72
g58
NtRp4186
(dp4187
g61
(dp4188
sg70
g3858
sg63
(lp4189
g56
(g77
g58
NtRp4190
(dp4191
g61
(dp4192
sg70
g4186
sg63
(lp4193
g56
(g57
g58
NtRp4194
(dp4195
g61
(dp4196
g69
I2
ssg70
g4190
sg63
(lp4197
g56
(g65
g58
NtRp4198
(dp4199
g61
(dp4200
g69
I1
ssg70
Nsg63
(lp4201
g56
(g72
g58
NtRp4202
(dp4203
g61
(dp4204
sg70
g4198
sg63
(lp4205
g56
(g77
g58
NtRp4206
(dp4207
g61
(dp4208
sg70
g4202
sg63
(lp4209
g56
(g57
g58
NtRp4210
(dp4211
g61
(dp4212
g69
I1
ssg70
g4206
sg63
(lp4213
g3749
(S's\x08\x00\x00\x00Database'
tRp4214
asbasbasbag56
(g72
g58
NtRp4215
(dp4216
g61
(dp4217
sg70
g4198
sg63
(lp4218
g56
(g77
g58
NtRp4219
(dp4220
g61
(dp4221
sg70
g4215
sg63
(lp4222
g56
(g57
g58
NtRp4223
(dp4224
g61
(dp4225
g69
I1
ssg70
g4219
sg63
(lp4226
I00
asbasbasbag56
(g72
g58
NtRp4227
(dp4228
g61
(dp4229
sg70
g4198
sg63
(lp4230
g56
(g77
g58
NtRp4231
(dp4232
g61
(dp4233
sg70
g4227
sg63
(lp4234
g56
(g57
g58
NtRp4235
(dp4236
g61
(dp4237
g69
I1
ssg70
g4231
sg63
(lp4238
S'/ddlagoon/appadmin/index'
p4239
asbasbasbasbasbasbasbag56
(g72
g58
NtRp4240
(dp4241
g61
(dp4242
sg70
g3858
sg63
(lp4243
g56
(g77
g58
NtRp4244
(dp4245
g61
(dp4246
sg70
g4240
sg63
(lp4247
g56
(g57
g58
NtRp4248
(dp4249
g61
(dp4250
g69
I2
ssg70
g4244
sg63
(lp4251
g56
(g65
g58
NtRp4252
(dp4253
g61
(dp4254
g69
I1
ssg70
Nsg63
(lp4255
g56
(g72
g58
NtRp4256
(dp4257
g61
(dp4258
sg70
g4252
sg63
(lp4259
g56
(g77
g58
NtRp4260
(dp4261
g61
(dp4262
sg70
g4256
sg63
(lp4263
g56
(g57
g58
NtRp4264
(dp4265
g61
(dp4266
g69
I1
ssg70
g4260
sg63
(lp4267
g3749
(S's\x06\x00\x00\x00Errors'
tRp4268
asbasbasbag56
(g72
g58
NtRp4269
(dp4270
g61
(dp4271
sg70
g4252
sg63
(lp4272
g56
(g77
g58
NtRp4273
(dp4274
g61
(dp4275
sg70
g4269
sg63
(lp4276
g56
(g57
g58
NtRp4277
(dp4278
g61
(dp4279
g69
I1
ssg70
g4273
sg63
(lp4280
I00
asbasbasbag56
(g72
g58
NtRp4281
(dp4282
g61
(dp4283
sg70
g4252
sg63
(lp4284
g56
(g77
g58
NtRp4285
(dp4286
g61
(dp4287
sg70
g4281
sg63
(lp4288
g56
(g57
g58
NtRp4289
(dp4290
g61
(dp4291
g69
I1
ssg70
g4285
sg63
(lp4292
S'/admin/default/errors/ddlagoon'
p4293
asbasbasbasbasbasbasbag56
(g72
g58
NtRp4294
(dp4295
g61
(dp4296
sg70
g3858
sg63
(lp4297
g56
(g77
g58
NtRp4298
(dp4299
g61
(dp4300
sg70
g4294
sg63
(lp4301
g56
(g57
g58
NtRp4302
(dp4303
g61
(dp4304
g69
I2
ssg70
g4298
sg63
(lp4305
g56
(g65
g58
NtRp4306
(dp4307
g61
(dp4308
g69
I1
ssg70
Nsg63
(lp4309
g56
(g72
g58
NtRp4310
(dp4311
g61
(dp4312
sg70
g4306
sg63
(lp4313
g56
(g77
g58
NtRp4314
(dp4315
g61
(dp4316
sg70
g4310
sg63
(lp4317
g56
(g57
g58
NtRp4318
(dp4319
g61
(dp4320
g69
I1
ssg70
g4314
sg63
(lp4321
g3749
(S's\x05\x00\x00\x00About'
tRp4322
asbasbasbag56
(g72
g58
NtRp4323
(dp4324
g61
(dp4325
sg70
g4306
sg63
(lp4326
g56
(g77
g58
NtRp4327
(dp4328
g61
(dp4329
sg70
g4323
sg63
(lp4330
g56
(g57
g58
NtRp4331
(dp4332
g61
(dp4333
g69
I1
ssg70
g4327
sg63
(lp4334
I00
asbasbasbag56
(g72
g58
NtRp4335
(dp4336
g61
(dp4337
sg70
g4306
sg63
(lp4338
g56
(g77
g58
NtRp4339
(dp4340
g61
(dp4341
sg70
g4335
sg63
(lp4342
g56
(g57
g58
NtRp4343
(dp4344
g61
(dp4345
g69
I1
ssg70
g4339
sg63
(lp4346
S'/admin/default/about/ddlagoon'
p4347
asbasbasbasbasbasbasbasbasbasbasbasbasbasbasbag56
(g72
g58
NtRp4348
(dp4349
g61
(dp4350
sg70
g3717
sg63
(lp4351
g56
(g77
g58
NtRp4352
(dp4353
g61
(dp4354
sg70
g4348
sg63
(lp4355
g56
(g57
g58
NtRp4356
(dp4357
g61
(dp4358
g69
I4
ssg70
g4352
sg63
(lp4359
g56
(g65
g58
NtRp4360
(dp4361
g61
(dp4362
g69
I3
ssg70
Nsg63
(lp4363
g56
(g72
g58
NtRp4364
(dp4365
g61
(dp4366
sg70
g4360
sg63
(lp4367
g56
(g77
g58
NtRp4368
(dp4369
g61
(dp4370
sg70
g4364
sg63
(lp4371
g56
(g57
g58
NtRp4372
(dp4373
g61
(dp4374
g69
I3
ssg70
g4368
sg63
(lp4375
g3749
(S's\t\x00\x00\x00Resources'
tRp4376
asbasbasbag56
(g72
g58
NtRp4377
(dp4378
g61
(dp4379
sg70
g4360
sg63
(lp4380
g56
(g77
g58
NtRp4381
(dp4382
g61
(dp4383
sg70
g4377
sg63
(lp4384
g56
(g57
g58
NtRp4385
(dp4386
g61
(dp4387
g69
I3
ssg70
g4381
sg63
(lp4388
g99
asbasbasbag56
(g72
g58
NtRp4389
(dp4390
g61
(dp4391
sg70
g4360
sg63
(lp4392
g56
(g77
g58
NtRp4393
(dp4394
g61
(dp4395
sg70
g4389
sg63
(lp4396
g56
(g57
g58
NtRp4397
(dp4398
g61
(dp4399
g69
I3
ssg70
g4393
sg63
(lp4400
S'None'
p4401
asbasbasbag56
(g72
g58
NtRp4402
(dp4403
g61
(dp4404
sg70
g4360
sg63
(lp4405
g56
(g77
g58
NtRp4406
(dp4407
g61
(dp4408
sg70
g4402
sg63
(lp4409
g56
(g57
g58
NtRp4410
(dp4411
g61
(dp4412
g69
I3
ssg70
g4406
sg63
(lp4413
g56
(g65
g58
NtRp4414
(dp4415
g61
(dp4416
g69
I2
ssg70
Nsg63
(lp4417
g56
(g72
g58
NtRp4418
(dp4419
g61
(dp4420
sg70
g4414
sg63
(lp4421
g56
(g77
g58
NtRp4422
(dp4423
g61
(dp4424
sg70
g4418
sg63
(lp4425
g56
(g57
g58
NtRp4426
(dp4427
g61
(dp4428
g69
I2
ssg70
g4422
sg63
(lp4429
g56
(g65
g58
NtRp4430
(dp4431
g61
(dp4432
g69
I1
ssg70
Nsg63
(lp4433
g56
(g72
g58
NtRp4434
(dp4435
g61
(dp4436
sg70
g4430
sg63
(lp4437
g56
(g77
g58
NtRp4438
(dp4439
g61
(dp4440
sg70
g4434
sg63
(lp4441
g56
(g57
g58
NtRp4442
(dp4443
g61
(dp4444
g69
I1
ssg70
g4438
sg63
(lp4445
g3749
(S's\r\x00\x00\x00Documentation'
tRp4446
asbasbasbag56
(g72
g58
NtRp4447
(dp4448
g61
(dp4449
sg70
g4430
sg63
(lp4450
g56
(g77
g58
NtRp4451
(dp4452
g61
(dp4453
sg70
g4447
sg63
(lp4454
g56
(g57
g58
NtRp4455
(dp4456
g61
(dp4457
g69
I1
ssg70
g4451
sg63
(lp4458
I00
asbasbasbag56
(g72
g58
NtRp4459
(dp4460
g61
(dp4461
sg70
g4430
sg63
(lp4462
g56
(g77
g58
NtRp4463
(dp4464
g61
(dp4465
sg70
g4459
sg63
(lp4466
g56
(g57
g58
NtRp4467
(dp4468
g61
(dp4469
g69
I1
ssg70
g4463
sg63
(lp4470
S'http://www.web2py.com/book'
p4471
asbasbasbag56
(g72
g58
NtRp4472
(dp4473
g61
(dp4474
sg70
g4430
sg63
(lp4475
g56
(g77
g58
NtRp4476
(dp4477
g61
(dp4478
sg70
g4472
sg63
(lp4479
g56
(g57
g58
NtRp4480
(dp4481
g61
(dp4482
g69
I1
ssg70
g4476
sg63
(lp4483
(lp4484
(g3749
(S's\x07\x00\x00\x00Preface'
tRp4485
I00
S'http://www.web2py.com/book/default/chapter/00'
p4486
tp4487
a(g3749
(S's\x0c\x00\x00\x00Introduction'
tRp4488
I00
S'http://www.web2py.com/book/default/chapter/01'
p4489
tp4490
a(g3749
(S's\x06\x00\x00\x00Python'
tRp4491
I00
S'http://www.web2py.com/book/default/chapter/02'
p4492
tp4493
a(g3749
(S's\x08\x00\x00\x00Overview'
tRp4494
I00
S'http://www.web2py.com/book/default/chapter/03'
p4495
tp4496
a(g3749
(S's\x08\x00\x00\x00The Core'
tRp4497
I00
S'http://www.web2py.com/book/default/chapter/04'
p4498
tp4499
a(g3749
(S's\t\x00\x00\x00The Views'
tRp4500
I00
S'http://www.web2py.com/book/default/chapter/05'
p4501
tp4502
a(g3749
(S's\x08\x00\x00\x00Database'
tRp4503
I00
S'http://www.web2py.com/book/default/chapter/06'
p4504
tp4505
a(g3749
(S's\x14\x00\x00\x00Forms and Validators'
tRp4506
I00
S'http://www.web2py.com/book/default/chapter/07'
p4507
tp4508
a(g3749
(S's\x0e\x00\x00\x00Access Control'
tRp4509
I00
S'http://www.web2py.com/book/default/chapter/08'
p4510
tp4511
a(g3749
(S's\x08\x00\x00\x00Services'
tRp4512
I00
S'http://www.web2py.com/book/default/chapter/09'
p4513
tp4514
a(g3749
(S's\x0c\x00\x00\x00Ajax Recipes'
tRp4515
I00
S'http://www.web2py.com/book/default/chapter/10'
p4516
tp4517
a(g3749
(S's\x12\x00\x00\x00Deployment Recipes'
tRp4518
I00
S'http://www.web2py.com/book/default/chapter/11'
p4519
tp4520
a(g3749
(S's\r\x00\x00\x00Other Recipes'
tRp4521
I00
S'http://www.web2py.com/book/default/chapter/12'
p4522
tp4523
a(g3749
(S's\r\x00\x00\x00Buy this book'
tRp4524
I00
S'http://stores.lulu.com/web2py'
p4525
tp4526
aasbasbasbasbasbasbasbag56
(g72
g58
NtRp4527
(dp4528
g61
(dp4529
sg70
g4414
sg63
(lp4530
g56
(g77
g58
NtRp4531
(dp4532
g61
(dp4533
sg70
g4527
sg63
(lp4534
g56
(g57
g58
NtRp4535
(dp4536
g61
(dp4537
g69
I2
ssg70
g4531
sg63
(lp4538
g56
(g65
g58
NtRp4539
(dp4540
g61
(dp4541
g69
I1
ssg70
Nsg63
(lp4542
g56
(g72
g58
NtRp4543
(dp4544
g61
(dp4545
sg70
g4539
sg63
(lp4546
g56
(g77
g58
NtRp4547
(dp4548
g61
(dp4549
sg70
g4543
sg63
(lp4550
g56
(g57
g58
NtRp4551
(dp4552
g61
(dp4553
g69
I1
ssg70
g4547
sg63
(lp4554
g3749
(S's\t\x00\x00\x00Community'
tRp4555
asbasbasbag56
(g72
g58
NtRp4556
(dp4557
g61
(dp4558
sg70
g4539
sg63
(lp4559
g56
(g77
g58
NtRp4560
(dp4561
g61
(dp4562
sg70
g4556
sg63
(lp4563
g56
(g57
g58
NtRp4564
(dp4565
g61
(dp4566
g69
I1
ssg70
g4560
sg63
(lp4567
I00
asbasbasbag56
(g72
g58
NtRp4568
(dp4569
g61
(dp4570
sg70
g4539
sg63
(lp4571
g56
(g77
g58
NtRp4572
(dp4573
g61
(dp4574
sg70
g4568
sg63
(lp4575
g56
(g57
g58
NtRp4576
(dp4577
g61
(dp4578
g69
I1
ssg70
g4572
sg63
(lp4579
Nasbasbasbag56
(g72
g58
NtRp4580
(dp4581
g61
(dp4582
sg70
g4539
sg63
(lp4583
g56
(g77
g58
NtRp4584
(dp4585
g61
(dp4586
sg70
g4580
sg63
(lp4587
g56
(g57
g58
NtRp4588
(dp4589
g61
(dp4590
g69
I1
ssg70
g4584
sg63
(lp4591
(lp4592
(g3749
(S's\x06\x00\x00\x00Groups'
tRp4593
I00
S'http://www.web2py.com/examples/default/usergroups'
p4594
tp4595
a(g3749
(S's\x07\x00\x00\x00Twitter'
tRp4596
I00
S'http://twitter.com/web2py'
p4597
tp4598
a(g3749
(S's\t\x00\x00\x00Live chat'
tRp4599
I00
S'http://mibbit.com/?channel=%23web2py&server=irc.mibbit.net'
p4600
tp4601
a(g3749
(S's\n\x00\x00\x00User Voice'
tRp4602
I00
S'http://web2py.uservoice.com/'
p4603
tp4604
aasbasbasbasbasbasbasbag56
(g72
g58
NtRp4605
(dp4606
g61
(dp4607
sg70
g4414
sg63
(lp4608
g56
(g77
g58
NtRp4609
(dp4610
g61
(dp4611
sg70
g4605
sg63
(lp4612
g56
(g57
g58
NtRp4613
(dp4614
g61
(dp4615
g69
I2
ssg70
g4609
sg63
(lp4616
g56
(g65
g58
NtRp4617
(dp4618
g61
(dp4619
g69
I1
ssg70
Nsg63
(lp4620
g56
(g72
g58
NtRp4621
(dp4622
g61
(dp4623
sg70
g4617
sg63
(lp4624
g56
(g77
g58
NtRp4625
(dp4626
g61
(dp4627
sg70
g4621
sg63
(lp4628
g56
(g57
g58
NtRp4629
(dp4630
g61
(dp4631
g69
I1
ssg70
g4625
sg63
(lp4632
g3749
(S's\x06\x00\x00\x00Web2py'
tRp4633
asbasbasbag56
(g72
g58
NtRp4634
(dp4635
g61
(dp4636
sg70
g4617
sg63
(lp4637
g56
(g77
g58
NtRp4638
(dp4639
g61
(dp4640
sg70
g4634
sg63
(lp4641
g56
(g57
g58
NtRp4642
(dp4643
g61
(dp4644
g69
I1
ssg70
g4638
sg63
(lp4645
I00
asbasbasbag56
(g72
g58
NtRp4646
(dp4647
g61
(dp4648
sg70
g4617
sg63
(lp4649
g56
(g77
g58
NtRp4650
(dp4651
g61
(dp4652
sg70
g4646
sg63
(lp4653
g56
(g57
g58
NtRp4654
(dp4655
g61
(dp4656
g69
I1
ssg70
g4650
sg63
(lp4657
S'http://www.web2py.com'
p4658
asbasbasbag56
(g72
g58
NtRp4659
(dp4660
g61
(dp4661
sg70
g4617
sg63
(lp4662
g56
(g77
g58
NtRp4663
(dp4664
g61
(dp4665
sg70
g4659
sg63
(lp4666
g56
(g57
g58
NtRp4667
(dp4668
g61
(dp4669
g69
I1
ssg70
g4663
sg63
(lp4670
(lp4671
(g3749
(S's\x08\x00\x00\x00Download'
tRp4672
I00
S'http://www.web2py.com/examples/default/download'
p4673
tp4674
a(g3749
(S's\x07\x00\x00\x00Support'
tRp4675
I00
S'http://www.web2py.com/examples/default/support'
p4676
tp4677
a(g3749
(S's\x0e\x00\x00\x00Quick Examples'
tRp4678
I00
S'http://web2py.com/examples/default/examples'
p4679
tp4680
a(g3749
(S's\x03\x00\x00\x00FAQ'
tRp4681
I00
S'http://web2py.com/AlterEgo'
p4682
tp4683
a(g3749
(S's\x11\x00\x00\x00Free Applications'
tRp4684
I00
S'http://web2py.com/appliances'
p4685
tp4686
a(g3749
(S's\x07\x00\x00\x00Plugins'
tRp4687
I00
S'http://web2py.com/plugins'
p4688
tp4689
a(g3749
(S's\x07\x00\x00\x00Recipes'
tRp4690
I00
S'http://web2pyslices.com/'
p4691
tp4692
a(g3749
(S's\x04\x00\x00\x00Demo'
tRp4693
I00
S'http://web2py.com/demo_admin'
p4694
tp4695
a(g3749
(S's\x08\x00\x00\x00Semantic'
tRp4696
I00
S'http://web2py.com/semantic'
p4697
tp4698
a(g3749
(S's\x07\x00\x00\x00Layouts'
tRp4699
I00
S'http://web2py.com/layouts'
p4700
tp4701
a(g3749
(S's\x06\x00\x00\x00Videos'
tRp4702
I00
S'http://www.web2py.com/examples/default/videos/'
p4703
tp4704
aasbasbasbasbasbasbasbasbasbasbasbasbasbasbasbasbasbasbasbag56
(g72
g58
NtRp4705
(dp4706
g61
(dp4707
sg70
g3244
sg63
(lp4708
g56
(g77
g58
NtRp4709
(dp4710
g61
(dp4711
g81
g82
ssg70
g4705
sg63
(lp4712
S'meta'
p4713
asbag56
(g77
g58
NtRp4714
(dp4715
g61
(dp4716
g88
g89
ssg70
g4705
sg63
(lp4717
S':'
asbag56
(g77
g58
NtRp4718
(dp4719
g61
(dp4720
sg70
g4705
sg63
(lp4721
g56
(g57
g58
NtRp4722
(dp4723
g61
(dp4724
g69
I5
ssg70
g4718
sg63
(lp4725
g56
(g65
g58
NtRp4726
(dp4727
g61
(dp4728
g69
I4
ssg70
Nsg63
(lp4729
g56
(g72
g58
NtRp4730
(dp4731
g61
(dp4732
sg70
g4726
sg63
(lp4733
g56
(g77
g58
NtRp4734
(dp4735
g61
(dp4736
g81
g82
ssg70
g4730
sg63
(lp4737
S'author'
p4738
asbag56
(g77
g58
NtRp4739
(dp4740
g61
(dp4741
g88
g89
ssg70
g4730
sg63
(lp4742
S':'
asbag56
(g77
g58
NtRp4743
(dp4744
g61
(dp4745
sg70
g4730
sg63
(lp4746
g56
(g57
g58
NtRp4747
(dp4748
g61
(dp4749
g69
I4
ssg70
g4743
sg63
(lp4750
S'Your Name <you@example.com>'
p4751
asbasbasbag56
(g72
g58
NtRp4752
(dp4753
g61
(dp4754
sg70
g4726
sg63
(lp4755
g56
(g77
g58
NtRp4756
(dp4757
g61
(dp4758
g81
g82
ssg70
g4752
sg63
(lp4759
S'copyright'
p4760
asbag56
(g77
g58
NtRp4761
(dp4762
g61
(dp4763
g88
g89
ssg70
g4752
sg63
(lp4764
S':'
asbag56
(g77
g58
NtRp4765
(dp4766
g61
(dp4767
sg70
g4752
sg63
(lp4768
g56
(g57
g58
NtRp4769
(dp4770
g61
(dp4771
g69
I4
ssg70
g4765
sg63
(lp4772
S'Copyright 2011'
p4773
asbasbasbag56
(g72
g58
NtRp4774
(dp4775
g61
(dp4776
sg70
g4726
sg63
(lp4777
g56
(g77
g58
NtRp4778
(dp4779
g61
(dp4780
g81
g82
ssg70
g4774
sg63
(lp4781
S'description'
p4782
asbag56
(g77
g58
NtRp4783
(dp4784
g61
(dp4785
g88
g89
ssg70
g4774
sg63
(lp4786
S':'
asbag56
(g77
g58
NtRp4787
(dp4788
g61
(dp4789
sg70
g4774
sg63
(lp4790
g56
(g57
g58
NtRp4791
(dp4792
g61
(dp4793
g69
I4
ssg70
g4787
sg63
(lp4794
S'a cool new app'
p4795
asbasbasbag56
(g72
g58
NtRp4796
(dp4797
g61
(dp4798
sg70
g4726
sg63
(lp4799
g56
(g77
g58
NtRp4800
(dp4801
g61
(dp4802
g81
g82
ssg70
g4796
sg63
(lp4803
S'generator'
p4804
asbag56
(g77
g58
NtRp4805
(dp4806
g61
(dp4807
g88
g89
ssg70
g4796
sg63
(lp4808
S':'
asbag56
(g77
g58
NtRp4809
(dp4810
g61
(dp4811
sg70
g4796
sg63
(lp4812
g56
(g57
g58
NtRp4813
(dp4814
g61
(dp4815
g69
I4
ssg70
g4809
sg63
(lp4816
S'Web2py Web Framework'
p4817
asbasbasbag56
(g72
g58
NtRp4818
(dp4819
g61
(dp4820
sg70
g4726
sg63
(lp4821
g56
(g77
g58
NtRp4822
(dp4823
g61
(dp4824
g81
g82
ssg70
g4818
sg63
(lp4825
S'keywords'
p4826
asbag56
(g77
g58
NtRp4827
(dp4828
g61
(dp4829
g88
g89
ssg70
g4818
sg63
(lp4830
S':'
asbag56
(g77
g58
NtRp4831
(dp4832
g61
(dp4833
sg70
g4818
sg63
(lp4834
g56
(g57
g58
NtRp4835
(dp4836
g61
(dp4837
g69
I4
ssg70
g4831
sg63
(lp4838
S'web2py, python, framework'
p4839
asbasbasbasbasbasbasbag56
(g72
g58
NtRp4840
(dp4841
g61
(dp4842
sg70
g3244
sg63
(lp4843
g56
(g77
g58
NtRp4844
(dp4845
g61
(dp4846
g81
g82
ssg70
g4840
sg63
(lp4847
S'postprocessing'
p4848
asbag56
(g77
g58
NtRp4849
(dp4850
g61
(dp4851
g88
g89
ssg70
g4840
sg63
(lp4852
S':'
asbag56
(g77
g58
NtRp4853
(dp4854
g61
(dp4855
sg70
g4840
sg63
(lp4856
g56
(g57
g58
NtRp4857
(dp4858
g61
(dp4859
g69
I5
ssg70
g4853
sg63
(lp4860
g56
(g65
g58
NtRp4861
(dp4862
g61
(dp4863
g69
I4
ssg70
Nsg63
(lp4864
sbasbasbasbag56
(g72
g58
NtRp4865
(dp4866
g61
(dp4867
sg70
g3244
sg63
(lp4868
g56
(g77
g58
NtRp4869
(dp4870
g61
(dp4871
g81
g82
ssg70
g4865
sg63
(lp4872
S'session_filename'
p4873
asbag56
(g77
g58
NtRp4874
(dp4875
g61
(dp4876
g88
g89
ssg70
g4865
sg63
(lp4877
S':'
asbag56
(g77
g58
NtRp4878
(dp4879
g61
(dp4880
sg70
g4865
sg63
(lp4881
g56
(g57
g58
NtRp4882
(dp4883
g61
(dp4884
g69
I5
ssg70
g4878
sg63
(lp4885
S'/windows/Users/Thomas/Dropbox/appz/2011/GAE/ddl-lagoon/applications/ddlagoon/sessions/127.0.0.1-1be37c93-acc9-468e-920e-a5fda571cec0'
p4886
asbasbasbag56
(g72
g58
NtRp4887
(dp4888
g61
(dp4889
sg70
g3244
sg63
(lp4890
g56
(g77
g58
NtRp4891
(dp4892
g61
(dp4893
g81
g82
ssg70
g4887
sg63
(lp4894
S'session_id'
p4895
asbag56
(g77
g58
NtRp4896
(dp4897
g61
(dp4898
g88
g89
ssg70
g4887
sg63
(lp4899
S':'
asbag56
(g77
g58
NtRp4900
(dp4901
g61
(dp4902
sg70
g4887
sg63
(lp4903
g56
(g57
g58
NtRp4904
(dp4905
g61
(dp4906
g69
I5
ssg70
g4900
sg63
(lp4907
S'127.0.0.1-1be37c93-acc9-468e-920e-a5fda571cec0'
p4908
asbasbasbag56
(g72
g58
NtRp4909
(dp4910
g61
(dp4911
sg70
g3244
sg63
(lp4912
g56
(g77
g58
NtRp4913
(dp4914
g61
(dp4915
g81
g82
ssg70
g4909
sg63
(lp4916
S'session_id_name'
p4917
asbag56
(g77
g58
NtRp4918
(dp4919
g61
(dp4920
g88
g89
ssg70
g4909
sg63
(lp4921
S':'
asbag56
(g77
g58
NtRp4922
(dp4923
g61
(dp4924
sg70
g4909
sg63
(lp4925
g56
(g57
g58
NtRp4926
(dp4927
g61
(dp4928
g69
I5
ssg70
g4922
sg63
(lp4929
g3301
asbasbasbag56
(g72
g58
NtRp4930
(dp4931
g61
(dp4932
sg70
g3244
sg63
(lp4933
g56
(g77
g58
NtRp4934
(dp4935
g61
(dp4936
g81
g82
ssg70
g4930
sg63
(lp4937
S'session_new'
p4938
asbag56
(g77
g58
NtRp4939
(dp4940
g61
(dp4941
g88
g89
ssg70
g4930
sg63
(lp4942
S':'
asbag56
(g77
g58
NtRp4943
(dp4944
g61
(dp4945
sg70
g4930
sg63
(lp4946
g56
(g57
g58
NtRp4947
(dp4948
g61
(dp4949
g69
I5
ssg70
g4943
sg63
(lp4950
g1726
asbasbasbag56
(g72
g58
NtRp4951
(dp4952
g61
(dp4953
sg70
g3244
sg63
(lp4954
g56
(g77
g58
NtRp4955
(dp4956
g61
(dp4957
g81
g82
ssg70
g4951
sg63
(lp4958
S'status'
p4959
asbag56
(g77
g58
NtRp4960
(dp4961
g61
(dp4962
g88
g89
ssg70
g4951
sg63
(lp4963
S':'
asbag56
(g77
g58
NtRp4964
(dp4965
g61
(dp4966
sg70
g4951
sg63
(lp4967
g56
(g57
g58
NtRp4968
(dp4969
g61
(dp4970
g69
I5
ssg70
g4964
sg63
(lp4971
S'200'
p4972
asbasbasbag56
(g72
g58
NtRp4973
(dp4974
g61
(dp4975
sg70
g3244
sg63
(lp4976
g56
(g77
g58
NtRp4977
(dp4978
g61
(dp4979
g81
g82
ssg70
g4973
sg63
(lp4980
S'subtitle'
p4981
asbag56
(g77
g58
NtRp4982
(dp4983
g61
(dp4984
g88
g89
ssg70
g4973
sg63
(lp4985
S':'
asbag56
(g77
g58
NtRp4986
(dp4987
g61
(dp4988
sg70
g4973
sg63
(lp4989
g56
(g57
g58
NtRp4990
(dp4991
g61
(dp4992
g69
I5
ssg70
g4986
sg63
(lp4993
g3749
(S's\r\x00\x00\x00customize me!'
tRp4994
asbasbasbag56
(g72
g58
NtRp4995
(dp4996
g61
(dp4997
sg70
g3244
sg63
(lp4998
g56
(g77
g58
NtRp4999
(dp5000
g61
(dp5001
g81
g82
ssg70
g4995
sg63
(lp5002
S'title'
p5003
asbag56
(g77
g58
NtRp5004
(dp5005
g61
(dp5006
g88
g89
ssg70
g4995
sg63
(lp5007
S':'
asbag56
(g77
g58
NtRp5008
(dp5009
g61
(dp5010
sg70
g4995
sg63
(lp5011
g56
(g57
g58
NtRp5012
(dp5013
g61
(dp5014
g69
I5
ssg70
g5008
sg63
(lp5015
g121
asbasbasbag56
(g72
g58
NtRp5016
(dp5017
g61
(dp5018
sg70
g3244
sg63
(lp5019
g56
(g77
g58
NtRp5020
(dp5021
g61
(dp5022
g81
g82
ssg70
g5016
sg63
(lp5023
g2392
asbag56
(g77
g58
NtRp5024
(dp5025
g61
(dp5026
g88
g89
ssg70
g5016
sg63
(lp5027
S':'
asbag56
(g77
g58
NtRp5028
(dp5029
g61
(dp5030
sg70
g5016
sg63
(lp5031
g56
(g57
g58
NtRp5032
(dp5033
g61
(dp5034
g69
I5
ssg70
g5028
sg63
(lp5035
g2405
asbasbasbag56
(g72
g58
NtRp5036
(dp5037
g61
(dp5038
sg70
g3244
sg63
(lp5039
g56
(g77
g58
NtRp5040
(dp5041
g61
(dp5042
g81
g82
ssg70
g5036
sg63
(lp5043
S'view'
p5044
asbag56
(g77
g58
NtRp5045
(dp5046
g61
(dp5047
g88
g89
ssg70
g5036
sg63
(lp5048
S':'
asbag56
(g77
g58
NtRp5049
(dp5050
g61
(dp5051
sg70
g5036
sg63
(lp5052
g56
(g57
g58
NtRp5053
(dp5054
g61
(dp5055
g69
I5
ssg70
g5049
sg63
(lp5056
S'ddl/get.html'
p5057
asbasbasbasbasbsS'locals'
p5058
(dp5059
S'id'
p5060
S"'1'"
p5061
sS'filename'
p5062
S"'2'"
p5063
sssS'traceback'
p5064
S'Traceback (most recent call last):\n  File "/windows/Users/Thomas/Dropbox/appz/2011/GAE/ddl-lagoon/gluon/restricted.py", line 194, in restricted\n    exec ccode in environment\n  File "/windows/Users/Thomas/Dropbox/appz/2011/GAE/ddl-lagoon/applications/ddlagoon/controllers/ddl.py", line 9, in <module>\n  File "/windows/Users/Thomas/Dropbox/appz/2011/GAE/ddl-lagoon/gluon/globals.py", line 149, in <lambda>\n    self._caller = lambda f: f()\n  File "/windows/Users/Thomas/Dropbox/appz/2011/GAE/ddl-lagoon/applications/ddlagoon/controllers/ddl.py", line 4, in get\n    return service()\n  File "/windows/Users/Thomas/Dropbox/appz/2011/GAE/ddl-lagoon/gluon/tools.py", line 3840, in __call__\n    return self.serve_xml(request.args[1:])\n  File "/windows/Users/Thomas/Dropbox/appz/2011/GAE/ddl-lagoon/gluon/tools.py", line 3632, in serve_xml\n    *args[1:], **dict(request.vars))\n  File "/windows/Users/Thomas/Dropbox/appz/2011/GAE/ddl-lagoon/gluon/tools.py", line 3351, in universal_caller\n    return f(**arg_dict)\n  File "/windows/Users/Thomas/Dropbox/appz/2011/GAE/ddl-lagoon/applications/ddlagoon/controllers/ddl.py", line 8, in ddl\n    return response.download()\nTypeError: download() takes at least 3 arguments (1 given)\n'
p5065
s.