(dp1
S'output'
p2
S''
sS'layer'
p3
S'/windows/Users/Thomas/Dropbox/appz/2011/GAE/ddl-lagoon/applications/ddlagoon/controllers/default.py'
p4
sS'code'
p5
S'# -*- coding: utf-8 -*-\n# this file is released under public domain and you can use without limitations\n\n#########################################################################\n## This is a samples controller\n## - index is the default action of any application\n## - user is required for authentication and authorization\n## - download is for downloading files uploaded in the db (does streaming)\n## - call exposes all registered services (none by default)\n#########################################################################\nfrom datetime import datetime\nfrom re import T\n\n__version__ = 1.5\n\nfrom Crypto.PublicKey import RSA\n#from Crypto.Random import random\nimport random\nimport base64, hashlib\nimport gluon.contrib.simplejson as json\ndef sha512(n):\n    return hashlib.sha512(str(n)).digest()\ndef sha256(n):\n    return hashlib.sha256(str(n)).digest()\ndef compute(n):\n    return 61*long(n)**3-54*long(n)**2+8942*long(n)*3\ndef chunks(s, n):\n    """Produce `n`-character chunks from `s`."""\n    for start in range(0, len(s), n):\n        yield s[start:start+n]\n\nif False:\n    from gluon.contrib import *\n    from applications.ddlagoon.models.db import db, service, auth\n    from gluon.contrib.pysimplesoap.server import request\n\ndef index():\n    """\n    example action using the internationalization operator T and flash\n    rendered by views/default/index.html or views/generic.html\n    """\n    ddlz= db(db.ddl.ALL).select()\n    return dict(message=T(\'Hello World\'),ddlz=ddlz)\n\ndef user():\n    """\n    exposes:\n    http://..../[app]/default/user/login\n    http://..../[app]/default/user/logout\n    http://..../[app]/default/user/register\n    http://..../[app]/default/user/profile\n    http://..../[app]/default/user/retrieve_password\n    http://..../[app]/default/user/change_password\n    use @auth.requires_login()\n        @auth.requires_membership(\'group name\')\n        @auth.requires_permission(\'read\',\'table name\',record_id)\n    to decorate functions that need access control\n    """\n    return dict(form=auth())\n\n@auth.requires_login()\ndef profile():\n    return dict(nickname=auth.user.nickname,\n                uploader_key=auth.user.uploader_key,\n                is_uploader=auth.user.is_uploader)\n\ndef download():\n    """\n    allows downloading of uploaded files\n    http://..../[app]/default/download/[filename]\n    """\n    return response.download(request,db)\n\n@auth.requires_login()\ndef uploadDDL():\n    return service()\n\ndef call():\n    """\n    exposes services. for example:\n    http://..../[app]/default/call/jsonrpc\n    decorate with @services.jsonrpc the functions to expose\n    supports xml, json, xmlrpc, jsonrpc, amfrpc, rss, csv\n    """\n    return service()\n\n@service.xmlrpc\n@service.json\n@service.xml\ndef receiveDDL(encryptedText):\n    returnCode=-1\n    message="Unknown Error"\n    try:\n        decryptedMsg= decryptFromClient(encryptedText)\n    except:\n        returnCode=-1\n        message= "Error decrypting the DDL"\n    else:\n        try:\n            dataFromClient = json.loads(decryptedMsg)\n        except :\n            returnCode= -1\n            message="Error reading the DDL"\n        else:\n            # prepare a DDL from the received information\n            uploader= db(db.auth_user.nickname==dataFromClient[\'nickname\']).select().first()\n            ddl = dataFromClient[\'ddl\']\n            # remove previous DDL, if present\n            db((db.ddl.filename==ddl[\'filename\']) & (db.ddl.uploader==uploader.id)).delete()\n            db.ddl.update_or_insert(\n                dict(\n                    uploader=uploader.id,\n                    filename=ddl[\'filename\']\n                )\n                , uploader=uploader.id\n                , filename=ddl[\'filename\']\n                , description=ddl[\'description\'],\n                size=ddl[\'size\'],\n                hash=ddl[\'hash\'],\n                parts=ddl[\'parts\'],\n                service=ddl[\'service\'],\n                links=ddl[\'links\'],\n                version=ddl[\'version\']\n                , date_created=datetime.fromtimestamp(ddl[\'time\'])\n            )\n            returnCode= 0\n            message="Upload done!"\n    dataToSend = {\n        \'returnCode\' : returnCode,\n        \'message\' : message\n    }\n    return json.dumps(dataToSend, sort_keys=True, indent=4)\n\n@service.json\n@service.xmlrpc\n@service.xml\ndef concat(a,b):\n    return dict(test=a+b)\n\ndef loginTest(nickname, uploaderKey):\n    returnCode = -1\n    message = ""\n    try:\n        record = db(db.auth_user.nickname==nickname).select().first()\n    except:\n        pass\n    else:\n        if not record:\n            returnCode= -1\n            message= "Who is %s?" % nickname\n        else:\n            if not record.uploader_key==uploaderKey:\n                returnCode= -1\n                message= "Wrong API Key"\n            else:\n                if record.is_uploader:\n                    # login the user\n                    #session.nickname= nickname\n                    returnCode=0\n                else:\n                    returnCode= -1\n                    message= "You are not allowed to upload"\n    return returnCode, message\n\n\ndef decryptFromClient(encryptedMsg):\n    decryptedMsg = ""\n    private_json = {\n        "d": 23787079891404684333685400978249298094378954863672776929346845102263722750088918762338764266712467553502811192479791825128333774826784684125489823193368527161074577530140077392439136510635896140296132025922882984837588521257841050129145633510814630843053674301016823808612405445927946023993959147765325630609,\n        "e": 65537,\n        "n": 113857278326248086267655574343523535583648376051747208707172377115619164320229146138430878888952306898474564499090572366596232150220784972504544737264372878940265396864770701575284749329394957815581364039447123399430603091303935702146927576939090729428557897918935408150236788311903915427199939052963176280397,\n        "p": 9580774579539128121039431812737453710839471771236942870475012323041145011884745445780348665996631786895791139388698030648995797187661607074610865997962403,\n        "q": 11883932492202009053507786643172605523535663521769572031030078443728388902717320133755150294842235771246601522313496536316374989301635407931585896758667599,\n        "u": 1517576679209673870508661373022611765046783829884979500337395070156130858916802958093981514472423096659658057726899513257360280724233068450029128365828499\n    }\n    private_key = RSA.construct((long(private_json[\'n\']), long(private_json[\'e\']),\n                             long(private_json[\'d\']), long(private_json[\'p\']),\n                             long(private_json[\'q\']), long(private_json[\'u\'])))\n    try:\n        for p in encryptedMsg.split("@"):\n            decryptedMsg += private_key.decrypt(base64.b16decode(p))\n    except:\n        pass\n    \n    return decryptedMsg\n\n@service.json\n@service.xmlrpc\n@service.xml\ndef checkLogin(encryptedMsg):\n    # decrypt the message with the private key\n    returnCode = -1\n    message = \'\'\n    computedNb = 0\n    decryptedMsg = decryptFromClient(encryptedMsg)\n    dataFromClient = ()\n    if not len(decryptedMsg)>0:\n        returnCode = -1\n        message = \'Server Decrypt Error\'\n    else:\n        # try to load into a json\n        try:\n            dataFromClient = json.loads(decryptedMsg)\n        except:\n            returnCode = -1\n            message = \'Server Load Error\'\n        else:\n            toFind = [\'nickname\',\'version\',\'uploaderKey\',\'n\',\'e\',\'randomNb\']\n            error = False\n            for e in toFind:\n                if e not in dataFromClient:\n                    error = True\n                    returnCode = -1\n                    message = \'Server Elements Missing\'\n            if not error:\n                # check if the client is using the last version\n                if float(dataFromClient[\'version\'])>=__version__:\n                    returnCode, message = loginTest(dataFromClient[\'nickname\'],dataFromClient[\'uploaderKey\'])\n                    computedNb = base64.b16encode(sha512(sha256(str(compute(dataFromClient[\'randomNb\'])))))\n                else:\n                    returnCode=1\n                    message="A new version of Bobpic is available.\\nYou need to upgrade."\n\n    # prepare a json\n    dataToSend = {\n        \'returnCode\' : returnCode,\n        \'message\' : message,\n        \'computedNb\' : computedNb\n    }\n    # encrypt the json with the dynamic public key of the client\n    # TODO /!\\ If no DataFromClient, submit raw data\n    try:\n        client_pub_key = RSA.construct((long(dataFromClient[\'n\']), long(dataFromClient[\'e\'])))\n        # TODO chunks!!!\n        encryptedMsg = list()\n        dataToSendStr = str(json.dumps(dataToSend, sort_keys=True, indent=4))\n        randomK = long(random.getrandbits(random.randint(128, 256)))\n        for part in chunks(dataToSendStr,127):\n            encryptedData = client_pub_key.encrypt(part, randomK)\n            coded = base64.b16encode(encryptedData[0])\n            encryptedMsg.append(coded)\n        data = "@".join(encryptedMsg)\n    except :\n        dataToSend = {\n            \'returnCode\' : -2,\n            \'message\' : message\n        }\n        return json.dumps(dataToSend, sort_keys=True, indent=4)\n    else:\n        return data\n\n#def checkLogin(username, key):\n#    users = db.auth_user\n#    q = users.nickname==username\n#    s = db(q)\n#    if s.select():\n#        return dict(test=username+key)\n#    else:\n#        return "get out"\n\n@auth.requires_signature()\ndef data():\n    """\n    http://..../[app]/default/data/tables\n    http://..../[app]/default/data/create/[table]\n    http://..../[app]/default/data/read/[table]/[id]\n    http://..../[app]/default/data/update/[table]/[id]\n    http://..../[app]/default/data/delete/[table]/[id]\n    http://..../[app]/default/data/select/[table]\n    http://..../[app]/default/data/search/[table]\n    but URLs bust be signed, i.e. linked with\n      A(\'table\',_href=URL(\'data/tables\',user_signature=True))\n    or with the signed load operator\n      LOAD(\'default\',\'data.load\',args=\'tables\',ajax=True,user_signature=True)\n    """\n    return dict(form=crud())\n\nresponse._vars=response._caller(index)\n'
p6
sS'snapshot'
p7
(dp8
S'exception'
p9
(dp10
S'__getslice__'
p11
S"<method-wrapper '__getslice__' of exceptions.SyntaxError object>"
p12
sS'text'
p13
S'None'
p14
sS'__str__'
p15
S"<method-wrapper '__str__' of exceptions.SyntaxError object>"
p16
sS'__reduce__'
p17
S'<built-in method __reduce__ of exceptions.SyntaxError object>'
p18
sS'__dict__'
p19
S'{}'
p20
sS'__sizeof__'
p21
S'<built-in method __sizeof__ of exceptions.SyntaxError object>'
p22
sS'__init__'
p23
S"<method-wrapper '__init__' of exceptions.SyntaxError object>"
p24
sS'__setattr__'
p25
S"<method-wrapper '__setattr__' of exceptions.SyntaxError object>"
p26
sS'__reduce_ex__'
p27
S'<built-in method __reduce_ex__ of exceptions.SyntaxError object>'
p28
sS'__new__'
p29
S'<built-in method __new__ of type object>'
p30
sS'__format__'
p31
S'<built-in method __format__ of exceptions.SyntaxError object>'
p32
sS'__class__'
p33
S"<type 'exceptions.SyntaxError'>"
p34
sS'filename'
p35
S'None'
p36
sS'lineno'
p37
S'None'
p38
sS'msg'
p39
S"'Set: no tables selected'"
p40
sS'__doc__'
p41
S"'Invalid syntax.'"
p42
sS'__getitem__'
p43
S"<method-wrapper '__getitem__' of exceptions.SyntaxError object>"
p44
sS'__setstate__'
p45
S'<built-in method __setstate__ of exceptions.SyntaxError object>'
p46
sS'__getattribute__'
p47
S"<method-wrapper '__getattribute__' of exceptions.SyntaxError object>"
p48
sS'print_file_and_line'
p49
S'None'
p50
sS'args'
p51
S"('Set: no tables selected',)"
p52
sS'__subclasshook__'
p53
S'<built-in method __subclasshook__ of type object>'
p54
sS'offset'
p55
S'None'
p56
sS'__unicode__'
p57
S'<built-in method __unicode__ of exceptions.SyntaxError object>'
p58
sS'__delattr__'
p59
S"<method-wrapper '__delattr__' of exceptions.SyntaxError object>"
p60
sS'__repr__'
p61
S"<method-wrapper '__repr__' of exceptions.SyntaxError object>"
p62
sS'__hash__'
p63
S"<method-wrapper '__hash__' of exceptions.SyntaxError object>"
p64
ssS'evalue'
p65
S'Set: no tables selected'
p66
sS'request'
p67
ccopy_reg
_reconstructor
p68
(cgluon.html
BEAUTIFY
p69
c__builtin__
object
p70
NtRp71
(dp72
S'attributes'
p73
(dp74
sS'components'
p75
(lp76
g68
(cgluon.html
TABLE
p77
g70
NtRp78
(dp79
g73
(dp80
S'level'
p81
I5
ssS'parent'
p82
Nsg75
(lp83
g68
(cgluon.html
TR
p84
g70
NtRp85
(dp86
g73
(dp87
sg82
g78
sg75
(lp88
g68
(cgluon.html
TD
p89
g70
NtRp90
(dp91
g73
(dp92
S'_style'
p93
S'font-weight:bold;'
p94
ssg82
g85
sg75
(lp95
S'ajax'
p96
asbag68
(g89
g70
NtRp97
(dp98
g73
(dp99
S'_valign'
p100
S'top'
p101
ssg82
g85
sg75
(lp102
S':'
asbag68
(g89
g70
NtRp103
(dp104
g73
(dp105
sg82
g85
sg75
(lp106
g68
(g69
g70
NtRp107
(dp108
g73
(dp109
g81
I5
ssg82
g103
sg75
(lp110
S'False'
p111
asbasbasbag68
(g84
g70
NtRp112
(dp113
g73
(dp114
sg82
g78
sg75
(lp115
g68
(g89
g70
NtRp116
(dp117
g73
(dp118
g93
g94
ssg82
g112
sg75
(lp119
S'application'
p120
asbag68
(g89
g70
NtRp121
(dp122
g73
(dp123
g100
g101
ssg82
g112
sg75
(lp124
S':'
asbag68
(g89
g70
NtRp125
(dp126
g73
(dp127
sg82
g112
sg75
(lp128
g68
(g69
g70
NtRp129
(dp130
g73
(dp131
g81
I5
ssg82
g125
sg75
(lp132
S'ddlagoon'
p133
asbasbasbag68
(g84
g70
NtRp134
(dp135
g73
(dp136
sg82
g78
sg75
(lp137
g68
(g89
g70
NtRp138
(dp139
g73
(dp140
g93
g94
ssg82
g134
sg75
(lp141
g51
asbag68
(g89
g70
NtRp142
(dp143
g73
(dp144
g100
g101
ssg82
g134
sg75
(lp145
S':'
asbag68
(g89
g70
NtRp146
(dp147
g73
(dp148
sg82
g134
sg75
(lp149
g68
(g69
g70
NtRp150
(dp151
g73
(dp152
g81
I5
ssg82
g146
sg75
(lp153
g68
(g77
g70
NtRp154
(dp155
g73
(dp156
g81
I4
ssg82
Nsg75
(lp157
sbasbasbasbag68
(g84
g70
NtRp158
(dp159
g73
(dp160
sg82
g78
sg75
(lp161
g68
(g89
g70
NtRp162
(dp163
g73
(dp164
g93
g94
ssg82
g158
sg75
(lp165
S'body'
p166
asbag68
(g89
g70
NtRp167
(dp168
g73
(dp169
g100
g101
ssg82
g158
sg75
(lp170
S':'
asbag68
(g89
g70
NtRp171
(dp172
g73
(dp173
sg82
g158
sg75
(lp174
g68
(g69
g70
NtRp175
(dp176
g73
(dp177
g81
I5
ssg82
g171
sg75
(lp178
S'<cStringIO.StringO object at 0x40a4d18>'
p179
asbasbasbag68
(g84
g70
NtRp180
(dp181
g73
(dp182
sg82
g78
sg75
(lp183
g68
(g89
g70
NtRp184
(dp185
g73
(dp186
g93
g94
ssg82
g180
sg75
(lp187
S'client'
p188
asbag68
(g89
g70
NtRp189
(dp190
g73
(dp191
g100
g101
ssg82
g180
sg75
(lp192
S':'
asbag68
(g89
g70
NtRp193
(dp194
g73
(dp195
sg82
g180
sg75
(lp196
g68
(g69
g70
NtRp197
(dp198
g73
(dp199
g81
I5
ssg82
g193
sg75
(lp200
S'127.0.0.1'
p201
asbasbasbag68
(g84
g70
NtRp202
(dp203
g73
(dp204
sg82
g78
sg75
(lp205
g68
(g89
g70
NtRp206
(dp207
g73
(dp208
g93
g94
ssg82
g202
sg75
(lp209
S'controller'
p210
asbag68
(g89
g70
NtRp211
(dp212
g73
(dp213
g100
g101
ssg82
g202
sg75
(lp214
S':'
asbag68
(g89
g70
NtRp215
(dp216
g73
(dp217
sg82
g202
sg75
(lp218
g68
(g69
g70
NtRp219
(dp220
g73
(dp221
g81
I5
ssg82
g215
sg75
(lp222
S'default'
p223
asbasbasbag68
(g84
g70
NtRp224
(dp225
g73
(dp226
sg82
g78
sg75
(lp227
g68
(g89
g70
NtRp228
(dp229
g73
(dp230
g93
g94
ssg82
g224
sg75
(lp231
S'cookies'
p232
asbag68
(g89
g70
NtRp233
(dp234
g73
(dp235
g100
g101
ssg82
g224
sg75
(lp236
S':'
asbag68
(g89
g70
NtRp237
(dp238
g73
(dp239
sg82
g224
sg75
(lp240
g68
(g69
g70
NtRp241
(dp242
g73
(dp243
g81
I5
ssg82
g237
sg75
(lp244
g68
(g77
g70
NtRp245
(dp246
g73
(dp247
g81
I4
ssg82
Nsg75
(lp248
g68
(g84
g70
NtRp249
(dp250
g73
(dp251
sg82
g245
sg75
(lp252
g68
(g89
g70
NtRp253
(dp254
g73
(dp255
g93
g94
ssg82
g249
sg75
(lp256
S'session_id_admin'
p257
asbag68
(g89
g70
NtRp258
(dp259
g73
(dp260
g100
g101
ssg82
g249
sg75
(lp261
S':'
asbag68
(g89
g70
NtRp262
(dp263
g73
(dp264
sg82
g249
sg75
(lp265
g68
(g69
g70
NtRp266
(dp267
g73
(dp268
g81
I4
ssg82
g262
sg75
(lp269
g68
(g77
g70
NtRp270
(dp271
g73
(dp272
g81
I3
ssg82
Nsg75
(lp273
g68
(g84
g70
NtRp274
(dp275
g73
(dp276
sg82
g270
sg75
(lp277
g68
(g89
g70
NtRp278
(dp279
g73
(dp280
g93
g94
ssg82
g274
sg75
(lp281
S'comment'
p282
asbag68
(g89
g70
NtRp283
(dp284
g73
(dp285
g100
g101
ssg82
g274
sg75
(lp286
S':'
asbag68
(g89
g70
NtRp287
(dp288
g73
(dp289
sg82
g274
sg75
(lp290
g68
(g69
g70
NtRp291
(dp292
g73
(dp293
g81
I3
ssg82
g287
sg75
(lp294
S''
asbasbasbag68
(g84
g70
NtRp295
(dp296
g73
(dp297
sg82
g270
sg75
(lp298
g68
(g89
g70
NtRp299
(dp300
g73
(dp301
g93
g94
ssg82
g295
sg75
(lp302
S'domain'
p303
asbag68
(g89
g70
NtRp304
(dp305
g73
(dp306
g100
g101
ssg82
g295
sg75
(lp307
S':'
asbag68
(g89
g70
NtRp308
(dp309
g73
(dp310
sg82
g295
sg75
(lp311
g68
(g69
g70
NtRp312
(dp313
g73
(dp314
g81
I3
ssg82
g308
sg75
(lp315
S''
asbasbasbag68
(g84
g70
NtRp316
(dp317
g73
(dp318
sg82
g270
sg75
(lp319
g68
(g89
g70
NtRp320
(dp321
g73
(dp322
g93
g94
ssg82
g316
sg75
(lp323
S'expires'
p324
asbag68
(g89
g70
NtRp325
(dp326
g73
(dp327
g100
g101
ssg82
g316
sg75
(lp328
S':'
asbag68
(g89
g70
NtRp329
(dp330
g73
(dp331
sg82
g316
sg75
(lp332
g68
(g69
g70
NtRp333
(dp334
g73
(dp335
g81
I3
ssg82
g329
sg75
(lp336
S''
asbasbasbag68
(g84
g70
NtRp337
(dp338
g73
(dp339
sg82
g270
sg75
(lp340
g68
(g89
g70
NtRp341
(dp342
g73
(dp343
g93
g94
ssg82
g337
sg75
(lp344
S'httponly'
p345
asbag68
(g89
g70
NtRp346
(dp347
g73
(dp348
g100
g101
ssg82
g337
sg75
(lp349
S':'
asbag68
(g89
g70
NtRp350
(dp351
g73
(dp352
sg82
g337
sg75
(lp353
g68
(g69
g70
NtRp354
(dp355
g73
(dp356
g81
I3
ssg82
g350
sg75
(lp357
S''
asbasbasbag68
(g84
g70
NtRp358
(dp359
g73
(dp360
sg82
g270
sg75
(lp361
g68
(g89
g70
NtRp362
(dp363
g73
(dp364
g93
g94
ssg82
g358
sg75
(lp365
S'max-age'
p366
asbag68
(g89
g70
NtRp367
(dp368
g73
(dp369
g100
g101
ssg82
g358
sg75
(lp370
S':'
asbag68
(g89
g70
NtRp371
(dp372
g73
(dp373
sg82
g358
sg75
(lp374
g68
(g69
g70
NtRp375
(dp376
g73
(dp377
g81
I3
ssg82
g371
sg75
(lp378
S''
asbasbasbag68
(g84
g70
NtRp379
(dp380
g73
(dp381
sg82
g270
sg75
(lp382
g68
(g89
g70
NtRp383
(dp384
g73
(dp385
g93
g94
ssg82
g379
sg75
(lp386
S'path'
p387
asbag68
(g89
g70
NtRp388
(dp389
g73
(dp390
g100
g101
ssg82
g379
sg75
(lp391
S':'
asbag68
(g89
g70
NtRp392
(dp393
g73
(dp394
sg82
g379
sg75
(lp395
g68
(g69
g70
NtRp396
(dp397
g73
(dp398
g81
I3
ssg82
g392
sg75
(lp399
S''
asbasbasbag68
(g84
g70
NtRp400
(dp401
g73
(dp402
sg82
g270
sg75
(lp403
g68
(g89
g70
NtRp404
(dp405
g73
(dp406
g93
g94
ssg82
g400
sg75
(lp407
S'secure'
p408
asbag68
(g89
g70
NtRp409
(dp410
g73
(dp411
g100
g101
ssg82
g400
sg75
(lp412
S':'
asbag68
(g89
g70
NtRp413
(dp414
g73
(dp415
sg82
g400
sg75
(lp416
g68
(g69
g70
NtRp417
(dp418
g73
(dp419
g81
I3
ssg82
g413
sg75
(lp420
S''
asbasbasbag68
(g84
g70
NtRp421
(dp422
g73
(dp423
sg82
g270
sg75
(lp424
g68
(g89
g70
NtRp425
(dp426
g73
(dp427
g93
g94
ssg82
g421
sg75
(lp428
S'version'
p429
asbag68
(g89
g70
NtRp430
(dp431
g73
(dp432
g100
g101
ssg82
g421
sg75
(lp433
S':'
asbag68
(g89
g70
NtRp434
(dp435
g73
(dp436
sg82
g421
sg75
(lp437
g68
(g69
g70
NtRp438
(dp439
g73
(dp440
g81
I3
ssg82
g434
sg75
(lp441
S''
asbasbasbasbasbasbasbag68
(g84
g70
NtRp442
(dp443
g73
(dp444
sg82
g245
sg75
(lp445
g68
(g89
g70
NtRp446
(dp447
g73
(dp448
g93
g94
ssg82
g442
sg75
(lp449
S'session_id_ddlagoon'
p450
asbag68
(g89
g70
NtRp451
(dp452
g73
(dp453
g100
g101
ssg82
g442
sg75
(lp454
S':'
asbag68
(g89
g70
NtRp455
(dp456
g73
(dp457
sg82
g442
sg75
(lp458
g68
(g69
g70
NtRp459
(dp460
g73
(dp461
g81
I4
ssg82
g455
sg75
(lp462
g68
(g77
g70
NtRp463
(dp464
g73
(dp465
g81
I3
ssg82
Nsg75
(lp466
g68
(g84
g70
NtRp467
(dp468
g73
(dp469
sg82
g463
sg75
(lp470
g68
(g89
g70
NtRp471
(dp472
g73
(dp473
g93
g94
ssg82
g467
sg75
(lp474
g282
asbag68
(g89
g70
NtRp475
(dp476
g73
(dp477
g100
g101
ssg82
g467
sg75
(lp478
S':'
asbag68
(g89
g70
NtRp479
(dp480
g73
(dp481
sg82
g467
sg75
(lp482
g68
(g69
g70
NtRp483
(dp484
g73
(dp485
g81
I3
ssg82
g479
sg75
(lp486
S''
asbasbasbag68
(g84
g70
NtRp487
(dp488
g73
(dp489
sg82
g463
sg75
(lp490
g68
(g89
g70
NtRp491
(dp492
g73
(dp493
g93
g94
ssg82
g487
sg75
(lp494
g303
asbag68
(g89
g70
NtRp495
(dp496
g73
(dp497
g100
g101
ssg82
g487
sg75
(lp498
S':'
asbag68
(g89
g70
NtRp499
(dp500
g73
(dp501
sg82
g487
sg75
(lp502
g68
(g69
g70
NtRp503
(dp504
g73
(dp505
g81
I3
ssg82
g499
sg75
(lp506
S''
asbasbasbag68
(g84
g70
NtRp507
(dp508
g73
(dp509
sg82
g463
sg75
(lp510
g68
(g89
g70
NtRp511
(dp512
g73
(dp513
g93
g94
ssg82
g507
sg75
(lp514
g324
asbag68
(g89
g70
NtRp515
(dp516
g73
(dp517
g100
g101
ssg82
g507
sg75
(lp518
S':'
asbag68
(g89
g70
NtRp519
(dp520
g73
(dp521
sg82
g507
sg75
(lp522
g68
(g69
g70
NtRp523
(dp524
g73
(dp525
g81
I3
ssg82
g519
sg75
(lp526
S''
asbasbasbag68
(g84
g70
NtRp527
(dp528
g73
(dp529
sg82
g463
sg75
(lp530
g68
(g89
g70
NtRp531
(dp532
g73
(dp533
g93
g94
ssg82
g527
sg75
(lp534
g345
asbag68
(g89
g70
NtRp535
(dp536
g73
(dp537
g100
g101
ssg82
g527
sg75
(lp538
S':'
asbag68
(g89
g70
NtRp539
(dp540
g73
(dp541
sg82
g527
sg75
(lp542
g68
(g69
g70
NtRp543
(dp544
g73
(dp545
g81
I3
ssg82
g539
sg75
(lp546
S''
asbasbasbag68
(g84
g70
NtRp547
(dp548
g73
(dp549
sg82
g463
sg75
(lp550
g68
(g89
g70
NtRp551
(dp552
g73
(dp553
g93
g94
ssg82
g547
sg75
(lp554
g366
asbag68
(g89
g70
NtRp555
(dp556
g73
(dp557
g100
g101
ssg82
g547
sg75
(lp558
S':'
asbag68
(g89
g70
NtRp559
(dp560
g73
(dp561
sg82
g547
sg75
(lp562
g68
(g69
g70
NtRp563
(dp564
g73
(dp565
g81
I3
ssg82
g559
sg75
(lp566
S''
asbasbasbag68
(g84
g70
NtRp567
(dp568
g73
(dp569
sg82
g463
sg75
(lp570
g68
(g89
g70
NtRp571
(dp572
g73
(dp573
g93
g94
ssg82
g567
sg75
(lp574
g387
asbag68
(g89
g70
NtRp575
(dp576
g73
(dp577
g100
g101
ssg82
g567
sg75
(lp578
S':'
asbag68
(g89
g70
NtRp579
(dp580
g73
(dp581
sg82
g567
sg75
(lp582
g68
(g69
g70
NtRp583
(dp584
g73
(dp585
g81
I3
ssg82
g579
sg75
(lp586
S''
asbasbasbag68
(g84
g70
NtRp587
(dp588
g73
(dp589
sg82
g463
sg75
(lp590
g68
(g89
g70
NtRp591
(dp592
g73
(dp593
g93
g94
ssg82
g587
sg75
(lp594
g408
asbag68
(g89
g70
NtRp595
(dp596
g73
(dp597
g100
g101
ssg82
g587
sg75
(lp598
S':'
asbag68
(g89
g70
NtRp599
(dp600
g73
(dp601
sg82
g587
sg75
(lp602
g68
(g69
g70
NtRp603
(dp604
g73
(dp605
g81
I3
ssg82
g599
sg75
(lp606
S''
asbasbasbag68
(g84
g70
NtRp607
(dp608
g73
(dp609
sg82
g463
sg75
(lp610
g68
(g89
g70
NtRp611
(dp612
g73
(dp613
g93
g94
ssg82
g607
sg75
(lp614
g429
asbag68
(g89
g70
NtRp615
(dp616
g73
(dp617
g100
g101
ssg82
g607
sg75
(lp618
S':'
asbag68
(g89
g70
NtRp619
(dp620
g73
(dp621
sg82
g607
sg75
(lp622
g68
(g69
g70
NtRp623
(dp624
g73
(dp625
g81
I3
ssg82
g619
sg75
(lp626
S''
asbasbasbasbasbasbasbag68
(g84
g70
NtRp627
(dp628
g73
(dp629
sg82
g245
sg75
(lp630
g68
(g89
g70
NtRp631
(dp632
g73
(dp633
g93
g94
ssg82
g627
sg75
(lp634
S'session_id_simple_app_test'
p635
asbag68
(g89
g70
NtRp636
(dp637
g73
(dp638
g100
g101
ssg82
g627
sg75
(lp639
S':'
asbag68
(g89
g70
NtRp640
(dp641
g73
(dp642
sg82
g627
sg75
(lp643
g68
(g69
g70
NtRp644
(dp645
g73
(dp646
g81
I4
ssg82
g640
sg75
(lp647
g68
(g77
g70
NtRp648
(dp649
g73
(dp650
g81
I3
ssg82
Nsg75
(lp651
g68
(g84
g70
NtRp652
(dp653
g73
(dp654
sg82
g648
sg75
(lp655
g68
(g89
g70
NtRp656
(dp657
g73
(dp658
g93
g94
ssg82
g652
sg75
(lp659
g282
asbag68
(g89
g70
NtRp660
(dp661
g73
(dp662
g100
g101
ssg82
g652
sg75
(lp663
S':'
asbag68
(g89
g70
NtRp664
(dp665
g73
(dp666
sg82
g652
sg75
(lp667
g68
(g69
g70
NtRp668
(dp669
g73
(dp670
g81
I3
ssg82
g664
sg75
(lp671
S''
asbasbasbag68
(g84
g70
NtRp672
(dp673
g73
(dp674
sg82
g648
sg75
(lp675
g68
(g89
g70
NtRp676
(dp677
g73
(dp678
g93
g94
ssg82
g672
sg75
(lp679
g303
asbag68
(g89
g70
NtRp680
(dp681
g73
(dp682
g100
g101
ssg82
g672
sg75
(lp683
S':'
asbag68
(g89
g70
NtRp684
(dp685
g73
(dp686
sg82
g672
sg75
(lp687
g68
(g69
g70
NtRp688
(dp689
g73
(dp690
g81
I3
ssg82
g684
sg75
(lp691
S''
asbasbasbag68
(g84
g70
NtRp692
(dp693
g73
(dp694
sg82
g648
sg75
(lp695
g68
(g89
g70
NtRp696
(dp697
g73
(dp698
g93
g94
ssg82
g692
sg75
(lp699
g324
asbag68
(g89
g70
NtRp700
(dp701
g73
(dp702
g100
g101
ssg82
g692
sg75
(lp703
S':'
asbag68
(g89
g70
NtRp704
(dp705
g73
(dp706
sg82
g692
sg75
(lp707
g68
(g69
g70
NtRp708
(dp709
g73
(dp710
g81
I3
ssg82
g704
sg75
(lp711
S''
asbasbasbag68
(g84
g70
NtRp712
(dp713
g73
(dp714
sg82
g648
sg75
(lp715
g68
(g89
g70
NtRp716
(dp717
g73
(dp718
g93
g94
ssg82
g712
sg75
(lp719
g345
asbag68
(g89
g70
NtRp720
(dp721
g73
(dp722
g100
g101
ssg82
g712
sg75
(lp723
S':'
asbag68
(g89
g70
NtRp724
(dp725
g73
(dp726
sg82
g712
sg75
(lp727
g68
(g69
g70
NtRp728
(dp729
g73
(dp730
g81
I3
ssg82
g724
sg75
(lp731
S''
asbasbasbag68
(g84
g70
NtRp732
(dp733
g73
(dp734
sg82
g648
sg75
(lp735
g68
(g89
g70
NtRp736
(dp737
g73
(dp738
g93
g94
ssg82
g732
sg75
(lp739
g366
asbag68
(g89
g70
NtRp740
(dp741
g73
(dp742
g100
g101
ssg82
g732
sg75
(lp743
S':'
asbag68
(g89
g70
NtRp744
(dp745
g73
(dp746
sg82
g732
sg75
(lp747
g68
(g69
g70
NtRp748
(dp749
g73
(dp750
g81
I3
ssg82
g744
sg75
(lp751
S''
asbasbasbag68
(g84
g70
NtRp752
(dp753
g73
(dp754
sg82
g648
sg75
(lp755
g68
(g89
g70
NtRp756
(dp757
g73
(dp758
g93
g94
ssg82
g752
sg75
(lp759
g387
asbag68
(g89
g70
NtRp760
(dp761
g73
(dp762
g100
g101
ssg82
g752
sg75
(lp763
S':'
asbag68
(g89
g70
NtRp764
(dp765
g73
(dp766
sg82
g752
sg75
(lp767
g68
(g69
g70
NtRp768
(dp769
g73
(dp770
g81
I3
ssg82
g764
sg75
(lp771
S''
asbasbasbag68
(g84
g70
NtRp772
(dp773
g73
(dp774
sg82
g648
sg75
(lp775
g68
(g89
g70
NtRp776
(dp777
g73
(dp778
g93
g94
ssg82
g772
sg75
(lp779
g408
asbag68
(g89
g70
NtRp780
(dp781
g73
(dp782
g100
g101
ssg82
g772
sg75
(lp783
S':'
asbag68
(g89
g70
NtRp784
(dp785
g73
(dp786
sg82
g772
sg75
(lp787
g68
(g69
g70
NtRp788
(dp789
g73
(dp790
g81
I3
ssg82
g784
sg75
(lp791
S''
asbasbasbag68
(g84
g70
NtRp792
(dp793
g73
(dp794
sg82
g648
sg75
(lp795
g68
(g89
g70
NtRp796
(dp797
g73
(dp798
g93
g94
ssg82
g792
sg75
(lp799
g429
asbag68
(g89
g70
NtRp800
(dp801
g73
(dp802
g100
g101
ssg82
g792
sg75
(lp803
S':'
asbag68
(g89
g70
NtRp804
(dp805
g73
(dp806
sg82
g792
sg75
(lp807
g68
(g69
g70
NtRp808
(dp809
g73
(dp810
g81
I3
ssg82
g804
sg75
(lp811
S''
asbasbasbasbasbasbasbag68
(g84
g70
NtRp812
(dp813
g73
(dp814
sg82
g245
sg75
(lp815
g68
(g89
g70
NtRp816
(dp817
g73
(dp818
g93
g94
ssg82
g812
sg75
(lp819
S'session_id_welcome'
p820
asbag68
(g89
g70
NtRp821
(dp822
g73
(dp823
g100
g101
ssg82
g812
sg75
(lp824
S':'
asbag68
(g89
g70
NtRp825
(dp826
g73
(dp827
sg82
g812
sg75
(lp828
g68
(g69
g70
NtRp829
(dp830
g73
(dp831
g81
I4
ssg82
g825
sg75
(lp832
g68
(g77
g70
NtRp833
(dp834
g73
(dp835
g81
I3
ssg82
Nsg75
(lp836
g68
(g84
g70
NtRp837
(dp838
g73
(dp839
sg82
g833
sg75
(lp840
g68
(g89
g70
NtRp841
(dp842
g73
(dp843
g93
g94
ssg82
g837
sg75
(lp844
g282
asbag68
(g89
g70
NtRp845
(dp846
g73
(dp847
g100
g101
ssg82
g837
sg75
(lp848
S':'
asbag68
(g89
g70
NtRp849
(dp850
g73
(dp851
sg82
g837
sg75
(lp852
g68
(g69
g70
NtRp853
(dp854
g73
(dp855
g81
I3
ssg82
g849
sg75
(lp856
S''
asbasbasbag68
(g84
g70
NtRp857
(dp858
g73
(dp859
sg82
g833
sg75
(lp860
g68
(g89
g70
NtRp861
(dp862
g73
(dp863
g93
g94
ssg82
g857
sg75
(lp864
g303
asbag68
(g89
g70
NtRp865
(dp866
g73
(dp867
g100
g101
ssg82
g857
sg75
(lp868
S':'
asbag68
(g89
g70
NtRp869
(dp870
g73
(dp871
sg82
g857
sg75
(lp872
g68
(g69
g70
NtRp873
(dp874
g73
(dp875
g81
I3
ssg82
g869
sg75
(lp876
S''
asbasbasbag68
(g84
g70
NtRp877
(dp878
g73
(dp879
sg82
g833
sg75
(lp880
g68
(g89
g70
NtRp881
(dp882
g73
(dp883
g93
g94
ssg82
g877
sg75
(lp884
g324
asbag68
(g89
g70
NtRp885
(dp886
g73
(dp887
g100
g101
ssg82
g877
sg75
(lp888
S':'
asbag68
(g89
g70
NtRp889
(dp890
g73
(dp891
sg82
g877
sg75
(lp892
g68
(g69
g70
NtRp893
(dp894
g73
(dp895
g81
I3
ssg82
g889
sg75
(lp896
S''
asbasbasbag68
(g84
g70
NtRp897
(dp898
g73
(dp899
sg82
g833
sg75
(lp900
g68
(g89
g70
NtRp901
(dp902
g73
(dp903
g93
g94
ssg82
g897
sg75
(lp904
g345
asbag68
(g89
g70
NtRp905
(dp906
g73
(dp907
g100
g101
ssg82
g897
sg75
(lp908
S':'
asbag68
(g89
g70
NtRp909
(dp910
g73
(dp911
sg82
g897
sg75
(lp912
g68
(g69
g70
NtRp913
(dp914
g73
(dp915
g81
I3
ssg82
g909
sg75
(lp916
S''
asbasbasbag68
(g84
g70
NtRp917
(dp918
g73
(dp919
sg82
g833
sg75
(lp920
g68
(g89
g70
NtRp921
(dp922
g73
(dp923
g93
g94
ssg82
g917
sg75
(lp924
g366
asbag68
(g89
g70
NtRp925
(dp926
g73
(dp927
g100
g101
ssg82
g917
sg75
(lp928
S':'
asbag68
(g89
g70
NtRp929
(dp930
g73
(dp931
sg82
g917
sg75
(lp932
g68
(g69
g70
NtRp933
(dp934
g73
(dp935
g81
I3
ssg82
g929
sg75
(lp936
S''
asbasbasbag68
(g84
g70
NtRp937
(dp938
g73
(dp939
sg82
g833
sg75
(lp940
g68
(g89
g70
NtRp941
(dp942
g73
(dp943
g93
g94
ssg82
g937
sg75
(lp944
g387
asbag68
(g89
g70
NtRp945
(dp946
g73
(dp947
g100
g101
ssg82
g937
sg75
(lp948
S':'
asbag68
(g89
g70
NtRp949
(dp950
g73
(dp951
sg82
g937
sg75
(lp952
g68
(g69
g70
NtRp953
(dp954
g73
(dp955
g81
I3
ssg82
g949
sg75
(lp956
S''
asbasbasbag68
(g84
g70
NtRp957
(dp958
g73
(dp959
sg82
g833
sg75
(lp960
g68
(g89
g70
NtRp961
(dp962
g73
(dp963
g93
g94
ssg82
g957
sg75
(lp964
g408
asbag68
(g89
g70
NtRp965
(dp966
g73
(dp967
g100
g101
ssg82
g957
sg75
(lp968
S':'
asbag68
(g89
g70
NtRp969
(dp970
g73
(dp971
sg82
g957
sg75
(lp972
g68
(g69
g70
NtRp973
(dp974
g73
(dp975
g81
I3
ssg82
g969
sg75
(lp976
S''
asbasbasbag68
(g84
g70
NtRp977
(dp978
g73
(dp979
sg82
g833
sg75
(lp980
g68
(g89
g70
NtRp981
(dp982
g73
(dp983
g93
g94
ssg82
g977
sg75
(lp984
g429
asbag68
(g89
g70
NtRp985
(dp986
g73
(dp987
g100
g101
ssg82
g977
sg75
(lp988
S':'
asbag68
(g89
g70
NtRp989
(dp990
g73
(dp991
sg82
g977
sg75
(lp992
g68
(g69
g70
NtRp993
(dp994
g73
(dp995
g81
I3
ssg82
g989
sg75
(lp996
S''
asbasbasbasbasbasbasbasbasbasbasbag68
(g84
g70
NtRp997
(dp998
g73
(dp999
sg82
g78
sg75
(lp1000
g68
(g89
g70
NtRp1001
(dp1002
g73
(dp1003
g93
g94
ssg82
g997
sg75
(lp1004
S'env'
p1005
asbag68
(g89
g70
NtRp1006
(dp1007
g73
(dp1008
g100
g101
ssg82
g997
sg75
(lp1009
S':'
asbag68
(g89
g70
NtRp1010
(dp1011
g73
(dp1012
sg82
g997
sg75
(lp1013
g68
(g69
g70
NtRp1014
(dp1015
g73
(dp1016
g81
I5
ssg82
g1010
sg75
(lp1017
g68
(g77
g70
NtRp1018
(dp1019
g73
(dp1020
g81
I4
ssg82
Nsg75
(lp1021
g68
(g84
g70
NtRp1022
(dp1023
g73
(dp1024
sg82
g1018
sg75
(lp1025
g68
(g89
g70
NtRp1026
(dp1027
g73
(dp1028
g93
g94
ssg82
g1022
sg75
(lp1029
S'app_folders'
p1030
asbag68
(g89
g70
NtRp1031
(dp1032
g73
(dp1033
g100
g101
ssg82
g1022
sg75
(lp1034
S':'
asbag68
(g89
g70
NtRp1035
(dp1036
g73
(dp1037
sg82
g1022
sg75
(lp1038
g68
(g69
g70
NtRp1039
(dp1040
g73
(dp1041
g81
I4
ssg82
g1035
sg75
(lp1042
S"set(['/windows/Users/Thomas/Dropbox/appz/2011/GAE/ddl-lagoon/applications/ddlagoon/', '/windows/Users/Thomas/Dropbox/appz/2011/GAE/ddl-lagoon/applications/welcome/', '/windows/Users/Thomas/Dropbox/appz/2011/GAE/ddl-lagoon/applications/admin/', '/windows/Users/Thomas/Dropbox/appz/2011/GAE/ddl-lagoon/applications/simple_app_test/'])"
p1043
asbasbasbag68
(g84
g70
NtRp1044
(dp1045
g73
(dp1046
sg82
g1018
sg75
(lp1047
g68
(g89
g70
NtRp1048
(dp1049
g73
(dp1050
g93
g94
ssg82
g1044
sg75
(lp1051
S'applications_parent'
p1052
asbag68
(g89
g70
NtRp1053
(dp1054
g73
(dp1055
g100
g101
ssg82
g1044
sg75
(lp1056
S':'
asbag68
(g89
g70
NtRp1057
(dp1058
g73
(dp1059
sg82
g1044
sg75
(lp1060
g68
(g69
g70
NtRp1061
(dp1062
g73
(dp1063
g81
I4
ssg82
g1057
sg75
(lp1064
S'/windows/Users/Thomas/Dropbox/appz/2011/GAE/ddl-lagoon'
p1065
asbasbasbag68
(g84
g70
NtRp1066
(dp1067
g73
(dp1068
sg82
g1018
sg75
(lp1069
g68
(g89
g70
NtRp1070
(dp1071
g73
(dp1072
g93
g94
ssg82
g1066
sg75
(lp1073
S'cmd_args'
p1074
asbag68
(g89
g70
NtRp1075
(dp1076
g73
(dp1077
g100
g101
ssg82
g1066
sg75
(lp1078
S':'
asbag68
(g89
g70
NtRp1079
(dp1080
g73
(dp1081
sg82
g1066
sg75
(lp1082
g68
(g69
g70
NtRp1083
(dp1084
g73
(dp1085
g81
I4
ssg82
g1079
sg75
(lp1086
g68
(g77
g70
NtRp1087
(dp1088
g73
(dp1089
g81
I3
ssg82
Nsg75
(lp1090
sbasbasbasbag68
(g84
g70
NtRp1091
(dp1092
g73
(dp1093
sg82
g1018
sg75
(lp1094
g68
(g89
g70
NtRp1095
(dp1096
g73
(dp1097
g93
g94
ssg82
g1091
sg75
(lp1098
S'cmd_options'
p1099
asbag68
(g89
g70
NtRp1100
(dp1101
g73
(dp1102
g100
g101
ssg82
g1091
sg75
(lp1103
S':'
asbag68
(g89
g70
NtRp1104
(dp1105
g73
(dp1106
sg82
g1091
sg75
(lp1107
g68
(g69
g70
NtRp1108
(dp1109
g73
(dp1110
g81
I4
ssg82
g1104
sg75
(lp1111
S"<Values at 0x1ba50e0: {'verbose': False, 'ip': '127.0.0.1', 'shutdown_timeout': 5, 'taskbar': False, 'nocron': False, 'pid_filename': 'httpserver.pid', 'maxthreads': None, 'softcron': False, 'server_name': 'VPCF22AJ', 'bpython': False, 'nogui': False, 'port': 8000, 'extcron': False, 'debuglevel': 30, 'test': None, 'folder': '/windows/Users/Thomas/Dropbox/appz/2011/GAE/ddl-lagoon', 'config': '', 'import_models': False, 'winservice': '', 'shell': None, 'run': '', 'log_filename': 'httpserver.log', 'args': [''], 'ssl_ca_certificate': None, 'scheduler': None, 'profiler_filename': None, 'ssl_private_key': '', 'password': 'admin', 'request_queue_size': 5, 'ssl_certificate': '', 'cronjob': False, 'plain': False, 'quiet': False, 'interfaces': None, 'minthreads': None, 'timeout': 10, 'numthreads': None, 'nobanner': False}>"
p1112
asbasbasbag68
(g84
g70
NtRp1113
(dp1114
g73
(dp1115
sg82
g1018
sg75
(lp1116
g68
(g89
g70
NtRp1117
(dp1118
g73
(dp1119
g93
g94
ssg82
g1113
sg75
(lp1120
S'db_sessions'
p1121
asbag68
(g89
g70
NtRp1122
(dp1123
g73
(dp1124
g100
g101
ssg82
g1113
sg75
(lp1125
S':'
asbag68
(g89
g70
NtRp1126
(dp1127
g73
(dp1128
sg82
g1113
sg75
(lp1129
g68
(g69
g70
NtRp1130
(dp1131
g73
(dp1132
g81
I4
ssg82
g1126
sg75
(lp1133
S'set([])'
p1134
asbasbasbag68
(g84
g70
NtRp1135
(dp1136
g73
(dp1137
sg82
g1018
sg75
(lp1138
g68
(g89
g70
NtRp1139
(dp1140
g73
(dp1141
g93
g94
ssg82
g1135
sg75
(lp1142
S'debugging'
p1143
asbag68
(g89
g70
NtRp1144
(dp1145
g73
(dp1146
g100
g101
ssg82
g1135
sg75
(lp1147
S':'
asbag68
(g89
g70
NtRp1148
(dp1149
g73
(dp1150
sg82
g1135
sg75
(lp1151
g68
(g69
g70
NtRp1152
(dp1153
g73
(dp1154
g81
I4
ssg82
g1148
sg75
(lp1155
g111
asbasbasbag68
(g84
g70
NtRp1156
(dp1157
g73
(dp1158
sg82
g1018
sg75
(lp1159
g68
(g89
g70
NtRp1160
(dp1161
g73
(dp1162
g93
g94
ssg82
g1156
sg75
(lp1163
S'gluon_parent'
p1164
asbag68
(g89
g70
NtRp1165
(dp1166
g73
(dp1167
g100
g101
ssg82
g1156
sg75
(lp1168
S':'
asbag68
(g89
g70
NtRp1169
(dp1170
g73
(dp1171
sg82
g1156
sg75
(lp1172
g68
(g69
g70
NtRp1173
(dp1174
g73
(dp1175
g81
I4
ssg82
g1169
sg75
(lp1176
S'/windows/Users/Thomas/Dropbox/appz/2011/GAE/ddl-lagoon'
p1177
asbasbasbag68
(g84
g70
NtRp1178
(dp1179
g73
(dp1180
sg82
g1018
sg75
(lp1181
g68
(g89
g70
NtRp1182
(dp1183
g73
(dp1184
g93
g94
ssg82
g1178
sg75
(lp1185
S'http_accept'
p1186
asbag68
(g89
g70
NtRp1187
(dp1188
g73
(dp1189
g100
g101
ssg82
g1178
sg75
(lp1190
S':'
asbag68
(g89
g70
NtRp1191
(dp1192
g73
(dp1193
sg82
g1178
sg75
(lp1194
g68
(g69
g70
NtRp1195
(dp1196
g73
(dp1197
g81
I4
ssg82
g1191
sg75
(lp1198
S'text/html,application/xhtml+xml,application/xml;q=0.9,*/*;q=0.8'
p1199
asbasbasbag68
(g84
g70
NtRp1200
(dp1201
g73
(dp1202
sg82
g1018
sg75
(lp1203
g68
(g89
g70
NtRp1204
(dp1205
g73
(dp1206
g93
g94
ssg82
g1200
sg75
(lp1207
S'http_accept_charset'
p1208
asbag68
(g89
g70
NtRp1209
(dp1210
g73
(dp1211
g100
g101
ssg82
g1200
sg75
(lp1212
S':'
asbag68
(g89
g70
NtRp1213
(dp1214
g73
(dp1215
sg82
g1200
sg75
(lp1216
g68
(g69
g70
NtRp1217
(dp1218
g73
(dp1219
g81
I4
ssg82
g1213
sg75
(lp1220
S'ISO-8859-1,utf-8;q=0.7,*;q=0.3'
p1221
asbasbasbag68
(g84
g70
NtRp1222
(dp1223
g73
(dp1224
sg82
g1018
sg75
(lp1225
g68
(g89
g70
NtRp1226
(dp1227
g73
(dp1228
g93
g94
ssg82
g1222
sg75
(lp1229
S'http_accept_encoding'
p1230
asbag68
(g89
g70
NtRp1231
(dp1232
g73
(dp1233
g100
g101
ssg82
g1222
sg75
(lp1234
S':'
asbag68
(g89
g70
NtRp1235
(dp1236
g73
(dp1237
sg82
g1222
sg75
(lp1238
g68
(g69
g70
NtRp1239
(dp1240
g73
(dp1241
g81
I4
ssg82
g1235
sg75
(lp1242
S'gzip,deflate,sdch'
p1243
asbasbasbag68
(g84
g70
NtRp1244
(dp1245
g73
(dp1246
sg82
g1018
sg75
(lp1247
g68
(g89
g70
NtRp1248
(dp1249
g73
(dp1250
g93
g94
ssg82
g1244
sg75
(lp1251
S'http_accept_language'
p1252
asbag68
(g89
g70
NtRp1253
(dp1254
g73
(dp1255
g100
g101
ssg82
g1244
sg75
(lp1256
S':'
asbag68
(g89
g70
NtRp1257
(dp1258
g73
(dp1259
sg82
g1244
sg75
(lp1260
g68
(g69
g70
NtRp1261
(dp1262
g73
(dp1263
g81
I4
ssg82
g1257
sg75
(lp1264
S'en-US,en;q=0.8,fr;q=0.6'
p1265
asbasbasbag68
(g84
g70
NtRp1266
(dp1267
g73
(dp1268
sg82
g1018
sg75
(lp1269
g68
(g89
g70
NtRp1270
(dp1271
g73
(dp1272
g93
g94
ssg82
g1266
sg75
(lp1273
S'http_cache_control'
p1274
asbag68
(g89
g70
NtRp1275
(dp1276
g73
(dp1277
g100
g101
ssg82
g1266
sg75
(lp1278
S':'
asbag68
(g89
g70
NtRp1279
(dp1280
g73
(dp1281
sg82
g1266
sg75
(lp1282
g68
(g69
g70
NtRp1283
(dp1284
g73
(dp1285
g81
I4
ssg82
g1279
sg75
(lp1286
S'max-age=0'
p1287
asbasbasbag68
(g84
g70
NtRp1288
(dp1289
g73
(dp1290
sg82
g1018
sg75
(lp1291
g68
(g89
g70
NtRp1292
(dp1293
g73
(dp1294
g93
g94
ssg82
g1288
sg75
(lp1295
S'http_connection'
p1296
asbag68
(g89
g70
NtRp1297
(dp1298
g73
(dp1299
g100
g101
ssg82
g1288
sg75
(lp1300
S':'
asbag68
(g89
g70
NtRp1301
(dp1302
g73
(dp1303
sg82
g1288
sg75
(lp1304
g68
(g69
g70
NtRp1305
(dp1306
g73
(dp1307
g81
I4
ssg82
g1301
sg75
(lp1308
S'keep-alive'
p1309
asbasbasbag68
(g84
g70
NtRp1310
(dp1311
g73
(dp1312
sg82
g1018
sg75
(lp1313
g68
(g89
g70
NtRp1314
(dp1315
g73
(dp1316
g93
g94
ssg82
g1310
sg75
(lp1317
S'http_cookie'
p1318
asbag68
(g89
g70
NtRp1319
(dp1320
g73
(dp1321
g100
g101
ssg82
g1310
sg75
(lp1322
S':'
asbag68
(g89
g70
NtRp1323
(dp1324
g73
(dp1325
sg82
g1310
sg75
(lp1326
g68
(g69
g70
NtRp1327
(dp1328
g73
(dp1329
g81
I4
ssg82
g1323
sg75
(lp1330
S'session_id_simple_app_test=127.0.0.1-27319f10-315d-4497-8aae-2c05fd178f5c; session_id_admin=127.0.0.1-6f7d8a72-0c03-4c5b-a42a-9821af1f57b2; session_id_welcome=127.0.0.1-2168298f-c3c8-4733-a7ef-a6d1ff710f62; __utma_a2a=5510587673.1349489975.1317933049.1319659660.1319659660.47; session_id_ddlagoon=127.0.0.1-5c26095d-5a0b-4829-92f8-f45d96c51d41'
p1331
asbasbasbag68
(g84
g70
NtRp1332
(dp1333
g73
(dp1334
sg82
g1018
sg75
(lp1335
g68
(g89
g70
NtRp1336
(dp1337
g73
(dp1338
g93
g94
ssg82
g1332
sg75
(lp1339
S'http_host'
p1340
asbag68
(g89
g70
NtRp1341
(dp1342
g73
(dp1343
g100
g101
ssg82
g1332
sg75
(lp1344
S':'
asbag68
(g89
g70
NtRp1345
(dp1346
g73
(dp1347
sg82
g1332
sg75
(lp1348
g68
(g69
g70
NtRp1349
(dp1350
g73
(dp1351
g81
I4
ssg82
g1345
sg75
(lp1352
S'127.0.0.1:8000'
p1353
asbasbasbag68
(g84
g70
NtRp1354
(dp1355
g73
(dp1356
sg82
g1018
sg75
(lp1357
g68
(g89
g70
NtRp1358
(dp1359
g73
(dp1360
g93
g94
ssg82
g1354
sg75
(lp1361
S'http_user_agent'
p1362
asbag68
(g89
g70
NtRp1363
(dp1364
g73
(dp1365
g100
g101
ssg82
g1354
sg75
(lp1366
S':'
asbag68
(g89
g70
NtRp1367
(dp1368
g73
(dp1369
sg82
g1354
sg75
(lp1370
g68
(g69
g70
NtRp1371
(dp1372
g73
(dp1373
g81
I4
ssg82
g1367
sg75
(lp1374
S'Mozilla/5.0 (X11; Linux x86_64) AppleWebKit/535.1 (KHTML, like Gecko) Chrome/14.0.835.202 Safari/535.1'
p1375
asbasbasbag68
(g84
g70
NtRp1376
(dp1377
g73
(dp1378
sg82
g1018
sg75
(lp1379
g68
(g89
g70
NtRp1380
(dp1381
g73
(dp1382
g93
g94
ssg82
g1376
sg75
(lp1383
S'is_jython'
p1384
asbag68
(g89
g70
NtRp1385
(dp1386
g73
(dp1387
g100
g101
ssg82
g1376
sg75
(lp1388
S':'
asbag68
(g89
g70
NtRp1389
(dp1390
g73
(dp1391
sg82
g1376
sg75
(lp1392
g68
(g69
g70
NtRp1393
(dp1394
g73
(dp1395
g81
I4
ssg82
g1389
sg75
(lp1396
g111
asbasbasbag68
(g84
g70
NtRp1397
(dp1398
g73
(dp1399
sg82
g1018
sg75
(lp1400
g68
(g89
g70
NtRp1401
(dp1402
g73
(dp1403
g93
g94
ssg82
g1397
sg75
(lp1404
S'path_info'
p1405
asbag68
(g89
g70
NtRp1406
(dp1407
g73
(dp1408
g100
g101
ssg82
g1397
sg75
(lp1409
S':'
asbag68
(g89
g70
NtRp1410
(dp1411
g73
(dp1412
sg82
g1397
sg75
(lp1413
g68
(g69
g70
NtRp1414
(dp1415
g73
(dp1416
g81
I4
ssg82
g1410
sg75
(lp1417
S'/ddlagoon'
p1418
asbasbasbag68
(g84
g70
NtRp1419
(dp1420
g73
(dp1421
sg82
g1018
sg75
(lp1422
g68
(g89
g70
NtRp1423
(dp1424
g73
(dp1425
g93
g94
ssg82
g1419
sg75
(lp1426
S'query_string'
p1427
asbag68
(g89
g70
NtRp1428
(dp1429
g73
(dp1430
g100
g101
ssg82
g1419
sg75
(lp1431
S':'
asbag68
(g89
g70
NtRp1432
(dp1433
g73
(dp1434
sg82
g1419
sg75
(lp1435
g68
(g69
g70
NtRp1436
(dp1437
g73
(dp1438
g81
I4
ssg82
g1432
sg75
(lp1439
S''
asbasbasbag68
(g84
g70
NtRp1440
(dp1441
g73
(dp1442
sg82
g1018
sg75
(lp1443
g68
(g89
g70
NtRp1444
(dp1445
g73
(dp1446
g93
g94
ssg82
g1440
sg75
(lp1447
S'remote_addr'
p1448
asbag68
(g89
g70
NtRp1449
(dp1450
g73
(dp1451
g100
g101
ssg82
g1440
sg75
(lp1452
S':'
asbag68
(g89
g70
NtRp1453
(dp1454
g73
(dp1455
sg82
g1440
sg75
(lp1456
g68
(g69
g70
NtRp1457
(dp1458
g73
(dp1459
g81
I4
ssg82
g1453
sg75
(lp1460
g201
asbasbasbag68
(g84
g70
NtRp1461
(dp1462
g73
(dp1463
sg82
g1018
sg75
(lp1464
g68
(g89
g70
NtRp1465
(dp1466
g73
(dp1467
g93
g94
ssg82
g1461
sg75
(lp1468
S'remote_port'
p1469
asbag68
(g89
g70
NtRp1470
(dp1471
g73
(dp1472
g100
g101
ssg82
g1461
sg75
(lp1473
S':'
asbag68
(g89
g70
NtRp1474
(dp1475
g73
(dp1476
sg82
g1461
sg75
(lp1477
g68
(g69
g70
NtRp1478
(dp1479
g73
(dp1480
g81
I4
ssg82
g1474
sg75
(lp1481
S'34578'
p1482
asbasbasbag68
(g84
g70
NtRp1483
(dp1484
g73
(dp1485
sg82
g1018
sg75
(lp1486
g68
(g89
g70
NtRp1487
(dp1488
g73
(dp1489
g93
g94
ssg82
g1483
sg75
(lp1490
S'request_method'
p1491
asbag68
(g89
g70
NtRp1492
(dp1493
g73
(dp1494
g100
g101
ssg82
g1483
sg75
(lp1495
S':'
asbag68
(g89
g70
NtRp1496
(dp1497
g73
(dp1498
sg82
g1483
sg75
(lp1499
g68
(g69
g70
NtRp1500
(dp1501
g73
(dp1502
g81
I4
ssg82
g1496
sg75
(lp1503
S'GET'
p1504
asbasbasbag68
(g84
g70
NtRp1505
(dp1506
g73
(dp1507
sg82
g1018
sg75
(lp1508
g68
(g89
g70
NtRp1509
(dp1510
g73
(dp1511
g93
g94
ssg82
g1505
sg75
(lp1512
S'script_name'
p1513
asbag68
(g89
g70
NtRp1514
(dp1515
g73
(dp1516
g100
g101
ssg82
g1505
sg75
(lp1517
S':'
asbag68
(g89
g70
NtRp1518
(dp1519
g73
(dp1520
sg82
g1505
sg75
(lp1521
g68
(g69
g70
NtRp1522
(dp1523
g73
(dp1524
g81
I4
ssg82
g1518
sg75
(lp1525
S''
asbasbasbag68
(g84
g70
NtRp1526
(dp1527
g73
(dp1528
sg82
g1018
sg75
(lp1529
g68
(g89
g70
NtRp1530
(dp1531
g73
(dp1532
g93
g94
ssg82
g1526
sg75
(lp1533
S'server_name'
p1534
asbag68
(g89
g70
NtRp1535
(dp1536
g73
(dp1537
g100
g101
ssg82
g1526
sg75
(lp1538
S':'
asbag68
(g89
g70
NtRp1539
(dp1540
g73
(dp1541
sg82
g1526
sg75
(lp1542
g68
(g69
g70
NtRp1543
(dp1544
g73
(dp1545
g81
I4
ssg82
g1539
sg75
(lp1546
S'VPCF22AJ'
p1547
asbasbasbag68
(g84
g70
NtRp1548
(dp1549
g73
(dp1550
sg82
g1018
sg75
(lp1551
g68
(g89
g70
NtRp1552
(dp1553
g73
(dp1554
g93
g94
ssg82
g1548
sg75
(lp1555
S'server_port'
p1556
asbag68
(g89
g70
NtRp1557
(dp1558
g73
(dp1559
g100
g101
ssg82
g1548
sg75
(lp1560
S':'
asbag68
(g89
g70
NtRp1561
(dp1562
g73
(dp1563
sg82
g1548
sg75
(lp1564
g68
(g69
g70
NtRp1565
(dp1566
g73
(dp1567
g81
I4
ssg82
g1561
sg75
(lp1568
S'8000'
p1569
asbasbasbag68
(g84
g70
NtRp1570
(dp1571
g73
(dp1572
sg82
g1018
sg75
(lp1573
g68
(g89
g70
NtRp1574
(dp1575
g73
(dp1576
g93
g94
ssg82
g1570
sg75
(lp1577
S'server_protocol'
p1578
asbag68
(g89
g70
NtRp1579
(dp1580
g73
(dp1581
g100
g101
ssg82
g1570
sg75
(lp1582
S':'
asbag68
(g89
g70
NtRp1583
(dp1584
g73
(dp1585
sg82
g1570
sg75
(lp1586
g68
(g69
g70
NtRp1587
(dp1588
g73
(dp1589
g81
I4
ssg82
g1583
sg75
(lp1590
S'HTTP/1.1'
p1591
asbasbasbag68
(g84
g70
NtRp1592
(dp1593
g73
(dp1594
sg82
g1018
sg75
(lp1595
g68
(g89
g70
NtRp1596
(dp1597
g73
(dp1598
g93
g94
ssg82
g1592
sg75
(lp1599
S'server_software'
p1600
asbag68
(g89
g70
NtRp1601
(dp1602
g73
(dp1603
g100
g101
ssg82
g1592
sg75
(lp1604
S':'
asbag68
(g89
g70
NtRp1605
(dp1606
g73
(dp1607
sg82
g1592
sg75
(lp1608
g68
(g69
g70
NtRp1609
(dp1610
g73
(dp1611
g81
I4
ssg82
g1605
sg75
(lp1612
S'Rocket 1.2.4'
p1613
asbasbasbag68
(g84
g70
NtRp1614
(dp1615
g73
(dp1616
sg82
g1018
sg75
(lp1617
g68
(g89
g70
NtRp1618
(dp1619
g73
(dp1620
g93
g94
ssg82
g1614
sg75
(lp1621
S'web2py_crontype'
p1622
asbag68
(g89
g70
NtRp1623
(dp1624
g73
(dp1625
g100
g101
ssg82
g1614
sg75
(lp1626
S':'
asbag68
(g89
g70
NtRp1627
(dp1628
g73
(dp1629
sg82
g1614
sg75
(lp1630
g68
(g69
g70
NtRp1631
(dp1632
g73
(dp1633
g81
I4
ssg82
g1627
sg75
(lp1634
S'hard'
p1635
asbasbasbag68
(g84
g70
NtRp1636
(dp1637
g73
(dp1638
sg82
g1018
sg75
(lp1639
g68
(g89
g70
NtRp1640
(dp1641
g73
(dp1642
g93
g94
ssg82
g1636
sg75
(lp1643
S'web2py_path'
p1644
asbag68
(g89
g70
NtRp1645
(dp1646
g73
(dp1647
g100
g101
ssg82
g1636
sg75
(lp1648
S':'
asbag68
(g89
g70
NtRp1649
(dp1650
g73
(dp1651
sg82
g1636
sg75
(lp1652
g68
(g69
g70
NtRp1653
(dp1654
g73
(dp1655
g81
I4
ssg82
g1649
sg75
(lp1656
g1065
asbasbasbag68
(g84
g70
NtRp1657
(dp1658
g73
(dp1659
sg82
g1018
sg75
(lp1660
g68
(g89
g70
NtRp1661
(dp1662
g73
(dp1663
g93
g94
ssg82
g1657
sg75
(lp1664
S'web2py_version'
p1665
asbag68
(g89
g70
NtRp1666
(dp1667
g73
(dp1668
g100
g101
ssg82
g1657
sg75
(lp1669
S':'
asbag68
(g89
g70
NtRp1670
(dp1671
g73
(dp1672
sg82
g1657
sg75
(lp1673
g68
(g69
g70
NtRp1674
(dp1675
g73
(dp1676
g81
I4
ssg82
g1670
sg75
(lp1677
g68
(g77
g70
NtRp1678
(dp1679
g73
(dp1680
g81
I3
ssg82
Nsg75
(lp1681
g68
(g84
g70
NtRp1682
(dp1683
g73
(dp1684
sg82
g1678
sg75
(lp1685
g68
(g89
g70
NtRp1686
(dp1687
g73
(dp1688
sg82
g1682
sg75
(lp1689
g68
(g69
g70
NtRp1690
(dp1691
g73
(dp1692
g81
I3
ssg82
g1686
sg75
(lp1693
S'1'
asbasbasbag68
(g84
g70
NtRp1694
(dp1695
g73
(dp1696
sg82
g1678
sg75
(lp1697
g68
(g89
g70
NtRp1698
(dp1699
g73
(dp1700
sg82
g1694
sg75
(lp1701
g68
(g69
g70
NtRp1702
(dp1703
g73
(dp1704
g81
I3
ssg82
g1698
sg75
(lp1705
S'99'
p1706
asbasbasbag68
(g84
g70
NtRp1707
(dp1708
g73
(dp1709
sg82
g1678
sg75
(lp1710
g68
(g89
g70
NtRp1711
(dp1712
g73
(dp1713
sg82
g1707
sg75
(lp1714
g68
(g69
g70
NtRp1715
(dp1716
g73
(dp1717
g81
I3
ssg82
g1711
sg75
(lp1718
S'2'
asbasbasbag68
(g84
g70
NtRp1719
(dp1720
g73
(dp1721
sg82
g1678
sg75
(lp1722
g68
(g89
g70
NtRp1723
(dp1724
g73
(dp1725
sg82
g1719
sg75
(lp1726
g68
(g69
g70
NtRp1727
(dp1728
g73
(dp1729
g81
I3
ssg82
g1723
sg75
(lp1730
S'datetime.datetime(2011, 9, 26, 6, 55, 33)'
p1731
asbasbasbag68
(g84
g70
NtRp1732
(dp1733
g73
(dp1734
sg82
g1678
sg75
(lp1735
g68
(g89
g70
NtRp1736
(dp1737
g73
(dp1738
sg82
g1732
sg75
(lp1739
g68
(g69
g70
NtRp1740
(dp1741
g73
(dp1742
g81
I3
ssg82
g1736
sg75
(lp1743
S'stable'
p1744
asbasbasbasbasbasbasbag68
(g84
g70
NtRp1745
(dp1746
g73
(dp1747
sg82
g1018
sg75
(lp1748
g68
(g89
g70
NtRp1749
(dp1750
g73
(dp1751
g93
g94
ssg82
g1745
sg75
(lp1752
S'wsgi_errors'
p1753
asbag68
(g89
g70
NtRp1754
(dp1755
g73
(dp1756
g100
g101
ssg82
g1745
sg75
(lp1757
S':'
asbag68
(g89
g70
NtRp1758
(dp1759
g73
(dp1760
sg82
g1745
sg75
(lp1761
g68
(g69
g70
NtRp1762
(dp1763
g73
(dp1764
g81
I4
ssg82
g1758
sg75
(lp1765
S"<open file '<stderr>', mode 'w' at 0x7f0a266f3270>"
p1766
asbasbasbag68
(g84
g70
NtRp1767
(dp1768
g73
(dp1769
sg82
g1018
sg75
(lp1770
g68
(g89
g70
NtRp1771
(dp1772
g73
(dp1773
g93
g94
ssg82
g1767
sg75
(lp1774
S'wsgi_file_wrapper'
p1775
asbag68
(g89
g70
NtRp1776
(dp1777
g73
(dp1778
g100
g101
ssg82
g1767
sg75
(lp1779
S':'
asbag68
(g89
g70
NtRp1780
(dp1781
g73
(dp1782
sg82
g1767
sg75
(lp1783
g68
(g69
g70
NtRp1784
(dp1785
g73
(dp1786
g81
I4
ssg82
g1780
sg75
(lp1787
S'<class wsgiref.util.FileWrapper at 0x1a73600>'
p1788
asbasbasbag68
(g84
g70
NtRp1789
(dp1790
g73
(dp1791
sg82
g1018
sg75
(lp1792
g68
(g89
g70
NtRp1793
(dp1794
g73
(dp1795
g93
g94
ssg82
g1789
sg75
(lp1796
S'wsgi_input'
p1797
asbag68
(g89
g70
NtRp1798
(dp1799
g73
(dp1800
g100
g101
ssg82
g1789
sg75
(lp1801
S':'
asbag68
(g89
g70
NtRp1802
(dp1803
g73
(dp1804
sg82
g1789
sg75
(lp1805
g68
(g69
g70
NtRp1806
(dp1807
g73
(dp1808
g81
I4
ssg82
g1802
sg75
(lp1809
S'<socket._fileobject object at 0x2598150>'
p1810
asbasbasbag68
(g84
g70
NtRp1811
(dp1812
g73
(dp1813
sg82
g1018
sg75
(lp1814
g68
(g89
g70
NtRp1815
(dp1816
g73
(dp1817
g93
g94
ssg82
g1811
sg75
(lp1818
S'wsgi_multiprocess'
p1819
asbag68
(g89
g70
NtRp1820
(dp1821
g73
(dp1822
g100
g101
ssg82
g1811
sg75
(lp1823
S':'
asbag68
(g89
g70
NtRp1824
(dp1825
g73
(dp1826
sg82
g1811
sg75
(lp1827
g68
(g69
g70
NtRp1828
(dp1829
g73
(dp1830
g81
I4
ssg82
g1824
sg75
(lp1831
g111
asbasbasbag68
(g84
g70
NtRp1832
(dp1833
g73
(dp1834
sg82
g1018
sg75
(lp1835
g68
(g89
g70
NtRp1836
(dp1837
g73
(dp1838
g93
g94
ssg82
g1832
sg75
(lp1839
S'wsgi_multithread'
p1840
asbag68
(g89
g70
NtRp1841
(dp1842
g73
(dp1843
g100
g101
ssg82
g1832
sg75
(lp1844
S':'
asbag68
(g89
g70
NtRp1845
(dp1846
g73
(dp1847
sg82
g1832
sg75
(lp1848
g68
(g69
g70
NtRp1849
(dp1850
g73
(dp1851
g81
I4
ssg82
g1845
sg75
(lp1852
S'True'
p1853
asbasbasbag68
(g84
g70
NtRp1854
(dp1855
g73
(dp1856
sg82
g1018
sg75
(lp1857
g68
(g89
g70
NtRp1858
(dp1859
g73
(dp1860
g93
g94
ssg82
g1854
sg75
(lp1861
S'wsgi_run_once'
p1862
asbag68
(g89
g70
NtRp1863
(dp1864
g73
(dp1865
g100
g101
ssg82
g1854
sg75
(lp1866
S':'
asbag68
(g89
g70
NtRp1867
(dp1868
g73
(dp1869
sg82
g1854
sg75
(lp1870
g68
(g69
g70
NtRp1871
(dp1872
g73
(dp1873
g81
I4
ssg82
g1867
sg75
(lp1874
g111
asbasbasbag68
(g84
g70
NtRp1875
(dp1876
g73
(dp1877
sg82
g1018
sg75
(lp1878
g68
(g89
g70
NtRp1879
(dp1880
g73
(dp1881
g93
g94
ssg82
g1875
sg75
(lp1882
S'wsgi_url_scheme'
p1883
asbag68
(g89
g70
NtRp1884
(dp1885
g73
(dp1886
g100
g101
ssg82
g1875
sg75
(lp1887
S':'
asbag68
(g89
g70
NtRp1888
(dp1889
g73
(dp1890
sg82
g1875
sg75
(lp1891
g68
(g69
g70
NtRp1892
(dp1893
g73
(dp1894
g81
I4
ssg82
g1888
sg75
(lp1895
S'http'
p1896
asbasbasbag68
(g84
g70
NtRp1897
(dp1898
g73
(dp1899
sg82
g1018
sg75
(lp1900
g68
(g89
g70
NtRp1901
(dp1902
g73
(dp1903
g93
g94
ssg82
g1897
sg75
(lp1904
S'wsgi_version'
p1905
asbag68
(g89
g70
NtRp1906
(dp1907
g73
(dp1908
g100
g101
ssg82
g1897
sg75
(lp1909
S':'
asbag68
(g89
g70
NtRp1910
(dp1911
g73
(dp1912
sg82
g1897
sg75
(lp1913
g68
(g69
g70
NtRp1914
(dp1915
g73
(dp1916
g81
I4
ssg82
g1910
sg75
(lp1917
g68
(g77
g70
NtRp1918
(dp1919
g73
(dp1920
g81
I3
ssg82
Nsg75
(lp1921
g68
(g84
g70
NtRp1922
(dp1923
g73
(dp1924
sg82
g1918
sg75
(lp1925
g68
(g89
g70
NtRp1926
(dp1927
g73
(dp1928
sg82
g1922
sg75
(lp1929
g68
(g69
g70
NtRp1930
(dp1931
g73
(dp1932
g81
I3
ssg82
g1926
sg75
(lp1933
S'1'
asbasbasbag68
(g84
g70
NtRp1934
(dp1935
g73
(dp1936
sg82
g1918
sg75
(lp1937
g68
(g89
g70
NtRp1938
(dp1939
g73
(dp1940
sg82
g1934
sg75
(lp1941
g68
(g69
g70
NtRp1942
(dp1943
g73
(dp1944
g81
I3
ssg82
g1938
sg75
(lp1945
S'0'
asbasbasbasbasbasbasbasbasbasbasbag68
(g84
g70
NtRp1946
(dp1947
g73
(dp1948
sg82
g78
sg75
(lp1949
g68
(g89
g70
NtRp1950
(dp1951
g73
(dp1952
g93
g94
ssg82
g1946
sg75
(lp1953
S'extension'
p1954
asbag68
(g89
g70
NtRp1955
(dp1956
g73
(dp1957
g100
g101
ssg82
g1946
sg75
(lp1958
S':'
asbag68
(g89
g70
NtRp1959
(dp1960
g73
(dp1961
sg82
g1946
sg75
(lp1962
g68
(g69
g70
NtRp1963
(dp1964
g73
(dp1965
g81
I5
ssg82
g1959
sg75
(lp1966
S'html'
p1967
asbasbasbag68
(g84
g70
NtRp1968
(dp1969
g73
(dp1970
sg82
g78
sg75
(lp1971
g68
(g89
g70
NtRp1972
(dp1973
g73
(dp1974
g93
g94
ssg82
g1968
sg75
(lp1975
S'folder'
p1976
asbag68
(g89
g70
NtRp1977
(dp1978
g73
(dp1979
g100
g101
ssg82
g1968
sg75
(lp1980
S':'
asbag68
(g89
g70
NtRp1981
(dp1982
g73
(dp1983
sg82
g1968
sg75
(lp1984
g68
(g69
g70
NtRp1985
(dp1986
g73
(dp1987
g81
I5
ssg82
g1981
sg75
(lp1988
S'/windows/Users/Thomas/Dropbox/appz/2011/GAE/ddl-lagoon/applications/ddlagoon/'
p1989
asbasbasbag68
(g84
g70
NtRp1990
(dp1991
g73
(dp1992
sg82
g78
sg75
(lp1993
g68
(g89
g70
NtRp1994
(dp1995
g73
(dp1996
g93
g94
ssg82
g1990
sg75
(lp1997
S'function'
p1998
asbag68
(g89
g70
NtRp1999
(dp2000
g73
(dp2001
g100
g101
ssg82
g1990
sg75
(lp2002
S':'
asbag68
(g89
g70
NtRp2003
(dp2004
g73
(dp2005
sg82
g1990
sg75
(lp2006
g68
(g69
g70
NtRp2007
(dp2008
g73
(dp2009
g81
I5
ssg82
g2003
sg75
(lp2010
S'index'
p2011
asbasbasbag68
(g84
g70
NtRp2012
(dp2013
g73
(dp2014
sg82
g78
sg75
(lp2015
g68
(g89
g70
NtRp2016
(dp2017
g73
(dp2018
g93
g94
ssg82
g2012
sg75
(lp2019
S'get_vars'
p2020
asbag68
(g89
g70
NtRp2021
(dp2022
g73
(dp2023
g100
g101
ssg82
g2012
sg75
(lp2024
S':'
asbag68
(g89
g70
NtRp2025
(dp2026
g73
(dp2027
sg82
g2012
sg75
(lp2028
g68
(g69
g70
NtRp2029
(dp2030
g73
(dp2031
g81
I5
ssg82
g2025
sg75
(lp2032
g68
(g77
g70
NtRp2033
(dp2034
g73
(dp2035
g81
I4
ssg82
Nsg75
(lp2036
sbasbasbasbag68
(g84
g70
NtRp2037
(dp2038
g73
(dp2039
sg82
g78
sg75
(lp2040
g68
(g89
g70
NtRp2041
(dp2042
g73
(dp2043
g93
g94
ssg82
g2037
sg75
(lp2044
S'global_settings'
p2045
asbag68
(g89
g70
NtRp2046
(dp2047
g73
(dp2048
g100
g101
ssg82
g2037
sg75
(lp2049
S':'
asbag68
(g89
g70
NtRp2050
(dp2051
g73
(dp2052
sg82
g2037
sg75
(lp2053
g68
(g69
g70
NtRp2054
(dp2055
g73
(dp2056
g81
I5
ssg82
g2050
sg75
(lp2057
g68
(g77
g70
NtRp2058
(dp2059
g73
(dp2060
g81
I4
ssg82
Nsg75
(lp2061
g68
(g84
g70
NtRp2062
(dp2063
g73
(dp2064
sg82
g2058
sg75
(lp2065
g68
(g89
g70
NtRp2066
(dp2067
g73
(dp2068
g93
g94
ssg82
g2062
sg75
(lp2069
g1030
asbag68
(g89
g70
NtRp2070
(dp2071
g73
(dp2072
g100
g101
ssg82
g2062
sg75
(lp2073
S':'
asbag68
(g89
g70
NtRp2074
(dp2075
g73
(dp2076
sg82
g2062
sg75
(lp2077
g68
(g69
g70
NtRp2078
(dp2079
g73
(dp2080
g81
I4
ssg82
g2074
sg75
(lp2081
S"set(['/windows/Users/Thomas/Dropbox/appz/2011/GAE/ddl-lagoon/applications/ddlagoon/', '/windows/Users/Thomas/Dropbox/appz/2011/GAE/ddl-lagoon/applications/welcome/', '/windows/Users/Thomas/Dropbox/appz/2011/GAE/ddl-lagoon/applications/admin/', '/windows/Users/Thomas/Dropbox/appz/2011/GAE/ddl-lagoon/applications/simple_app_test/'])"
p2082
asbasbasbag68
(g84
g70
NtRp2083
(dp2084
g73
(dp2085
sg82
g2058
sg75
(lp2086
g68
(g89
g70
NtRp2087
(dp2088
g73
(dp2089
g93
g94
ssg82
g2083
sg75
(lp2090
g1052
asbag68
(g89
g70
NtRp2091
(dp2092
g73
(dp2093
g100
g101
ssg82
g2083
sg75
(lp2094
S':'
asbag68
(g89
g70
NtRp2095
(dp2096
g73
(dp2097
sg82
g2083
sg75
(lp2098
g68
(g69
g70
NtRp2099
(dp2100
g73
(dp2101
g81
I4
ssg82
g2095
sg75
(lp2102
g1065
asbasbasbag68
(g84
g70
NtRp2103
(dp2104
g73
(dp2105
sg82
g2058
sg75
(lp2106
g68
(g89
g70
NtRp2107
(dp2108
g73
(dp2109
g93
g94
ssg82
g2103
sg75
(lp2110
g1074
asbag68
(g89
g70
NtRp2111
(dp2112
g73
(dp2113
g100
g101
ssg82
g2103
sg75
(lp2114
S':'
asbag68
(g89
g70
NtRp2115
(dp2116
g73
(dp2117
sg82
g2103
sg75
(lp2118
g68
(g69
g70
NtRp2119
(dp2120
g73
(dp2121
g81
I4
ssg82
g2115
sg75
(lp2122
g68
(g77
g70
NtRp2123
(dp2124
g73
(dp2125
g81
I3
ssg82
Nsg75
(lp2126
sbasbasbasbag68
(g84
g70
NtRp2127
(dp2128
g73
(dp2129
sg82
g2058
sg75
(lp2130
g68
(g89
g70
NtRp2131
(dp2132
g73
(dp2133
g93
g94
ssg82
g2127
sg75
(lp2134
g1099
asbag68
(g89
g70
NtRp2135
(dp2136
g73
(dp2137
g100
g101
ssg82
g2127
sg75
(lp2138
S':'
asbag68
(g89
g70
NtRp2139
(dp2140
g73
(dp2141
sg82
g2127
sg75
(lp2142
g68
(g69
g70
NtRp2143
(dp2144
g73
(dp2145
g81
I4
ssg82
g2139
sg75
(lp2146
S"<Values at 0x1ba50e0: {'verbose': False, 'ip': '127.0.0.1', 'shutdown_timeout': 5, 'taskbar': False, 'nocron': False, 'pid_filename': 'httpserver.pid', 'maxthreads': None, 'softcron': False, 'server_name': 'VPCF22AJ', 'bpython': False, 'nogui': False, 'port': 8000, 'extcron': False, 'debuglevel': 30, 'test': None, 'folder': '/windows/Users/Thomas/Dropbox/appz/2011/GAE/ddl-lagoon', 'config': '', 'import_models': False, 'winservice': '', 'shell': None, 'run': '', 'log_filename': 'httpserver.log', 'args': [''], 'ssl_ca_certificate': None, 'scheduler': None, 'profiler_filename': None, 'ssl_private_key': '', 'password': 'admin', 'request_queue_size': 5, 'ssl_certificate': '', 'cronjob': False, 'plain': False, 'quiet': False, 'interfaces': None, 'minthreads': None, 'timeout': 10, 'numthreads': None, 'nobanner': False}>"
p2147
asbasbasbag68
(g84
g70
NtRp2148
(dp2149
g73
(dp2150
sg82
g2058
sg75
(lp2151
g68
(g89
g70
NtRp2152
(dp2153
g73
(dp2154
g93
g94
ssg82
g2148
sg75
(lp2155
g1121
asbag68
(g89
g70
NtRp2156
(dp2157
g73
(dp2158
g100
g101
ssg82
g2148
sg75
(lp2159
S':'
asbag68
(g89
g70
NtRp2160
(dp2161
g73
(dp2162
sg82
g2148
sg75
(lp2163
g68
(g69
g70
NtRp2164
(dp2165
g73
(dp2166
g81
I4
ssg82
g2160
sg75
(lp2167
S'set([])'
p2168
asbasbasbag68
(g84
g70
NtRp2169
(dp2170
g73
(dp2171
sg82
g2058
sg75
(lp2172
g68
(g89
g70
NtRp2173
(dp2174
g73
(dp2175
g93
g94
ssg82
g2169
sg75
(lp2176
g1143
asbag68
(g89
g70
NtRp2177
(dp2178
g73
(dp2179
g100
g101
ssg82
g2169
sg75
(lp2180
S':'
asbag68
(g89
g70
NtRp2181
(dp2182
g73
(dp2183
sg82
g2169
sg75
(lp2184
g68
(g69
g70
NtRp2185
(dp2186
g73
(dp2187
g81
I4
ssg82
g2181
sg75
(lp2188
g111
asbasbasbag68
(g84
g70
NtRp2189
(dp2190
g73
(dp2191
sg82
g2058
sg75
(lp2192
g68
(g89
g70
NtRp2193
(dp2194
g73
(dp2195
g93
g94
ssg82
g2189
sg75
(lp2196
g1164
asbag68
(g89
g70
NtRp2197
(dp2198
g73
(dp2199
g100
g101
ssg82
g2189
sg75
(lp2200
S':'
asbag68
(g89
g70
NtRp2201
(dp2202
g73
(dp2203
sg82
g2189
sg75
(lp2204
g68
(g69
g70
NtRp2205
(dp2206
g73
(dp2207
g81
I4
ssg82
g2201
sg75
(lp2208
g1177
asbasbasbag68
(g84
g70
NtRp2209
(dp2210
g73
(dp2211
sg82
g2058
sg75
(lp2212
g68
(g89
g70
NtRp2213
(dp2214
g73
(dp2215
g93
g94
ssg82
g2209
sg75
(lp2216
g1384
asbag68
(g89
g70
NtRp2217
(dp2218
g73
(dp2219
g100
g101
ssg82
g2209
sg75
(lp2220
S':'
asbag68
(g89
g70
NtRp2221
(dp2222
g73
(dp2223
sg82
g2209
sg75
(lp2224
g68
(g69
g70
NtRp2225
(dp2226
g73
(dp2227
g81
I4
ssg82
g2221
sg75
(lp2228
g111
asbasbasbag68
(g84
g70
NtRp2229
(dp2230
g73
(dp2231
sg82
g2058
sg75
(lp2232
g68
(g89
g70
NtRp2233
(dp2234
g73
(dp2235
g93
g94
ssg82
g2229
sg75
(lp2236
g1622
asbag68
(g89
g70
NtRp2237
(dp2238
g73
(dp2239
g100
g101
ssg82
g2229
sg75
(lp2240
S':'
asbag68
(g89
g70
NtRp2241
(dp2242
g73
(dp2243
sg82
g2229
sg75
(lp2244
g68
(g69
g70
NtRp2245
(dp2246
g73
(dp2247
g81
I4
ssg82
g2241
sg75
(lp2248
g1635
asbasbasbag68
(g84
g70
NtRp2249
(dp2250
g73
(dp2251
sg82
g2058
sg75
(lp2252
g68
(g89
g70
NtRp2253
(dp2254
g73
(dp2255
g93
g94
ssg82
g2249
sg75
(lp2256
g1665
asbag68
(g89
g70
NtRp2257
(dp2258
g73
(dp2259
g100
g101
ssg82
g2249
sg75
(lp2260
S':'
asbag68
(g89
g70
NtRp2261
(dp2262
g73
(dp2263
sg82
g2249
sg75
(lp2264
g68
(g69
g70
NtRp2265
(dp2266
g73
(dp2267
g81
I4
ssg82
g2261
sg75
(lp2268
g68
(g77
g70
NtRp2269
(dp2270
g73
(dp2271
g81
I3
ssg82
Nsg75
(lp2272
g68
(g84
g70
NtRp2273
(dp2274
g73
(dp2275
sg82
g2269
sg75
(lp2276
g68
(g89
g70
NtRp2277
(dp2278
g73
(dp2279
sg82
g2273
sg75
(lp2280
g68
(g69
g70
NtRp2281
(dp2282
g73
(dp2283
g81
I3
ssg82
g2277
sg75
(lp2284
S'1'
asbasbasbag68
(g84
g70
NtRp2285
(dp2286
g73
(dp2287
sg82
g2269
sg75
(lp2288
g68
(g89
g70
NtRp2289
(dp2290
g73
(dp2291
sg82
g2285
sg75
(lp2292
g68
(g69
g70
NtRp2293
(dp2294
g73
(dp2295
g81
I3
ssg82
g2289
sg75
(lp2296
S'99'
p2297
asbasbasbag68
(g84
g70
NtRp2298
(dp2299
g73
(dp2300
sg82
g2269
sg75
(lp2301
g68
(g89
g70
NtRp2302
(dp2303
g73
(dp2304
sg82
g2298
sg75
(lp2305
g68
(g69
g70
NtRp2306
(dp2307
g73
(dp2308
g81
I3
ssg82
g2302
sg75
(lp2309
S'2'
asbasbasbag68
(g84
g70
NtRp2310
(dp2311
g73
(dp2312
sg82
g2269
sg75
(lp2313
g68
(g89
g70
NtRp2314
(dp2315
g73
(dp2316
sg82
g2310
sg75
(lp2317
g68
(g69
g70
NtRp2318
(dp2319
g73
(dp2320
g81
I3
ssg82
g2314
sg75
(lp2321
S'datetime.datetime(2011, 9, 26, 6, 55, 33)'
p2322
asbasbasbag68
(g84
g70
NtRp2323
(dp2324
g73
(dp2325
sg82
g2269
sg75
(lp2326
g68
(g89
g70
NtRp2327
(dp2328
g73
(dp2329
sg82
g2323
sg75
(lp2330
g68
(g69
g70
NtRp2331
(dp2332
g73
(dp2333
g81
I3
ssg82
g2327
sg75
(lp2334
g1744
asbasbasbasbasbasbasbasbasbasbasbag68
(g84
g70
NtRp2335
(dp2336
g73
(dp2337
sg82
g78
sg75
(lp2338
g68
(g89
g70
NtRp2339
(dp2340
g73
(dp2341
g93
g94
ssg82
g2335
sg75
(lp2342
S'is_https'
p2343
asbag68
(g89
g70
NtRp2344
(dp2345
g73
(dp2346
g100
g101
ssg82
g2335
sg75
(lp2347
S':'
asbag68
(g89
g70
NtRp2348
(dp2349
g73
(dp2350
sg82
g2335
sg75
(lp2351
g68
(g69
g70
NtRp2352
(dp2353
g73
(dp2354
g81
I5
ssg82
g2348
sg75
(lp2355
g111
asbasbasbag68
(g84
g70
NtRp2356
(dp2357
g73
(dp2358
sg82
g78
sg75
(lp2359
g68
(g89
g70
NtRp2360
(dp2361
g73
(dp2362
g93
g94
ssg82
g2356
sg75
(lp2363
S'is_local'
p2364
asbag68
(g89
g70
NtRp2365
(dp2366
g73
(dp2367
g100
g101
ssg82
g2356
sg75
(lp2368
S':'
asbag68
(g89
g70
NtRp2369
(dp2370
g73
(dp2371
sg82
g2356
sg75
(lp2372
g68
(g69
g70
NtRp2373
(dp2374
g73
(dp2375
g81
I5
ssg82
g2369
sg75
(lp2376
g1853
asbasbasbag68
(g84
g70
NtRp2377
(dp2378
g73
(dp2379
sg82
g78
sg75
(lp2380
g68
(g89
g70
NtRp2381
(dp2382
g73
(dp2383
g93
g94
ssg82
g2377
sg75
(lp2384
S'is_restful'
p2385
asbag68
(g89
g70
NtRp2386
(dp2387
g73
(dp2388
g100
g101
ssg82
g2377
sg75
(lp2389
S':'
asbag68
(g89
g70
NtRp2390
(dp2391
g73
(dp2392
sg82
g2377
sg75
(lp2393
g68
(g69
g70
NtRp2394
(dp2395
g73
(dp2396
g81
I5
ssg82
g2390
sg75
(lp2397
g111
asbasbasbag68
(g84
g70
NtRp2398
(dp2399
g73
(dp2400
sg82
g78
sg75
(lp2401
g68
(g89
g70
NtRp2402
(dp2403
g73
(dp2404
g93
g94
ssg82
g2398
sg75
(lp2405
S'now'
p2406
asbag68
(g89
g70
NtRp2407
(dp2408
g73
(dp2409
g100
g101
ssg82
g2398
sg75
(lp2410
S':'
asbag68
(g89
g70
NtRp2411
(dp2412
g73
(dp2413
sg82
g2398
sg75
(lp2414
g68
(g69
g70
NtRp2415
(dp2416
g73
(dp2417
g81
I5
ssg82
g2411
sg75
(lp2418
S'datetime.datetime(2011, 10, 26, 21, 24, 26, 945825)'
p2419
asbasbasbag68
(g84
g70
NtRp2420
(dp2421
g73
(dp2422
sg82
g78
sg75
(lp2423
g68
(g89
g70
NtRp2424
(dp2425
g73
(dp2426
g93
g94
ssg82
g2420
sg75
(lp2427
S'post_vars'
p2428
asbag68
(g89
g70
NtRp2429
(dp2430
g73
(dp2431
g100
g101
ssg82
g2420
sg75
(lp2432
S':'
asbag68
(g89
g70
NtRp2433
(dp2434
g73
(dp2435
sg82
g2420
sg75
(lp2436
g68
(g69
g70
NtRp2437
(dp2438
g73
(dp2439
g81
I5
ssg82
g2433
sg75
(lp2440
g68
(g77
g70
NtRp2441
(dp2442
g73
(dp2443
g81
I4
ssg82
Nsg75
(lp2444
sbasbasbasbag68
(g84
g70
NtRp2445
(dp2446
g73
(dp2447
sg82
g78
sg75
(lp2448
g68
(g89
g70
NtRp2449
(dp2450
g73
(dp2451
g93
g94
ssg82
g2445
sg75
(lp2452
S'url'
p2453
asbag68
(g89
g70
NtRp2454
(dp2455
g73
(dp2456
g100
g101
ssg82
g2445
sg75
(lp2457
S':'
asbag68
(g89
g70
NtRp2458
(dp2459
g73
(dp2460
sg82
g2445
sg75
(lp2461
g68
(g69
g70
NtRp2462
(dp2463
g73
(dp2464
g81
I5
ssg82
g2458
sg75
(lp2465
S'/ddlagoon/default/index'
p2466
asbasbasbag68
(g84
g70
NtRp2467
(dp2468
g73
(dp2469
sg82
g78
sg75
(lp2470
g68
(g89
g70
NtRp2471
(dp2472
g73
(dp2473
g93
g94
ssg82
g2467
sg75
(lp2474
S'utcnow'
p2475
asbag68
(g89
g70
NtRp2476
(dp2477
g73
(dp2478
g100
g101
ssg82
g2467
sg75
(lp2479
S':'
asbag68
(g89
g70
NtRp2480
(dp2481
g73
(dp2482
sg82
g2467
sg75
(lp2483
g68
(g69
g70
NtRp2484
(dp2485
g73
(dp2486
g81
I5
ssg82
g2480
sg75
(lp2487
S'datetime.datetime(2011, 10, 26, 20, 24, 26, 945837)'
p2488
asbasbasbag68
(g84
g70
NtRp2489
(dp2490
g73
(dp2491
sg82
g78
sg75
(lp2492
g68
(g89
g70
NtRp2493
(dp2494
g73
(dp2495
g93
g94
ssg82
g2489
sg75
(lp2496
S'uuid'
p2497
asbag68
(g89
g70
NtRp2498
(dp2499
g73
(dp2500
g100
g101
ssg82
g2489
sg75
(lp2501
S':'
asbag68
(g89
g70
NtRp2502
(dp2503
g73
(dp2504
sg82
g2489
sg75
(lp2505
g68
(g69
g70
NtRp2506
(dp2507
g73
(dp2508
g81
I5
ssg82
g2502
sg75
(lp2509
S'ddlagoon/127.0.0.1.2011-10-26.21-24-26.0fdc7124-a950-4e53-a896-6b6b3d99b1f1'
p2510
asbasbasbag68
(g84
g70
NtRp2511
(dp2512
g73
(dp2513
sg82
g78
sg75
(lp2514
g68
(g89
g70
NtRp2515
(dp2516
g73
(dp2517
g93
g94
ssg82
g2511
sg75
(lp2518
S'vars'
p2519
asbag68
(g89
g70
NtRp2520
(dp2521
g73
(dp2522
g100
g101
ssg82
g2511
sg75
(lp2523
S':'
asbag68
(g89
g70
NtRp2524
(dp2525
g73
(dp2526
sg82
g2511
sg75
(lp2527
g68
(g69
g70
NtRp2528
(dp2529
g73
(dp2530
g81
I5
ssg82
g2524
sg75
(lp2531
g68
(g77
g70
NtRp2532
(dp2533
g73
(dp2534
g81
I4
ssg82
Nsg75
(lp2535
sbasbasbasbag68
(g84
g70
NtRp2536
(dp2537
g73
(dp2538
sg82
g78
sg75
(lp2539
g68
(g89
g70
NtRp2540
(dp2541
g73
(dp2542
g93
g94
ssg82
g2536
sg75
(lp2543
S'wsgi'
p2544
asbag68
(g89
g70
NtRp2545
(dp2546
g73
(dp2547
g100
g101
ssg82
g2536
sg75
(lp2548
S':'
asbag68
(g89
g70
NtRp2549
(dp2550
g73
(dp2551
sg82
g2536
sg75
(lp2552
g68
(g69
g70
NtRp2553
(dp2554
g73
(dp2555
g81
I5
ssg82
g2549
sg75
(lp2556
g68
(g77
g70
NtRp2557
(dp2558
g73
(dp2559
g81
I4
ssg82
Nsg75
(lp2560
g68
(g84
g70
NtRp2561
(dp2562
g73
(dp2563
sg82
g2557
sg75
(lp2564
g68
(g89
g70
NtRp2565
(dp2566
g73
(dp2567
g93
g94
ssg82
g2561
sg75
(lp2568
S'environ'
p2569
asbag68
(g89
g70
NtRp2570
(dp2571
g73
(dp2572
g100
g101
ssg82
g2561
sg75
(lp2573
S':'
asbag68
(g89
g70
NtRp2574
(dp2575
g73
(dp2576
sg82
g2561
sg75
(lp2577
g68
(g69
g70
NtRp2578
(dp2579
g73
(dp2580
g81
I4
ssg82
g2574
sg75
(lp2581
g68
(g77
g70
NtRp2582
(dp2583
g73
(dp2584
g81
I3
ssg82
Nsg75
(lp2585
g68
(g84
g70
NtRp2586
(dp2587
g73
(dp2588
sg82
g2582
sg75
(lp2589
g68
(g89
g70
NtRp2590
(dp2591
g73
(dp2592
g93
g94
ssg82
g2586
sg75
(lp2593
S'HTTP_ACCEPT'
p2594
asbag68
(g89
g70
NtRp2595
(dp2596
g73
(dp2597
g100
g101
ssg82
g2586
sg75
(lp2598
S':'
asbag68
(g89
g70
NtRp2599
(dp2600
g73
(dp2601
sg82
g2586
sg75
(lp2602
g68
(g69
g70
NtRp2603
(dp2604
g73
(dp2605
g81
I3
ssg82
g2599
sg75
(lp2606
g1199
asbasbasbag68
(g84
g70
NtRp2607
(dp2608
g73
(dp2609
sg82
g2582
sg75
(lp2610
g68
(g89
g70
NtRp2611
(dp2612
g73
(dp2613
g93
g94
ssg82
g2607
sg75
(lp2614
S'HTTP_ACCEPT_CHARSET'
p2615
asbag68
(g89
g70
NtRp2616
(dp2617
g73
(dp2618
g100
g101
ssg82
g2607
sg75
(lp2619
S':'
asbag68
(g89
g70
NtRp2620
(dp2621
g73
(dp2622
sg82
g2607
sg75
(lp2623
g68
(g69
g70
NtRp2624
(dp2625
g73
(dp2626
g81
I3
ssg82
g2620
sg75
(lp2627
g1221
asbasbasbag68
(g84
g70
NtRp2628
(dp2629
g73
(dp2630
sg82
g2582
sg75
(lp2631
g68
(g89
g70
NtRp2632
(dp2633
g73
(dp2634
g93
g94
ssg82
g2628
sg75
(lp2635
S'HTTP_ACCEPT_ENCODING'
p2636
asbag68
(g89
g70
NtRp2637
(dp2638
g73
(dp2639
g100
g101
ssg82
g2628
sg75
(lp2640
S':'
asbag68
(g89
g70
NtRp2641
(dp2642
g73
(dp2643
sg82
g2628
sg75
(lp2644
g68
(g69
g70
NtRp2645
(dp2646
g73
(dp2647
g81
I3
ssg82
g2641
sg75
(lp2648
g1243
asbasbasbag68
(g84
g70
NtRp2649
(dp2650
g73
(dp2651
sg82
g2582
sg75
(lp2652
g68
(g89
g70
NtRp2653
(dp2654
g73
(dp2655
g93
g94
ssg82
g2649
sg75
(lp2656
S'HTTP_ACCEPT_LANGUAGE'
p2657
asbag68
(g89
g70
NtRp2658
(dp2659
g73
(dp2660
g100
g101
ssg82
g2649
sg75
(lp2661
S':'
asbag68
(g89
g70
NtRp2662
(dp2663
g73
(dp2664
sg82
g2649
sg75
(lp2665
g68
(g69
g70
NtRp2666
(dp2667
g73
(dp2668
g81
I3
ssg82
g2662
sg75
(lp2669
g1265
asbasbasbag68
(g84
g70
NtRp2670
(dp2671
g73
(dp2672
sg82
g2582
sg75
(lp2673
g68
(g89
g70
NtRp2674
(dp2675
g73
(dp2676
g93
g94
ssg82
g2670
sg75
(lp2677
S'HTTP_CACHE_CONTROL'
p2678
asbag68
(g89
g70
NtRp2679
(dp2680
g73
(dp2681
g100
g101
ssg82
g2670
sg75
(lp2682
S':'
asbag68
(g89
g70
NtRp2683
(dp2684
g73
(dp2685
sg82
g2670
sg75
(lp2686
g68
(g69
g70
NtRp2687
(dp2688
g73
(dp2689
g81
I3
ssg82
g2683
sg75
(lp2690
g1287
asbasbasbag68
(g84
g70
NtRp2691
(dp2692
g73
(dp2693
sg82
g2582
sg75
(lp2694
g68
(g89
g70
NtRp2695
(dp2696
g73
(dp2697
g93
g94
ssg82
g2691
sg75
(lp2698
S'HTTP_CONNECTION'
p2699
asbag68
(g89
g70
NtRp2700
(dp2701
g73
(dp2702
g100
g101
ssg82
g2691
sg75
(lp2703
S':'
asbag68
(g89
g70
NtRp2704
(dp2705
g73
(dp2706
sg82
g2691
sg75
(lp2707
g68
(g69
g70
NtRp2708
(dp2709
g73
(dp2710
g81
I3
ssg82
g2704
sg75
(lp2711
g1309
asbasbasbag68
(g84
g70
NtRp2712
(dp2713
g73
(dp2714
sg82
g2582
sg75
(lp2715
g68
(g89
g70
NtRp2716
(dp2717
g73
(dp2718
g93
g94
ssg82
g2712
sg75
(lp2719
S'HTTP_COOKIE'
p2720
asbag68
(g89
g70
NtRp2721
(dp2722
g73
(dp2723
g100
g101
ssg82
g2712
sg75
(lp2724
S':'
asbag68
(g89
g70
NtRp2725
(dp2726
g73
(dp2727
sg82
g2712
sg75
(lp2728
g68
(g69
g70
NtRp2729
(dp2730
g73
(dp2731
g81
I3
ssg82
g2725
sg75
(lp2732
g1331
asbasbasbag68
(g84
g70
NtRp2733
(dp2734
g73
(dp2735
sg82
g2582
sg75
(lp2736
g68
(g89
g70
NtRp2737
(dp2738
g73
(dp2739
g93
g94
ssg82
g2733
sg75
(lp2740
S'HTTP_HOST'
p2741
asbag68
(g89
g70
NtRp2742
(dp2743
g73
(dp2744
g100
g101
ssg82
g2733
sg75
(lp2745
S':'
asbag68
(g89
g70
NtRp2746
(dp2747
g73
(dp2748
sg82
g2733
sg75
(lp2749
g68
(g69
g70
NtRp2750
(dp2751
g73
(dp2752
g81
I3
ssg82
g2746
sg75
(lp2753
g1353
asbasbasbag68
(g84
g70
NtRp2754
(dp2755
g73
(dp2756
sg82
g2582
sg75
(lp2757
g68
(g89
g70
NtRp2758
(dp2759
g73
(dp2760
g93
g94
ssg82
g2754
sg75
(lp2761
S'HTTP_USER_AGENT'
p2762
asbag68
(g89
g70
NtRp2763
(dp2764
g73
(dp2765
g100
g101
ssg82
g2754
sg75
(lp2766
S':'
asbag68
(g89
g70
NtRp2767
(dp2768
g73
(dp2769
sg82
g2754
sg75
(lp2770
g68
(g69
g70
NtRp2771
(dp2772
g73
(dp2773
g81
I3
ssg82
g2767
sg75
(lp2774
g1375
asbasbasbag68
(g84
g70
NtRp2775
(dp2776
g73
(dp2777
sg82
g2582
sg75
(lp2778
g68
(g89
g70
NtRp2779
(dp2780
g73
(dp2781
g93
g94
ssg82
g2775
sg75
(lp2782
S'PATH_INFO'
p2783
asbag68
(g89
g70
NtRp2784
(dp2785
g73
(dp2786
g100
g101
ssg82
g2775
sg75
(lp2787
S':'
asbag68
(g89
g70
NtRp2788
(dp2789
g73
(dp2790
sg82
g2775
sg75
(lp2791
g68
(g69
g70
NtRp2792
(dp2793
g73
(dp2794
g81
I3
ssg82
g2788
sg75
(lp2795
g1418
asbasbasbag68
(g84
g70
NtRp2796
(dp2797
g73
(dp2798
sg82
g2582
sg75
(lp2799
g68
(g89
g70
NtRp2800
(dp2801
g73
(dp2802
g93
g94
ssg82
g2796
sg75
(lp2803
S'QUERY_STRING'
p2804
asbag68
(g89
g70
NtRp2805
(dp2806
g73
(dp2807
g100
g101
ssg82
g2796
sg75
(lp2808
S':'
asbag68
(g89
g70
NtRp2809
(dp2810
g73
(dp2811
sg82
g2796
sg75
(lp2812
g68
(g69
g70
NtRp2813
(dp2814
g73
(dp2815
g81
I3
ssg82
g2809
sg75
(lp2816
S''
asbasbasbag68
(g84
g70
NtRp2817
(dp2818
g73
(dp2819
sg82
g2582
sg75
(lp2820
g68
(g89
g70
NtRp2821
(dp2822
g73
(dp2823
g93
g94
ssg82
g2817
sg75
(lp2824
S'REMOTE_ADDR'
p2825
asbag68
(g89
g70
NtRp2826
(dp2827
g73
(dp2828
g100
g101
ssg82
g2817
sg75
(lp2829
S':'
asbag68
(g89
g70
NtRp2830
(dp2831
g73
(dp2832
sg82
g2817
sg75
(lp2833
g68
(g69
g70
NtRp2834
(dp2835
g73
(dp2836
g81
I3
ssg82
g2830
sg75
(lp2837
g201
asbasbasbag68
(g84
g70
NtRp2838
(dp2839
g73
(dp2840
sg82
g2582
sg75
(lp2841
g68
(g89
g70
NtRp2842
(dp2843
g73
(dp2844
g93
g94
ssg82
g2838
sg75
(lp2845
S'REMOTE_PORT'
p2846
asbag68
(g89
g70
NtRp2847
(dp2848
g73
(dp2849
g100
g101
ssg82
g2838
sg75
(lp2850
S':'
asbag68
(g89
g70
NtRp2851
(dp2852
g73
(dp2853
sg82
g2838
sg75
(lp2854
g68
(g69
g70
NtRp2855
(dp2856
g73
(dp2857
g81
I3
ssg82
g2851
sg75
(lp2858
g1482
asbasbasbag68
(g84
g70
NtRp2859
(dp2860
g73
(dp2861
sg82
g2582
sg75
(lp2862
g68
(g89
g70
NtRp2863
(dp2864
g73
(dp2865
g93
g94
ssg82
g2859
sg75
(lp2866
S'REQUEST_METHOD'
p2867
asbag68
(g89
g70
NtRp2868
(dp2869
g73
(dp2870
g100
g101
ssg82
g2859
sg75
(lp2871
S':'
asbag68
(g89
g70
NtRp2872
(dp2873
g73
(dp2874
sg82
g2859
sg75
(lp2875
g68
(g69
g70
NtRp2876
(dp2877
g73
(dp2878
g81
I3
ssg82
g2872
sg75
(lp2879
g1504
asbasbasbag68
(g84
g70
NtRp2880
(dp2881
g73
(dp2882
sg82
g2582
sg75
(lp2883
g68
(g89
g70
NtRp2884
(dp2885
g73
(dp2886
g93
g94
ssg82
g2880
sg75
(lp2887
S'SCRIPT_NAME'
p2888
asbag68
(g89
g70
NtRp2889
(dp2890
g73
(dp2891
g100
g101
ssg82
g2880
sg75
(lp2892
S':'
asbag68
(g89
g70
NtRp2893
(dp2894
g73
(dp2895
sg82
g2880
sg75
(lp2896
g68
(g69
g70
NtRp2897
(dp2898
g73
(dp2899
g81
I3
ssg82
g2893
sg75
(lp2900
S''
asbasbasbag68
(g84
g70
NtRp2901
(dp2902
g73
(dp2903
sg82
g2582
sg75
(lp2904
g68
(g89
g70
NtRp2905
(dp2906
g73
(dp2907
g93
g94
ssg82
g2901
sg75
(lp2908
S'SERVER_NAME'
p2909
asbag68
(g89
g70
NtRp2910
(dp2911
g73
(dp2912
g100
g101
ssg82
g2901
sg75
(lp2913
S':'
asbag68
(g89
g70
NtRp2914
(dp2915
g73
(dp2916
sg82
g2901
sg75
(lp2917
g68
(g69
g70
NtRp2918
(dp2919
g73
(dp2920
g81
I3
ssg82
g2914
sg75
(lp2921
g1547
asbasbasbag68
(g84
g70
NtRp2922
(dp2923
g73
(dp2924
sg82
g2582
sg75
(lp2925
g68
(g89
g70
NtRp2926
(dp2927
g73
(dp2928
g93
g94
ssg82
g2922
sg75
(lp2929
S'SERVER_PORT'
p2930
asbag68
(g89
g70
NtRp2931
(dp2932
g73
(dp2933
g100
g101
ssg82
g2922
sg75
(lp2934
S':'
asbag68
(g89
g70
NtRp2935
(dp2936
g73
(dp2937
sg82
g2922
sg75
(lp2938
g68
(g69
g70
NtRp2939
(dp2940
g73
(dp2941
g81
I3
ssg82
g2935
sg75
(lp2942
g1569
asbasbasbag68
(g84
g70
NtRp2943
(dp2944
g73
(dp2945
sg82
g2582
sg75
(lp2946
g68
(g89
g70
NtRp2947
(dp2948
g73
(dp2949
g93
g94
ssg82
g2943
sg75
(lp2950
S'SERVER_PROTOCOL'
p2951
asbag68
(g89
g70
NtRp2952
(dp2953
g73
(dp2954
g100
g101
ssg82
g2943
sg75
(lp2955
S':'
asbag68
(g89
g70
NtRp2956
(dp2957
g73
(dp2958
sg82
g2943
sg75
(lp2959
g68
(g69
g70
NtRp2960
(dp2961
g73
(dp2962
g81
I3
ssg82
g2956
sg75
(lp2963
g1591
asbasbasbag68
(g84
g70
NtRp2964
(dp2965
g73
(dp2966
sg82
g2582
sg75
(lp2967
g68
(g89
g70
NtRp2968
(dp2969
g73
(dp2970
g93
g94
ssg82
g2964
sg75
(lp2971
S'SERVER_SOFTWARE'
p2972
asbag68
(g89
g70
NtRp2973
(dp2974
g73
(dp2975
g100
g101
ssg82
g2964
sg75
(lp2976
S':'
asbag68
(g89
g70
NtRp2977
(dp2978
g73
(dp2979
sg82
g2964
sg75
(lp2980
g68
(g69
g70
NtRp2981
(dp2982
g73
(dp2983
g81
I3
ssg82
g2977
sg75
(lp2984
g1613
asbasbasbag68
(g84
g70
NtRp2985
(dp2986
g73
(dp2987
sg82
g2582
sg75
(lp2988
g68
(g89
g70
NtRp2989
(dp2990
g73
(dp2991
g93
g94
ssg82
g2985
sg75
(lp2992
S'wsgi.errors'
p2993
asbag68
(g89
g70
NtRp2994
(dp2995
g73
(dp2996
g100
g101
ssg82
g2985
sg75
(lp2997
S':'
asbag68
(g89
g70
NtRp2998
(dp2999
g73
(dp3000
sg82
g2985
sg75
(lp3001
g68
(g69
g70
NtRp3002
(dp3003
g73
(dp3004
g81
I3
ssg82
g2998
sg75
(lp3005
S"<open file '<stderr>', mode 'w' at 0x7f0a266f3270>"
p3006
asbasbasbag68
(g84
g70
NtRp3007
(dp3008
g73
(dp3009
sg82
g2582
sg75
(lp3010
g68
(g89
g70
NtRp3011
(dp3012
g73
(dp3013
g93
g94
ssg82
g3007
sg75
(lp3014
S'wsgi.file_wrapper'
p3015
asbag68
(g89
g70
NtRp3016
(dp3017
g73
(dp3018
g100
g101
ssg82
g3007
sg75
(lp3019
S':'
asbag68
(g89
g70
NtRp3020
(dp3021
g73
(dp3022
sg82
g3007
sg75
(lp3023
g68
(g69
g70
NtRp3024
(dp3025
g73
(dp3026
g81
I3
ssg82
g3020
sg75
(lp3027
S'<class wsgiref.util.FileWrapper at 0x1a73600>'
p3028
asbasbasbag68
(g84
g70
NtRp3029
(dp3030
g73
(dp3031
sg82
g2582
sg75
(lp3032
g68
(g89
g70
NtRp3033
(dp3034
g73
(dp3035
g93
g94
ssg82
g3029
sg75
(lp3036
S'wsgi.input'
p3037
asbag68
(g89
g70
NtRp3038
(dp3039
g73
(dp3040
g100
g101
ssg82
g3029
sg75
(lp3041
S':'
asbag68
(g89
g70
NtRp3042
(dp3043
g73
(dp3044
sg82
g3029
sg75
(lp3045
g68
(g69
g70
NtRp3046
(dp3047
g73
(dp3048
g81
I3
ssg82
g3042
sg75
(lp3049
S'<cStringIO.StringO object at 0x40a4d18>'
p3050
asbasbasbag68
(g84
g70
NtRp3051
(dp3052
g73
(dp3053
sg82
g2582
sg75
(lp3054
g68
(g89
g70
NtRp3055
(dp3056
g73
(dp3057
g93
g94
ssg82
g3051
sg75
(lp3058
S'wsgi.multiprocess'
p3059
asbag68
(g89
g70
NtRp3060
(dp3061
g73
(dp3062
g100
g101
ssg82
g3051
sg75
(lp3063
S':'
asbag68
(g89
g70
NtRp3064
(dp3065
g73
(dp3066
sg82
g3051
sg75
(lp3067
g68
(g69
g70
NtRp3068
(dp3069
g73
(dp3070
g81
I3
ssg82
g3064
sg75
(lp3071
g111
asbasbasbag68
(g84
g70
NtRp3072
(dp3073
g73
(dp3074
sg82
g2582
sg75
(lp3075
g68
(g89
g70
NtRp3076
(dp3077
g73
(dp3078
g93
g94
ssg82
g3072
sg75
(lp3079
S'wsgi.multithread'
p3080
asbag68
(g89
g70
NtRp3081
(dp3082
g73
(dp3083
g100
g101
ssg82
g3072
sg75
(lp3084
S':'
asbag68
(g89
g70
NtRp3085
(dp3086
g73
(dp3087
sg82
g3072
sg75
(lp3088
g68
(g69
g70
NtRp3089
(dp3090
g73
(dp3091
g81
I3
ssg82
g3085
sg75
(lp3092
g1853
asbasbasbag68
(g84
g70
NtRp3093
(dp3094
g73
(dp3095
sg82
g2582
sg75
(lp3096
g68
(g89
g70
NtRp3097
(dp3098
g73
(dp3099
g93
g94
ssg82
g3093
sg75
(lp3100
S'wsgi.run_once'
p3101
asbag68
(g89
g70
NtRp3102
(dp3103
g73
(dp3104
g100
g101
ssg82
g3093
sg75
(lp3105
S':'
asbag68
(g89
g70
NtRp3106
(dp3107
g73
(dp3108
sg82
g3093
sg75
(lp3109
g68
(g69
g70
NtRp3110
(dp3111
g73
(dp3112
g81
I3
ssg82
g3106
sg75
(lp3113
g111
asbasbasbag68
(g84
g70
NtRp3114
(dp3115
g73
(dp3116
sg82
g2582
sg75
(lp3117
g68
(g89
g70
NtRp3118
(dp3119
g73
(dp3120
g93
g94
ssg82
g3114
sg75
(lp3121
S'wsgi.url_scheme'
p3122
asbag68
(g89
g70
NtRp3123
(dp3124
g73
(dp3125
g100
g101
ssg82
g3114
sg75
(lp3126
S':'
asbag68
(g89
g70
NtRp3127
(dp3128
g73
(dp3129
sg82
g3114
sg75
(lp3130
g68
(g69
g70
NtRp3131
(dp3132
g73
(dp3133
g81
I3
ssg82
g3127
sg75
(lp3134
g1896
asbasbasbag68
(g84
g70
NtRp3135
(dp3136
g73
(dp3137
sg82
g2582
sg75
(lp3138
g68
(g89
g70
NtRp3139
(dp3140
g73
(dp3141
g93
g94
ssg82
g3135
sg75
(lp3142
S'wsgi.version'
p3143
asbag68
(g89
g70
NtRp3144
(dp3145
g73
(dp3146
g100
g101
ssg82
g3135
sg75
(lp3147
S':'
asbag68
(g89
g70
NtRp3148
(dp3149
g73
(dp3150
sg82
g3135
sg75
(lp3151
g68
(g69
g70
NtRp3152
(dp3153
g73
(dp3154
g81
I3
ssg82
g3148
sg75
(lp3155
S'1'
asbasbasbasbasbasbasbasbasbasbasbasbasbsS'frames'
p3156
(lp3157
(dp3158
S'file'
p3159
S'/windows/Users/Thomas/Dropbox/appz/2011/GAE/ddl-lagoon/gluon/restricted.py'
p3160
sS'dump'
p3161
(dp3162
S'environment'
p3163
S"{'A': <class 'gluon.html.A'>, 'Auth': <class 'gluon.tools.Auth'>, 'B': <class 'gluon.html.B'>, 'BEAUTIFY': <class 'gluon.html.BEAUTIFY'>, 'BODY': <class 'gluon.html.BODY'>, 'BR': <class 'gluon.html.BR'>, 'BUTTON': <class 'gluon.html.BUTTON'>, 'CAT': <class 'gluon.html.CAT'>, 'CENTER': <class 'gluon.html.CENTER'>, 'CLEANUP': <class 'gluon.validators.CLEANUP'>, ...}"
p3164
sS'ccode'
p3165
S'<code object <module> at 0x2d86630, file "/windo...ations/ddlagoon/controllers/default.py", line 11>'
p3166
ssS'lnum'
p3167
I194
sS'lines'
p3168
(dp3169
I192
S'        else:'
p3170
sI193
S'            ccode = compile2(code,layer)'
p3171
sI194
S'        exec ccode in environment'
p3172
sI195
S'    except HTTP:'
p3173
sI196
S'        raise'
p3174
sI197
S'    except Exception, error:'
p3175
sI198
S'        # XXX Show exception in Wing IDE if running in debugger'
p3176
sI189
S'    try:'
p3177
sI190
S'        if type(code) == types.CodeType:'
p3178
sI191
S'            ccode = code'
p3179
ssS'call'
p3180
S"(code='# -*- coding: utf-8 -*-\\n# this file is released ...=crud())\\n\\nresponse._vars=response._caller(index)\\n', environment={'A': <class 'gluon.html.A'>, 'Auth': <class 'gluon.tools.Auth'>, 'B': <class 'gluon.html.B'>, 'BEAUTIFY': <class 'gluon.html.BEAUTIFY'>, 'BODY': <class 'gluon.html.BODY'>, 'BR': <class 'gluon.html.BR'>, 'BUTTON': <class 'gluon.html.BUTTON'>, 'CAT': <class 'gluon.html.CAT'>, 'CENTER': <class 'gluon.html.CENTER'>, 'CLEANUP': <class 'gluon.validators.CLEANUP'>, ...}, layer='/windows/Users/Thomas/Dropbox/appz/2011/GAE/ddl-lagoon/applications/ddlagoon/controllers/default.py')"
p3181
sS'func'
p3182
S'restricted'
p3183
sa(dp3184
g3159
S'/windows/Users/Thomas/Dropbox/appz/2011/GAE/ddl-lagoon/applications/ddlagoon/controllers/default.py'
p3185
sg3161
(dp3186
sg3167
I278
sg3168
(dp3187
I267
S'    http://..../[app]/default/data/update/[table]/[id]'
p3188
sI268
S'    http://..../[app]/default/data/delete/[table]/[id]'
p3189
sI269
S'    http://..../[app]/default/data/select/[table]'
p3190
sI270
S'    http://..../[app]/default/data/search/[table]'
p3191
sI271
S'    but URLs bust be signed, i.e. linked with'
p3192
sI272
S"      A('table',_href=URL('data/tables',user_signature=True))"
p3193
sI273
S'    or with the signed load operator'
p3194
sI274
S"      LOAD('default','data.load',args='tables',ajax=True,user_signature=True)"
p3195
sI275
S'    """'
p3196
sI276
S'    return dict(form=crud())'
p3197
ssg3180
S'()'
p3198
sg3182
S'<module>'
p3199
sa(dp3200
g3159
S'/windows/Users/Thomas/Dropbox/appz/2011/GAE/ddl-lagoon/gluon/globals.py'
p3201
sg3161
(dp3202
S'self'
p3203
S'undefined'
p3204
sS'f'
S'<function index>'
p3205
ssg3167
I149
sg3168
(dp3206
I144
S'        self.meta = Storage()      # used by web2py_ajax.html'
p3207
sI145
S'        self.menu = []             # used by the default view layout'
p3208
sI146
S'        self.files = []            # used by web2py_ajax.html'
p3209
sI147
S'        self.generic_patterns = [] # patterns to allow generic views'
p3210
sI148
S'        self._vars = None'
p3211
sI149
S'        self._caller = lambda f: f()'
p3212
sI150
S'        self._view_environment = None'
p3213
sI151
S'        self._custom_commit = None'
p3214
sI152
S'        self._custom_rollback = None'
p3215
sI153
S''
ssg3180
S'(f=<function index>)'
p3216
sg3182
S'<lambda>'
p3217
sa(dp3218
g3159
S'/windows/Users/Thomas/Dropbox/appz/2011/GAE/ddl-lagoon/applications/ddlagoon/controllers/default.py'
p3219
sg3161
(dp3220
S'global db'
p3221
S"<DAL {'auth_event': <Table {'origin': <gluon.dal..., 'id': <gluon.dal.Field object at 0x2b0b850>}>}>"
p3222
sS'db.ddl.ALL'
p3223
S'<gluon.dal.SQLALL object>'
p3224
sS'ddlz'
p3225
g3204
sS').select'
p3226
g3204
sS'db.ddl'
p3227
S"<Table {'last_time_downloaded': <gluon.dal.Field...>, '_id': <gluon.dal.Field object at 0x2b14f50>}>"
p3228
ssg3167
I42
sg3168
(dp3229
I37
S'def index():'
p3230
sI38
S'    """'
p3231
sI39
S'    example action using the internationalization operator T and flash'
p3232
sI40
S'    rendered by views/default/index.html or views/generic.html'
p3233
sI41
S'    """'
p3234
sI42
S'    ddlz= db(db.ddl.ALL).select()'
p3235
sI43
S"    return dict(message=T('Hello World'),ddlz=ddlz)"
p3236
sI44
S''
sI45
S'def user():'
p3237
sI46
S'    """'
p3238
ssg3180
S'()'
p3239
sg3182
g2011
sa(dp3240
g3159
S'/windows/Users/Thomas/Dropbox/appz/2011/GAE/ddl-lagoon/gluon/dal.py'
p3241
sg3161
(dp3242
S'self.query'
p3243
S'<gluon.dal.SQLALL object>'
p3244
sS'fields'
p3245
S'()'
p3246
sS'self'
p3247
S'<gluon.dal.Set object>'
p3248
sS'self.db._adapter.select'
p3249
S'<bound method SQLiteAdapter.select of <gluon.dal.SQLiteAdapter object>>'
p3250
sS'self.db._adapter'
p3251
S'<gluon.dal.SQLiteAdapter object>'
p3252
sS'attributes'
p3253
g20
sS'self.db'
p3254
S"<DAL {'auth_event': <Table {'origin': <gluon.dal..., 'id': <gluon.dal.Field object at 0x2b0b850>}>}>"
p3255
ssg3167
I5697
sg3168
(dp3256
I5696
S'    def select(self, *fields, **attributes):'
p3257
sI5697
S'        return self.db._adapter.select(self.query,fields,attributes)'
p3258
sI5698
S''
sI5699
S'    def delete(self):'
p3259
sI5700
S'        tablename=self.db._adapter.get_table(self.query)'
p3260
sI5701
S'        self.delete_uploaded_files()'
p3261
sI5692
S''
sI5693
S'    def count(self,distinct=None):'
p3262
sI5694
S'        return self.db._adapter.count(self.query,distinct)'
p3263
sI5695
S''
ssg3180
S'(self=<gluon.dal.Set object>, *fields=(), **attributes={})'
p3264
sg3182
S'select'
p3265
sa(dp3266
g3159
S'/windows/Users/Thomas/Dropbox/appz/2011/GAE/ddl-lagoon/gluon/dal.py'
p3267
sg3161
(dp3268
S'self._select'
p3269
S'<bound method SQLiteAdapter._select of <gluon.dal.SQLiteAdapter object>>'
p3270
sS'fields'
p3271
S'()'
p3272
sS'self'
p3273
S'<gluon.dal.SQLiteAdapter object>'
p3274
sS'sql'
p3275
g3204
sS'query'
p3276
S'<gluon.dal.SQLALL object>'
p3277
sS'attributes'
p3278
g20
ssg3167
I1225
sg3168
(dp3279
I1220
S'        Always returns a Rows object, even if it may be empty'
p3280
sI1221
S'        """'
p3281
sI1222
S'        def response(sql):'
p3282
sI1223
S'            self.execute(sql)'
p3283
sI1224
S'            return self.cursor.fetchall()'
p3284
sI1225
S'        sql = self._select(query,fields,attributes)'
p3285
sI1226
S"        if attributes.get('cache', None):"
p3286
sI1227
S"            (cache_model, time_expire) = attributes['cache']"
p3287
sI1228
S"            del attributes['cache']"
p3288
sI1229
S"            key = self.uri + '/' + sql"
p3289
ssg3180
S'(self=<gluon.dal.SQLiteAdapter object>, query=<gluon.dal.SQLALL object>, fields=(), attributes={})'
p3290
sg3182
g3265
sa(dp3291
g3159
S'/windows/Users/Thomas/Dropbox/appz/2011/GAE/ddl-lagoon/gluon/dal.py'
p3292
sg3161
(dp3293
S'builtinSyntaxError'
p3294
S"<type 'exceptions.SyntaxError'>"
p3295
ssg3167
I1128
sg3168
(dp3296
I1123
S'                    field = self.db[tn][fn]'
p3297
sI1124
S'                for tablename in self.tables(field):'
p3298
sI1125
S'                    if not tablename in tablenames:'
p3299
sI1126
S'                        tablenames.append(tablename)'
p3300
sI1127
S'        if len(tablenames) < 1:'
p3301
sI1128
S"            raise SyntaxError, 'Set: no tables selected'"
p3302
sI1129
S"        sql_f = ', '.join(map(self.expand,fields))"
p3303
sI1130
S"        self._colnames = [c.strip() for c in sql_f.split(', ')]"
p3304
sI1131
S'        if query:'
p3305
sI1132
S"            sql_w = ' WHERE ' + self.expand(query)"
p3306
ssg3180
S'(self=<gluon.dal.SQLiteAdapter object>, query=<gluon.dal.SQLALL object>, fields=[], attributes={})'
p3307
sg3182
S'_select'
p3308
sasS'pyver'
p3309
S'Python 2.7.2+: /usr/bin/python'
p3310
sS'session'
p3311
g68
(g69
g70
NtRp3312
(dp3313
g73
(dp3314
sg75
(lp3315
g68
(g77
g70
NtRp3316
(dp3317
g73
(dp3318
g81
I5
ssg82
Nsg75
(lp3319
g68
(g84
g70
NtRp3320
(dp3321
g73
(dp3322
sg82
g3316
sg75
(lp3323
g68
(g89
g70
NtRp3324
(dp3325
g73
(dp3326
g93
g94
ssg82
g3320
sg75
(lp3327
S'last_query'
p3328
asbag68
(g89
g70
NtRp3329
(dp3330
g73
(dp3331
g100
g101
ssg82
g3320
sg75
(lp3332
S':'
asbag68
(g89
g70
NtRp3333
(dp3334
g73
(dp3335
sg82
g3320
sg75
(lp3336
g68
(g69
g70
NtRp3337
(dp3338
g73
(dp3339
g81
I5
ssg82
g3333
sg75
(lp3340
S'db.ddl.id>0'
p3341
asbasbasbasbasbsS'etype'
p3342
S"<type 'exceptions.SyntaxError'>"
p3343
sS'date'
p3344
S'Wed Oct 26 21:24:26 2011'
p3345
sS'response'
p3346
g68
(g69
g70
NtRp3347
(dp3348
g73
(dp3349
sg75
(lp3350
g68
(g77
g70
NtRp3351
(dp3352
g73
(dp3353
g81
I5
ssg82
Nsg75
(lp3354
g68
(g84
g70
NtRp3355
(dp3356
g73
(dp3357
sg82
g3351
sg75
(lp3358
g68
(g89
g70
NtRp3359
(dp3360
g73
(dp3361
g93
g94
ssg82
g3355
sg75
(lp3362
g166
asbag68
(g89
g70
NtRp3363
(dp3364
g73
(dp3365
g100
g101
ssg82
g3355
sg75
(lp3366
S':'
asbag68
(g89
g70
NtRp3367
(dp3368
g73
(dp3369
sg82
g3355
sg75
(lp3370
g68
(g69
g70
NtRp3371
(dp3372
g73
(dp3373
g81
I5
ssg82
g3367
sg75
(lp3374
S'<cStringIO.StringO object at 0x4acd7a0>'
p3375
asbasbasbag68
(g84
g70
NtRp3376
(dp3377
g73
(dp3378
sg82
g3351
sg75
(lp3379
g68
(g89
g70
NtRp3380
(dp3381
g73
(dp3382
g93
g94
ssg82
g3376
sg75
(lp3383
g232
asbag68
(g89
g70
NtRp3384
(dp3385
g73
(dp3386
g100
g101
ssg82
g3376
sg75
(lp3387
S':'
asbag68
(g89
g70
NtRp3388
(dp3389
g73
(dp3390
sg82
g3376
sg75
(lp3391
g68
(g69
g70
NtRp3392
(dp3393
g73
(dp3394
g81
I5
ssg82
g3388
sg75
(lp3395
g68
(g77
g70
NtRp3396
(dp3397
g73
(dp3398
g81
I4
ssg82
Nsg75
(lp3399
g68
(g84
g70
NtRp3400
(dp3401
g73
(dp3402
sg82
g3396
sg75
(lp3403
g68
(g89
g70
NtRp3404
(dp3405
g73
(dp3406
g93
g94
ssg82
g3400
sg75
(lp3407
S'session_id_ddlagoon'
p3408
asbag68
(g89
g70
NtRp3409
(dp3410
g73
(dp3411
g100
g101
ssg82
g3400
sg75
(lp3412
S':'
asbag68
(g89
g70
NtRp3413
(dp3414
g73
(dp3415
sg82
g3400
sg75
(lp3416
g68
(g69
g70
NtRp3417
(dp3418
g73
(dp3419
g81
I4
ssg82
g3413
sg75
(lp3420
g68
(g77
g70
NtRp3421
(dp3422
g73
(dp3423
g81
I3
ssg82
Nsg75
(lp3424
g68
(g84
g70
NtRp3425
(dp3426
g73
(dp3427
sg82
g3421
sg75
(lp3428
g68
(g89
g70
NtRp3429
(dp3430
g73
(dp3431
g93
g94
ssg82
g3425
sg75
(lp3432
g282
asbag68
(g89
g70
NtRp3433
(dp3434
g73
(dp3435
g100
g101
ssg82
g3425
sg75
(lp3436
S':'
asbag68
(g89
g70
NtRp3437
(dp3438
g73
(dp3439
sg82
g3425
sg75
(lp3440
g68
(g69
g70
NtRp3441
(dp3442
g73
(dp3443
g81
I3
ssg82
g3437
sg75
(lp3444
S''
asbasbasbag68
(g84
g70
NtRp3445
(dp3446
g73
(dp3447
sg82
g3421
sg75
(lp3448
g68
(g89
g70
NtRp3449
(dp3450
g73
(dp3451
g93
g94
ssg82
g3445
sg75
(lp3452
g303
asbag68
(g89
g70
NtRp3453
(dp3454
g73
(dp3455
g100
g101
ssg82
g3445
sg75
(lp3456
S':'
asbag68
(g89
g70
NtRp3457
(dp3458
g73
(dp3459
sg82
g3445
sg75
(lp3460
g68
(g69
g70
NtRp3461
(dp3462
g73
(dp3463
g81
I3
ssg82
g3457
sg75
(lp3464
S''
asbasbasbag68
(g84
g70
NtRp3465
(dp3466
g73
(dp3467
sg82
g3421
sg75
(lp3468
g68
(g89
g70
NtRp3469
(dp3470
g73
(dp3471
g93
g94
ssg82
g3465
sg75
(lp3472
g324
asbag68
(g89
g70
NtRp3473
(dp3474
g73
(dp3475
g100
g101
ssg82
g3465
sg75
(lp3476
S':'
asbag68
(g89
g70
NtRp3477
(dp3478
g73
(dp3479
sg82
g3465
sg75
(lp3480
g68
(g69
g70
NtRp3481
(dp3482
g73
(dp3483
g81
I3
ssg82
g3477
sg75
(lp3484
S''
asbasbasbag68
(g84
g70
NtRp3485
(dp3486
g73
(dp3487
sg82
g3421
sg75
(lp3488
g68
(g89
g70
NtRp3489
(dp3490
g73
(dp3491
g93
g94
ssg82
g3485
sg75
(lp3492
g345
asbag68
(g89
g70
NtRp3493
(dp3494
g73
(dp3495
g100
g101
ssg82
g3485
sg75
(lp3496
S':'
asbag68
(g89
g70
NtRp3497
(dp3498
g73
(dp3499
sg82
g3485
sg75
(lp3500
g68
(g69
g70
NtRp3501
(dp3502
g73
(dp3503
g81
I3
ssg82
g3497
sg75
(lp3504
S''
asbasbasbag68
(g84
g70
NtRp3505
(dp3506
g73
(dp3507
sg82
g3421
sg75
(lp3508
g68
(g89
g70
NtRp3509
(dp3510
g73
(dp3511
g93
g94
ssg82
g3505
sg75
(lp3512
g366
asbag68
(g89
g70
NtRp3513
(dp3514
g73
(dp3515
g100
g101
ssg82
g3505
sg75
(lp3516
S':'
asbag68
(g89
g70
NtRp3517
(dp3518
g73
(dp3519
sg82
g3505
sg75
(lp3520
g68
(g69
g70
NtRp3521
(dp3522
g73
(dp3523
g81
I3
ssg82
g3517
sg75
(lp3524
S''
asbasbasbag68
(g84
g70
NtRp3525
(dp3526
g73
(dp3527
sg82
g3421
sg75
(lp3528
g68
(g89
g70
NtRp3529
(dp3530
g73
(dp3531
g93
g94
ssg82
g3525
sg75
(lp3532
g387
asbag68
(g89
g70
NtRp3533
(dp3534
g73
(dp3535
g100
g101
ssg82
g3525
sg75
(lp3536
S':'
asbag68
(g89
g70
NtRp3537
(dp3538
g73
(dp3539
sg82
g3525
sg75
(lp3540
g68
(g69
g70
NtRp3541
(dp3542
g73
(dp3543
g81
I3
ssg82
g3537
sg75
(lp3544
S'/'
asbasbasbag68
(g84
g70
NtRp3545
(dp3546
g73
(dp3547
sg82
g3421
sg75
(lp3548
g68
(g89
g70
NtRp3549
(dp3550
g73
(dp3551
g93
g94
ssg82
g3545
sg75
(lp3552
g408
asbag68
(g89
g70
NtRp3553
(dp3554
g73
(dp3555
g100
g101
ssg82
g3545
sg75
(lp3556
S':'
asbag68
(g89
g70
NtRp3557
(dp3558
g73
(dp3559
sg82
g3545
sg75
(lp3560
g68
(g69
g70
NtRp3561
(dp3562
g73
(dp3563
g81
I3
ssg82
g3557
sg75
(lp3564
S''
asbasbasbag68
(g84
g70
NtRp3565
(dp3566
g73
(dp3567
sg82
g3421
sg75
(lp3568
g68
(g89
g70
NtRp3569
(dp3570
g73
(dp3571
g93
g94
ssg82
g3565
sg75
(lp3572
g429
asbag68
(g89
g70
NtRp3573
(dp3574
g73
(dp3575
g100
g101
ssg82
g3565
sg75
(lp3576
S':'
asbag68
(g89
g70
NtRp3577
(dp3578
g73
(dp3579
sg82
g3565
sg75
(lp3580
g68
(g69
g70
NtRp3581
(dp3582
g73
(dp3583
g81
I3
ssg82
g3577
sg75
(lp3584
S''
asbasbasbasbasbasbasbasbasbasbasbag68
(g84
g70
NtRp3585
(dp3586
g73
(dp3587
sg82
g3351
sg75
(lp3588
g68
(g89
g70
NtRp3589
(dp3590
g73
(dp3591
g93
g94
ssg82
g3585
sg75
(lp3592
S'files'
p3593
asbag68
(g89
g70
NtRp3594
(dp3595
g73
(dp3596
g100
g101
ssg82
g3585
sg75
(lp3597
S':'
asbag68
(g89
g70
NtRp3598
(dp3599
g73
(dp3600
sg82
g3585
sg75
(lp3601
g68
(g69
g70
NtRp3602
(dp3603
g73
(dp3604
g81
I5
ssg82
g3598
sg75
(lp3605
g68
(g77
g70
NtRp3606
(dp3607
g73
(dp3608
g81
I4
ssg82
Nsg75
(lp3609
sbasbasbasbag68
(g84
g70
NtRp3610
(dp3611
g73
(dp3612
sg82
g3351
sg75
(lp3613
g68
(g89
g70
NtRp3614
(dp3615
g73
(dp3616
g93
g94
ssg82
g3610
sg75
(lp3617
S'flash'
p3618
asbag68
(g89
g70
NtRp3619
(dp3620
g73
(dp3621
g100
g101
ssg82
g3610
sg75
(lp3622
S':'
asbag68
(g89
g70
NtRp3623
(dp3624
g73
(dp3625
sg82
g3610
sg75
(lp3626
g68
(g69
g70
NtRp3627
(dp3628
g73
(dp3629
g81
I5
ssg82
g3623
sg75
(lp3630
S''
asbasbasbag68
(g84
g70
NtRp3631
(dp3632
g73
(dp3633
sg82
g3351
sg75
(lp3634
g68
(g89
g70
NtRp3635
(dp3636
g73
(dp3637
g93
g94
ssg82
g3631
sg75
(lp3638
S'generic_patterns'
p3639
asbag68
(g89
g70
NtRp3640
(dp3641
g73
(dp3642
g100
g101
ssg82
g3631
sg75
(lp3643
S':'
asbag68
(g89
g70
NtRp3644
(dp3645
g73
(dp3646
sg82
g3631
sg75
(lp3647
g68
(g69
g70
NtRp3648
(dp3649
g73
(dp3650
g81
I5
ssg82
g3644
sg75
(lp3651
g68
(g77
g70
NtRp3652
(dp3653
g73
(dp3654
g81
I4
ssg82
Nsg75
(lp3655
g68
(g84
g70
NtRp3656
(dp3657
g73
(dp3658
sg82
g3652
sg75
(lp3659
g68
(g89
g70
NtRp3660
(dp3661
g73
(dp3662
sg82
g3656
sg75
(lp3663
g68
(g69
g70
NtRp3664
(dp3665
g73
(dp3666
g81
I4
ssg82
g3660
sg75
(lp3667
S'*'
asbasbasbasbasbasbasbag68
(g84
g70
NtRp3668
(dp3669
g73
(dp3670
sg82
g3351
sg75
(lp3671
g68
(g89
g70
NtRp3672
(dp3673
g73
(dp3674
g93
g94
ssg82
g3668
sg75
(lp3675
S'headers'
p3676
asbag68
(g89
g70
NtRp3677
(dp3678
g73
(dp3679
g100
g101
ssg82
g3668
sg75
(lp3680
S':'
asbag68
(g89
g70
NtRp3681
(dp3682
g73
(dp3683
sg82
g3668
sg75
(lp3684
g68
(g69
g70
NtRp3685
(dp3686
g73
(dp3687
g81
I5
ssg82
g3681
sg75
(lp3688
g68
(g77
g70
NtRp3689
(dp3690
g73
(dp3691
g81
I4
ssg82
Nsg75
(lp3692
g68
(g84
g70
NtRp3693
(dp3694
g73
(dp3695
sg82
g3689
sg75
(lp3696
g68
(g89
g70
NtRp3697
(dp3698
g73
(dp3699
g93
g94
ssg82
g3693
sg75
(lp3700
S'Cache-Control'
p3701
asbag68
(g89
g70
NtRp3702
(dp3703
g73
(dp3704
g100
g101
ssg82
g3693
sg75
(lp3705
S':'
asbag68
(g89
g70
NtRp3706
(dp3707
g73
(dp3708
sg82
g3693
sg75
(lp3709
g68
(g69
g70
NtRp3710
(dp3711
g73
(dp3712
g81
I4
ssg82
g3706
sg75
(lp3713
S'no-store, no-cache, must-revalidate, post-check=0, pre-check=0'
p3714
asbasbasbag68
(g84
g70
NtRp3715
(dp3716
g73
(dp3717
sg82
g3689
sg75
(lp3718
g68
(g89
g70
NtRp3719
(dp3720
g73
(dp3721
g93
g94
ssg82
g3715
sg75
(lp3722
S'Content-Type'
p3723
asbag68
(g89
g70
NtRp3724
(dp3725
g73
(dp3726
g100
g101
ssg82
g3715
sg75
(lp3727
S':'
asbag68
(g89
g70
NtRp3728
(dp3729
g73
(dp3730
sg82
g3715
sg75
(lp3731
g68
(g69
g70
NtRp3732
(dp3733
g73
(dp3734
g81
I4
ssg82
g3728
sg75
(lp3735
S'text/html; charset=utf-8'
p3736
asbasbasbag68
(g84
g70
NtRp3737
(dp3738
g73
(dp3739
sg82
g3689
sg75
(lp3740
g68
(g89
g70
NtRp3741
(dp3742
g73
(dp3743
g93
g94
ssg82
g3737
sg75
(lp3744
S'Expires'
p3745
asbag68
(g89
g70
NtRp3746
(dp3747
g73
(dp3748
g100
g101
ssg82
g3737
sg75
(lp3749
S':'
asbag68
(g89
g70
NtRp3750
(dp3751
g73
(dp3752
sg82
g3737
sg75
(lp3753
g68
(g69
g70
NtRp3754
(dp3755
g73
(dp3756
g81
I4
ssg82
g3750
sg75
(lp3757
S'Wed, 26 Oct 2011 20:24:26 GMT'
p3758
asbasbasbag68
(g84
g70
NtRp3759
(dp3760
g73
(dp3761
sg82
g3689
sg75
(lp3762
g68
(g89
g70
NtRp3763
(dp3764
g73
(dp3765
g93
g94
ssg82
g3759
sg75
(lp3766
S'Pragma'
p3767
asbag68
(g89
g70
NtRp3768
(dp3769
g73
(dp3770
g100
g101
ssg82
g3759
sg75
(lp3771
S':'
asbag68
(g89
g70
NtRp3772
(dp3773
g73
(dp3774
sg82
g3759
sg75
(lp3775
g68
(g69
g70
NtRp3776
(dp3777
g73
(dp3778
g81
I4
ssg82
g3772
sg75
(lp3779
S'no-cache'
p3780
asbasbasbag68
(g84
g70
NtRp3781
(dp3782
g73
(dp3783
sg82
g3689
sg75
(lp3784
g68
(g89
g70
NtRp3785
(dp3786
g73
(dp3787
g93
g94
ssg82
g3781
sg75
(lp3788
S'X-Powered-By'
p3789
asbag68
(g89
g70
NtRp3790
(dp3791
g73
(dp3792
g100
g101
ssg82
g3781
sg75
(lp3793
S':'
asbag68
(g89
g70
NtRp3794
(dp3795
g73
(dp3796
sg82
g3781
sg75
(lp3797
g68
(g69
g70
NtRp3798
(dp3799
g73
(dp3800
g81
I4
ssg82
g3794
sg75
(lp3801
S'web2py'
p3802
asbasbasbasbasbasbasbag68
(g84
g70
NtRp3803
(dp3804
g73
(dp3805
sg82
g3351
sg75
(lp3806
g68
(g89
g70
NtRp3807
(dp3808
g73
(dp3809
g93
g94
ssg82
g3803
sg75
(lp3810
S'menu'
p3811
asbag68
(g89
g70
NtRp3812
(dp3813
g73
(dp3814
g100
g101
ssg82
g3803
sg75
(lp3815
S':'
asbag68
(g89
g70
NtRp3816
(dp3817
g73
(dp3818
sg82
g3803
sg75
(lp3819
g68
(g69
g70
NtRp3820
(dp3821
g73
(dp3822
g81
I5
ssg82
g3816
sg75
(lp3823
g68
(g77
g70
NtRp3824
(dp3825
g73
(dp3826
g81
I4
ssg82
Nsg75
(lp3827
g68
(g84
g70
NtRp3828
(dp3829
g73
(dp3830
sg82
g3824
sg75
(lp3831
g68
(g89
g70
NtRp3832
(dp3833
g73
(dp3834
sg82
g3828
sg75
(lp3835
g68
(g69
g70
NtRp3836
(dp3837
g73
(dp3838
g81
I4
ssg82
g3832
sg75
(lp3839
g68
(g77
g70
NtRp3840
(dp3841
g73
(dp3842
g81
I3
ssg82
Nsg75
(lp3843
g68
(g84
g70
NtRp3844
(dp3845
g73
(dp3846
sg82
g3840
sg75
(lp3847
g68
(g89
g70
NtRp3848
(dp3849
g73
(dp3850
sg82
g3844
sg75
(lp3851
g68
(g69
g70
NtRp3852
(dp3853
g73
(dp3854
g81
I3
ssg82
g3848
sg75
(lp3855
cgluon.languages
lazyT_unpickle
p3856
(S't\x04\x00\x00\x00Home'
tRp3857
asbasbasbag68
(g84
g70
NtRp3858
(dp3859
g73
(dp3860
sg82
g3840
sg75
(lp3861
g68
(g89
g70
NtRp3862
(dp3863
g73
(dp3864
sg82
g3858
sg75
(lp3865
g68
(g69
g70
NtRp3866
(dp3867
g73
(dp3868
g81
I3
ssg82
g3862
sg75
(lp3869
g111
asbasbasbag68
(g84
g70
NtRp3870
(dp3871
g73
(dp3872
sg82
g3840
sg75
(lp3873
g68
(g89
g70
NtRp3874
(dp3875
g73
(dp3876
sg82
g3870
sg75
(lp3877
g68
(g69
g70
NtRp3878
(dp3879
g73
(dp3880
g81
I3
ssg82
g3874
sg75
(lp3881
S'/ddlagoon/default/index'
p3882
asbasbasbag68
(g84
g70
NtRp3883
(dp3884
g73
(dp3885
sg82
g3840
sg75
(lp3886
g68
(g89
g70
NtRp3887
(dp3888
g73
(dp3889
sg82
g3883
sg75
(lp3890
g68
(g69
g70
NtRp3891
(dp3892
g73
(dp3893
g81
I3
ssg82
g3887
sg75
(lp3894
g68
(g77
g70
NtRp3895
(dp3896
g73
(dp3897
g81
I2
ssg82
Nsg75
(lp3898
sbasbasbasbasbasbasbasbag68
(g84
g70
NtRp3899
(dp3900
g73
(dp3901
sg82
g3824
sg75
(lp3902
g68
(g89
g70
NtRp3903
(dp3904
g73
(dp3905
sg82
g3899
sg75
(lp3906
g68
(g69
g70
NtRp3907
(dp3908
g73
(dp3909
g81
I4
ssg82
g3903
sg75
(lp3910
g68
(g77
g70
NtRp3911
(dp3912
g73
(dp3913
g81
I3
ssg82
Nsg75
(lp3914
g68
(g84
g70
NtRp3915
(dp3916
g73
(dp3917
sg82
g3911
sg75
(lp3918
g68
(g89
g70
NtRp3919
(dp3920
g73
(dp3921
sg82
g3915
sg75
(lp3922
g68
(g69
g70
NtRp3923
(dp3924
g73
(dp3925
g81
I3
ssg82
g3919
sg75
(lp3926
g3856
(S's\x08\x00\x00\x00This App'
tRp3927
asbasbasbag68
(g84
g70
NtRp3928
(dp3929
g73
(dp3930
sg82
g3911
sg75
(lp3931
g68
(g89
g70
NtRp3932
(dp3933
g73
(dp3934
sg82
g3928
sg75
(lp3935
g68
(g69
g70
NtRp3936
(dp3937
g73
(dp3938
g81
I3
ssg82
g3932
sg75
(lp3939
g111
asbasbasbag68
(g84
g70
NtRp3940
(dp3941
g73
(dp3942
sg82
g3911
sg75
(lp3943
g68
(g89
g70
NtRp3944
(dp3945
g73
(dp3946
sg82
g3940
sg75
(lp3947
g68
(g69
g70
NtRp3948
(dp3949
g73
(dp3950
g81
I3
ssg82
g3944
sg75
(lp3951
S'/admin/default/design/ddlagoon'
p3952
asbasbasbag68
(g84
g70
NtRp3953
(dp3954
g73
(dp3955
sg82
g3911
sg75
(lp3956
g68
(g89
g70
NtRp3957
(dp3958
g73
(dp3959
sg82
g3953
sg75
(lp3960
g68
(g69
g70
NtRp3961
(dp3962
g73
(dp3963
g81
I3
ssg82
g3957
sg75
(lp3964
g68
(g77
g70
NtRp3965
(dp3966
g73
(dp3967
g81
I2
ssg82
Nsg75
(lp3968
g68
(g84
g70
NtRp3969
(dp3970
g73
(dp3971
sg82
g3965
sg75
(lp3972
g68
(g89
g70
NtRp3973
(dp3974
g73
(dp3975
sg82
g3969
sg75
(lp3976
g68
(g69
g70
NtRp3977
(dp3978
g73
(dp3979
g81
I2
ssg82
g3973
sg75
(lp3980
g68
(g77
g70
NtRp3981
(dp3982
g73
(dp3983
g81
I1
ssg82
Nsg75
(lp3984
g68
(g84
g70
NtRp3985
(dp3986
g73
(dp3987
sg82
g3981
sg75
(lp3988
g68
(g89
g70
NtRp3989
(dp3990
g73
(dp3991
sg82
g3985
sg75
(lp3992
g68
(g69
g70
NtRp3993
(dp3994
g73
(dp3995
g81
I1
ssg82
g3989
sg75
(lp3996
g3856
(S't\n\x00\x00\x00Controller'
tRp3997
asbasbasbag68
(g84
g70
NtRp3998
(dp3999
g73
(dp4000
sg82
g3981
sg75
(lp4001
g68
(g89
g70
NtRp4002
(dp4003
g73
(dp4004
sg82
g3998
sg75
(lp4005
g68
(g69
g70
NtRp4006
(dp4007
g73
(dp4008
g81
I1
ssg82
g4002
sg75
(lp4009
I00
asbasbasbag68
(g84
g70
NtRp4010
(dp4011
g73
(dp4012
sg82
g3981
sg75
(lp4013
g68
(g89
g70
NtRp4014
(dp4015
g73
(dp4016
sg82
g4010
sg75
(lp4017
g68
(g69
g70
NtRp4018
(dp4019
g73
(dp4020
g81
I1
ssg82
g4014
sg75
(lp4021
S'/admin/default/edit/ddlagoon/controllers/default.py'
p4022
asbasbasbasbasbasbasbag68
(g84
g70
NtRp4023
(dp4024
g73
(dp4025
sg82
g3965
sg75
(lp4026
g68
(g89
g70
NtRp4027
(dp4028
g73
(dp4029
sg82
g4023
sg75
(lp4030
g68
(g69
g70
NtRp4031
(dp4032
g73
(dp4033
g81
I2
ssg82
g4027
sg75
(lp4034
g68
(g77
g70
NtRp4035
(dp4036
g73
(dp4037
g81
I1
ssg82
Nsg75
(lp4038
g68
(g84
g70
NtRp4039
(dp4040
g73
(dp4041
sg82
g4035
sg75
(lp4042
g68
(g89
g70
NtRp4043
(dp4044
g73
(dp4045
sg82
g4039
sg75
(lp4046
g68
(g69
g70
NtRp4047
(dp4048
g73
(dp4049
g81
I1
ssg82
g4043
sg75
(lp4050
g3856
(S't\x04\x00\x00\x00View'
tRp4051
asbasbasbag68
(g84
g70
NtRp4052
(dp4053
g73
(dp4054
sg82
g4035
sg75
(lp4055
g68
(g89
g70
NtRp4056
(dp4057
g73
(dp4058
sg82
g4052
sg75
(lp4059
g68
(g69
g70
NtRp4060
(dp4061
g73
(dp4062
g81
I1
ssg82
g4056
sg75
(lp4063
I00
asbasbasbag68
(g84
g70
NtRp4064
(dp4065
g73
(dp4066
sg82
g4035
sg75
(lp4067
g68
(g89
g70
NtRp4068
(dp4069
g73
(dp4070
sg82
g4064
sg75
(lp4071
g68
(g69
g70
NtRp4072
(dp4073
g73
(dp4074
g81
I1
ssg82
g4068
sg75
(lp4075
S'/admin/default/edit/ddlagoon/views/default/index.html'
p4076
asbasbasbasbasbasbasbag68
(g84
g70
NtRp4077
(dp4078
g73
(dp4079
sg82
g3965
sg75
(lp4080
g68
(g89
g70
NtRp4081
(dp4082
g73
(dp4083
sg82
g4077
sg75
(lp4084
g68
(g69
g70
NtRp4085
(dp4086
g73
(dp4087
g81
I2
ssg82
g4081
sg75
(lp4088
g68
(g77
g70
NtRp4089
(dp4090
g73
(dp4091
g81
I1
ssg82
Nsg75
(lp4092
g68
(g84
g70
NtRp4093
(dp4094
g73
(dp4095
sg82
g4089
sg75
(lp4096
g68
(g89
g70
NtRp4097
(dp4098
g73
(dp4099
sg82
g4093
sg75
(lp4100
g68
(g69
g70
NtRp4101
(dp4102
g73
(dp4103
g81
I1
ssg82
g4097
sg75
(lp4104
g3856
(S't\x06\x00\x00\x00Layout'
tRp4105
asbasbasbag68
(g84
g70
NtRp4106
(dp4107
g73
(dp4108
sg82
g4089
sg75
(lp4109
g68
(g89
g70
NtRp4110
(dp4111
g73
(dp4112
sg82
g4106
sg75
(lp4113
g68
(g69
g70
NtRp4114
(dp4115
g73
(dp4116
g81
I1
ssg82
g4110
sg75
(lp4117
I00
asbasbasbag68
(g84
g70
NtRp4118
(dp4119
g73
(dp4120
sg82
g4089
sg75
(lp4121
g68
(g89
g70
NtRp4122
(dp4123
g73
(dp4124
sg82
g4118
sg75
(lp4125
g68
(g69
g70
NtRp4126
(dp4127
g73
(dp4128
g81
I1
ssg82
g4122
sg75
(lp4129
S'/admin/default/edit/ddlagoon/views/layout.html'
p4130
asbasbasbasbasbasbasbag68
(g84
g70
NtRp4131
(dp4132
g73
(dp4133
sg82
g3965
sg75
(lp4134
g68
(g89
g70
NtRp4135
(dp4136
g73
(dp4137
sg82
g4131
sg75
(lp4138
g68
(g69
g70
NtRp4139
(dp4140
g73
(dp4141
g81
I2
ssg82
g4135
sg75
(lp4142
g68
(g77
g70
NtRp4143
(dp4144
g73
(dp4145
g81
I1
ssg82
Nsg75
(lp4146
g68
(g84
g70
NtRp4147
(dp4148
g73
(dp4149
sg82
g4143
sg75
(lp4150
g68
(g89
g70
NtRp4151
(dp4152
g73
(dp4153
sg82
g4147
sg75
(lp4154
g68
(g69
g70
NtRp4155
(dp4156
g73
(dp4157
g81
I1
ssg82
g4151
sg75
(lp4158
g3856
(S't\n\x00\x00\x00Stylesheet'
tRp4159
asbasbasbag68
(g84
g70
NtRp4160
(dp4161
g73
(dp4162
sg82
g4143
sg75
(lp4163
g68
(g89
g70
NtRp4164
(dp4165
g73
(dp4166
sg82
g4160
sg75
(lp4167
g68
(g69
g70
NtRp4168
(dp4169
g73
(dp4170
g81
I1
ssg82
g4164
sg75
(lp4171
I00
asbasbasbag68
(g84
g70
NtRp4172
(dp4173
g73
(dp4174
sg82
g4143
sg75
(lp4175
g68
(g89
g70
NtRp4176
(dp4177
g73
(dp4178
sg82
g4172
sg75
(lp4179
g68
(g69
g70
NtRp4180
(dp4181
g73
(dp4182
g81
I1
ssg82
g4176
sg75
(lp4183
S'/admin/default/edit/ddlagoon/static/base.css'
p4184
asbasbasbasbasbasbasbag68
(g84
g70
NtRp4185
(dp4186
g73
(dp4187
sg82
g3965
sg75
(lp4188
g68
(g89
g70
NtRp4189
(dp4190
g73
(dp4191
sg82
g4185
sg75
(lp4192
g68
(g69
g70
NtRp4193
(dp4194
g73
(dp4195
g81
I2
ssg82
g4189
sg75
(lp4196
g68
(g77
g70
NtRp4197
(dp4198
g73
(dp4199
g81
I1
ssg82
Nsg75
(lp4200
g68
(g84
g70
NtRp4201
(dp4202
g73
(dp4203
sg82
g4197
sg75
(lp4204
g68
(g89
g70
NtRp4205
(dp4206
g73
(dp4207
sg82
g4201
sg75
(lp4208
g68
(g69
g70
NtRp4209
(dp4210
g73
(dp4211
g81
I1
ssg82
g4205
sg75
(lp4212
g3856
(S's\x08\x00\x00\x00DB Model'
tRp4213
asbasbasbag68
(g84
g70
NtRp4214
(dp4215
g73
(dp4216
sg82
g4197
sg75
(lp4217
g68
(g89
g70
NtRp4218
(dp4219
g73
(dp4220
sg82
g4214
sg75
(lp4221
g68
(g69
g70
NtRp4222
(dp4223
g73
(dp4224
g81
I1
ssg82
g4218
sg75
(lp4225
I00
asbasbasbag68
(g84
g70
NtRp4226
(dp4227
g73
(dp4228
sg82
g4197
sg75
(lp4229
g68
(g89
g70
NtRp4230
(dp4231
g73
(dp4232
sg82
g4226
sg75
(lp4233
g68
(g69
g70
NtRp4234
(dp4235
g73
(dp4236
g81
I1
ssg82
g4230
sg75
(lp4237
S'/admin/default/edit/ddlagoon/models/db.py'
p4238
asbasbasbasbasbasbasbag68
(g84
g70
NtRp4239
(dp4240
g73
(dp4241
sg82
g3965
sg75
(lp4242
g68
(g89
g70
NtRp4243
(dp4244
g73
(dp4245
sg82
g4239
sg75
(lp4246
g68
(g69
g70
NtRp4247
(dp4248
g73
(dp4249
g81
I2
ssg82
g4243
sg75
(lp4250
g68
(g77
g70
NtRp4251
(dp4252
g73
(dp4253
g81
I1
ssg82
Nsg75
(lp4254
g68
(g84
g70
NtRp4255
(dp4256
g73
(dp4257
sg82
g4251
sg75
(lp4258
g68
(g89
g70
NtRp4259
(dp4260
g73
(dp4261
sg82
g4255
sg75
(lp4262
g68
(g69
g70
NtRp4263
(dp4264
g73
(dp4265
g81
I1
ssg82
g4259
sg75
(lp4266
g3856
(S's\n\x00\x00\x00Menu Model'
tRp4267
asbasbasbag68
(g84
g70
NtRp4268
(dp4269
g73
(dp4270
sg82
g4251
sg75
(lp4271
g68
(g89
g70
NtRp4272
(dp4273
g73
(dp4274
sg82
g4268
sg75
(lp4275
g68
(g69
g70
NtRp4276
(dp4277
g73
(dp4278
g81
I1
ssg82
g4272
sg75
(lp4279
I00
asbasbasbag68
(g84
g70
NtRp4280
(dp4281
g73
(dp4282
sg82
g4251
sg75
(lp4283
g68
(g89
g70
NtRp4284
(dp4285
g73
(dp4286
sg82
g4280
sg75
(lp4287
g68
(g69
g70
NtRp4288
(dp4289
g73
(dp4290
g81
I1
ssg82
g4284
sg75
(lp4291
S'/admin/default/edit/ddlagoon/models/menu.py'
p4292
asbasbasbasbasbasbasbag68
(g84
g70
NtRp4293
(dp4294
g73
(dp4295
sg82
g3965
sg75
(lp4296
g68
(g89
g70
NtRp4297
(dp4298
g73
(dp4299
sg82
g4293
sg75
(lp4300
g68
(g69
g70
NtRp4301
(dp4302
g73
(dp4303
g81
I2
ssg82
g4297
sg75
(lp4304
g68
(g77
g70
NtRp4305
(dp4306
g73
(dp4307
g81
I1
ssg82
Nsg75
(lp4308
g68
(g84
g70
NtRp4309
(dp4310
g73
(dp4311
sg82
g4305
sg75
(lp4312
g68
(g89
g70
NtRp4313
(dp4314
g73
(dp4315
sg82
g4309
sg75
(lp4316
g68
(g69
g70
NtRp4317
(dp4318
g73
(dp4319
g81
I1
ssg82
g4313
sg75
(lp4320
g3856
(S't\x08\x00\x00\x00Database'
tRp4321
asbasbasbag68
(g84
g70
NtRp4322
(dp4323
g73
(dp4324
sg82
g4305
sg75
(lp4325
g68
(g89
g70
NtRp4326
(dp4327
g73
(dp4328
sg82
g4322
sg75
(lp4329
g68
(g69
g70
NtRp4330
(dp4331
g73
(dp4332
g81
I1
ssg82
g4326
sg75
(lp4333
I00
asbasbasbag68
(g84
g70
NtRp4334
(dp4335
g73
(dp4336
sg82
g4305
sg75
(lp4337
g68
(g89
g70
NtRp4338
(dp4339
g73
(dp4340
sg82
g4334
sg75
(lp4341
g68
(g69
g70
NtRp4342
(dp4343
g73
(dp4344
g81
I1
ssg82
g4338
sg75
(lp4345
S'/ddlagoon/appadmin/index'
p4346
asbasbasbasbasbasbasbag68
(g84
g70
NtRp4347
(dp4348
g73
(dp4349
sg82
g3965
sg75
(lp4350
g68
(g89
g70
NtRp4351
(dp4352
g73
(dp4353
sg82
g4347
sg75
(lp4354
g68
(g69
g70
NtRp4355
(dp4356
g73
(dp4357
g81
I2
ssg82
g4351
sg75
(lp4358
g68
(g77
g70
NtRp4359
(dp4360
g73
(dp4361
g81
I1
ssg82
Nsg75
(lp4362
g68
(g84
g70
NtRp4363
(dp4364
g73
(dp4365
sg82
g4359
sg75
(lp4366
g68
(g89
g70
NtRp4367
(dp4368
g73
(dp4369
sg82
g4363
sg75
(lp4370
g68
(g69
g70
NtRp4371
(dp4372
g73
(dp4373
g81
I1
ssg82
g4367
sg75
(lp4374
g3856
(S't\x06\x00\x00\x00Errors'
tRp4375
asbasbasbag68
(g84
g70
NtRp4376
(dp4377
g73
(dp4378
sg82
g4359
sg75
(lp4379
g68
(g89
g70
NtRp4380
(dp4381
g73
(dp4382
sg82
g4376
sg75
(lp4383
g68
(g69
g70
NtRp4384
(dp4385
g73
(dp4386
g81
I1
ssg82
g4380
sg75
(lp4387
I00
asbasbasbag68
(g84
g70
NtRp4388
(dp4389
g73
(dp4390
sg82
g4359
sg75
(lp4391
g68
(g89
g70
NtRp4392
(dp4393
g73
(dp4394
sg82
g4388
sg75
(lp4395
g68
(g69
g70
NtRp4396
(dp4397
g73
(dp4398
g81
I1
ssg82
g4392
sg75
(lp4399
S'/admin/default/errors/ddlagoon'
p4400
asbasbasbasbasbasbasbag68
(g84
g70
NtRp4401
(dp4402
g73
(dp4403
sg82
g3965
sg75
(lp4404
g68
(g89
g70
NtRp4405
(dp4406
g73
(dp4407
sg82
g4401
sg75
(lp4408
g68
(g69
g70
NtRp4409
(dp4410
g73
(dp4411
g81
I2
ssg82
g4405
sg75
(lp4412
g68
(g77
g70
NtRp4413
(dp4414
g73
(dp4415
g81
I1
ssg82
Nsg75
(lp4416
g68
(g84
g70
NtRp4417
(dp4418
g73
(dp4419
sg82
g4413
sg75
(lp4420
g68
(g89
g70
NtRp4421
(dp4422
g73
(dp4423
sg82
g4417
sg75
(lp4424
g68
(g69
g70
NtRp4425
(dp4426
g73
(dp4427
g81
I1
ssg82
g4421
sg75
(lp4428
g3856
(S't\x05\x00\x00\x00About'
tRp4429
asbasbasbag68
(g84
g70
NtRp4430
(dp4431
g73
(dp4432
sg82
g4413
sg75
(lp4433
g68
(g89
g70
NtRp4434
(dp4435
g73
(dp4436
sg82
g4430
sg75
(lp4437
g68
(g69
g70
NtRp4438
(dp4439
g73
(dp4440
g81
I1
ssg82
g4434
sg75
(lp4441
I00
asbasbasbag68
(g84
g70
NtRp4442
(dp4443
g73
(dp4444
sg82
g4413
sg75
(lp4445
g68
(g89
g70
NtRp4446
(dp4447
g73
(dp4448
sg82
g4442
sg75
(lp4449
g68
(g69
g70
NtRp4450
(dp4451
g73
(dp4452
g81
I1
ssg82
g4446
sg75
(lp4453
S'/admin/default/about/ddlagoon'
p4454
asbasbasbasbasbasbasbasbasbasbasbasbasbasbasbag68
(g84
g70
NtRp4455
(dp4456
g73
(dp4457
sg82
g3824
sg75
(lp4458
g68
(g89
g70
NtRp4459
(dp4460
g73
(dp4461
sg82
g4455
sg75
(lp4462
g68
(g69
g70
NtRp4463
(dp4464
g73
(dp4465
g81
I4
ssg82
g4459
sg75
(lp4466
g68
(g77
g70
NtRp4467
(dp4468
g73
(dp4469
g81
I3
ssg82
Nsg75
(lp4470
g68
(g84
g70
NtRp4471
(dp4472
g73
(dp4473
sg82
g4467
sg75
(lp4474
g68
(g89
g70
NtRp4475
(dp4476
g73
(dp4477
sg82
g4471
sg75
(lp4478
g68
(g69
g70
NtRp4479
(dp4480
g73
(dp4481
g81
I3
ssg82
g4475
sg75
(lp4482
g3856
(S't\t\x00\x00\x00Resources'
tRp4483
asbasbasbag68
(g84
g70
NtRp4484
(dp4485
g73
(dp4486
sg82
g4467
sg75
(lp4487
g68
(g89
g70
NtRp4488
(dp4489
g73
(dp4490
sg82
g4484
sg75
(lp4491
g68
(g69
g70
NtRp4492
(dp4493
g73
(dp4494
g81
I3
ssg82
g4488
sg75
(lp4495
g111
asbasbasbag68
(g84
g70
NtRp4496
(dp4497
g73
(dp4498
sg82
g4467
sg75
(lp4499
g68
(g89
g70
NtRp4500
(dp4501
g73
(dp4502
sg82
g4496
sg75
(lp4503
g68
(g69
g70
NtRp4504
(dp4505
g73
(dp4506
g81
I3
ssg82
g4500
sg75
(lp4507
S'None'
p4508
asbasbasbag68
(g84
g70
NtRp4509
(dp4510
g73
(dp4511
sg82
g4467
sg75
(lp4512
g68
(g89
g70
NtRp4513
(dp4514
g73
(dp4515
sg82
g4509
sg75
(lp4516
g68
(g69
g70
NtRp4517
(dp4518
g73
(dp4519
g81
I3
ssg82
g4513
sg75
(lp4520
g68
(g77
g70
NtRp4521
(dp4522
g73
(dp4523
g81
I2
ssg82
Nsg75
(lp4524
g68
(g84
g70
NtRp4525
(dp4526
g73
(dp4527
sg82
g4521
sg75
(lp4528
g68
(g89
g70
NtRp4529
(dp4530
g73
(dp4531
sg82
g4525
sg75
(lp4532
g68
(g69
g70
NtRp4533
(dp4534
g73
(dp4535
g81
I2
ssg82
g4529
sg75
(lp4536
g68
(g77
g70
NtRp4537
(dp4538
g73
(dp4539
g81
I1
ssg82
Nsg75
(lp4540
g68
(g84
g70
NtRp4541
(dp4542
g73
(dp4543
sg82
g4537
sg75
(lp4544
g68
(g89
g70
NtRp4545
(dp4546
g73
(dp4547
sg82
g4541
sg75
(lp4548
g68
(g69
g70
NtRp4549
(dp4550
g73
(dp4551
g81
I1
ssg82
g4545
sg75
(lp4552
g3856
(S't\r\x00\x00\x00Documentation'
tRp4553
asbasbasbag68
(g84
g70
NtRp4554
(dp4555
g73
(dp4556
sg82
g4537
sg75
(lp4557
g68
(g89
g70
NtRp4558
(dp4559
g73
(dp4560
sg82
g4554
sg75
(lp4561
g68
(g69
g70
NtRp4562
(dp4563
g73
(dp4564
g81
I1
ssg82
g4558
sg75
(lp4565
I00
asbasbasbag68
(g84
g70
NtRp4566
(dp4567
g73
(dp4568
sg82
g4537
sg75
(lp4569
g68
(g89
g70
NtRp4570
(dp4571
g73
(dp4572
sg82
g4566
sg75
(lp4573
g68
(g69
g70
NtRp4574
(dp4575
g73
(dp4576
g81
I1
ssg82
g4570
sg75
(lp4577
S'http://www.web2py.com/book'
p4578
asbasbasbag68
(g84
g70
NtRp4579
(dp4580
g73
(dp4581
sg82
g4537
sg75
(lp4582
g68
(g89
g70
NtRp4583
(dp4584
g73
(dp4585
sg82
g4579
sg75
(lp4586
g68
(g69
g70
NtRp4587
(dp4588
g73
(dp4589
g81
I1
ssg82
g4583
sg75
(lp4590
(lp4591
(g3856
(S't\x07\x00\x00\x00Preface'
tRp4592
I00
S'http://www.web2py.com/book/default/chapter/00'
p4593
tp4594
a(g3856
(S't\x0c\x00\x00\x00Introduction'
tRp4595
I00
S'http://www.web2py.com/book/default/chapter/01'
p4596
tp4597
a(g3856
(S't\x06\x00\x00\x00Python'
tRp4598
I00
S'http://www.web2py.com/book/default/chapter/02'
p4599
tp4600
a(g3856
(S't\x08\x00\x00\x00Overview'
tRp4601
I00
S'http://www.web2py.com/book/default/chapter/03'
p4602
tp4603
a(g3856
(S's\x08\x00\x00\x00The Core'
tRp4604
I00
S'http://www.web2py.com/book/default/chapter/04'
p4605
tp4606
a(g3856
(S's\t\x00\x00\x00The Views'
tRp4607
I00
S'http://www.web2py.com/book/default/chapter/05'
p4608
tp4609
a(g3856
(S't\x08\x00\x00\x00Database'
tRp4610
I00
S'http://www.web2py.com/book/default/chapter/06'
p4611
tp4612
a(g3856
(S's\x14\x00\x00\x00Forms and Validators'
tRp4613
I00
S'http://www.web2py.com/book/default/chapter/07'
p4614
tp4615
a(g3856
(S's\x0e\x00\x00\x00Access Control'
tRp4616
I00
S'http://www.web2py.com/book/default/chapter/08'
p4617
tp4618
a(g3856
(S't\x08\x00\x00\x00Services'
tRp4619
I00
S'http://www.web2py.com/book/default/chapter/09'
p4620
tp4621
a(g3856
(S's\x0c\x00\x00\x00Ajax Recipes'
tRp4622
I00
S'http://www.web2py.com/book/default/chapter/10'
p4623
tp4624
a(g3856
(S's\x12\x00\x00\x00Deployment Recipes'
tRp4625
I00
S'http://www.web2py.com/book/default/chapter/11'
p4626
tp4627
a(g3856
(S's\r\x00\x00\x00Other Recipes'
tRp4628
I00
S'http://www.web2py.com/book/default/chapter/12'
p4629
tp4630
a(g3856
(S's\r\x00\x00\x00Buy this book'
tRp4631
I00
S'http://stores.lulu.com/web2py'
p4632
tp4633
aasbasbasbasbasbasbasbag68
(g84
g70
NtRp4634
(dp4635
g73
(dp4636
sg82
g4521
sg75
(lp4637
g68
(g89
g70
NtRp4638
(dp4639
g73
(dp4640
sg82
g4634
sg75
(lp4641
g68
(g69
g70
NtRp4642
(dp4643
g73
(dp4644
g81
I2
ssg82
g4638
sg75
(lp4645
g68
(g77
g70
NtRp4646
(dp4647
g73
(dp4648
g81
I1
ssg82
Nsg75
(lp4649
g68
(g84
g70
NtRp4650
(dp4651
g73
(dp4652
sg82
g4646
sg75
(lp4653
g68
(g89
g70
NtRp4654
(dp4655
g73
(dp4656
sg82
g4650
sg75
(lp4657
g68
(g69
g70
NtRp4658
(dp4659
g73
(dp4660
g81
I1
ssg82
g4654
sg75
(lp4661
g3856
(S't\t\x00\x00\x00Community'
tRp4662
asbasbasbag68
(g84
g70
NtRp4663
(dp4664
g73
(dp4665
sg82
g4646
sg75
(lp4666
g68
(g89
g70
NtRp4667
(dp4668
g73
(dp4669
sg82
g4663
sg75
(lp4670
g68
(g69
g70
NtRp4671
(dp4672
g73
(dp4673
g81
I1
ssg82
g4667
sg75
(lp4674
I00
asbasbasbag68
(g84
g70
NtRp4675
(dp4676
g73
(dp4677
sg82
g4646
sg75
(lp4678
g68
(g89
g70
NtRp4679
(dp4680
g73
(dp4681
sg82
g4675
sg75
(lp4682
g68
(g69
g70
NtRp4683
(dp4684
g73
(dp4685
g81
I1
ssg82
g4679
sg75
(lp4686
Nasbasbasbag68
(g84
g70
NtRp4687
(dp4688
g73
(dp4689
sg82
g4646
sg75
(lp4690
g68
(g89
g70
NtRp4691
(dp4692
g73
(dp4693
sg82
g4687
sg75
(lp4694
g68
(g69
g70
NtRp4695
(dp4696
g73
(dp4697
g81
I1
ssg82
g4691
sg75
(lp4698
(lp4699
(g3856
(S't\x06\x00\x00\x00Groups'
tRp4700
I00
S'http://www.web2py.com/examples/default/usergroups'
p4701
tp4702
a(g3856
(S't\x07\x00\x00\x00Twitter'
tRp4703
I00
S'http://twitter.com/web2py'
p4704
tp4705
a(g3856
(S's\t\x00\x00\x00Live chat'
tRp4706
I00
S'http://mibbit.com/?channel=%23web2py&server=irc.mibbit.net'
p4707
tp4708
a(g3856
(S's\n\x00\x00\x00User Voice'
tRp4709
I00
S'http://web2py.uservoice.com/'
p4710
tp4711
aasbasbasbasbasbasbasbag68
(g84
g70
NtRp4712
(dp4713
g73
(dp4714
sg82
g4521
sg75
(lp4715
g68
(g89
g70
NtRp4716
(dp4717
g73
(dp4718
sg82
g4712
sg75
(lp4719
g68
(g69
g70
NtRp4720
(dp4721
g73
(dp4722
g81
I2
ssg82
g4716
sg75
(lp4723
g68
(g77
g70
NtRp4724
(dp4725
g73
(dp4726
g81
I1
ssg82
Nsg75
(lp4727
g68
(g84
g70
NtRp4728
(dp4729
g73
(dp4730
sg82
g4724
sg75
(lp4731
g68
(g89
g70
NtRp4732
(dp4733
g73
(dp4734
sg82
g4728
sg75
(lp4735
g68
(g69
g70
NtRp4736
(dp4737
g73
(dp4738
g81
I1
ssg82
g4732
sg75
(lp4739
g3856
(S't\x06\x00\x00\x00Web2py'
tRp4740
asbasbasbag68
(g84
g70
NtRp4741
(dp4742
g73
(dp4743
sg82
g4724
sg75
(lp4744
g68
(g89
g70
NtRp4745
(dp4746
g73
(dp4747
sg82
g4741
sg75
(lp4748
g68
(g69
g70
NtRp4749
(dp4750
g73
(dp4751
g81
I1
ssg82
g4745
sg75
(lp4752
I00
asbasbasbag68
(g84
g70
NtRp4753
(dp4754
g73
(dp4755
sg82
g4724
sg75
(lp4756
g68
(g89
g70
NtRp4757
(dp4758
g73
(dp4759
sg82
g4753
sg75
(lp4760
g68
(g69
g70
NtRp4761
(dp4762
g73
(dp4763
g81
I1
ssg82
g4757
sg75
(lp4764
S'http://www.web2py.com'
p4765
asbasbasbag68
(g84
g70
NtRp4766
(dp4767
g73
(dp4768
sg82
g4724
sg75
(lp4769
g68
(g89
g70
NtRp4770
(dp4771
g73
(dp4772
sg82
g4766
sg75
(lp4773
g68
(g69
g70
NtRp4774
(dp4775
g73
(dp4776
g81
I1
ssg82
g4770
sg75
(lp4777
(lp4778
(g3856
(S't\x08\x00\x00\x00Download'
tRp4779
I00
S'http://www.web2py.com/examples/default/download'
p4780
tp4781
a(g3856
(S't\x07\x00\x00\x00Support'
tRp4782
I00
S'http://www.web2py.com/examples/default/support'
p4783
tp4784
a(g3856
(S's\x0e\x00\x00\x00Quick Examples'
tRp4785
I00
S'http://web2py.com/examples/default/examples'
p4786
tp4787
a(g3856
(S't\x03\x00\x00\x00FAQ'
tRp4788
I00
S'http://web2py.com/AlterEgo'
p4789
tp4790
a(g3856
(S's\x11\x00\x00\x00Free Applications'
tRp4791
I00
S'http://web2py.com/appliances'
p4792
tp4793
a(g3856
(S't\x07\x00\x00\x00Plugins'
tRp4794
I00
S'http://web2py.com/plugins'
p4795
tp4796
a(g3856
(S't\x07\x00\x00\x00Recipes'
tRp4797
I00
S'http://web2pyslices.com/'
p4798
tp4799
a(g3856
(S't\x04\x00\x00\x00Demo'
tRp4800
I00
S'http://web2py.com/demo_admin'
p4801
tp4802
a(g3856
(S't\x08\x00\x00\x00Semantic'
tRp4803
I00
S'http://web2py.com/semantic'
p4804
tp4805
a(g3856
(S't\x07\x00\x00\x00Layouts'
tRp4806
I00
S'http://web2py.com/layouts'
p4807
tp4808
a(g3856
(S't\x06\x00\x00\x00Videos'
tRp4809
I00
S'http://www.web2py.com/examples/default/videos/'
p4810
tp4811
aasbasbasbasbasbasbasbasbasbasbasbasbasbasbasbasbasbasbasbag68
(g84
g70
NtRp4812
(dp4813
g73
(dp4814
sg82
g3351
sg75
(lp4815
g68
(g89
g70
NtRp4816
(dp4817
g73
(dp4818
g93
g94
ssg82
g4812
sg75
(lp4819
S'meta'
p4820
asbag68
(g89
g70
NtRp4821
(dp4822
g73
(dp4823
g100
g101
ssg82
g4812
sg75
(lp4824
S':'
asbag68
(g89
g70
NtRp4825
(dp4826
g73
(dp4827
sg82
g4812
sg75
(lp4828
g68
(g69
g70
NtRp4829
(dp4830
g73
(dp4831
g81
I5
ssg82
g4825
sg75
(lp4832
g68
(g77
g70
NtRp4833
(dp4834
g73
(dp4835
g81
I4
ssg82
Nsg75
(lp4836
g68
(g84
g70
NtRp4837
(dp4838
g73
(dp4839
sg82
g4833
sg75
(lp4840
g68
(g89
g70
NtRp4841
(dp4842
g73
(dp4843
g93
g94
ssg82
g4837
sg75
(lp4844
S'author'
p4845
asbag68
(g89
g70
NtRp4846
(dp4847
g73
(dp4848
g100
g101
ssg82
g4837
sg75
(lp4849
S':'
asbag68
(g89
g70
NtRp4850
(dp4851
g73
(dp4852
sg82
g4837
sg75
(lp4853
g68
(g69
g70
NtRp4854
(dp4855
g73
(dp4856
g81
I4
ssg82
g4850
sg75
(lp4857
S'Your Name <you@example.com>'
p4858
asbasbasbag68
(g84
g70
NtRp4859
(dp4860
g73
(dp4861
sg82
g4833
sg75
(lp4862
g68
(g89
g70
NtRp4863
(dp4864
g73
(dp4865
g93
g94
ssg82
g4859
sg75
(lp4866
S'copyright'
p4867
asbag68
(g89
g70
NtRp4868
(dp4869
g73
(dp4870
g100
g101
ssg82
g4859
sg75
(lp4871
S':'
asbag68
(g89
g70
NtRp4872
(dp4873
g73
(dp4874
sg82
g4859
sg75
(lp4875
g68
(g69
g70
NtRp4876
(dp4877
g73
(dp4878
g81
I4
ssg82
g4872
sg75
(lp4879
S'Copyright 2011'
p4880
asbasbasbag68
(g84
g70
NtRp4881
(dp4882
g73
(dp4883
sg82
g4833
sg75
(lp4884
g68
(g89
g70
NtRp4885
(dp4886
g73
(dp4887
g93
g94
ssg82
g4881
sg75
(lp4888
S'description'
p4889
asbag68
(g89
g70
NtRp4890
(dp4891
g73
(dp4892
g100
g101
ssg82
g4881
sg75
(lp4893
S':'
asbag68
(g89
g70
NtRp4894
(dp4895
g73
(dp4896
sg82
g4881
sg75
(lp4897
g68
(g69
g70
NtRp4898
(dp4899
g73
(dp4900
g81
I4
ssg82
g4894
sg75
(lp4901
S'a cool new app'
p4902
asbasbasbag68
(g84
g70
NtRp4903
(dp4904
g73
(dp4905
sg82
g4833
sg75
(lp4906
g68
(g89
g70
NtRp4907
(dp4908
g73
(dp4909
g93
g94
ssg82
g4903
sg75
(lp4910
S'generator'
p4911
asbag68
(g89
g70
NtRp4912
(dp4913
g73
(dp4914
g100
g101
ssg82
g4903
sg75
(lp4915
S':'
asbag68
(g89
g70
NtRp4916
(dp4917
g73
(dp4918
sg82
g4903
sg75
(lp4919
g68
(g69
g70
NtRp4920
(dp4921
g73
(dp4922
g81
I4
ssg82
g4916
sg75
(lp4923
S'Web2py Web Framework'
p4924
asbasbasbag68
(g84
g70
NtRp4925
(dp4926
g73
(dp4927
sg82
g4833
sg75
(lp4928
g68
(g89
g70
NtRp4929
(dp4930
g73
(dp4931
g93
g94
ssg82
g4925
sg75
(lp4932
S'keywords'
p4933
asbag68
(g89
g70
NtRp4934
(dp4935
g73
(dp4936
g100
g101
ssg82
g4925
sg75
(lp4937
S':'
asbag68
(g89
g70
NtRp4938
(dp4939
g73
(dp4940
sg82
g4925
sg75
(lp4941
g68
(g69
g70
NtRp4942
(dp4943
g73
(dp4944
g81
I4
ssg82
g4938
sg75
(lp4945
S'web2py, python, framework'
p4946
asbasbasbasbasbasbasbag68
(g84
g70
NtRp4947
(dp4948
g73
(dp4949
sg82
g3351
sg75
(lp4950
g68
(g89
g70
NtRp4951
(dp4952
g73
(dp4953
g93
g94
ssg82
g4947
sg75
(lp4954
S'postprocessing'
p4955
asbag68
(g89
g70
NtRp4956
(dp4957
g73
(dp4958
g100
g101
ssg82
g4947
sg75
(lp4959
S':'
asbag68
(g89
g70
NtRp4960
(dp4961
g73
(dp4962
sg82
g4947
sg75
(lp4963
g68
(g69
g70
NtRp4964
(dp4965
g73
(dp4966
g81
I5
ssg82
g4960
sg75
(lp4967
g68
(g77
g70
NtRp4968
(dp4969
g73
(dp4970
g81
I4
ssg82
Nsg75
(lp4971
sbasbasbasbag68
(g84
g70
NtRp4972
(dp4973
g73
(dp4974
sg82
g3351
sg75
(lp4975
g68
(g89
g70
NtRp4976
(dp4977
g73
(dp4978
g93
g94
ssg82
g4972
sg75
(lp4979
S'session_file'
p4980
asbag68
(g89
g70
NtRp4981
(dp4982
g73
(dp4983
g100
g101
ssg82
g4972
sg75
(lp4984
S':'
asbag68
(g89
g70
NtRp4985
(dp4986
g73
(dp4987
sg82
g4972
sg75
(lp4988
g68
(g69
g70
NtRp4989
(dp4990
g73
(dp4991
g81
I5
ssg82
g4985
sg75
(lp4992
S"<open file '/windows/Users/Thomas/Dropbox/appz/2011/GAE/ddl-lagoon/applications/ddlagoon/sessions/127.0.0.1-5c26095d-5a0b-4829-92f8-f45d96c51d41', mode 'rb+' at 0x225fc00>"
p4993
asbasbasbag68
(g84
g70
NtRp4994
(dp4995
g73
(dp4996
sg82
g3351
sg75
(lp4997
g68
(g89
g70
NtRp4998
(dp4999
g73
(dp5000
g93
g94
ssg82
g4994
sg75
(lp5001
S'session_filename'
p5002
asbag68
(g89
g70
NtRp5003
(dp5004
g73
(dp5005
g100
g101
ssg82
g4994
sg75
(lp5006
S':'
asbag68
(g89
g70
NtRp5007
(dp5008
g73
(dp5009
sg82
g4994
sg75
(lp5010
g68
(g69
g70
NtRp5011
(dp5012
g73
(dp5013
g81
I5
ssg82
g5007
sg75
(lp5014
S'/windows/Users/Thomas/Dropbox/appz/2011/GAE/ddl-lagoon/applications/ddlagoon/sessions/127.0.0.1-5c26095d-5a0b-4829-92f8-f45d96c51d41'
p5015
asbasbasbag68
(g84
g70
NtRp5016
(dp5017
g73
(dp5018
sg82
g3351
sg75
(lp5019
g68
(g89
g70
NtRp5020
(dp5021
g73
(dp5022
g93
g94
ssg82
g5016
sg75
(lp5023
S'session_id'
p5024
asbag68
(g89
g70
NtRp5025
(dp5026
g73
(dp5027
g100
g101
ssg82
g5016
sg75
(lp5028
S':'
asbag68
(g89
g70
NtRp5029
(dp5030
g73
(dp5031
sg82
g5016
sg75
(lp5032
g68
(g69
g70
NtRp5033
(dp5034
g73
(dp5035
g81
I5
ssg82
g5029
sg75
(lp5036
S'127.0.0.1-5c26095d-5a0b-4829-92f8-f45d96c51d41'
p5037
asbasbasbag68
(g84
g70
NtRp5038
(dp5039
g73
(dp5040
sg82
g3351
sg75
(lp5041
g68
(g89
g70
NtRp5042
(dp5043
g73
(dp5044
g93
g94
ssg82
g5038
sg75
(lp5045
S'session_id_name'
p5046
asbag68
(g89
g70
NtRp5047
(dp5048
g73
(dp5049
g100
g101
ssg82
g5038
sg75
(lp5050
S':'
asbag68
(g89
g70
NtRp5051
(dp5052
g73
(dp5053
sg82
g5038
sg75
(lp5054
g68
(g69
g70
NtRp5055
(dp5056
g73
(dp5057
g81
I5
ssg82
g5051
sg75
(lp5058
g3408
asbasbasbag68
(g84
g70
NtRp5059
(dp5060
g73
(dp5061
sg82
g3351
sg75
(lp5062
g68
(g89
g70
NtRp5063
(dp5064
g73
(dp5065
g93
g94
ssg82
g5059
sg75
(lp5066
S'session_locked'
p5067
asbag68
(g89
g70
NtRp5068
(dp5069
g73
(dp5070
g100
g101
ssg82
g5059
sg75
(lp5071
S':'
asbag68
(g89
g70
NtRp5072
(dp5073
g73
(dp5074
sg82
g5059
sg75
(lp5075
g68
(g69
g70
NtRp5076
(dp5077
g73
(dp5078
g81
I5
ssg82
g5072
sg75
(lp5079
g1853
asbasbasbag68
(g84
g70
NtRp5080
(dp5081
g73
(dp5082
sg82
g3351
sg75
(lp5083
g68
(g89
g70
NtRp5084
(dp5085
g73
(dp5086
g93
g94
ssg82
g5080
sg75
(lp5087
S'session_new'
p5088
asbag68
(g89
g70
NtRp5089
(dp5090
g73
(dp5091
g100
g101
ssg82
g5080
sg75
(lp5092
S':'
asbag68
(g89
g70
NtRp5093
(dp5094
g73
(dp5095
sg82
g5080
sg75
(lp5096
g68
(g69
g70
NtRp5097
(dp5098
g73
(dp5099
g81
I5
ssg82
g5093
sg75
(lp5100
g111
asbasbasbag68
(g84
g70
NtRp5101
(dp5102
g73
(dp5103
sg82
g3351
sg75
(lp5104
g68
(g89
g70
NtRp5105
(dp5106
g73
(dp5107
g93
g94
ssg82
g5101
sg75
(lp5108
S'status'
p5109
asbag68
(g89
g70
NtRp5110
(dp5111
g73
(dp5112
g100
g101
ssg82
g5101
sg75
(lp5113
S':'
asbag68
(g89
g70
NtRp5114
(dp5115
g73
(dp5116
sg82
g5101
sg75
(lp5117
g68
(g69
g70
NtRp5118
(dp5119
g73
(dp5120
g81
I5
ssg82
g5114
sg75
(lp5121
S'200'
p5122
asbasbasbag68
(g84
g70
NtRp5123
(dp5124
g73
(dp5125
sg82
g3351
sg75
(lp5126
g68
(g89
g70
NtRp5127
(dp5128
g73
(dp5129
g93
g94
ssg82
g5123
sg75
(lp5130
S'subtitle'
p5131
asbag68
(g89
g70
NtRp5132
(dp5133
g73
(dp5134
g100
g101
ssg82
g5123
sg75
(lp5135
S':'
asbag68
(g89
g70
NtRp5136
(dp5137
g73
(dp5138
sg82
g5123
sg75
(lp5139
g68
(g69
g70
NtRp5140
(dp5141
g73
(dp5142
g81
I5
ssg82
g5136
sg75
(lp5143
g3856
(S's\r\x00\x00\x00customize me!'
tRp5144
asbasbasbag68
(g84
g70
NtRp5145
(dp5146
g73
(dp5147
sg82
g3351
sg75
(lp5148
g68
(g89
g70
NtRp5149
(dp5150
g73
(dp5151
g93
g94
ssg82
g5145
sg75
(lp5152
S'title'
p5153
asbag68
(g89
g70
NtRp5154
(dp5155
g73
(dp5156
g100
g101
ssg82
g5145
sg75
(lp5157
S':'
asbag68
(g89
g70
NtRp5158
(dp5159
g73
(dp5160
sg82
g5145
sg75
(lp5161
g68
(g69
g70
NtRp5162
(dp5163
g73
(dp5164
g81
I5
ssg82
g5158
sg75
(lp5165
g133
asbasbasbag68
(g84
g70
NtRp5166
(dp5167
g73
(dp5168
sg82
g3351
sg75
(lp5169
g68
(g89
g70
NtRp5170
(dp5171
g73
(dp5172
g93
g94
ssg82
g5166
sg75
(lp5173
g2497
asbag68
(g89
g70
NtRp5174
(dp5175
g73
(dp5176
g100
g101
ssg82
g5166
sg75
(lp5177
S':'
asbag68
(g89
g70
NtRp5178
(dp5179
g73
(dp5180
sg82
g5166
sg75
(lp5181
g68
(g69
g70
NtRp5182
(dp5183
g73
(dp5184
g81
I5
ssg82
g5178
sg75
(lp5185
g2510
asbasbasbag68
(g84
g70
NtRp5186
(dp5187
g73
(dp5188
sg82
g3351
sg75
(lp5189
g68
(g89
g70
NtRp5190
(dp5191
g73
(dp5192
g93
g94
ssg82
g5186
sg75
(lp5193
S'view'
p5194
asbag68
(g89
g70
NtRp5195
(dp5196
g73
(dp5197
g100
g101
ssg82
g5186
sg75
(lp5198
S':'
asbag68
(g89
g70
NtRp5199
(dp5200
g73
(dp5201
sg82
g5186
sg75
(lp5202
g68
(g69
g70
NtRp5203
(dp5204
g73
(dp5205
g81
I5
ssg82
g5199
sg75
(lp5206
S'default/index.html'
p5207
asbasbasbasbasbsS'locals'
p5208
(dp5209
S'fields'
p5210
S'[]'
p5211
sS'self'
p5212
S'<gluon.dal.SQLiteAdapter object>'
p5213
sS'new_fields'
p5214
S'[]'
p5215
sS'tablenames'
p5216
S'[]'
p5217
sS'query'
p5218
S'<gluon.dal.SQLALL object>'
p5219
sg73
g20
sssS'traceback'
p5220
S'Traceback (most recent call last):\n  File "/windows/Users/Thomas/Dropbox/appz/2011/GAE/ddl-lagoon/gluon/restricted.py", line 194, in restricted\n    exec ccode in environment\n  File "/windows/Users/Thomas/Dropbox/appz/2011/GAE/ddl-lagoon/applications/ddlagoon/controllers/default.py", line 278, in <module>\n  File "/windows/Users/Thomas/Dropbox/appz/2011/GAE/ddl-lagoon/gluon/globals.py", line 149, in <lambda>\n    self._caller = lambda f: f()\n  File "/windows/Users/Thomas/Dropbox/appz/2011/GAE/ddl-lagoon/applications/ddlagoon/controllers/default.py", line 42, in index\n    ddlz= db(db.ddl.ALL).select()\n  File "/windows/Users/Thomas/Dropbox/appz/2011/GAE/ddl-lagoon/gluon/dal.py", line 5697, in select\n    return self.db._adapter.select(self.query,fields,attributes)\n  File "/windows/Users/Thomas/Dropbox/appz/2011/GAE/ddl-lagoon/gluon/dal.py", line 1225, in select\n    sql = self._select(query,fields,attributes)\n  File "/windows/Users/Thomas/Dropbox/appz/2011/GAE/ddl-lagoon/gluon/dal.py", line 1128, in _select\n    raise SyntaxError, \'Set: no tables selected\'\nSyntaxError: Set: no tables selected\n'
p5221
s.