(dp1
S'output'
p2
S''
sS'layer'
p3
S'/windows/Users/Thomas/Dropbox/appz/2011/GAE/ddl-lagoon/applications/ddlagoon/controllers/ddl.py'
p4
sS'code'
p5
S'import tempfile\nfrom time import mktime\n\nif False:\n    from gluon.contrib.pysimplesoap.client import response\n    from gluon.contrib.pysimplesoap.server import request\n    from applications.ddlagoon.models.db import service, db\n\nfrom gluon.contrib import simplejson as json\n\n__author__ = \'thomas\'\n\ndef get():\n    return service()\n\n@service.xml\ndef ddl(id="", filename=""):\n    # find the record\n    ddl= db((db.ddl.filename==filename) & (db.ddl.id==id)).select().first()\n    if not ddl:\n        return "404 - File not found."\n    else:\n        # prepare the file\n        ddl = {\n            \'author\':ddl.author,\n            \'filename\':ddl.filename,\n            \'description\':ddl.description,\n            \'size\':ddl.size,\n            \'hash\':ddl.hash,\n            \'parts\':ddl.parts,\n            \'service\':ddl.service,\n            \'links\':ddl.links,\n            \'version\':ddl.version,\n            \'time\':int(mktime(ddl.date_added.timetuple()))\n        }\n        ddlJson = json.dumps(ddl, sort_keys=True, indent=4)\n        # temp file\n        ddlFile = tempfile.NamedTemporaryFile()\n        with open(ddlFile.name, "wb") as myFile:\n            myFile.write(ddlJson)\n        #response.headers[\'Content-Type\'] = \'application/ddl\'\n        #response.headers[\'Content-Disposition\'] = \'attachment; filename=test.ddl\'\n        #return response.stream(ddlFile, request=request)\n        request.args[0] = ddlFile.name\n        return response.download(ddlFile, ddlFile.name)\nresponse._vars=response._caller(get)\n'
p6
sS'snapshot'
p7
(dp8
S'exception'
p9
(dp10
S'__hash__'
p11
S"<method-wrapper '__hash__' of exceptions.AttributeError object>"
p12
sS'__setattr__'
p13
S"<method-wrapper '__setattr__' of exceptions.AttributeError object>"
p14
sS'__reduce_ex__'
p15
S'<built-in method __reduce_ex__ of exceptions.AttributeError object>'
p16
sS'__getslice__'
p17
S"<method-wrapper '__getslice__' of exceptions.AttributeError object>"
p18
sS'__getitem__'
p19
S"<method-wrapper '__getitem__' of exceptions.AttributeError object>"
p20
sS'__setstate__'
p21
S'<built-in method __setstate__ of exceptions.AttributeError object>'
p22
sS'args'
p23
S'("\'file\' object has no attribute \'args\'",)'
p24
sS'__reduce__'
p25
S'<built-in method __reduce__ of exceptions.AttributeError object>'
p26
sS'__str__'
p27
S"<method-wrapper '__str__' of exceptions.AttributeError object>"
p28
sS'__format__'
p29
S'<built-in method __format__ of exceptions.AttributeError object>'
p30
sS'__getattribute__'
p31
S"<method-wrapper '__getattribute__' of exceptions.AttributeError object>"
p32
sS'__class__'
p33
S"<type 'exceptions.AttributeError'>"
p34
sS'__unicode__'
p35
S'<built-in method __unicode__ of exceptions.AttributeError object>'
p36
sS'__delattr__'
p37
S"<method-wrapper '__delattr__' of exceptions.AttributeError object>"
p38
sS'__subclasshook__'
p39
S'<built-in method __subclasshook__ of type object>'
p40
sS'__repr__'
p41
S"<method-wrapper '__repr__' of exceptions.AttributeError object>"
p42
sS'__dict__'
p43
S'{}'
p44
sS'__sizeof__'
p45
S'<built-in method __sizeof__ of exceptions.AttributeError object>'
p46
sS'__doc__'
p47
S"'Attribute not found.'"
p48
sS'__init__'
p49
S"<method-wrapper '__init__' of exceptions.AttributeError object>"
p50
sS'__new__'
p51
S'<built-in method __new__ of type object>'
p52
ssS'evalue'
p53
S"'file' object has no attribute 'args'"
p54
sS'request'
p55
ccopy_reg
_reconstructor
p56
(cgluon.html
BEAUTIFY
p57
c__builtin__
object
p58
NtRp59
(dp60
S'attributes'
p61
(dp62
sS'components'
p63
(lp64
g56
(cgluon.html
TABLE
p65
g58
NtRp66
(dp67
g61
(dp68
S'level'
p69
I5
ssS'parent'
p70
Nsg63
(lp71
g56
(cgluon.html
TR
p72
g58
NtRp73
(dp74
g61
(dp75
sg70
g66
sg63
(lp76
g56
(cgluon.html
TD
p77
g58
NtRp78
(dp79
g61
(dp80
S'_style'
p81
S'font-weight:bold;'
p82
ssg70
g73
sg63
(lp83
S'ajax'
p84
asbag56
(g77
g58
NtRp85
(dp86
g61
(dp87
S'_valign'
p88
S'top'
p89
ssg70
g73
sg63
(lp90
S':'
asbag56
(g77
g58
NtRp91
(dp92
g61
(dp93
sg70
g73
sg63
(lp94
g56
(g57
g58
NtRp95
(dp96
g61
(dp97
g69
I5
ssg70
g91
sg63
(lp98
S'False'
p99
asbasbasbag56
(g72
g58
NtRp100
(dp101
g61
(dp102
sg70
g66
sg63
(lp103
g56
(g77
g58
NtRp104
(dp105
g61
(dp106
g81
g82
ssg70
g100
sg63
(lp107
S'application'
p108
asbag56
(g77
g58
NtRp109
(dp110
g61
(dp111
g88
g89
ssg70
g100
sg63
(lp112
S':'
asbag56
(g77
g58
NtRp113
(dp114
g61
(dp115
sg70
g100
sg63
(lp116
g56
(g57
g58
NtRp117
(dp118
g61
(dp119
g69
I5
ssg70
g113
sg63
(lp120
S'ddlagoon'
p121
asbasbasbag56
(g72
g58
NtRp122
(dp123
g61
(dp124
sg70
g66
sg63
(lp125
g56
(g77
g58
NtRp126
(dp127
g61
(dp128
g81
g82
ssg70
g122
sg63
(lp129
g23
asbag56
(g77
g58
NtRp130
(dp131
g61
(dp132
g88
g89
ssg70
g122
sg63
(lp133
S':'
asbag56
(g77
g58
NtRp134
(dp135
g61
(dp136
sg70
g122
sg63
(lp137
g56
(g57
g58
NtRp138
(dp139
g61
(dp140
g69
I5
ssg70
g134
sg63
(lp141
g56
(g65
g58
NtRp142
(dp143
g61
(dp144
g69
I4
ssg70
Nsg63
(lp145
g56
(g72
g58
NtRp146
(dp147
g61
(dp148
sg70
g142
sg63
(lp149
g56
(g77
g58
NtRp150
(dp151
g61
(dp152
sg70
g146
sg63
(lp153
g56
(g57
g58
NtRp154
(dp155
g61
(dp156
g69
I4
ssg70
g150
sg63
(lp157
S'/tmp/tmpWyxgsG'
p158
asbasbasbag56
(g72
g58
NtRp159
(dp160
g61
(dp161
sg70
g142
sg63
(lp162
g56
(g77
g58
NtRp163
(dp164
g61
(dp165
sg70
g159
sg63
(lp166
g56
(g57
g58
NtRp167
(dp168
g61
(dp169
g69
I4
ssg70
g163
sg63
(lp170
S'ddl'
p171
asbasbasbag56
(g72
g58
NtRp172
(dp173
g61
(dp174
sg70
g142
sg63
(lp175
g56
(g77
g58
NtRp176
(dp177
g61
(dp178
sg70
g172
sg63
(lp179
g56
(g57
g58
NtRp180
(dp181
g61
(dp182
g69
I4
ssg70
g176
sg63
(lp183
S'14'
p184
asbasbasbag56
(g72
g58
NtRp185
(dp186
g61
(dp187
sg70
g142
sg63
(lp188
g56
(g77
g58
NtRp189
(dp190
g61
(dp191
sg70
g185
sg63
(lp192
g56
(g57
g58
NtRp193
(dp194
g61
(dp195
g69
I4
ssg70
g189
sg63
(lp196
S'The_Thing_2011_TS_XviD_READNFO___MiSTERE.avi'
p197
asbasbasbasbasbasbasbag56
(g72
g58
NtRp198
(dp199
g61
(dp200
sg70
g66
sg63
(lp201
g56
(g77
g58
NtRp202
(dp203
g61
(dp204
g81
g82
ssg70
g198
sg63
(lp205
S'body'
p206
asbag56
(g77
g58
NtRp207
(dp208
g61
(dp209
g88
g89
ssg70
g198
sg63
(lp210
S':'
asbag56
(g77
g58
NtRp211
(dp212
g61
(dp213
sg70
g198
sg63
(lp214
g56
(g57
g58
NtRp215
(dp216
g61
(dp217
g69
I5
ssg70
g211
sg63
(lp218
S'<cStringIO.StringO object at 0x27b4998>'
p219
asbasbasbag56
(g72
g58
NtRp220
(dp221
g61
(dp222
sg70
g66
sg63
(lp223
g56
(g77
g58
NtRp224
(dp225
g61
(dp226
g81
g82
ssg70
g220
sg63
(lp227
S'client'
p228
asbag56
(g77
g58
NtRp229
(dp230
g61
(dp231
g88
g89
ssg70
g220
sg63
(lp232
S':'
asbag56
(g77
g58
NtRp233
(dp234
g61
(dp235
sg70
g220
sg63
(lp236
g56
(g57
g58
NtRp237
(dp238
g61
(dp239
g69
I5
ssg70
g233
sg63
(lp240
S'127.0.0.1'
p241
asbasbasbag56
(g72
g58
NtRp242
(dp243
g61
(dp244
sg70
g66
sg63
(lp245
g56
(g77
g58
NtRp246
(dp247
g61
(dp248
g81
g82
ssg70
g242
sg63
(lp249
S'controller'
p250
asbag56
(g77
g58
NtRp251
(dp252
g61
(dp253
g88
g89
ssg70
g242
sg63
(lp254
S':'
asbag56
(g77
g58
NtRp255
(dp256
g61
(dp257
sg70
g242
sg63
(lp258
g56
(g57
g58
NtRp259
(dp260
g61
(dp261
g69
I5
ssg70
g255
sg63
(lp262
S'ddl'
p263
asbasbasbag56
(g72
g58
NtRp264
(dp265
g61
(dp266
sg70
g66
sg63
(lp267
g56
(g77
g58
NtRp268
(dp269
g61
(dp270
g81
g82
ssg70
g264
sg63
(lp271
S'cookies'
p272
asbag56
(g77
g58
NtRp273
(dp274
g61
(dp275
g88
g89
ssg70
g264
sg63
(lp276
S':'
asbag56
(g77
g58
NtRp277
(dp278
g61
(dp279
sg70
g264
sg63
(lp280
g56
(g57
g58
NtRp281
(dp282
g61
(dp283
g69
I5
ssg70
g277
sg63
(lp284
g56
(g65
g58
NtRp285
(dp286
g61
(dp287
g69
I4
ssg70
Nsg63
(lp288
g56
(g72
g58
NtRp289
(dp290
g61
(dp291
sg70
g285
sg63
(lp292
g56
(g77
g58
NtRp293
(dp294
g61
(dp295
g81
g82
ssg70
g289
sg63
(lp296
S'session_id_admin'
p297
asbag56
(g77
g58
NtRp298
(dp299
g61
(dp300
g88
g89
ssg70
g289
sg63
(lp301
S':'
asbag56
(g77
g58
NtRp302
(dp303
g61
(dp304
sg70
g289
sg63
(lp305
g56
(g57
g58
NtRp306
(dp307
g61
(dp308
g69
I4
ssg70
g302
sg63
(lp309
g56
(g65
g58
NtRp310
(dp311
g61
(dp312
g69
I3
ssg70
Nsg63
(lp313
g56
(g72
g58
NtRp314
(dp315
g61
(dp316
sg70
g310
sg63
(lp317
g56
(g77
g58
NtRp318
(dp319
g61
(dp320
g81
g82
ssg70
g314
sg63
(lp321
S'comment'
p322
asbag56
(g77
g58
NtRp323
(dp324
g61
(dp325
g88
g89
ssg70
g314
sg63
(lp326
S':'
asbag56
(g77
g58
NtRp327
(dp328
g61
(dp329
sg70
g314
sg63
(lp330
g56
(g57
g58
NtRp331
(dp332
g61
(dp333
g69
I3
ssg70
g327
sg63
(lp334
S''
asbasbasbag56
(g72
g58
NtRp335
(dp336
g61
(dp337
sg70
g310
sg63
(lp338
g56
(g77
g58
NtRp339
(dp340
g61
(dp341
g81
g82
ssg70
g335
sg63
(lp342
S'domain'
p343
asbag56
(g77
g58
NtRp344
(dp345
g61
(dp346
g88
g89
ssg70
g335
sg63
(lp347
S':'
asbag56
(g77
g58
NtRp348
(dp349
g61
(dp350
sg70
g335
sg63
(lp351
g56
(g57
g58
NtRp352
(dp353
g61
(dp354
g69
I3
ssg70
g348
sg63
(lp355
S''
asbasbasbag56
(g72
g58
NtRp356
(dp357
g61
(dp358
sg70
g310
sg63
(lp359
g56
(g77
g58
NtRp360
(dp361
g61
(dp362
g81
g82
ssg70
g356
sg63
(lp363
S'expires'
p364
asbag56
(g77
g58
NtRp365
(dp366
g61
(dp367
g88
g89
ssg70
g356
sg63
(lp368
S':'
asbag56
(g77
g58
NtRp369
(dp370
g61
(dp371
sg70
g356
sg63
(lp372
g56
(g57
g58
NtRp373
(dp374
g61
(dp375
g69
I3
ssg70
g369
sg63
(lp376
S''
asbasbasbag56
(g72
g58
NtRp377
(dp378
g61
(dp379
sg70
g310
sg63
(lp380
g56
(g77
g58
NtRp381
(dp382
g61
(dp383
g81
g82
ssg70
g377
sg63
(lp384
S'httponly'
p385
asbag56
(g77
g58
NtRp386
(dp387
g61
(dp388
g88
g89
ssg70
g377
sg63
(lp389
S':'
asbag56
(g77
g58
NtRp390
(dp391
g61
(dp392
sg70
g377
sg63
(lp393
g56
(g57
g58
NtRp394
(dp395
g61
(dp396
g69
I3
ssg70
g390
sg63
(lp397
S''
asbasbasbag56
(g72
g58
NtRp398
(dp399
g61
(dp400
sg70
g310
sg63
(lp401
g56
(g77
g58
NtRp402
(dp403
g61
(dp404
g81
g82
ssg70
g398
sg63
(lp405
S'max-age'
p406
asbag56
(g77
g58
NtRp407
(dp408
g61
(dp409
g88
g89
ssg70
g398
sg63
(lp410
S':'
asbag56
(g77
g58
NtRp411
(dp412
g61
(dp413
sg70
g398
sg63
(lp414
g56
(g57
g58
NtRp415
(dp416
g61
(dp417
g69
I3
ssg70
g411
sg63
(lp418
S''
asbasbasbag56
(g72
g58
NtRp419
(dp420
g61
(dp421
sg70
g310
sg63
(lp422
g56
(g77
g58
NtRp423
(dp424
g61
(dp425
g81
g82
ssg70
g419
sg63
(lp426
S'path'
p427
asbag56
(g77
g58
NtRp428
(dp429
g61
(dp430
g88
g89
ssg70
g419
sg63
(lp431
S':'
asbag56
(g77
g58
NtRp432
(dp433
g61
(dp434
sg70
g419
sg63
(lp435
g56
(g57
g58
NtRp436
(dp437
g61
(dp438
g69
I3
ssg70
g432
sg63
(lp439
S''
asbasbasbag56
(g72
g58
NtRp440
(dp441
g61
(dp442
sg70
g310
sg63
(lp443
g56
(g77
g58
NtRp444
(dp445
g61
(dp446
g81
g82
ssg70
g440
sg63
(lp447
S'secure'
p448
asbag56
(g77
g58
NtRp449
(dp450
g61
(dp451
g88
g89
ssg70
g440
sg63
(lp452
S':'
asbag56
(g77
g58
NtRp453
(dp454
g61
(dp455
sg70
g440
sg63
(lp456
g56
(g57
g58
NtRp457
(dp458
g61
(dp459
g69
I3
ssg70
g453
sg63
(lp460
S''
asbasbasbag56
(g72
g58
NtRp461
(dp462
g61
(dp463
sg70
g310
sg63
(lp464
g56
(g77
g58
NtRp465
(dp466
g61
(dp467
g81
g82
ssg70
g461
sg63
(lp468
S'version'
p469
asbag56
(g77
g58
NtRp470
(dp471
g61
(dp472
g88
g89
ssg70
g461
sg63
(lp473
S':'
asbag56
(g77
g58
NtRp474
(dp475
g61
(dp476
sg70
g461
sg63
(lp477
g56
(g57
g58
NtRp478
(dp479
g61
(dp480
g69
I3
ssg70
g474
sg63
(lp481
S''
asbasbasbasbasbasbasbag56
(g72
g58
NtRp482
(dp483
g61
(dp484
sg70
g285
sg63
(lp485
g56
(g77
g58
NtRp486
(dp487
g61
(dp488
g81
g82
ssg70
g482
sg63
(lp489
S'session_id_ddlagoon'
p490
asbag56
(g77
g58
NtRp491
(dp492
g61
(dp493
g88
g89
ssg70
g482
sg63
(lp494
S':'
asbag56
(g77
g58
NtRp495
(dp496
g61
(dp497
sg70
g482
sg63
(lp498
g56
(g57
g58
NtRp499
(dp500
g61
(dp501
g69
I4
ssg70
g495
sg63
(lp502
g56
(g65
g58
NtRp503
(dp504
g61
(dp505
g69
I3
ssg70
Nsg63
(lp506
g56
(g72
g58
NtRp507
(dp508
g61
(dp509
sg70
g503
sg63
(lp510
g56
(g77
g58
NtRp511
(dp512
g61
(dp513
g81
g82
ssg70
g507
sg63
(lp514
g322
asbag56
(g77
g58
NtRp515
(dp516
g61
(dp517
g88
g89
ssg70
g507
sg63
(lp518
S':'
asbag56
(g77
g58
NtRp519
(dp520
g61
(dp521
sg70
g507
sg63
(lp522
g56
(g57
g58
NtRp523
(dp524
g61
(dp525
g69
I3
ssg70
g519
sg63
(lp526
S''
asbasbasbag56
(g72
g58
NtRp527
(dp528
g61
(dp529
sg70
g503
sg63
(lp530
g56
(g77
g58
NtRp531
(dp532
g61
(dp533
g81
g82
ssg70
g527
sg63
(lp534
g343
asbag56
(g77
g58
NtRp535
(dp536
g61
(dp537
g88
g89
ssg70
g527
sg63
(lp538
S':'
asbag56
(g77
g58
NtRp539
(dp540
g61
(dp541
sg70
g527
sg63
(lp542
g56
(g57
g58
NtRp543
(dp544
g61
(dp545
g69
I3
ssg70
g539
sg63
(lp546
S''
asbasbasbag56
(g72
g58
NtRp547
(dp548
g61
(dp549
sg70
g503
sg63
(lp550
g56
(g77
g58
NtRp551
(dp552
g61
(dp553
g81
g82
ssg70
g547
sg63
(lp554
g364
asbag56
(g77
g58
NtRp555
(dp556
g61
(dp557
g88
g89
ssg70
g547
sg63
(lp558
S':'
asbag56
(g77
g58
NtRp559
(dp560
g61
(dp561
sg70
g547
sg63
(lp562
g56
(g57
g58
NtRp563
(dp564
g61
(dp565
g69
I3
ssg70
g559
sg63
(lp566
S''
asbasbasbag56
(g72
g58
NtRp567
(dp568
g61
(dp569
sg70
g503
sg63
(lp570
g56
(g77
g58
NtRp571
(dp572
g61
(dp573
g81
g82
ssg70
g567
sg63
(lp574
g385
asbag56
(g77
g58
NtRp575
(dp576
g61
(dp577
g88
g89
ssg70
g567
sg63
(lp578
S':'
asbag56
(g77
g58
NtRp579
(dp580
g61
(dp581
sg70
g567
sg63
(lp582
g56
(g57
g58
NtRp583
(dp584
g61
(dp585
g69
I3
ssg70
g579
sg63
(lp586
S''
asbasbasbag56
(g72
g58
NtRp587
(dp588
g61
(dp589
sg70
g503
sg63
(lp590
g56
(g77
g58
NtRp591
(dp592
g61
(dp593
g81
g82
ssg70
g587
sg63
(lp594
g406
asbag56
(g77
g58
NtRp595
(dp596
g61
(dp597
g88
g89
ssg70
g587
sg63
(lp598
S':'
asbag56
(g77
g58
NtRp599
(dp600
g61
(dp601
sg70
g587
sg63
(lp602
g56
(g57
g58
NtRp603
(dp604
g61
(dp605
g69
I3
ssg70
g599
sg63
(lp606
S''
asbasbasbag56
(g72
g58
NtRp607
(dp608
g61
(dp609
sg70
g503
sg63
(lp610
g56
(g77
g58
NtRp611
(dp612
g61
(dp613
g81
g82
ssg70
g607
sg63
(lp614
g427
asbag56
(g77
g58
NtRp615
(dp616
g61
(dp617
g88
g89
ssg70
g607
sg63
(lp618
S':'
asbag56
(g77
g58
NtRp619
(dp620
g61
(dp621
sg70
g607
sg63
(lp622
g56
(g57
g58
NtRp623
(dp624
g61
(dp625
g69
I3
ssg70
g619
sg63
(lp626
S''
asbasbasbag56
(g72
g58
NtRp627
(dp628
g61
(dp629
sg70
g503
sg63
(lp630
g56
(g77
g58
NtRp631
(dp632
g61
(dp633
g81
g82
ssg70
g627
sg63
(lp634
g448
asbag56
(g77
g58
NtRp635
(dp636
g61
(dp637
g88
g89
ssg70
g627
sg63
(lp638
S':'
asbag56
(g77
g58
NtRp639
(dp640
g61
(dp641
sg70
g627
sg63
(lp642
g56
(g57
g58
NtRp643
(dp644
g61
(dp645
g69
I3
ssg70
g639
sg63
(lp646
S''
asbasbasbag56
(g72
g58
NtRp647
(dp648
g61
(dp649
sg70
g503
sg63
(lp650
g56
(g77
g58
NtRp651
(dp652
g61
(dp653
g81
g82
ssg70
g647
sg63
(lp654
g469
asbag56
(g77
g58
NtRp655
(dp656
g61
(dp657
g88
g89
ssg70
g647
sg63
(lp658
S':'
asbag56
(g77
g58
NtRp659
(dp660
g61
(dp661
sg70
g647
sg63
(lp662
g56
(g57
g58
NtRp663
(dp664
g61
(dp665
g69
I3
ssg70
g659
sg63
(lp666
S''
asbasbasbasbasbasbasbag56
(g72
g58
NtRp667
(dp668
g61
(dp669
sg70
g285
sg63
(lp670
g56
(g77
g58
NtRp671
(dp672
g61
(dp673
g81
g82
ssg70
g667
sg63
(lp674
S'session_id_welcome'
p675
asbag56
(g77
g58
NtRp676
(dp677
g61
(dp678
g88
g89
ssg70
g667
sg63
(lp679
S':'
asbag56
(g77
g58
NtRp680
(dp681
g61
(dp682
sg70
g667
sg63
(lp683
g56
(g57
g58
NtRp684
(dp685
g61
(dp686
g69
I4
ssg70
g680
sg63
(lp687
g56
(g65
g58
NtRp688
(dp689
g61
(dp690
g69
I3
ssg70
Nsg63
(lp691
g56
(g72
g58
NtRp692
(dp693
g61
(dp694
sg70
g688
sg63
(lp695
g56
(g77
g58
NtRp696
(dp697
g61
(dp698
g81
g82
ssg70
g692
sg63
(lp699
g322
asbag56
(g77
g58
NtRp700
(dp701
g61
(dp702
g88
g89
ssg70
g692
sg63
(lp703
S':'
asbag56
(g77
g58
NtRp704
(dp705
g61
(dp706
sg70
g692
sg63
(lp707
g56
(g57
g58
NtRp708
(dp709
g61
(dp710
g69
I3
ssg70
g704
sg63
(lp711
S''
asbasbasbag56
(g72
g58
NtRp712
(dp713
g61
(dp714
sg70
g688
sg63
(lp715
g56
(g77
g58
NtRp716
(dp717
g61
(dp718
g81
g82
ssg70
g712
sg63
(lp719
g343
asbag56
(g77
g58
NtRp720
(dp721
g61
(dp722
g88
g89
ssg70
g712
sg63
(lp723
S':'
asbag56
(g77
g58
NtRp724
(dp725
g61
(dp726
sg70
g712
sg63
(lp727
g56
(g57
g58
NtRp728
(dp729
g61
(dp730
g69
I3
ssg70
g724
sg63
(lp731
S''
asbasbasbag56
(g72
g58
NtRp732
(dp733
g61
(dp734
sg70
g688
sg63
(lp735
g56
(g77
g58
NtRp736
(dp737
g61
(dp738
g81
g82
ssg70
g732
sg63
(lp739
g364
asbag56
(g77
g58
NtRp740
(dp741
g61
(dp742
g88
g89
ssg70
g732
sg63
(lp743
S':'
asbag56
(g77
g58
NtRp744
(dp745
g61
(dp746
sg70
g732
sg63
(lp747
g56
(g57
g58
NtRp748
(dp749
g61
(dp750
g69
I3
ssg70
g744
sg63
(lp751
S''
asbasbasbag56
(g72
g58
NtRp752
(dp753
g61
(dp754
sg70
g688
sg63
(lp755
g56
(g77
g58
NtRp756
(dp757
g61
(dp758
g81
g82
ssg70
g752
sg63
(lp759
g385
asbag56
(g77
g58
NtRp760
(dp761
g61
(dp762
g88
g89
ssg70
g752
sg63
(lp763
S':'
asbag56
(g77
g58
NtRp764
(dp765
g61
(dp766
sg70
g752
sg63
(lp767
g56
(g57
g58
NtRp768
(dp769
g61
(dp770
g69
I3
ssg70
g764
sg63
(lp771
S''
asbasbasbag56
(g72
g58
NtRp772
(dp773
g61
(dp774
sg70
g688
sg63
(lp775
g56
(g77
g58
NtRp776
(dp777
g61
(dp778
g81
g82
ssg70
g772
sg63
(lp779
g406
asbag56
(g77
g58
NtRp780
(dp781
g61
(dp782
g88
g89
ssg70
g772
sg63
(lp783
S':'
asbag56
(g77
g58
NtRp784
(dp785
g61
(dp786
sg70
g772
sg63
(lp787
g56
(g57
g58
NtRp788
(dp789
g61
(dp790
g69
I3
ssg70
g784
sg63
(lp791
S''
asbasbasbag56
(g72
g58
NtRp792
(dp793
g61
(dp794
sg70
g688
sg63
(lp795
g56
(g77
g58
NtRp796
(dp797
g61
(dp798
g81
g82
ssg70
g792
sg63
(lp799
g427
asbag56
(g77
g58
NtRp800
(dp801
g61
(dp802
g88
g89
ssg70
g792
sg63
(lp803
S':'
asbag56
(g77
g58
NtRp804
(dp805
g61
(dp806
sg70
g792
sg63
(lp807
g56
(g57
g58
NtRp808
(dp809
g61
(dp810
g69
I3
ssg70
g804
sg63
(lp811
S''
asbasbasbag56
(g72
g58
NtRp812
(dp813
g61
(dp814
sg70
g688
sg63
(lp815
g56
(g77
g58
NtRp816
(dp817
g61
(dp818
g81
g82
ssg70
g812
sg63
(lp819
g448
asbag56
(g77
g58
NtRp820
(dp821
g61
(dp822
g88
g89
ssg70
g812
sg63
(lp823
S':'
asbag56
(g77
g58
NtRp824
(dp825
g61
(dp826
sg70
g812
sg63
(lp827
g56
(g57
g58
NtRp828
(dp829
g61
(dp830
g69
I3
ssg70
g824
sg63
(lp831
S''
asbasbasbag56
(g72
g58
NtRp832
(dp833
g61
(dp834
sg70
g688
sg63
(lp835
g56
(g77
g58
NtRp836
(dp837
g61
(dp838
g81
g82
ssg70
g832
sg63
(lp839
g469
asbag56
(g77
g58
NtRp840
(dp841
g61
(dp842
g88
g89
ssg70
g832
sg63
(lp843
S':'
asbag56
(g77
g58
NtRp844
(dp845
g61
(dp846
sg70
g832
sg63
(lp847
g56
(g57
g58
NtRp848
(dp849
g61
(dp850
g69
I3
ssg70
g844
sg63
(lp851
S''
asbasbasbasbasbasbasbasbasbasbasbag56
(g72
g58
NtRp852
(dp853
g61
(dp854
sg70
g66
sg63
(lp855
g56
(g77
g58
NtRp856
(dp857
g61
(dp858
g81
g82
ssg70
g852
sg63
(lp859
S'env'
p860
asbag56
(g77
g58
NtRp861
(dp862
g61
(dp863
g88
g89
ssg70
g852
sg63
(lp864
S':'
asbag56
(g77
g58
NtRp865
(dp866
g61
(dp867
sg70
g852
sg63
(lp868
g56
(g57
g58
NtRp869
(dp870
g61
(dp871
g69
I5
ssg70
g865
sg63
(lp872
g56
(g65
g58
NtRp873
(dp874
g61
(dp875
g69
I4
ssg70
Nsg63
(lp876
g56
(g72
g58
NtRp877
(dp878
g61
(dp879
sg70
g873
sg63
(lp880
g56
(g77
g58
NtRp881
(dp882
g61
(dp883
g81
g82
ssg70
g877
sg63
(lp884
S'app_folders'
p885
asbag56
(g77
g58
NtRp886
(dp887
g61
(dp888
g88
g89
ssg70
g877
sg63
(lp889
S':'
asbag56
(g77
g58
NtRp890
(dp891
g61
(dp892
sg70
g877
sg63
(lp893
g56
(g57
g58
NtRp894
(dp895
g61
(dp896
g69
I4
ssg70
g890
sg63
(lp897
S"set(['/windows/Users/Thomas/Dropbox/appz/2011/GAE/ddl-lagoon/applications/ddlagoon/', '/windows/Users/Thomas/Dropbox/appz/2011/GAE/ddl-lagoon/applications/welcome/', '/windows/Users/Thomas/Dropbox/appz/2011/GAE/ddl-lagoon/applications/admin/'])"
p898
asbasbasbag56
(g72
g58
NtRp899
(dp900
g61
(dp901
sg70
g873
sg63
(lp902
g56
(g77
g58
NtRp903
(dp904
g61
(dp905
g81
g82
ssg70
g899
sg63
(lp906
S'applications_parent'
p907
asbag56
(g77
g58
NtRp908
(dp909
g61
(dp910
g88
g89
ssg70
g899
sg63
(lp911
S':'
asbag56
(g77
g58
NtRp912
(dp913
g61
(dp914
sg70
g899
sg63
(lp915
g56
(g57
g58
NtRp916
(dp917
g61
(dp918
g69
I4
ssg70
g912
sg63
(lp919
S'/windows/Users/Thomas/Dropbox/appz/2011/GAE/ddl-lagoon'
p920
asbasbasbag56
(g72
g58
NtRp921
(dp922
g61
(dp923
sg70
g873
sg63
(lp924
g56
(g77
g58
NtRp925
(dp926
g61
(dp927
g81
g82
ssg70
g921
sg63
(lp928
S'cmd_args'
p929
asbag56
(g77
g58
NtRp930
(dp931
g61
(dp932
g88
g89
ssg70
g921
sg63
(lp933
S':'
asbag56
(g77
g58
NtRp934
(dp935
g61
(dp936
sg70
g921
sg63
(lp937
g56
(g57
g58
NtRp938
(dp939
g61
(dp940
g69
I4
ssg70
g934
sg63
(lp941
g56
(g65
g58
NtRp942
(dp943
g61
(dp944
g69
I3
ssg70
Nsg63
(lp945
sbasbasbasbag56
(g72
g58
NtRp946
(dp947
g61
(dp948
sg70
g873
sg63
(lp949
g56
(g77
g58
NtRp950
(dp951
g61
(dp952
g81
g82
ssg70
g946
sg63
(lp953
S'cmd_options'
p954
asbag56
(g77
g58
NtRp955
(dp956
g61
(dp957
g88
g89
ssg70
g946
sg63
(lp958
S':'
asbag56
(g77
g58
NtRp959
(dp960
g61
(dp961
sg70
g946
sg63
(lp962
g56
(g57
g58
NtRp963
(dp964
g61
(dp965
g69
I4
ssg70
g959
sg63
(lp966
S"<Values at 0x2569cf8: {'verbose': False, 'ip': '127.0.0.1', 'shutdown_timeout': 5, 'taskbar': False, 'nocron': False, 'pid_filename': 'httpserver.pid', 'maxthreads': None, 'softcron': False, 'server_name': 'VPCF22AJ', 'bpython': False, 'nogui': False, 'port': 8000, 'extcron': False, 'debuglevel': 30, 'test': None, 'folder': '/windows/Users/Thomas/Dropbox/appz/2011/GAE/ddl-lagoon', 'config': '', 'import_models': False, 'winservice': '', 'shell': None, 'run': '', 'log_filename': 'httpserver.log', 'args': [''], 'ssl_ca_certificate': None, 'scheduler': None, 'profiler_filename': None, 'ssl_private_key': '', 'password': 'admin', 'request_queue_size': 5, 'ssl_certificate': '', 'cronjob': False, 'plain': False, 'quiet': False, 'interfaces': None, 'minthreads': None, 'timeout': 10, 'numthreads': None, 'nobanner': False}>"
p967
asbasbasbag56
(g72
g58
NtRp968
(dp969
g61
(dp970
sg70
g873
sg63
(lp971
g56
(g77
g58
NtRp972
(dp973
g61
(dp974
g81
g82
ssg70
g968
sg63
(lp975
S'db_sessions'
p976
asbag56
(g77
g58
NtRp977
(dp978
g61
(dp979
g88
g89
ssg70
g968
sg63
(lp980
S':'
asbag56
(g77
g58
NtRp981
(dp982
g61
(dp983
sg70
g968
sg63
(lp984
g56
(g57
g58
NtRp985
(dp986
g61
(dp987
g69
I4
ssg70
g981
sg63
(lp988
S'set([])'
p989
asbasbasbag56
(g72
g58
NtRp990
(dp991
g61
(dp992
sg70
g873
sg63
(lp993
g56
(g77
g58
NtRp994
(dp995
g61
(dp996
g81
g82
ssg70
g990
sg63
(lp997
S'debugging'
p998
asbag56
(g77
g58
NtRp999
(dp1000
g61
(dp1001
g88
g89
ssg70
g990
sg63
(lp1002
S':'
asbag56
(g77
g58
NtRp1003
(dp1004
g61
(dp1005
sg70
g990
sg63
(lp1006
g56
(g57
g58
NtRp1007
(dp1008
g61
(dp1009
g69
I4
ssg70
g1003
sg63
(lp1010
g99
asbasbasbag56
(g72
g58
NtRp1011
(dp1012
g61
(dp1013
sg70
g873
sg63
(lp1014
g56
(g77
g58
NtRp1015
(dp1016
g61
(dp1017
g81
g82
ssg70
g1011
sg63
(lp1018
S'gluon_parent'
p1019
asbag56
(g77
g58
NtRp1020
(dp1021
g61
(dp1022
g88
g89
ssg70
g1011
sg63
(lp1023
S':'
asbag56
(g77
g58
NtRp1024
(dp1025
g61
(dp1026
sg70
g1011
sg63
(lp1027
g56
(g57
g58
NtRp1028
(dp1029
g61
(dp1030
g69
I4
ssg70
g1024
sg63
(lp1031
S'/windows/Users/Thomas/Dropbox/appz/2011/GAE/ddl-lagoon'
p1032
asbasbasbag56
(g72
g58
NtRp1033
(dp1034
g61
(dp1035
sg70
g873
sg63
(lp1036
g56
(g77
g58
NtRp1037
(dp1038
g61
(dp1039
g81
g82
ssg70
g1033
sg63
(lp1040
S'http_accept'
p1041
asbag56
(g77
g58
NtRp1042
(dp1043
g61
(dp1044
g88
g89
ssg70
g1033
sg63
(lp1045
S':'
asbag56
(g77
g58
NtRp1046
(dp1047
g61
(dp1048
sg70
g1033
sg63
(lp1049
g56
(g57
g58
NtRp1050
(dp1051
g61
(dp1052
g69
I4
ssg70
g1046
sg63
(lp1053
S'text/html,application/xhtml+xml,application/xml;q=0.9,*/*;q=0.8'
p1054
asbasbasbag56
(g72
g58
NtRp1055
(dp1056
g61
(dp1057
sg70
g873
sg63
(lp1058
g56
(g77
g58
NtRp1059
(dp1060
g61
(dp1061
g81
g82
ssg70
g1055
sg63
(lp1062
S'http_accept_charset'
p1063
asbag56
(g77
g58
NtRp1064
(dp1065
g61
(dp1066
g88
g89
ssg70
g1055
sg63
(lp1067
S':'
asbag56
(g77
g58
NtRp1068
(dp1069
g61
(dp1070
sg70
g1055
sg63
(lp1071
g56
(g57
g58
NtRp1072
(dp1073
g61
(dp1074
g69
I4
ssg70
g1068
sg63
(lp1075
S'ISO-8859-1,utf-8;q=0.7,*;q=0.3'
p1076
asbasbasbag56
(g72
g58
NtRp1077
(dp1078
g61
(dp1079
sg70
g873
sg63
(lp1080
g56
(g77
g58
NtRp1081
(dp1082
g61
(dp1083
g81
g82
ssg70
g1077
sg63
(lp1084
S'http_accept_encoding'
p1085
asbag56
(g77
g58
NtRp1086
(dp1087
g61
(dp1088
g88
g89
ssg70
g1077
sg63
(lp1089
S':'
asbag56
(g77
g58
NtRp1090
(dp1091
g61
(dp1092
sg70
g1077
sg63
(lp1093
g56
(g57
g58
NtRp1094
(dp1095
g61
(dp1096
g69
I4
ssg70
g1090
sg63
(lp1097
S'gzip,deflate,sdch'
p1098
asbasbasbag56
(g72
g58
NtRp1099
(dp1100
g61
(dp1101
sg70
g873
sg63
(lp1102
g56
(g77
g58
NtRp1103
(dp1104
g61
(dp1105
g81
g82
ssg70
g1099
sg63
(lp1106
S'http_accept_language'
p1107
asbag56
(g77
g58
NtRp1108
(dp1109
g61
(dp1110
g88
g89
ssg70
g1099
sg63
(lp1111
S':'
asbag56
(g77
g58
NtRp1112
(dp1113
g61
(dp1114
sg70
g1099
sg63
(lp1115
g56
(g57
g58
NtRp1116
(dp1117
g61
(dp1118
g69
I4
ssg70
g1112
sg63
(lp1119
S'en-US,en;q=0.8,fr;q=0.6'
p1120
asbasbasbag56
(g72
g58
NtRp1121
(dp1122
g61
(dp1123
sg70
g873
sg63
(lp1124
g56
(g77
g58
NtRp1125
(dp1126
g61
(dp1127
g81
g82
ssg70
g1121
sg63
(lp1128
S'http_cache_control'
p1129
asbag56
(g77
g58
NtRp1130
(dp1131
g61
(dp1132
g88
g89
ssg70
g1121
sg63
(lp1133
S':'
asbag56
(g77
g58
NtRp1134
(dp1135
g61
(dp1136
sg70
g1121
sg63
(lp1137
g56
(g57
g58
NtRp1138
(dp1139
g61
(dp1140
g69
I4
ssg70
g1134
sg63
(lp1141
S'max-age=0'
p1142
asbasbasbag56
(g72
g58
NtRp1143
(dp1144
g61
(dp1145
sg70
g873
sg63
(lp1146
g56
(g77
g58
NtRp1147
(dp1148
g61
(dp1149
g81
g82
ssg70
g1143
sg63
(lp1150
S'http_connection'
p1151
asbag56
(g77
g58
NtRp1152
(dp1153
g61
(dp1154
g88
g89
ssg70
g1143
sg63
(lp1155
S':'
asbag56
(g77
g58
NtRp1156
(dp1157
g61
(dp1158
sg70
g1143
sg63
(lp1159
g56
(g57
g58
NtRp1160
(dp1161
g61
(dp1162
g69
I4
ssg70
g1156
sg63
(lp1163
S'keep-alive'
p1164
asbasbasbag56
(g72
g58
NtRp1165
(dp1166
g61
(dp1167
sg70
g873
sg63
(lp1168
g56
(g77
g58
NtRp1169
(dp1170
g61
(dp1171
g81
g82
ssg70
g1165
sg63
(lp1172
S'http_cookie'
p1173
asbag56
(g77
g58
NtRp1174
(dp1175
g61
(dp1176
g88
g89
ssg70
g1165
sg63
(lp1177
S':'
asbag56
(g77
g58
NtRp1178
(dp1179
g61
(dp1180
sg70
g1165
sg63
(lp1181
g56
(g57
g58
NtRp1182
(dp1183
g61
(dp1184
g69
I4
ssg70
g1178
sg63
(lp1185
S'__utma_a2a=5510587673.1349489975.1317933049.1319659660.1319659660.47; session_id_welcome=127.0.0.1-f7fb4a09-ce09-4815-abcc-fca1d9093faf; session_id_ddlagoon=127.0.0.1-b8d44079-4f49-4e6a-87d8-03acfe69d178; session_id_admin=127.0.0.1-975d2e86-8c26-4bdc-8b21-2f846f38d507'
p1186
asbasbasbag56
(g72
g58
NtRp1187
(dp1188
g61
(dp1189
sg70
g873
sg63
(lp1190
g56
(g77
g58
NtRp1191
(dp1192
g61
(dp1193
g81
g82
ssg70
g1187
sg63
(lp1194
S'http_host'
p1195
asbag56
(g77
g58
NtRp1196
(dp1197
g61
(dp1198
g88
g89
ssg70
g1187
sg63
(lp1199
S':'
asbag56
(g77
g58
NtRp1200
(dp1201
g61
(dp1202
sg70
g1187
sg63
(lp1203
g56
(g57
g58
NtRp1204
(dp1205
g61
(dp1206
g69
I4
ssg70
g1200
sg63
(lp1207
S'127.0.0.1:8000'
p1208
asbasbasbag56
(g72
g58
NtRp1209
(dp1210
g61
(dp1211
sg70
g873
sg63
(lp1212
g56
(g77
g58
NtRp1213
(dp1214
g61
(dp1215
g81
g82
ssg70
g1209
sg63
(lp1216
S'http_user_agent'
p1217
asbag56
(g77
g58
NtRp1218
(dp1219
g61
(dp1220
g88
g89
ssg70
g1209
sg63
(lp1221
S':'
asbag56
(g77
g58
NtRp1222
(dp1223
g61
(dp1224
sg70
g1209
sg63
(lp1225
g56
(g57
g58
NtRp1226
(dp1227
g61
(dp1228
g69
I4
ssg70
g1222
sg63
(lp1229
S'Mozilla/5.0 (X11; Linux x86_64) AppleWebKit/535.2 (KHTML, like Gecko) Chrome/15.0.874.106 Safari/535.2'
p1230
asbasbasbag56
(g72
g58
NtRp1231
(dp1232
g61
(dp1233
sg70
g873
sg63
(lp1234
g56
(g77
g58
NtRp1235
(dp1236
g61
(dp1237
g81
g82
ssg70
g1231
sg63
(lp1238
S'is_jython'
p1239
asbag56
(g77
g58
NtRp1240
(dp1241
g61
(dp1242
g88
g89
ssg70
g1231
sg63
(lp1243
S':'
asbag56
(g77
g58
NtRp1244
(dp1245
g61
(dp1246
sg70
g1231
sg63
(lp1247
g56
(g57
g58
NtRp1248
(dp1249
g61
(dp1250
g69
I4
ssg70
g1244
sg63
(lp1251
g99
asbasbasbag56
(g72
g58
NtRp1252
(dp1253
g61
(dp1254
sg70
g873
sg63
(lp1255
g56
(g77
g58
NtRp1256
(dp1257
g61
(dp1258
g81
g82
ssg70
g1252
sg63
(lp1259
S'path_info'
p1260
asbag56
(g77
g58
NtRp1261
(dp1262
g61
(dp1263
g88
g89
ssg70
g1252
sg63
(lp1264
S':'
asbag56
(g77
g58
NtRp1265
(dp1266
g61
(dp1267
sg70
g1252
sg63
(lp1268
g56
(g57
g58
NtRp1269
(dp1270
g61
(dp1271
g69
I4
ssg70
g1265
sg63
(lp1272
S'/ddlagoon/ddl/get/run/ddl/14/The_Thing_2011_TS_XviD_READNFO___MiSTERE.avi'
p1273
asbasbasbag56
(g72
g58
NtRp1274
(dp1275
g61
(dp1276
sg70
g873
sg63
(lp1277
g56
(g77
g58
NtRp1278
(dp1279
g61
(dp1280
g81
g82
ssg70
g1274
sg63
(lp1281
S'query_string'
p1282
asbag56
(g77
g58
NtRp1283
(dp1284
g61
(dp1285
g88
g89
ssg70
g1274
sg63
(lp1286
S':'
asbag56
(g77
g58
NtRp1287
(dp1288
g61
(dp1289
sg70
g1274
sg63
(lp1290
g56
(g57
g58
NtRp1291
(dp1292
g61
(dp1293
g69
I4
ssg70
g1287
sg63
(lp1294
S''
asbasbasbag56
(g72
g58
NtRp1295
(dp1296
g61
(dp1297
sg70
g873
sg63
(lp1298
g56
(g77
g58
NtRp1299
(dp1300
g61
(dp1301
g81
g82
ssg70
g1295
sg63
(lp1302
S'remote_addr'
p1303
asbag56
(g77
g58
NtRp1304
(dp1305
g61
(dp1306
g88
g89
ssg70
g1295
sg63
(lp1307
S':'
asbag56
(g77
g58
NtRp1308
(dp1309
g61
(dp1310
sg70
g1295
sg63
(lp1311
g56
(g57
g58
NtRp1312
(dp1313
g61
(dp1314
g69
I4
ssg70
g1308
sg63
(lp1315
g241
asbasbasbag56
(g72
g58
NtRp1316
(dp1317
g61
(dp1318
sg70
g873
sg63
(lp1319
g56
(g77
g58
NtRp1320
(dp1321
g61
(dp1322
g81
g82
ssg70
g1316
sg63
(lp1323
S'remote_port'
p1324
asbag56
(g77
g58
NtRp1325
(dp1326
g61
(dp1327
g88
g89
ssg70
g1316
sg63
(lp1328
S':'
asbag56
(g77
g58
NtRp1329
(dp1330
g61
(dp1331
sg70
g1316
sg63
(lp1332
g56
(g57
g58
NtRp1333
(dp1334
g61
(dp1335
g69
I4
ssg70
g1329
sg63
(lp1336
S'45695'
p1337
asbasbasbag56
(g72
g58
NtRp1338
(dp1339
g61
(dp1340
sg70
g873
sg63
(lp1341
g56
(g77
g58
NtRp1342
(dp1343
g61
(dp1344
g81
g82
ssg70
g1338
sg63
(lp1345
S'request_method'
p1346
asbag56
(g77
g58
NtRp1347
(dp1348
g61
(dp1349
g88
g89
ssg70
g1338
sg63
(lp1350
S':'
asbag56
(g77
g58
NtRp1351
(dp1352
g61
(dp1353
sg70
g1338
sg63
(lp1354
g56
(g57
g58
NtRp1355
(dp1356
g61
(dp1357
g69
I4
ssg70
g1351
sg63
(lp1358
S'GET'
p1359
asbasbasbag56
(g72
g58
NtRp1360
(dp1361
g61
(dp1362
sg70
g873
sg63
(lp1363
g56
(g77
g58
NtRp1364
(dp1365
g61
(dp1366
g81
g82
ssg70
g1360
sg63
(lp1367
S'request_uri'
p1368
asbag56
(g77
g58
NtRp1369
(dp1370
g61
(dp1371
g88
g89
ssg70
g1360
sg63
(lp1372
S':'
asbag56
(g77
g58
NtRp1373
(dp1374
g61
(dp1375
sg70
g1360
sg63
(lp1376
g56
(g57
g58
NtRp1377
(dp1378
g61
(dp1379
g69
I4
ssg70
g1373
sg63
(lp1380
g1273
asbasbasbag56
(g72
g58
NtRp1381
(dp1382
g61
(dp1383
sg70
g873
sg63
(lp1384
g56
(g77
g58
NtRp1385
(dp1386
g61
(dp1387
g81
g82
ssg70
g1381
sg63
(lp1388
S'script_name'
p1389
asbag56
(g77
g58
NtRp1390
(dp1391
g61
(dp1392
g88
g89
ssg70
g1381
sg63
(lp1393
S':'
asbag56
(g77
g58
NtRp1394
(dp1395
g61
(dp1396
sg70
g1381
sg63
(lp1397
g56
(g57
g58
NtRp1398
(dp1399
g61
(dp1400
g69
I4
ssg70
g1394
sg63
(lp1401
S''
asbasbasbag56
(g72
g58
NtRp1402
(dp1403
g61
(dp1404
sg70
g873
sg63
(lp1405
g56
(g77
g58
NtRp1406
(dp1407
g61
(dp1408
g81
g82
ssg70
g1402
sg63
(lp1409
S'server_name'
p1410
asbag56
(g77
g58
NtRp1411
(dp1412
g61
(dp1413
g88
g89
ssg70
g1402
sg63
(lp1414
S':'
asbag56
(g77
g58
NtRp1415
(dp1416
g61
(dp1417
sg70
g1402
sg63
(lp1418
g56
(g57
g58
NtRp1419
(dp1420
g61
(dp1421
g69
I4
ssg70
g1415
sg63
(lp1422
S'VPCF22AJ'
p1423
asbasbasbag56
(g72
g58
NtRp1424
(dp1425
g61
(dp1426
sg70
g873
sg63
(lp1427
g56
(g77
g58
NtRp1428
(dp1429
g61
(dp1430
g81
g82
ssg70
g1424
sg63
(lp1431
S'server_port'
p1432
asbag56
(g77
g58
NtRp1433
(dp1434
g61
(dp1435
g88
g89
ssg70
g1424
sg63
(lp1436
S':'
asbag56
(g77
g58
NtRp1437
(dp1438
g61
(dp1439
sg70
g1424
sg63
(lp1440
g56
(g57
g58
NtRp1441
(dp1442
g61
(dp1443
g69
I4
ssg70
g1437
sg63
(lp1444
S'8000'
p1445
asbasbasbag56
(g72
g58
NtRp1446
(dp1447
g61
(dp1448
sg70
g873
sg63
(lp1449
g56
(g77
g58
NtRp1450
(dp1451
g61
(dp1452
g81
g82
ssg70
g1446
sg63
(lp1453
S'server_protocol'
p1454
asbag56
(g77
g58
NtRp1455
(dp1456
g61
(dp1457
g88
g89
ssg70
g1446
sg63
(lp1458
S':'
asbag56
(g77
g58
NtRp1459
(dp1460
g61
(dp1461
sg70
g1446
sg63
(lp1462
g56
(g57
g58
NtRp1463
(dp1464
g61
(dp1465
g69
I4
ssg70
g1459
sg63
(lp1466
S'HTTP/1.1'
p1467
asbasbasbag56
(g72
g58
NtRp1468
(dp1469
g61
(dp1470
sg70
g873
sg63
(lp1471
g56
(g77
g58
NtRp1472
(dp1473
g61
(dp1474
g81
g82
ssg70
g1468
sg63
(lp1475
S'server_software'
p1476
asbag56
(g77
g58
NtRp1477
(dp1478
g61
(dp1479
g88
g89
ssg70
g1468
sg63
(lp1480
S':'
asbag56
(g77
g58
NtRp1481
(dp1482
g61
(dp1483
sg70
g1468
sg63
(lp1484
g56
(g57
g58
NtRp1485
(dp1486
g61
(dp1487
g69
I4
ssg70
g1481
sg63
(lp1488
S'Rocket 1.2.4'
p1489
asbasbasbag56
(g72
g58
NtRp1490
(dp1491
g61
(dp1492
sg70
g873
sg63
(lp1493
g56
(g77
g58
NtRp1494
(dp1495
g61
(dp1496
g81
g82
ssg70
g1490
sg63
(lp1497
S'web2py_crontype'
p1498
asbag56
(g77
g58
NtRp1499
(dp1500
g61
(dp1501
g88
g89
ssg70
g1490
sg63
(lp1502
S':'
asbag56
(g77
g58
NtRp1503
(dp1504
g61
(dp1505
sg70
g1490
sg63
(lp1506
g56
(g57
g58
NtRp1507
(dp1508
g61
(dp1509
g69
I4
ssg70
g1503
sg63
(lp1510
S'hard'
p1511
asbasbasbag56
(g72
g58
NtRp1512
(dp1513
g61
(dp1514
sg70
g873
sg63
(lp1515
g56
(g77
g58
NtRp1516
(dp1517
g61
(dp1518
g81
g82
ssg70
g1512
sg63
(lp1519
S'web2py_original_uri'
p1520
asbag56
(g77
g58
NtRp1521
(dp1522
g61
(dp1523
g88
g89
ssg70
g1512
sg63
(lp1524
S':'
asbag56
(g77
g58
NtRp1525
(dp1526
g61
(dp1527
sg70
g1512
sg63
(lp1528
g56
(g57
g58
NtRp1529
(dp1530
g61
(dp1531
g69
I4
ssg70
g1525
sg63
(lp1532
g1273
asbasbasbag56
(g72
g58
NtRp1533
(dp1534
g61
(dp1535
sg70
g873
sg63
(lp1536
g56
(g77
g58
NtRp1537
(dp1538
g61
(dp1539
g81
g82
ssg70
g1533
sg63
(lp1540
S'web2py_path'
p1541
asbag56
(g77
g58
NtRp1542
(dp1543
g61
(dp1544
g88
g89
ssg70
g1533
sg63
(lp1545
S':'
asbag56
(g77
g58
NtRp1546
(dp1547
g61
(dp1548
sg70
g1533
sg63
(lp1549
g56
(g57
g58
NtRp1550
(dp1551
g61
(dp1552
g69
I4
ssg70
g1546
sg63
(lp1553
g920
asbasbasbag56
(g72
g58
NtRp1554
(dp1555
g61
(dp1556
sg70
g873
sg63
(lp1557
g56
(g77
g58
NtRp1558
(dp1559
g61
(dp1560
g81
g82
ssg70
g1554
sg63
(lp1561
S'web2py_version'
p1562
asbag56
(g77
g58
NtRp1563
(dp1564
g61
(dp1565
g88
g89
ssg70
g1554
sg63
(lp1566
S':'
asbag56
(g77
g58
NtRp1567
(dp1568
g61
(dp1569
sg70
g1554
sg63
(lp1570
g56
(g57
g58
NtRp1571
(dp1572
g61
(dp1573
g69
I4
ssg70
g1567
sg63
(lp1574
g56
(g65
g58
NtRp1575
(dp1576
g61
(dp1577
g69
I3
ssg70
Nsg63
(lp1578
g56
(g72
g58
NtRp1579
(dp1580
g61
(dp1581
sg70
g1575
sg63
(lp1582
g56
(g77
g58
NtRp1583
(dp1584
g61
(dp1585
sg70
g1579
sg63
(lp1586
g56
(g57
g58
NtRp1587
(dp1588
g61
(dp1589
g69
I3
ssg70
g1583
sg63
(lp1590
S'1'
asbasbasbag56
(g72
g58
NtRp1591
(dp1592
g61
(dp1593
sg70
g1575
sg63
(lp1594
g56
(g77
g58
NtRp1595
(dp1596
g61
(dp1597
sg70
g1591
sg63
(lp1598
g56
(g57
g58
NtRp1599
(dp1600
g61
(dp1601
g69
I3
ssg70
g1595
sg63
(lp1602
S'99'
p1603
asbasbasbag56
(g72
g58
NtRp1604
(dp1605
g61
(dp1606
sg70
g1575
sg63
(lp1607
g56
(g77
g58
NtRp1608
(dp1609
g61
(dp1610
sg70
g1604
sg63
(lp1611
g56
(g57
g58
NtRp1612
(dp1613
g61
(dp1614
g69
I3
ssg70
g1608
sg63
(lp1615
S'2'
asbasbasbag56
(g72
g58
NtRp1616
(dp1617
g61
(dp1618
sg70
g1575
sg63
(lp1619
g56
(g77
g58
NtRp1620
(dp1621
g61
(dp1622
sg70
g1616
sg63
(lp1623
g56
(g57
g58
NtRp1624
(dp1625
g61
(dp1626
g69
I3
ssg70
g1620
sg63
(lp1627
S'datetime.datetime(2011, 9, 26, 6, 55, 33)'
p1628
asbasbasbag56
(g72
g58
NtRp1629
(dp1630
g61
(dp1631
sg70
g1575
sg63
(lp1632
g56
(g77
g58
NtRp1633
(dp1634
g61
(dp1635
sg70
g1629
sg63
(lp1636
g56
(g57
g58
NtRp1637
(dp1638
g61
(dp1639
g69
I3
ssg70
g1633
sg63
(lp1640
S'stable'
p1641
asbasbasbasbasbasbasbag56
(g72
g58
NtRp1642
(dp1643
g61
(dp1644
sg70
g873
sg63
(lp1645
g56
(g77
g58
NtRp1646
(dp1647
g61
(dp1648
g81
g82
ssg70
g1642
sg63
(lp1649
S'wsgi_errors'
p1650
asbag56
(g77
g58
NtRp1651
(dp1652
g61
(dp1653
g88
g89
ssg70
g1642
sg63
(lp1654
S':'
asbag56
(g77
g58
NtRp1655
(dp1656
g61
(dp1657
sg70
g1642
sg63
(lp1658
g56
(g57
g58
NtRp1659
(dp1660
g61
(dp1661
g69
I4
ssg70
g1655
sg63
(lp1662
S"<open file '<stderr>', mode 'w' at 0x7f0d1464c1e0>"
p1663
asbasbasbag56
(g72
g58
NtRp1664
(dp1665
g61
(dp1666
sg70
g873
sg63
(lp1667
g56
(g77
g58
NtRp1668
(dp1669
g61
(dp1670
g81
g82
ssg70
g1664
sg63
(lp1671
S'wsgi_file_wrapper'
p1672
asbag56
(g77
g58
NtRp1673
(dp1674
g61
(dp1675
g88
g89
ssg70
g1664
sg63
(lp1676
S':'
asbag56
(g77
g58
NtRp1677
(dp1678
g61
(dp1679
sg70
g1664
sg63
(lp1680
g56
(g57
g58
NtRp1681
(dp1682
g61
(dp1683
g69
I4
ssg70
g1677
sg63
(lp1684
S'<class wsgiref.util.FileWrapper at 0x24c5110>'
p1685
asbasbasbag56
(g72
g58
NtRp1686
(dp1687
g61
(dp1688
sg70
g873
sg63
(lp1689
g56
(g77
g58
NtRp1690
(dp1691
g61
(dp1692
g81
g82
ssg70
g1686
sg63
(lp1693
S'wsgi_input'
p1694
asbag56
(g77
g58
NtRp1695
(dp1696
g61
(dp1697
g88
g89
ssg70
g1686
sg63
(lp1698
S':'
asbag56
(g77
g58
NtRp1699
(dp1700
g61
(dp1701
sg70
g1686
sg63
(lp1702
g56
(g57
g58
NtRp1703
(dp1704
g61
(dp1705
g69
I4
ssg70
g1699
sg63
(lp1706
S'<socket._fileobject object at 0x30c5bd0>'
p1707
asbasbasbag56
(g72
g58
NtRp1708
(dp1709
g61
(dp1710
sg70
g873
sg63
(lp1711
g56
(g77
g58
NtRp1712
(dp1713
g61
(dp1714
g81
g82
ssg70
g1708
sg63
(lp1715
S'wsgi_multiprocess'
p1716
asbag56
(g77
g58
NtRp1717
(dp1718
g61
(dp1719
g88
g89
ssg70
g1708
sg63
(lp1720
S':'
asbag56
(g77
g58
NtRp1721
(dp1722
g61
(dp1723
sg70
g1708
sg63
(lp1724
g56
(g57
g58
NtRp1725
(dp1726
g61
(dp1727
g69
I4
ssg70
g1721
sg63
(lp1728
g99
asbasbasbag56
(g72
g58
NtRp1729
(dp1730
g61
(dp1731
sg70
g873
sg63
(lp1732
g56
(g77
g58
NtRp1733
(dp1734
g61
(dp1735
g81
g82
ssg70
g1729
sg63
(lp1736
S'wsgi_multithread'
p1737
asbag56
(g77
g58
NtRp1738
(dp1739
g61
(dp1740
g88
g89
ssg70
g1729
sg63
(lp1741
S':'
asbag56
(g77
g58
NtRp1742
(dp1743
g61
(dp1744
sg70
g1729
sg63
(lp1745
g56
(g57
g58
NtRp1746
(dp1747
g61
(dp1748
g69
I4
ssg70
g1742
sg63
(lp1749
S'True'
p1750
asbasbasbag56
(g72
g58
NtRp1751
(dp1752
g61
(dp1753
sg70
g873
sg63
(lp1754
g56
(g77
g58
NtRp1755
(dp1756
g61
(dp1757
g81
g82
ssg70
g1751
sg63
(lp1758
S'wsgi_run_once'
p1759
asbag56
(g77
g58
NtRp1760
(dp1761
g61
(dp1762
g88
g89
ssg70
g1751
sg63
(lp1763
S':'
asbag56
(g77
g58
NtRp1764
(dp1765
g61
(dp1766
sg70
g1751
sg63
(lp1767
g56
(g57
g58
NtRp1768
(dp1769
g61
(dp1770
g69
I4
ssg70
g1764
sg63
(lp1771
g99
asbasbasbag56
(g72
g58
NtRp1772
(dp1773
g61
(dp1774
sg70
g873
sg63
(lp1775
g56
(g77
g58
NtRp1776
(dp1777
g61
(dp1778
g81
g82
ssg70
g1772
sg63
(lp1779
S'wsgi_url_scheme'
p1780
asbag56
(g77
g58
NtRp1781
(dp1782
g61
(dp1783
g88
g89
ssg70
g1772
sg63
(lp1784
S':'
asbag56
(g77
g58
NtRp1785
(dp1786
g61
(dp1787
sg70
g1772
sg63
(lp1788
g56
(g57
g58
NtRp1789
(dp1790
g61
(dp1791
g69
I4
ssg70
g1785
sg63
(lp1792
S'http'
p1793
asbasbasbag56
(g72
g58
NtRp1794
(dp1795
g61
(dp1796
sg70
g873
sg63
(lp1797
g56
(g77
g58
NtRp1798
(dp1799
g61
(dp1800
g81
g82
ssg70
g1794
sg63
(lp1801
S'wsgi_version'
p1802
asbag56
(g77
g58
NtRp1803
(dp1804
g61
(dp1805
g88
g89
ssg70
g1794
sg63
(lp1806
S':'
asbag56
(g77
g58
NtRp1807
(dp1808
g61
(dp1809
sg70
g1794
sg63
(lp1810
g56
(g57
g58
NtRp1811
(dp1812
g61
(dp1813
g69
I4
ssg70
g1807
sg63
(lp1814
g56
(g65
g58
NtRp1815
(dp1816
g61
(dp1817
g69
I3
ssg70
Nsg63
(lp1818
g56
(g72
g58
NtRp1819
(dp1820
g61
(dp1821
sg70
g1815
sg63
(lp1822
g56
(g77
g58
NtRp1823
(dp1824
g61
(dp1825
sg70
g1819
sg63
(lp1826
g56
(g57
g58
NtRp1827
(dp1828
g61
(dp1829
g69
I3
ssg70
g1823
sg63
(lp1830
S'1'
asbasbasbag56
(g72
g58
NtRp1831
(dp1832
g61
(dp1833
sg70
g1815
sg63
(lp1834
g56
(g77
g58
NtRp1835
(dp1836
g61
(dp1837
sg70
g1831
sg63
(lp1838
g56
(g57
g58
NtRp1839
(dp1840
g61
(dp1841
g69
I3
ssg70
g1835
sg63
(lp1842
S'0'
asbasbasbasbasbasbasbasbasbasbasbag56
(g72
g58
NtRp1843
(dp1844
g61
(dp1845
sg70
g66
sg63
(lp1846
g56
(g77
g58
NtRp1847
(dp1848
g61
(dp1849
g81
g82
ssg70
g1843
sg63
(lp1850
S'extension'
p1851
asbag56
(g77
g58
NtRp1852
(dp1853
g61
(dp1854
g88
g89
ssg70
g1843
sg63
(lp1855
S':'
asbag56
(g77
g58
NtRp1856
(dp1857
g61
(dp1858
sg70
g1843
sg63
(lp1859
g56
(g57
g58
NtRp1860
(dp1861
g61
(dp1862
g69
I5
ssg70
g1856
sg63
(lp1863
S'html'
p1864
asbasbasbag56
(g72
g58
NtRp1865
(dp1866
g61
(dp1867
sg70
g66
sg63
(lp1868
g56
(g77
g58
NtRp1869
(dp1870
g61
(dp1871
g81
g82
ssg70
g1865
sg63
(lp1872
S'folder'
p1873
asbag56
(g77
g58
NtRp1874
(dp1875
g61
(dp1876
g88
g89
ssg70
g1865
sg63
(lp1877
S':'
asbag56
(g77
g58
NtRp1878
(dp1879
g61
(dp1880
sg70
g1865
sg63
(lp1881
g56
(g57
g58
NtRp1882
(dp1883
g61
(dp1884
g69
I5
ssg70
g1878
sg63
(lp1885
S'/windows/Users/Thomas/Dropbox/appz/2011/GAE/ddl-lagoon/applications/ddlagoon/'
p1886
asbasbasbag56
(g72
g58
NtRp1887
(dp1888
g61
(dp1889
sg70
g66
sg63
(lp1890
g56
(g77
g58
NtRp1891
(dp1892
g61
(dp1893
g81
g82
ssg70
g1887
sg63
(lp1894
S'function'
p1895
asbag56
(g77
g58
NtRp1896
(dp1897
g61
(dp1898
g88
g89
ssg70
g1887
sg63
(lp1899
S':'
asbag56
(g77
g58
NtRp1900
(dp1901
g61
(dp1902
sg70
g1887
sg63
(lp1903
g56
(g57
g58
NtRp1904
(dp1905
g61
(dp1906
g69
I5
ssg70
g1900
sg63
(lp1907
S'get'
p1908
asbasbasbag56
(g72
g58
NtRp1909
(dp1910
g61
(dp1911
sg70
g66
sg63
(lp1912
g56
(g77
g58
NtRp1913
(dp1914
g61
(dp1915
g81
g82
ssg70
g1909
sg63
(lp1916
S'get_vars'
p1917
asbag56
(g77
g58
NtRp1918
(dp1919
g61
(dp1920
g88
g89
ssg70
g1909
sg63
(lp1921
S':'
asbag56
(g77
g58
NtRp1922
(dp1923
g61
(dp1924
sg70
g1909
sg63
(lp1925
g56
(g57
g58
NtRp1926
(dp1927
g61
(dp1928
g69
I5
ssg70
g1922
sg63
(lp1929
g56
(g65
g58
NtRp1930
(dp1931
g61
(dp1932
g69
I4
ssg70
Nsg63
(lp1933
sbasbasbasbag56
(g72
g58
NtRp1934
(dp1935
g61
(dp1936
sg70
g66
sg63
(lp1937
g56
(g77
g58
NtRp1938
(dp1939
g61
(dp1940
g81
g82
ssg70
g1934
sg63
(lp1941
S'global_settings'
p1942
asbag56
(g77
g58
NtRp1943
(dp1944
g61
(dp1945
g88
g89
ssg70
g1934
sg63
(lp1946
S':'
asbag56
(g77
g58
NtRp1947
(dp1948
g61
(dp1949
sg70
g1934
sg63
(lp1950
g56
(g57
g58
NtRp1951
(dp1952
g61
(dp1953
g69
I5
ssg70
g1947
sg63
(lp1954
g56
(g65
g58
NtRp1955
(dp1956
g61
(dp1957
g69
I4
ssg70
Nsg63
(lp1958
g56
(g72
g58
NtRp1959
(dp1960
g61
(dp1961
sg70
g1955
sg63
(lp1962
g56
(g77
g58
NtRp1963
(dp1964
g61
(dp1965
g81
g82
ssg70
g1959
sg63
(lp1966
g885
asbag56
(g77
g58
NtRp1967
(dp1968
g61
(dp1969
g88
g89
ssg70
g1959
sg63
(lp1970
S':'
asbag56
(g77
g58
NtRp1971
(dp1972
g61
(dp1973
sg70
g1959
sg63
(lp1974
g56
(g57
g58
NtRp1975
(dp1976
g61
(dp1977
g69
I4
ssg70
g1971
sg63
(lp1978
S"set(['/windows/Users/Thomas/Dropbox/appz/2011/GAE/ddl-lagoon/applications/ddlagoon/', '/windows/Users/Thomas/Dropbox/appz/2011/GAE/ddl-lagoon/applications/welcome/', '/windows/Users/Thomas/Dropbox/appz/2011/GAE/ddl-lagoon/applications/admin/'])"
p1979
asbasbasbag56
(g72
g58
NtRp1980
(dp1981
g61
(dp1982
sg70
g1955
sg63
(lp1983
g56
(g77
g58
NtRp1984
(dp1985
g61
(dp1986
g81
g82
ssg70
g1980
sg63
(lp1987
g907
asbag56
(g77
g58
NtRp1988
(dp1989
g61
(dp1990
g88
g89
ssg70
g1980
sg63
(lp1991
S':'
asbag56
(g77
g58
NtRp1992
(dp1993
g61
(dp1994
sg70
g1980
sg63
(lp1995
g56
(g57
g58
NtRp1996
(dp1997
g61
(dp1998
g69
I4
ssg70
g1992
sg63
(lp1999
g920
asbasbasbag56
(g72
g58
NtRp2000
(dp2001
g61
(dp2002
sg70
g1955
sg63
(lp2003
g56
(g77
g58
NtRp2004
(dp2005
g61
(dp2006
g81
g82
ssg70
g2000
sg63
(lp2007
g929
asbag56
(g77
g58
NtRp2008
(dp2009
g61
(dp2010
g88
g89
ssg70
g2000
sg63
(lp2011
S':'
asbag56
(g77
g58
NtRp2012
(dp2013
g61
(dp2014
sg70
g2000
sg63
(lp2015
g56
(g57
g58
NtRp2016
(dp2017
g61
(dp2018
g69
I4
ssg70
g2012
sg63
(lp2019
g56
(g65
g58
NtRp2020
(dp2021
g61
(dp2022
g69
I3
ssg70
Nsg63
(lp2023
sbasbasbasbag56
(g72
g58
NtRp2024
(dp2025
g61
(dp2026
sg70
g1955
sg63
(lp2027
g56
(g77
g58
NtRp2028
(dp2029
g61
(dp2030
g81
g82
ssg70
g2024
sg63
(lp2031
g954
asbag56
(g77
g58
NtRp2032
(dp2033
g61
(dp2034
g88
g89
ssg70
g2024
sg63
(lp2035
S':'
asbag56
(g77
g58
NtRp2036
(dp2037
g61
(dp2038
sg70
g2024
sg63
(lp2039
g56
(g57
g58
NtRp2040
(dp2041
g61
(dp2042
g69
I4
ssg70
g2036
sg63
(lp2043
S"<Values at 0x2569cf8: {'verbose': False, 'ip': '127.0.0.1', 'shutdown_timeout': 5, 'taskbar': False, 'nocron': False, 'pid_filename': 'httpserver.pid', 'maxthreads': None, 'softcron': False, 'server_name': 'VPCF22AJ', 'bpython': False, 'nogui': False, 'port': 8000, 'extcron': False, 'debuglevel': 30, 'test': None, 'folder': '/windows/Users/Thomas/Dropbox/appz/2011/GAE/ddl-lagoon', 'config': '', 'import_models': False, 'winservice': '', 'shell': None, 'run': '', 'log_filename': 'httpserver.log', 'args': [''], 'ssl_ca_certificate': None, 'scheduler': None, 'profiler_filename': None, 'ssl_private_key': '', 'password': 'admin', 'request_queue_size': 5, 'ssl_certificate': '', 'cronjob': False, 'plain': False, 'quiet': False, 'interfaces': None, 'minthreads': None, 'timeout': 10, 'numthreads': None, 'nobanner': False}>"
p2044
asbasbasbag56
(g72
g58
NtRp2045
(dp2046
g61
(dp2047
sg70
g1955
sg63
(lp2048
g56
(g77
g58
NtRp2049
(dp2050
g61
(dp2051
g81
g82
ssg70
g2045
sg63
(lp2052
g976
asbag56
(g77
g58
NtRp2053
(dp2054
g61
(dp2055
g88
g89
ssg70
g2045
sg63
(lp2056
S':'
asbag56
(g77
g58
NtRp2057
(dp2058
g61
(dp2059
sg70
g2045
sg63
(lp2060
g56
(g57
g58
NtRp2061
(dp2062
g61
(dp2063
g69
I4
ssg70
g2057
sg63
(lp2064
S'set([])'
p2065
asbasbasbag56
(g72
g58
NtRp2066
(dp2067
g61
(dp2068
sg70
g1955
sg63
(lp2069
g56
(g77
g58
NtRp2070
(dp2071
g61
(dp2072
g81
g82
ssg70
g2066
sg63
(lp2073
g998
asbag56
(g77
g58
NtRp2074
(dp2075
g61
(dp2076
g88
g89
ssg70
g2066
sg63
(lp2077
S':'
asbag56
(g77
g58
NtRp2078
(dp2079
g61
(dp2080
sg70
g2066
sg63
(lp2081
g56
(g57
g58
NtRp2082
(dp2083
g61
(dp2084
g69
I4
ssg70
g2078
sg63
(lp2085
g99
asbasbasbag56
(g72
g58
NtRp2086
(dp2087
g61
(dp2088
sg70
g1955
sg63
(lp2089
g56
(g77
g58
NtRp2090
(dp2091
g61
(dp2092
g81
g82
ssg70
g2086
sg63
(lp2093
g1019
asbag56
(g77
g58
NtRp2094
(dp2095
g61
(dp2096
g88
g89
ssg70
g2086
sg63
(lp2097
S':'
asbag56
(g77
g58
NtRp2098
(dp2099
g61
(dp2100
sg70
g2086
sg63
(lp2101
g56
(g57
g58
NtRp2102
(dp2103
g61
(dp2104
g69
I4
ssg70
g2098
sg63
(lp2105
g1032
asbasbasbag56
(g72
g58
NtRp2106
(dp2107
g61
(dp2108
sg70
g1955
sg63
(lp2109
g56
(g77
g58
NtRp2110
(dp2111
g61
(dp2112
g81
g82
ssg70
g2106
sg63
(lp2113
g1239
asbag56
(g77
g58
NtRp2114
(dp2115
g61
(dp2116
g88
g89
ssg70
g2106
sg63
(lp2117
S':'
asbag56
(g77
g58
NtRp2118
(dp2119
g61
(dp2120
sg70
g2106
sg63
(lp2121
g56
(g57
g58
NtRp2122
(dp2123
g61
(dp2124
g69
I4
ssg70
g2118
sg63
(lp2125
g99
asbasbasbag56
(g72
g58
NtRp2126
(dp2127
g61
(dp2128
sg70
g1955
sg63
(lp2129
g56
(g77
g58
NtRp2130
(dp2131
g61
(dp2132
g81
g82
ssg70
g2126
sg63
(lp2133
g1498
asbag56
(g77
g58
NtRp2134
(dp2135
g61
(dp2136
g88
g89
ssg70
g2126
sg63
(lp2137
S':'
asbag56
(g77
g58
NtRp2138
(dp2139
g61
(dp2140
sg70
g2126
sg63
(lp2141
g56
(g57
g58
NtRp2142
(dp2143
g61
(dp2144
g69
I4
ssg70
g2138
sg63
(lp2145
g1511
asbasbasbag56
(g72
g58
NtRp2146
(dp2147
g61
(dp2148
sg70
g1955
sg63
(lp2149
g56
(g77
g58
NtRp2150
(dp2151
g61
(dp2152
g81
g82
ssg70
g2146
sg63
(lp2153
g1562
asbag56
(g77
g58
NtRp2154
(dp2155
g61
(dp2156
g88
g89
ssg70
g2146
sg63
(lp2157
S':'
asbag56
(g77
g58
NtRp2158
(dp2159
g61
(dp2160
sg70
g2146
sg63
(lp2161
g56
(g57
g58
NtRp2162
(dp2163
g61
(dp2164
g69
I4
ssg70
g2158
sg63
(lp2165
g56
(g65
g58
NtRp2166
(dp2167
g61
(dp2168
g69
I3
ssg70
Nsg63
(lp2169
g56
(g72
g58
NtRp2170
(dp2171
g61
(dp2172
sg70
g2166
sg63
(lp2173
g56
(g77
g58
NtRp2174
(dp2175
g61
(dp2176
sg70
g2170
sg63
(lp2177
g56
(g57
g58
NtRp2178
(dp2179
g61
(dp2180
g69
I3
ssg70
g2174
sg63
(lp2181
S'1'
asbasbasbag56
(g72
g58
NtRp2182
(dp2183
g61
(dp2184
sg70
g2166
sg63
(lp2185
g56
(g77
g58
NtRp2186
(dp2187
g61
(dp2188
sg70
g2182
sg63
(lp2189
g56
(g57
g58
NtRp2190
(dp2191
g61
(dp2192
g69
I3
ssg70
g2186
sg63
(lp2193
S'99'
p2194
asbasbasbag56
(g72
g58
NtRp2195
(dp2196
g61
(dp2197
sg70
g2166
sg63
(lp2198
g56
(g77
g58
NtRp2199
(dp2200
g61
(dp2201
sg70
g2195
sg63
(lp2202
g56
(g57
g58
NtRp2203
(dp2204
g61
(dp2205
g69
I3
ssg70
g2199
sg63
(lp2206
S'2'
asbasbasbag56
(g72
g58
NtRp2207
(dp2208
g61
(dp2209
sg70
g2166
sg63
(lp2210
g56
(g77
g58
NtRp2211
(dp2212
g61
(dp2213
sg70
g2207
sg63
(lp2214
g56
(g57
g58
NtRp2215
(dp2216
g61
(dp2217
g69
I3
ssg70
g2211
sg63
(lp2218
S'datetime.datetime(2011, 9, 26, 6, 55, 33)'
p2219
asbasbasbag56
(g72
g58
NtRp2220
(dp2221
g61
(dp2222
sg70
g2166
sg63
(lp2223
g56
(g77
g58
NtRp2224
(dp2225
g61
(dp2226
sg70
g2220
sg63
(lp2227
g56
(g57
g58
NtRp2228
(dp2229
g61
(dp2230
g69
I3
ssg70
g2224
sg63
(lp2231
g1641
asbasbasbasbasbasbasbasbasbasbasbag56
(g72
g58
NtRp2232
(dp2233
g61
(dp2234
sg70
g66
sg63
(lp2235
g56
(g77
g58
NtRp2236
(dp2237
g61
(dp2238
g81
g82
ssg70
g2232
sg63
(lp2239
S'is_https'
p2240
asbag56
(g77
g58
NtRp2241
(dp2242
g61
(dp2243
g88
g89
ssg70
g2232
sg63
(lp2244
S':'
asbag56
(g77
g58
NtRp2245
(dp2246
g61
(dp2247
sg70
g2232
sg63
(lp2248
g56
(g57
g58
NtRp2249
(dp2250
g61
(dp2251
g69
I5
ssg70
g2245
sg63
(lp2252
g99
asbasbasbag56
(g72
g58
NtRp2253
(dp2254
g61
(dp2255
sg70
g66
sg63
(lp2256
g56
(g77
g58
NtRp2257
(dp2258
g61
(dp2259
g81
g82
ssg70
g2253
sg63
(lp2260
S'is_local'
p2261
asbag56
(g77
g58
NtRp2262
(dp2263
g61
(dp2264
g88
g89
ssg70
g2253
sg63
(lp2265
S':'
asbag56
(g77
g58
NtRp2266
(dp2267
g61
(dp2268
sg70
g2253
sg63
(lp2269
g56
(g57
g58
NtRp2270
(dp2271
g61
(dp2272
g69
I5
ssg70
g2266
sg63
(lp2273
g1750
asbasbasbag56
(g72
g58
NtRp2274
(dp2275
g61
(dp2276
sg70
g66
sg63
(lp2277
g56
(g77
g58
NtRp2278
(dp2279
g61
(dp2280
g81
g82
ssg70
g2274
sg63
(lp2281
S'is_restful'
p2282
asbag56
(g77
g58
NtRp2283
(dp2284
g61
(dp2285
g88
g89
ssg70
g2274
sg63
(lp2286
S':'
asbag56
(g77
g58
NtRp2287
(dp2288
g61
(dp2289
sg70
g2274
sg63
(lp2290
g56
(g57
g58
NtRp2291
(dp2292
g61
(dp2293
g69
I5
ssg70
g2287
sg63
(lp2294
g99
asbasbasbag56
(g72
g58
NtRp2295
(dp2296
g61
(dp2297
sg70
g66
sg63
(lp2298
g56
(g77
g58
NtRp2299
(dp2300
g61
(dp2301
g81
g82
ssg70
g2295
sg63
(lp2302
S'now'
p2303
asbag56
(g77
g58
NtRp2304
(dp2305
g61
(dp2306
g88
g89
ssg70
g2295
sg63
(lp2307
S':'
asbag56
(g77
g58
NtRp2308
(dp2309
g61
(dp2310
sg70
g2295
sg63
(lp2311
g56
(g57
g58
NtRp2312
(dp2313
g61
(dp2314
g69
I5
ssg70
g2308
sg63
(lp2315
S'datetime.datetime(2011, 10, 27, 11, 33, 22, 370667)'
p2316
asbasbasbag56
(g72
g58
NtRp2317
(dp2318
g61
(dp2319
sg70
g66
sg63
(lp2320
g56
(g77
g58
NtRp2321
(dp2322
g61
(dp2323
g81
g82
ssg70
g2317
sg63
(lp2324
S'post_vars'
p2325
asbag56
(g77
g58
NtRp2326
(dp2327
g61
(dp2328
g88
g89
ssg70
g2317
sg63
(lp2329
S':'
asbag56
(g77
g58
NtRp2330
(dp2331
g61
(dp2332
sg70
g2317
sg63
(lp2333
g56
(g57
g58
NtRp2334
(dp2335
g61
(dp2336
g69
I5
ssg70
g2330
sg63
(lp2337
g56
(g65
g58
NtRp2338
(dp2339
g61
(dp2340
g69
I4
ssg70
Nsg63
(lp2341
sbasbasbasbag56
(g72
g58
NtRp2342
(dp2343
g61
(dp2344
sg70
g66
sg63
(lp2345
g56
(g77
g58
NtRp2346
(dp2347
g61
(dp2348
g81
g82
ssg70
g2342
sg63
(lp2349
S'raw_args'
p2350
asbag56
(g77
g58
NtRp2351
(dp2352
g61
(dp2353
g88
g89
ssg70
g2342
sg63
(lp2354
S':'
asbag56
(g77
g58
NtRp2355
(dp2356
g61
(dp2357
sg70
g2342
sg63
(lp2358
g56
(g57
g58
NtRp2359
(dp2360
g61
(dp2361
g69
I5
ssg70
g2355
sg63
(lp2362
S'run/ddl/14/The_Thing_2011_TS_XviD_READNFO___MiSTERE.avi'
p2363
asbasbasbag56
(g72
g58
NtRp2364
(dp2365
g61
(dp2366
sg70
g66
sg63
(lp2367
g56
(g77
g58
NtRp2368
(dp2369
g61
(dp2370
g81
g82
ssg70
g2364
sg63
(lp2371
S'url'
p2372
asbag56
(g77
g58
NtRp2373
(dp2374
g61
(dp2375
g88
g89
ssg70
g2364
sg63
(lp2376
S':'
asbag56
(g77
g58
NtRp2377
(dp2378
g61
(dp2379
sg70
g2364
sg63
(lp2380
g56
(g57
g58
NtRp2381
(dp2382
g61
(dp2383
g69
I5
ssg70
g2377
sg63
(lp2384
S'/ddlagoon/ddl/get/run/ddl/14/The_Thing_2011_TS_XviD_READNFO___MiSTERE.avi'
p2385
asbasbasbag56
(g72
g58
NtRp2386
(dp2387
g61
(dp2388
sg70
g66
sg63
(lp2389
g56
(g77
g58
NtRp2390
(dp2391
g61
(dp2392
g81
g82
ssg70
g2386
sg63
(lp2393
S'utcnow'
p2394
asbag56
(g77
g58
NtRp2395
(dp2396
g61
(dp2397
g88
g89
ssg70
g2386
sg63
(lp2398
S':'
asbag56
(g77
g58
NtRp2399
(dp2400
g61
(dp2401
sg70
g2386
sg63
(lp2402
g56
(g57
g58
NtRp2403
(dp2404
g61
(dp2405
g69
I5
ssg70
g2399
sg63
(lp2406
S'datetime.datetime(2011, 10, 27, 10, 33, 22, 370708)'
p2407
asbasbasbag56
(g72
g58
NtRp2408
(dp2409
g61
(dp2410
sg70
g66
sg63
(lp2411
g56
(g77
g58
NtRp2412
(dp2413
g61
(dp2414
g81
g82
ssg70
g2408
sg63
(lp2415
S'uuid'
p2416
asbag56
(g77
g58
NtRp2417
(dp2418
g61
(dp2419
g88
g89
ssg70
g2408
sg63
(lp2420
S':'
asbag56
(g77
g58
NtRp2421
(dp2422
g61
(dp2423
sg70
g2408
sg63
(lp2424
g56
(g57
g58
NtRp2425
(dp2426
g61
(dp2427
g69
I5
ssg70
g2421
sg63
(lp2428
S'ddlagoon/127.0.0.1.2011-10-27.11-33-22.7d624697-6951-4c9a-a717-38a331233bf0'
p2429
asbasbasbag56
(g72
g58
NtRp2430
(dp2431
g61
(dp2432
sg70
g66
sg63
(lp2433
g56
(g77
g58
NtRp2434
(dp2435
g61
(dp2436
g81
g82
ssg70
g2430
sg63
(lp2437
S'vars'
p2438
asbag56
(g77
g58
NtRp2439
(dp2440
g61
(dp2441
g88
g89
ssg70
g2430
sg63
(lp2442
S':'
asbag56
(g77
g58
NtRp2443
(dp2444
g61
(dp2445
sg70
g2430
sg63
(lp2446
g56
(g57
g58
NtRp2447
(dp2448
g61
(dp2449
g69
I5
ssg70
g2443
sg63
(lp2450
g56
(g65
g58
NtRp2451
(dp2452
g61
(dp2453
g69
I4
ssg70
Nsg63
(lp2454
sbasbasbasbag56
(g72
g58
NtRp2455
(dp2456
g61
(dp2457
sg70
g66
sg63
(lp2458
g56
(g77
g58
NtRp2459
(dp2460
g61
(dp2461
g81
g82
ssg70
g2455
sg63
(lp2462
S'wsgi'
p2463
asbag56
(g77
g58
NtRp2464
(dp2465
g61
(dp2466
g88
g89
ssg70
g2455
sg63
(lp2467
S':'
asbag56
(g77
g58
NtRp2468
(dp2469
g61
(dp2470
sg70
g2455
sg63
(lp2471
g56
(g57
g58
NtRp2472
(dp2473
g61
(dp2474
g69
I5
ssg70
g2468
sg63
(lp2475
g56
(g65
g58
NtRp2476
(dp2477
g61
(dp2478
g69
I4
ssg70
Nsg63
(lp2479
g56
(g72
g58
NtRp2480
(dp2481
g61
(dp2482
sg70
g2476
sg63
(lp2483
g56
(g77
g58
NtRp2484
(dp2485
g61
(dp2486
g81
g82
ssg70
g2480
sg63
(lp2487
S'environ'
p2488
asbag56
(g77
g58
NtRp2489
(dp2490
g61
(dp2491
g88
g89
ssg70
g2480
sg63
(lp2492
S':'
asbag56
(g77
g58
NtRp2493
(dp2494
g61
(dp2495
sg70
g2480
sg63
(lp2496
g56
(g57
g58
NtRp2497
(dp2498
g61
(dp2499
g69
I4
ssg70
g2493
sg63
(lp2500
g56
(g65
g58
NtRp2501
(dp2502
g61
(dp2503
g69
I3
ssg70
Nsg63
(lp2504
g56
(g72
g58
NtRp2505
(dp2506
g61
(dp2507
sg70
g2501
sg63
(lp2508
g56
(g77
g58
NtRp2509
(dp2510
g61
(dp2511
g81
g82
ssg70
g2505
sg63
(lp2512
S'HTTP_ACCEPT'
p2513
asbag56
(g77
g58
NtRp2514
(dp2515
g61
(dp2516
g88
g89
ssg70
g2505
sg63
(lp2517
S':'
asbag56
(g77
g58
NtRp2518
(dp2519
g61
(dp2520
sg70
g2505
sg63
(lp2521
g56
(g57
g58
NtRp2522
(dp2523
g61
(dp2524
g69
I3
ssg70
g2518
sg63
(lp2525
g1054
asbasbasbag56
(g72
g58
NtRp2526
(dp2527
g61
(dp2528
sg70
g2501
sg63
(lp2529
g56
(g77
g58
NtRp2530
(dp2531
g61
(dp2532
g81
g82
ssg70
g2526
sg63
(lp2533
S'HTTP_ACCEPT_CHARSET'
p2534
asbag56
(g77
g58
NtRp2535
(dp2536
g61
(dp2537
g88
g89
ssg70
g2526
sg63
(lp2538
S':'
asbag56
(g77
g58
NtRp2539
(dp2540
g61
(dp2541
sg70
g2526
sg63
(lp2542
g56
(g57
g58
NtRp2543
(dp2544
g61
(dp2545
g69
I3
ssg70
g2539
sg63
(lp2546
g1076
asbasbasbag56
(g72
g58
NtRp2547
(dp2548
g61
(dp2549
sg70
g2501
sg63
(lp2550
g56
(g77
g58
NtRp2551
(dp2552
g61
(dp2553
g81
g82
ssg70
g2547
sg63
(lp2554
S'HTTP_ACCEPT_ENCODING'
p2555
asbag56
(g77
g58
NtRp2556
(dp2557
g61
(dp2558
g88
g89
ssg70
g2547
sg63
(lp2559
S':'
asbag56
(g77
g58
NtRp2560
(dp2561
g61
(dp2562
sg70
g2547
sg63
(lp2563
g56
(g57
g58
NtRp2564
(dp2565
g61
(dp2566
g69
I3
ssg70
g2560
sg63
(lp2567
g1098
asbasbasbag56
(g72
g58
NtRp2568
(dp2569
g61
(dp2570
sg70
g2501
sg63
(lp2571
g56
(g77
g58
NtRp2572
(dp2573
g61
(dp2574
g81
g82
ssg70
g2568
sg63
(lp2575
S'HTTP_ACCEPT_LANGUAGE'
p2576
asbag56
(g77
g58
NtRp2577
(dp2578
g61
(dp2579
g88
g89
ssg70
g2568
sg63
(lp2580
S':'
asbag56
(g77
g58
NtRp2581
(dp2582
g61
(dp2583
sg70
g2568
sg63
(lp2584
g56
(g57
g58
NtRp2585
(dp2586
g61
(dp2587
g69
I3
ssg70
g2581
sg63
(lp2588
g1120
asbasbasbag56
(g72
g58
NtRp2589
(dp2590
g61
(dp2591
sg70
g2501
sg63
(lp2592
g56
(g77
g58
NtRp2593
(dp2594
g61
(dp2595
g81
g82
ssg70
g2589
sg63
(lp2596
S'HTTP_CACHE_CONTROL'
p2597
asbag56
(g77
g58
NtRp2598
(dp2599
g61
(dp2600
g88
g89
ssg70
g2589
sg63
(lp2601
S':'
asbag56
(g77
g58
NtRp2602
(dp2603
g61
(dp2604
sg70
g2589
sg63
(lp2605
g56
(g57
g58
NtRp2606
(dp2607
g61
(dp2608
g69
I3
ssg70
g2602
sg63
(lp2609
g1142
asbasbasbag56
(g72
g58
NtRp2610
(dp2611
g61
(dp2612
sg70
g2501
sg63
(lp2613
g56
(g77
g58
NtRp2614
(dp2615
g61
(dp2616
g81
g82
ssg70
g2610
sg63
(lp2617
S'HTTP_CONNECTION'
p2618
asbag56
(g77
g58
NtRp2619
(dp2620
g61
(dp2621
g88
g89
ssg70
g2610
sg63
(lp2622
S':'
asbag56
(g77
g58
NtRp2623
(dp2624
g61
(dp2625
sg70
g2610
sg63
(lp2626
g56
(g57
g58
NtRp2627
(dp2628
g61
(dp2629
g69
I3
ssg70
g2623
sg63
(lp2630
g1164
asbasbasbag56
(g72
g58
NtRp2631
(dp2632
g61
(dp2633
sg70
g2501
sg63
(lp2634
g56
(g77
g58
NtRp2635
(dp2636
g61
(dp2637
g81
g82
ssg70
g2631
sg63
(lp2638
S'HTTP_COOKIE'
p2639
asbag56
(g77
g58
NtRp2640
(dp2641
g61
(dp2642
g88
g89
ssg70
g2631
sg63
(lp2643
S':'
asbag56
(g77
g58
NtRp2644
(dp2645
g61
(dp2646
sg70
g2631
sg63
(lp2647
g56
(g57
g58
NtRp2648
(dp2649
g61
(dp2650
g69
I3
ssg70
g2644
sg63
(lp2651
g1186
asbasbasbag56
(g72
g58
NtRp2652
(dp2653
g61
(dp2654
sg70
g2501
sg63
(lp2655
g56
(g77
g58
NtRp2656
(dp2657
g61
(dp2658
g81
g82
ssg70
g2652
sg63
(lp2659
S'HTTP_HOST'
p2660
asbag56
(g77
g58
NtRp2661
(dp2662
g61
(dp2663
g88
g89
ssg70
g2652
sg63
(lp2664
S':'
asbag56
(g77
g58
NtRp2665
(dp2666
g61
(dp2667
sg70
g2652
sg63
(lp2668
g56
(g57
g58
NtRp2669
(dp2670
g61
(dp2671
g69
I3
ssg70
g2665
sg63
(lp2672
g1208
asbasbasbag56
(g72
g58
NtRp2673
(dp2674
g61
(dp2675
sg70
g2501
sg63
(lp2676
g56
(g77
g58
NtRp2677
(dp2678
g61
(dp2679
g81
g82
ssg70
g2673
sg63
(lp2680
S'HTTP_USER_AGENT'
p2681
asbag56
(g77
g58
NtRp2682
(dp2683
g61
(dp2684
g88
g89
ssg70
g2673
sg63
(lp2685
S':'
asbag56
(g77
g58
NtRp2686
(dp2687
g61
(dp2688
sg70
g2673
sg63
(lp2689
g56
(g57
g58
NtRp2690
(dp2691
g61
(dp2692
g69
I3
ssg70
g2686
sg63
(lp2693
g1230
asbasbasbag56
(g72
g58
NtRp2694
(dp2695
g61
(dp2696
sg70
g2501
sg63
(lp2697
g56
(g77
g58
NtRp2698
(dp2699
g61
(dp2700
g81
g82
ssg70
g2694
sg63
(lp2701
S'PATH_INFO'
p2702
asbag56
(g77
g58
NtRp2703
(dp2704
g61
(dp2705
g88
g89
ssg70
g2694
sg63
(lp2706
S':'
asbag56
(g77
g58
NtRp2707
(dp2708
g61
(dp2709
sg70
g2694
sg63
(lp2710
g56
(g57
g58
NtRp2711
(dp2712
g61
(dp2713
g69
I3
ssg70
g2707
sg63
(lp2714
g1273
asbasbasbag56
(g72
g58
NtRp2715
(dp2716
g61
(dp2717
sg70
g2501
sg63
(lp2718
g56
(g77
g58
NtRp2719
(dp2720
g61
(dp2721
g81
g82
ssg70
g2715
sg63
(lp2722
S'QUERY_STRING'
p2723
asbag56
(g77
g58
NtRp2724
(dp2725
g61
(dp2726
g88
g89
ssg70
g2715
sg63
(lp2727
S':'
asbag56
(g77
g58
NtRp2728
(dp2729
g61
(dp2730
sg70
g2715
sg63
(lp2731
g56
(g57
g58
NtRp2732
(dp2733
g61
(dp2734
g69
I3
ssg70
g2728
sg63
(lp2735
S''
asbasbasbag56
(g72
g58
NtRp2736
(dp2737
g61
(dp2738
sg70
g2501
sg63
(lp2739
g56
(g77
g58
NtRp2740
(dp2741
g61
(dp2742
g81
g82
ssg70
g2736
sg63
(lp2743
S'REMOTE_ADDR'
p2744
asbag56
(g77
g58
NtRp2745
(dp2746
g61
(dp2747
g88
g89
ssg70
g2736
sg63
(lp2748
S':'
asbag56
(g77
g58
NtRp2749
(dp2750
g61
(dp2751
sg70
g2736
sg63
(lp2752
g56
(g57
g58
NtRp2753
(dp2754
g61
(dp2755
g69
I3
ssg70
g2749
sg63
(lp2756
g241
asbasbasbag56
(g72
g58
NtRp2757
(dp2758
g61
(dp2759
sg70
g2501
sg63
(lp2760
g56
(g77
g58
NtRp2761
(dp2762
g61
(dp2763
g81
g82
ssg70
g2757
sg63
(lp2764
S'REMOTE_PORT'
p2765
asbag56
(g77
g58
NtRp2766
(dp2767
g61
(dp2768
g88
g89
ssg70
g2757
sg63
(lp2769
S':'
asbag56
(g77
g58
NtRp2770
(dp2771
g61
(dp2772
sg70
g2757
sg63
(lp2773
g56
(g57
g58
NtRp2774
(dp2775
g61
(dp2776
g69
I3
ssg70
g2770
sg63
(lp2777
g1337
asbasbasbag56
(g72
g58
NtRp2778
(dp2779
g61
(dp2780
sg70
g2501
sg63
(lp2781
g56
(g77
g58
NtRp2782
(dp2783
g61
(dp2784
g81
g82
ssg70
g2778
sg63
(lp2785
S'REQUEST_METHOD'
p2786
asbag56
(g77
g58
NtRp2787
(dp2788
g61
(dp2789
g88
g89
ssg70
g2778
sg63
(lp2790
S':'
asbag56
(g77
g58
NtRp2791
(dp2792
g61
(dp2793
sg70
g2778
sg63
(lp2794
g56
(g57
g58
NtRp2795
(dp2796
g61
(dp2797
g69
I3
ssg70
g2791
sg63
(lp2798
g1359
asbasbasbag56
(g72
g58
NtRp2799
(dp2800
g61
(dp2801
sg70
g2501
sg63
(lp2802
g56
(g77
g58
NtRp2803
(dp2804
g61
(dp2805
g81
g82
ssg70
g2799
sg63
(lp2806
S'REQUEST_URI'
p2807
asbag56
(g77
g58
NtRp2808
(dp2809
g61
(dp2810
g88
g89
ssg70
g2799
sg63
(lp2811
S':'
asbag56
(g77
g58
NtRp2812
(dp2813
g61
(dp2814
sg70
g2799
sg63
(lp2815
g56
(g57
g58
NtRp2816
(dp2817
g61
(dp2818
g69
I3
ssg70
g2812
sg63
(lp2819
g1273
asbasbasbag56
(g72
g58
NtRp2820
(dp2821
g61
(dp2822
sg70
g2501
sg63
(lp2823
g56
(g77
g58
NtRp2824
(dp2825
g61
(dp2826
g81
g82
ssg70
g2820
sg63
(lp2827
S'SCRIPT_NAME'
p2828
asbag56
(g77
g58
NtRp2829
(dp2830
g61
(dp2831
g88
g89
ssg70
g2820
sg63
(lp2832
S':'
asbag56
(g77
g58
NtRp2833
(dp2834
g61
(dp2835
sg70
g2820
sg63
(lp2836
g56
(g57
g58
NtRp2837
(dp2838
g61
(dp2839
g69
I3
ssg70
g2833
sg63
(lp2840
S''
asbasbasbag56
(g72
g58
NtRp2841
(dp2842
g61
(dp2843
sg70
g2501
sg63
(lp2844
g56
(g77
g58
NtRp2845
(dp2846
g61
(dp2847
g81
g82
ssg70
g2841
sg63
(lp2848
S'SERVER_NAME'
p2849
asbag56
(g77
g58
NtRp2850
(dp2851
g61
(dp2852
g88
g89
ssg70
g2841
sg63
(lp2853
S':'
asbag56
(g77
g58
NtRp2854
(dp2855
g61
(dp2856
sg70
g2841
sg63
(lp2857
g56
(g57
g58
NtRp2858
(dp2859
g61
(dp2860
g69
I3
ssg70
g2854
sg63
(lp2861
g1423
asbasbasbag56
(g72
g58
NtRp2862
(dp2863
g61
(dp2864
sg70
g2501
sg63
(lp2865
g56
(g77
g58
NtRp2866
(dp2867
g61
(dp2868
g81
g82
ssg70
g2862
sg63
(lp2869
S'SERVER_PORT'
p2870
asbag56
(g77
g58
NtRp2871
(dp2872
g61
(dp2873
g88
g89
ssg70
g2862
sg63
(lp2874
S':'
asbag56
(g77
g58
NtRp2875
(dp2876
g61
(dp2877
sg70
g2862
sg63
(lp2878
g56
(g57
g58
NtRp2879
(dp2880
g61
(dp2881
g69
I3
ssg70
g2875
sg63
(lp2882
g1445
asbasbasbag56
(g72
g58
NtRp2883
(dp2884
g61
(dp2885
sg70
g2501
sg63
(lp2886
g56
(g77
g58
NtRp2887
(dp2888
g61
(dp2889
g81
g82
ssg70
g2883
sg63
(lp2890
S'SERVER_PROTOCOL'
p2891
asbag56
(g77
g58
NtRp2892
(dp2893
g61
(dp2894
g88
g89
ssg70
g2883
sg63
(lp2895
S':'
asbag56
(g77
g58
NtRp2896
(dp2897
g61
(dp2898
sg70
g2883
sg63
(lp2899
g56
(g57
g58
NtRp2900
(dp2901
g61
(dp2902
g69
I3
ssg70
g2896
sg63
(lp2903
g1467
asbasbasbag56
(g72
g58
NtRp2904
(dp2905
g61
(dp2906
sg70
g2501
sg63
(lp2907
g56
(g77
g58
NtRp2908
(dp2909
g61
(dp2910
g81
g82
ssg70
g2904
sg63
(lp2911
S'SERVER_SOFTWARE'
p2912
asbag56
(g77
g58
NtRp2913
(dp2914
g61
(dp2915
g88
g89
ssg70
g2904
sg63
(lp2916
S':'
asbag56
(g77
g58
NtRp2917
(dp2918
g61
(dp2919
sg70
g2904
sg63
(lp2920
g56
(g57
g58
NtRp2921
(dp2922
g61
(dp2923
g69
I3
ssg70
g2917
sg63
(lp2924
g1489
asbasbasbag56
(g72
g58
NtRp2925
(dp2926
g61
(dp2927
sg70
g2501
sg63
(lp2928
g56
(g77
g58
NtRp2929
(dp2930
g61
(dp2931
g81
g82
ssg70
g2925
sg63
(lp2932
S'WEB2PY_ORIGINAL_URI'
p2933
asbag56
(g77
g58
NtRp2934
(dp2935
g61
(dp2936
g88
g89
ssg70
g2925
sg63
(lp2937
S':'
asbag56
(g77
g58
NtRp2938
(dp2939
g61
(dp2940
sg70
g2925
sg63
(lp2941
g56
(g57
g58
NtRp2942
(dp2943
g61
(dp2944
g69
I3
ssg70
g2938
sg63
(lp2945
g1273
asbasbasbag56
(g72
g58
NtRp2946
(dp2947
g61
(dp2948
sg70
g2501
sg63
(lp2949
g56
(g77
g58
NtRp2950
(dp2951
g61
(dp2952
g81
g82
ssg70
g2946
sg63
(lp2953
S'wsgi.errors'
p2954
asbag56
(g77
g58
NtRp2955
(dp2956
g61
(dp2957
g88
g89
ssg70
g2946
sg63
(lp2958
S':'
asbag56
(g77
g58
NtRp2959
(dp2960
g61
(dp2961
sg70
g2946
sg63
(lp2962
g56
(g57
g58
NtRp2963
(dp2964
g61
(dp2965
g69
I3
ssg70
g2959
sg63
(lp2966
S"<open file '<stderr>', mode 'w' at 0x7f0d1464c1e0>"
p2967
asbasbasbag56
(g72
g58
NtRp2968
(dp2969
g61
(dp2970
sg70
g2501
sg63
(lp2971
g56
(g77
g58
NtRp2972
(dp2973
g61
(dp2974
g81
g82
ssg70
g2968
sg63
(lp2975
S'wsgi.file_wrapper'
p2976
asbag56
(g77
g58
NtRp2977
(dp2978
g61
(dp2979
g88
g89
ssg70
g2968
sg63
(lp2980
S':'
asbag56
(g77
g58
NtRp2981
(dp2982
g61
(dp2983
sg70
g2968
sg63
(lp2984
g56
(g57
g58
NtRp2985
(dp2986
g61
(dp2987
g69
I3
ssg70
g2981
sg63
(lp2988
S'<class wsgiref.util.FileWrapper at 0x24c5110>'
p2989
asbasbasbag56
(g72
g58
NtRp2990
(dp2991
g61
(dp2992
sg70
g2501
sg63
(lp2993
g56
(g77
g58
NtRp2994
(dp2995
g61
(dp2996
g81
g82
ssg70
g2990
sg63
(lp2997
S'wsgi.input'
p2998
asbag56
(g77
g58
NtRp2999
(dp3000
g61
(dp3001
g88
g89
ssg70
g2990
sg63
(lp3002
S':'
asbag56
(g77
g58
NtRp3003
(dp3004
g61
(dp3005
sg70
g2990
sg63
(lp3006
g56
(g57
g58
NtRp3007
(dp3008
g61
(dp3009
g69
I3
ssg70
g3003
sg63
(lp3010
S'<cStringIO.StringO object at 0x27b4998>'
p3011
asbasbasbag56
(g72
g58
NtRp3012
(dp3013
g61
(dp3014
sg70
g2501
sg63
(lp3015
g56
(g77
g58
NtRp3016
(dp3017
g61
(dp3018
g81
g82
ssg70
g3012
sg63
(lp3019
S'wsgi.multiprocess'
p3020
asbag56
(g77
g58
NtRp3021
(dp3022
g61
(dp3023
g88
g89
ssg70
g3012
sg63
(lp3024
S':'
asbag56
(g77
g58
NtRp3025
(dp3026
g61
(dp3027
sg70
g3012
sg63
(lp3028
g56
(g57
g58
NtRp3029
(dp3030
g61
(dp3031
g69
I3
ssg70
g3025
sg63
(lp3032
g99
asbasbasbag56
(g72
g58
NtRp3033
(dp3034
g61
(dp3035
sg70
g2501
sg63
(lp3036
g56
(g77
g58
NtRp3037
(dp3038
g61
(dp3039
g81
g82
ssg70
g3033
sg63
(lp3040
S'wsgi.multithread'
p3041
asbag56
(g77
g58
NtRp3042
(dp3043
g61
(dp3044
g88
g89
ssg70
g3033
sg63
(lp3045
S':'
asbag56
(g77
g58
NtRp3046
(dp3047
g61
(dp3048
sg70
g3033
sg63
(lp3049
g56
(g57
g58
NtRp3050
(dp3051
g61
(dp3052
g69
I3
ssg70
g3046
sg63
(lp3053
g1750
asbasbasbag56
(g72
g58
NtRp3054
(dp3055
g61
(dp3056
sg70
g2501
sg63
(lp3057
g56
(g77
g58
NtRp3058
(dp3059
g61
(dp3060
g81
g82
ssg70
g3054
sg63
(lp3061
S'wsgi.run_once'
p3062
asbag56
(g77
g58
NtRp3063
(dp3064
g61
(dp3065
g88
g89
ssg70
g3054
sg63
(lp3066
S':'
asbag56
(g77
g58
NtRp3067
(dp3068
g61
(dp3069
sg70
g3054
sg63
(lp3070
g56
(g57
g58
NtRp3071
(dp3072
g61
(dp3073
g69
I3
ssg70
g3067
sg63
(lp3074
g99
asbasbasbag56
(g72
g58
NtRp3075
(dp3076
g61
(dp3077
sg70
g2501
sg63
(lp3078
g56
(g77
g58
NtRp3079
(dp3080
g61
(dp3081
g81
g82
ssg70
g3075
sg63
(lp3082
S'wsgi.url_scheme'
p3083
asbag56
(g77
g58
NtRp3084
(dp3085
g61
(dp3086
g88
g89
ssg70
g3075
sg63
(lp3087
S':'
asbag56
(g77
g58
NtRp3088
(dp3089
g61
(dp3090
sg70
g3075
sg63
(lp3091
g56
(g57
g58
NtRp3092
(dp3093
g61
(dp3094
g69
I3
ssg70
g3088
sg63
(lp3095
g1793
asbasbasbag56
(g72
g58
NtRp3096
(dp3097
g61
(dp3098
sg70
g2501
sg63
(lp3099
g56
(g77
g58
NtRp3100
(dp3101
g61
(dp3102
g81
g82
ssg70
g3096
sg63
(lp3103
S'wsgi.version'
p3104
asbag56
(g77
g58
NtRp3105
(dp3106
g61
(dp3107
g88
g89
ssg70
g3096
sg63
(lp3108
S':'
asbag56
(g77
g58
NtRp3109
(dp3110
g61
(dp3111
sg70
g3096
sg63
(lp3112
g56
(g57
g58
NtRp3113
(dp3114
g61
(dp3115
g69
I3
ssg70
g3109
sg63
(lp3116
S'1'
asbasbasbasbasbasbasbasbasbasbasbasbasbsS'frames'
p3117
(lp3118
(dp3119
S'file'
p3120
S'/windows/Users/Thomas/Dropbox/appz/2011/GAE/ddl-lagoon/gluon/restricted.py'
p3121
sS'dump'
p3122
(dp3123
S'environment'
p3124
S"{'A': <class 'gluon.html.A'>, 'Auth': <class 'gluon.tools.Auth'>, 'B': <class 'gluon.html.B'>, 'BEAUTIFY': <class 'gluon.html.BEAUTIFY'>, 'BODY': <class 'gluon.html.BODY'>, 'BR': <class 'gluon.html.BR'>, 'BUTTON': <class 'gluon.html.BUTTON'>, 'CAT': <class 'gluon.html.CAT'>, 'CENTER': <class 'gluon.html.CENTER'>, 'CLEANUP': <class 'gluon.validators.CLEANUP'>, ...}"
p3125
sS'ccode'
p3126
S'<code object <module> at 0x30f2d50, file "/windo...pplications/ddlagoon/controllers/ddl.py", line 1>'
p3127
ssS'lnum'
p3128
I194
sS'lines'
p3129
(dp3130
I192
S'        else:'
p3131
sI193
S'            ccode = compile2(code,layer)'
p3132
sI194
S'        exec ccode in environment'
p3133
sI195
S'    except HTTP:'
p3134
sI196
S'        raise'
p3135
sI197
S'    except Exception, error:'
p3136
sI198
S'        # XXX Show exception in Wing IDE if running in debugger'
p3137
sI189
S'    try:'
p3138
sI190
S'        if type(code) == types.CodeType:'
p3139
sI191
S'            ccode = code'
p3140
ssS'call'
p3141
S"(code='import tempfile\\nfrom time import mktime\\n\\nif Fals...lFile.name)\\nresponse._vars=response._caller(get)\\n', environment={'A': <class 'gluon.html.A'>, 'Auth': <class 'gluon.tools.Auth'>, 'B': <class 'gluon.html.B'>, 'BEAUTIFY': <class 'gluon.html.BEAUTIFY'>, 'BODY': <class 'gluon.html.BODY'>, 'BR': <class 'gluon.html.BR'>, 'BUTTON': <class 'gluon.html.BUTTON'>, 'CAT': <class 'gluon.html.CAT'>, 'CENTER': <class 'gluon.html.CENTER'>, 'CLEANUP': <class 'gluon.validators.CLEANUP'>, ...}, layer='/windows/Users/Thomas/Dropbox/appz/2011/GAE/ddl-lagoon/applications/ddlagoon/controllers/ddl.py')"
p3142
sS'func'
p3143
S'restricted'
p3144
sa(dp3145
g3120
S'/windows/Users/Thomas/Dropbox/appz/2011/GAE/ddl-lagoon/applications/ddlagoon/controllers/ddl.py'
p3146
sg3122
(dp3147
sg3128
I46
sg3129
(dp3148
I36
S'        ddlJson = json.dumps(ddl, sort_keys=True, indent=4)'
p3149
sI37
S'        # temp file'
p3150
sI38
S'        ddlFile = tempfile.NamedTemporaryFile()'
p3151
sI39
S'        with open(ddlFile.name, "wb") as myFile:'
p3152
sI40
S'            myFile.write(ddlJson)'
p3153
sI41
S"        #response.headers['Content-Type'] = 'application/ddl'"
p3154
sI42
S"        #response.headers['Content-Disposition'] = 'attachment; filename=test.ddl'"
p3155
sI43
S'        #return response.stream(ddlFile, request=request)'
p3156
sI44
S'        request.args[0] = ddlFile.name'
p3157
sI45
S'        return response.download(ddlFile, ddlFile.name)'
p3158
ssg3141
S'()'
p3159
sg3143
S'<module>'
p3160
sa(dp3161
g3120
S'/windows/Users/Thomas/Dropbox/appz/2011/GAE/ddl-lagoon/gluon/globals.py'
p3162
sg3122
(dp3163
S'self'
p3164
S'undefined'
p3165
sS'f'
S'<function get>'
p3166
ssg3128
I149
sg3129
(dp3167
I144
S'        self.meta = Storage()      # used by web2py_ajax.html'
p3168
sI145
S'        self.menu = []             # used by the default view layout'
p3169
sI146
S'        self.files = []            # used by web2py_ajax.html'
p3170
sI147
S'        self.generic_patterns = [] # patterns to allow generic views'
p3171
sI148
S'        self._vars = None'
p3172
sI149
S'        self._caller = lambda f: f()'
p3173
sI150
S'        self._view_environment = None'
p3174
sI151
S'        self._custom_commit = None'
p3175
sI152
S'        self._custom_rollback = None'
p3176
sI153
S''
ssg3141
S'(f=<function get>)'
p3177
sg3143
S'<lambda>'
p3178
sa(dp3179
g3120
S'/windows/Users/Thomas/Dropbox/appz/2011/GAE/ddl-lagoon/applications/ddlagoon/controllers/ddl.py'
p3180
sg3122
(dp3181
S'global service'
p3182
S'<gluon.tools.Service object>'
p3183
ssg3128
I14
sg3129
(dp3184
I9
S'from gluon.contrib import simplejson as json'
p3185
sI10
S''
sI11
S"__author__ = 'thomas'"
p3186
sI12
S''
sI13
S'def get():'
p3187
sI14
S'    return service()'
p3188
sI15
S''
sI16
S'@service.xml'
p3189
sI17
S'def ddl(id="", filename=""):'
p3190
sI18
S'    # find the record'
p3191
ssg3141
S'()'
p3192
sg3143
S'get'
p3193
sa(dp3194
g3120
S'/windows/Users/Thomas/Dropbox/appz/2011/GAE/ddl-lagoon/gluon/tools.py'
p3195
sg3122
(dp3196
S'request.args'
p3197
S"['/tmp/tmpWyxgsG', 'ddl', '14', 'The_Thing_2011_TS_XviD_READNFO___MiSTERE.avi']"
p3198
sS'self.serve_run'
p3199
S'<bound method Service.serve_run of <gluon.tools.Service object>>'
p3200
sS'self'
p3201
S'<gluon.tools.Service object>'
p3202
sS'request'
p3203
S"<Storage {'body': <cStringIO.StringO object at 0..._vars': <Storage {}>, 'post_vars': <Storage {}>}>"
p3204
ssg3128
I3834
sg3129
(dp3205
I3829
S'        request = current.request'
p3206
sI3830
S'        if len(request.args) < 1:'
p3207
sI3831
S'            raise HTTP(404, "Not Found")'
p3208
sI3832
S'        arg0 = request.args(0)'
p3209
sI3833
S"        if arg0 == 'run':"
p3210
sI3834
S'            return self.serve_run(request.args[1:])'
p3211
sI3835
S"        elif arg0 == 'rss':"
p3212
sI3836
S'            return self.serve_rss(request.args[1:])'
p3213
sI3837
S"        elif arg0 == 'csv':"
p3214
sI3838
S'            return self.serve_csv(request.args[1:])'
p3215
ssg3141
S'(self=<gluon.tools.Service object>)'
p3216
sg3143
S'__call__'
p3217
sa(dp3218
g3120
S'/windows/Users/Thomas/Dropbox/appz/2011/GAE/ddl-lagoon/gluon/tools.py'
p3219
sg3122
(dp3220
S'request.vars'
p3221
S'<Storage {}>'
p3222
sS'args'
p3223
S"['ddl', '14', 'The_Thing_2011_TS_XviD_READNFO___MiSTERE.avi']"
p3224
sS'request'
p3225
S"<Storage {'body': <cStringIO.StringO object at 0..._vars': <Storage {}>, 'post_vars': <Storage {}>}>"
p3226
sS'builtindict'
p3227
S"<type 'dict'>"
p3228
ssg3128
I3585
sg3129
(dp3229
I3584
S'            return str(universal_caller(self.run_procedures[args[0]],'
p3230
sI3585
S'                                        *args[1:], **dict(request.vars)))'
p3231
sI3586
S'        self.error()'
p3232
sI3587
S''
sI3588
S'    def serve_csv(self, args=None):'
p3233
sI3589
S'        request = current.request'
p3234
sI3580
S'        request = current.request'
p3235
sI3581
S'        if not args:'
p3236
sI3582
S'            args = request.args'
p3237
sI3583
S'        if args and args[0] in self.run_procedures:'
p3238
ssg3141
S"(self=<gluon.tools.Service object>, args=['ddl', '14', 'The_Thing_2011_TS_XviD_READNFO___MiSTERE.avi'])"
p3239
sg3143
S'serve_run'
p3240
sa(dp3241
g3120
S'/windows/Users/Thomas/Dropbox/appz/2011/GAE/ddl-lagoon/gluon/tools.py'
p3242
sg3122
(dp3243
S'arg_dict'
p3244
S"{'filename': 'The_Thing_2011_TS_XviD_READNFO___MiSTERE.avi', 'id': '14'}"
p3245
sS'f'
S'<function ddl>'
p3246
ssg3128
I3351
sg3129
(dp3247
I3346
S'        # However, we need to update the arg_dict with the values from the named arguments as well.'
p3248
sI3347
S'        for arg_name in named_args:'
p3249
sI3348
S'            if b.has_key(arg_name):'
p3250
sI3349
S'                arg_dict[arg_name] = b[arg_name]'
p3251
sI3350
S''
sI3351
S'        return f(**arg_dict)'
p3252
sI3352
S''
sI3353
S'    # Raise an error, the function cannot be called.'
p3253
sI3354
S'    raise HTTP(404, "Object does not exist")'
p3254
sI3355
S''
ssg3141
S"(f=<function ddl>, *a=('14', 'The_Thing_2011_TS_XviD_READNFO___MiSTERE.avi'), **b={})"
p3255
sg3143
S'universal_caller'
p3256
sa(dp3257
g3120
S'/windows/Users/Thomas/Dropbox/appz/2011/GAE/ddl-lagoon/applications/ddlagoon/controllers/ddl.py'
p3258
sg3122
(dp3259
S'ddlFile'
p3260
S"<open file '<fdopen>', mode 'w+b'>"
p3261
sS'response.download'
p3262
S"<bound method Response.download of <Storage {'st...x2dfd1b8>, 'files': [], 'view': 'ddl/get.html'}>>"
p3263
sS'global response'
p3264
S"<Storage {'status': 200, 'body': <cStringIO.Stri...0x2dfd1b8>, 'files': [], 'view': 'ddl/get.html'}>"
p3265
sS'ddlFile.name'
p3266
S"'/tmp/tmpWyxgsG'"
p3267
ssg3128
I45
sg3129
(dp3268
I36
S'        ddlJson = json.dumps(ddl, sort_keys=True, indent=4)'
p3269
sI37
S'        # temp file'
p3270
sI38
S'        ddlFile = tempfile.NamedTemporaryFile()'
p3271
sI39
S'        with open(ddlFile.name, "wb") as myFile:'
p3272
sI40
S'            myFile.write(ddlJson)'
p3273
sI41
S"        #response.headers['Content-Type'] = 'application/ddl'"
p3274
sI42
S"        #response.headers['Content-Disposition'] = 'attachment; filename=test.ddl'"
p3275
sI43
S'        #return response.stream(ddlFile, request=request)'
p3276
sI44
S'        request.args[0] = ddlFile.name'
p3277
sI45
S'        return response.download(ddlFile, ddlFile.name)'
p3278
ssg3141
S"(id='14', filename='The_Thing_2011_TS_XviD_READNFO___MiSTERE.avi')"
p3279
sg3143
S'ddl'
p3280
sa(dp3281
g3120
S'/windows/Users/Thomas/Dropbox/appz/2011/GAE/ddl-lagoon/gluon/globals.py'
p3282
sg3122
(dp3283
S'request.args'
p3284
g3165
sS'request'
p3285
S"<open file '<fdopen>', mode 'w+b'>"
p3286
ssg3128
I258
sg3129
(dp3287
I256
S''
sI257
S'        import contenttype as c'
p3288
sI258
S'        if not request.args:'
p3289
sI259
S'            raise HTTP(404)'
p3290
sI260
S'        name = request.args[-1]'
p3291
sI261
S"        items = re.compile('(?P<table>.*?)\\.(?P<field>.*?)\\..*')\\"
p3292
sI262
S'                           .match(name)'
p3293
sI253
S''
sI254
S'        downloads from http://..../download/filename'
p3294
sI255
S'        """'
p3295
ssg3141
S"(self=<Storage {'status': 200, 'body': <cStringIO.Stri...0x2dfd1b8>, 'files': [], 'view': 'ddl/get.html'}>, request=<open file '<fdopen>', mode 'w+b'>, db='/tmp/tmpWyxgsG', chunk_size=65536, attachment=True)"
p3296
sg3143
S'download'
p3297
sa(dp3298
g3120
S'/usr/lib/python2.6/tempfile.py'
p3299
sg3122
(dp3300
S'a'
g3165
sS'builtingetattr'
p3301
S'<built-in function getattr>'
p3302
sS'name'
p3303
S"'args'"
p3304
sS'file'
p3305
S"<open file '<fdopen>', mode 'w+b'>"
p3306
ssg3128
I376
sg3129
(dp3307
I371
S'    def __getattr__(self, name):'
p3308
sI372
S'        # Attribute lookups are delegated to the underlying file'
p3309
sI373
S'        # and cached for non-numeric results'
p3310
sI374
S'        # (i.e. methods are cached, closed and friends are not)'
p3311
sI375
S"        file = self.__dict__['file']"
p3312
sI376
S'        a = getattr(file, name)'
p3313
sI377
S'        if not issubclass(type(a), type(0)):'
p3314
sI378
S'            setattr(self, name, a)'
p3315
sI379
S'        return a'
p3316
sI380
S''
ssg3141
S"(self=<open file '<fdopen>', mode 'w+b'>, name='args')"
p3317
sg3143
S'__getattr__'
p3318
sasS'pyver'
p3319
S'Python 2.6.7: /usr/bin/python2.6'
p3320
sS'session'
p3321
g56
(g57
g58
NtRp3322
(dp3323
g61
(dp3324
sg63
(lp3325
g56
(g65
g58
NtRp3326
(dp3327
g61
(dp3328
g69
I5
ssg70
Nsg63
(lp3329
sbasbsS'etype'
p3330
S"<type 'exceptions.AttributeError'>"
p3331
sS'date'
p3332
S'Thu Oct 27 11:33:22 2011'
p3333
sS'response'
p3334
g56
(g57
g58
NtRp3335
(dp3336
g61
(dp3337
sg63
(lp3338
g56
(g65
g58
NtRp3339
(dp3340
g61
(dp3341
g69
I5
ssg70
Nsg63
(lp3342
g56
(g72
g58
NtRp3343
(dp3344
g61
(dp3345
sg70
g3339
sg63
(lp3346
g56
(g77
g58
NtRp3347
(dp3348
g61
(dp3349
g81
g82
ssg70
g3343
sg63
(lp3350
g206
asbag56
(g77
g58
NtRp3351
(dp3352
g61
(dp3353
g88
g89
ssg70
g3343
sg63
(lp3354
S':'
asbag56
(g77
g58
NtRp3355
(dp3356
g61
(dp3357
sg70
g3343
sg63
(lp3358
g56
(g57
g58
NtRp3359
(dp3360
g61
(dp3361
g69
I5
ssg70
g3355
sg63
(lp3362
S'<cStringIO.StringO object at 0x35723e8>'
p3363
asbasbasbag56
(g72
g58
NtRp3364
(dp3365
g61
(dp3366
sg70
g3339
sg63
(lp3367
g56
(g77
g58
NtRp3368
(dp3369
g61
(dp3370
g81
g82
ssg70
g3364
sg63
(lp3371
g272
asbag56
(g77
g58
NtRp3372
(dp3373
g61
(dp3374
g88
g89
ssg70
g3364
sg63
(lp3375
S':'
asbag56
(g77
g58
NtRp3376
(dp3377
g61
(dp3378
sg70
g3364
sg63
(lp3379
g56
(g57
g58
NtRp3380
(dp3381
g61
(dp3382
g69
I5
ssg70
g3376
sg63
(lp3383
g56
(g65
g58
NtRp3384
(dp3385
g61
(dp3386
g69
I4
ssg70
Nsg63
(lp3387
g56
(g72
g58
NtRp3388
(dp3389
g61
(dp3390
sg70
g3384
sg63
(lp3391
g56
(g77
g58
NtRp3392
(dp3393
g61
(dp3394
g81
g82
ssg70
g3388
sg63
(lp3395
S'session_id_ddlagoon'
p3396
asbag56
(g77
g58
NtRp3397
(dp3398
g61
(dp3399
g88
g89
ssg70
g3388
sg63
(lp3400
S':'
asbag56
(g77
g58
NtRp3401
(dp3402
g61
(dp3403
sg70
g3388
sg63
(lp3404
g56
(g57
g58
NtRp3405
(dp3406
g61
(dp3407
g69
I4
ssg70
g3401
sg63
(lp3408
g56
(g65
g58
NtRp3409
(dp3410
g61
(dp3411
g69
I3
ssg70
Nsg63
(lp3412
g56
(g72
g58
NtRp3413
(dp3414
g61
(dp3415
sg70
g3409
sg63
(lp3416
g56
(g77
g58
NtRp3417
(dp3418
g61
(dp3419
g81
g82
ssg70
g3413
sg63
(lp3420
g322
asbag56
(g77
g58
NtRp3421
(dp3422
g61
(dp3423
g88
g89
ssg70
g3413
sg63
(lp3424
S':'
asbag56
(g77
g58
NtRp3425
(dp3426
g61
(dp3427
sg70
g3413
sg63
(lp3428
g56
(g57
g58
NtRp3429
(dp3430
g61
(dp3431
g69
I3
ssg70
g3425
sg63
(lp3432
S''
asbasbasbag56
(g72
g58
NtRp3433
(dp3434
g61
(dp3435
sg70
g3409
sg63
(lp3436
g56
(g77
g58
NtRp3437
(dp3438
g61
(dp3439
g81
g82
ssg70
g3433
sg63
(lp3440
g343
asbag56
(g77
g58
NtRp3441
(dp3442
g61
(dp3443
g88
g89
ssg70
g3433
sg63
(lp3444
S':'
asbag56
(g77
g58
NtRp3445
(dp3446
g61
(dp3447
sg70
g3433
sg63
(lp3448
g56
(g57
g58
NtRp3449
(dp3450
g61
(dp3451
g69
I3
ssg70
g3445
sg63
(lp3452
S''
asbasbasbag56
(g72
g58
NtRp3453
(dp3454
g61
(dp3455
sg70
g3409
sg63
(lp3456
g56
(g77
g58
NtRp3457
(dp3458
g61
(dp3459
g81
g82
ssg70
g3453
sg63
(lp3460
g364
asbag56
(g77
g58
NtRp3461
(dp3462
g61
(dp3463
g88
g89
ssg70
g3453
sg63
(lp3464
S':'
asbag56
(g77
g58
NtRp3465
(dp3466
g61
(dp3467
sg70
g3453
sg63
(lp3468
g56
(g57
g58
NtRp3469
(dp3470
g61
(dp3471
g69
I3
ssg70
g3465
sg63
(lp3472
S''
asbasbasbag56
(g72
g58
NtRp3473
(dp3474
g61
(dp3475
sg70
g3409
sg63
(lp3476
g56
(g77
g58
NtRp3477
(dp3478
g61
(dp3479
g81
g82
ssg70
g3473
sg63
(lp3480
g385
asbag56
(g77
g58
NtRp3481
(dp3482
g61
(dp3483
g88
g89
ssg70
g3473
sg63
(lp3484
S':'
asbag56
(g77
g58
NtRp3485
(dp3486
g61
(dp3487
sg70
g3473
sg63
(lp3488
g56
(g57
g58
NtRp3489
(dp3490
g61
(dp3491
g69
I3
ssg70
g3485
sg63
(lp3492
S''
asbasbasbag56
(g72
g58
NtRp3493
(dp3494
g61
(dp3495
sg70
g3409
sg63
(lp3496
g56
(g77
g58
NtRp3497
(dp3498
g61
(dp3499
g81
g82
ssg70
g3493
sg63
(lp3500
g406
asbag56
(g77
g58
NtRp3501
(dp3502
g61
(dp3503
g88
g89
ssg70
g3493
sg63
(lp3504
S':'
asbag56
(g77
g58
NtRp3505
(dp3506
g61
(dp3507
sg70
g3493
sg63
(lp3508
g56
(g57
g58
NtRp3509
(dp3510
g61
(dp3511
g69
I3
ssg70
g3505
sg63
(lp3512
S''
asbasbasbag56
(g72
g58
NtRp3513
(dp3514
g61
(dp3515
sg70
g3409
sg63
(lp3516
g56
(g77
g58
NtRp3517
(dp3518
g61
(dp3519
g81
g82
ssg70
g3513
sg63
(lp3520
g427
asbag56
(g77
g58
NtRp3521
(dp3522
g61
(dp3523
g88
g89
ssg70
g3513
sg63
(lp3524
S':'
asbag56
(g77
g58
NtRp3525
(dp3526
g61
(dp3527
sg70
g3513
sg63
(lp3528
g56
(g57
g58
NtRp3529
(dp3530
g61
(dp3531
g69
I3
ssg70
g3525
sg63
(lp3532
S'/'
asbasbasbag56
(g72
g58
NtRp3533
(dp3534
g61
(dp3535
sg70
g3409
sg63
(lp3536
g56
(g77
g58
NtRp3537
(dp3538
g61
(dp3539
g81
g82
ssg70
g3533
sg63
(lp3540
g448
asbag56
(g77
g58
NtRp3541
(dp3542
g61
(dp3543
g88
g89
ssg70
g3533
sg63
(lp3544
S':'
asbag56
(g77
g58
NtRp3545
(dp3546
g61
(dp3547
sg70
g3533
sg63
(lp3548
g56
(g57
g58
NtRp3549
(dp3550
g61
(dp3551
g69
I3
ssg70
g3545
sg63
(lp3552
S''
asbasbasbag56
(g72
g58
NtRp3553
(dp3554
g61
(dp3555
sg70
g3409
sg63
(lp3556
g56
(g77
g58
NtRp3557
(dp3558
g61
(dp3559
g81
g82
ssg70
g3553
sg63
(lp3560
g469
asbag56
(g77
g58
NtRp3561
(dp3562
g61
(dp3563
g88
g89
ssg70
g3553
sg63
(lp3564
S':'
asbag56
(g77
g58
NtRp3565
(dp3566
g61
(dp3567
sg70
g3553
sg63
(lp3568
g56
(g57
g58
NtRp3569
(dp3570
g61
(dp3571
g69
I3
ssg70
g3565
sg63
(lp3572
S''
asbasbasbasbasbasbasbasbasbasbasbag56
(g72
g58
NtRp3573
(dp3574
g61
(dp3575
sg70
g3339
sg63
(lp3576
g56
(g77
g58
NtRp3577
(dp3578
g61
(dp3579
g81
g82
ssg70
g3573
sg63
(lp3580
S'files'
p3581
asbag56
(g77
g58
NtRp3582
(dp3583
g61
(dp3584
g88
g89
ssg70
g3573
sg63
(lp3585
S':'
asbag56
(g77
g58
NtRp3586
(dp3587
g61
(dp3588
sg70
g3573
sg63
(lp3589
g56
(g57
g58
NtRp3590
(dp3591
g61
(dp3592
g69
I5
ssg70
g3586
sg63
(lp3593
g56
(g65
g58
NtRp3594
(dp3595
g61
(dp3596
g69
I4
ssg70
Nsg63
(lp3597
sbasbasbasbag56
(g72
g58
NtRp3598
(dp3599
g61
(dp3600
sg70
g3339
sg63
(lp3601
g56
(g77
g58
NtRp3602
(dp3603
g61
(dp3604
g81
g82
ssg70
g3598
sg63
(lp3605
S'flash'
p3606
asbag56
(g77
g58
NtRp3607
(dp3608
g61
(dp3609
g88
g89
ssg70
g3598
sg63
(lp3610
S':'
asbag56
(g77
g58
NtRp3611
(dp3612
g61
(dp3613
sg70
g3598
sg63
(lp3614
g56
(g57
g58
NtRp3615
(dp3616
g61
(dp3617
g69
I5
ssg70
g3611
sg63
(lp3618
S''
asbasbasbag56
(g72
g58
NtRp3619
(dp3620
g61
(dp3621
sg70
g3339
sg63
(lp3622
g56
(g77
g58
NtRp3623
(dp3624
g61
(dp3625
g81
g82
ssg70
g3619
sg63
(lp3626
S'generic_patterns'
p3627
asbag56
(g77
g58
NtRp3628
(dp3629
g61
(dp3630
g88
g89
ssg70
g3619
sg63
(lp3631
S':'
asbag56
(g77
g58
NtRp3632
(dp3633
g61
(dp3634
sg70
g3619
sg63
(lp3635
g56
(g57
g58
NtRp3636
(dp3637
g61
(dp3638
g69
I5
ssg70
g3632
sg63
(lp3639
g56
(g65
g58
NtRp3640
(dp3641
g61
(dp3642
g69
I4
ssg70
Nsg63
(lp3643
g56
(g72
g58
NtRp3644
(dp3645
g61
(dp3646
sg70
g3640
sg63
(lp3647
g56
(g77
g58
NtRp3648
(dp3649
g61
(dp3650
sg70
g3644
sg63
(lp3651
g56
(g57
g58
NtRp3652
(dp3653
g61
(dp3654
g69
I4
ssg70
g3648
sg63
(lp3655
S'*'
asbasbasbasbasbasbasbag56
(g72
g58
NtRp3656
(dp3657
g61
(dp3658
sg70
g3339
sg63
(lp3659
g56
(g77
g58
NtRp3660
(dp3661
g61
(dp3662
g81
g82
ssg70
g3656
sg63
(lp3663
S'headers'
p3664
asbag56
(g77
g58
NtRp3665
(dp3666
g61
(dp3667
g88
g89
ssg70
g3656
sg63
(lp3668
S':'
asbag56
(g77
g58
NtRp3669
(dp3670
g61
(dp3671
sg70
g3656
sg63
(lp3672
g56
(g57
g58
NtRp3673
(dp3674
g61
(dp3675
g69
I5
ssg70
g3669
sg63
(lp3676
g56
(g65
g58
NtRp3677
(dp3678
g61
(dp3679
g69
I4
ssg70
Nsg63
(lp3680
g56
(g72
g58
NtRp3681
(dp3682
g61
(dp3683
sg70
g3677
sg63
(lp3684
g56
(g77
g58
NtRp3685
(dp3686
g61
(dp3687
g81
g82
ssg70
g3681
sg63
(lp3688
S'Cache-Control'
p3689
asbag56
(g77
g58
NtRp3690
(dp3691
g61
(dp3692
g88
g89
ssg70
g3681
sg63
(lp3693
S':'
asbag56
(g77
g58
NtRp3694
(dp3695
g61
(dp3696
sg70
g3681
sg63
(lp3697
g56
(g57
g58
NtRp3698
(dp3699
g61
(dp3700
g69
I4
ssg70
g3694
sg63
(lp3701
S'no-store, no-cache, must-revalidate, post-check=0, pre-check=0'
p3702
asbasbasbag56
(g72
g58
NtRp3703
(dp3704
g61
(dp3705
sg70
g3677
sg63
(lp3706
g56
(g77
g58
NtRp3707
(dp3708
g61
(dp3709
g81
g82
ssg70
g3703
sg63
(lp3710
S'Content-Type'
p3711
asbag56
(g77
g58
NtRp3712
(dp3713
g61
(dp3714
g88
g89
ssg70
g3703
sg63
(lp3715
S':'
asbag56
(g77
g58
NtRp3716
(dp3717
g61
(dp3718
sg70
g3703
sg63
(lp3719
g56
(g57
g58
NtRp3720
(dp3721
g61
(dp3722
g69
I4
ssg70
g3716
sg63
(lp3723
S'text/html; charset=utf-8'
p3724
asbasbasbag56
(g72
g58
NtRp3725
(dp3726
g61
(dp3727
sg70
g3677
sg63
(lp3728
g56
(g77
g58
NtRp3729
(dp3730
g61
(dp3731
g81
g82
ssg70
g3725
sg63
(lp3732
S'Expires'
p3733
asbag56
(g77
g58
NtRp3734
(dp3735
g61
(dp3736
g88
g89
ssg70
g3725
sg63
(lp3737
S':'
asbag56
(g77
g58
NtRp3738
(dp3739
g61
(dp3740
sg70
g3725
sg63
(lp3741
g56
(g57
g58
NtRp3742
(dp3743
g61
(dp3744
g69
I4
ssg70
g3738
sg63
(lp3745
S'Thu, 27 Oct 2011 10:33:22 GMT'
p3746
asbasbasbag56
(g72
g58
NtRp3747
(dp3748
g61
(dp3749
sg70
g3677
sg63
(lp3750
g56
(g77
g58
NtRp3751
(dp3752
g61
(dp3753
g81
g82
ssg70
g3747
sg63
(lp3754
S'Pragma'
p3755
asbag56
(g77
g58
NtRp3756
(dp3757
g61
(dp3758
g88
g89
ssg70
g3747
sg63
(lp3759
S':'
asbag56
(g77
g58
NtRp3760
(dp3761
g61
(dp3762
sg70
g3747
sg63
(lp3763
g56
(g57
g58
NtRp3764
(dp3765
g61
(dp3766
g69
I4
ssg70
g3760
sg63
(lp3767
S'no-cache'
p3768
asbasbasbag56
(g72
g58
NtRp3769
(dp3770
g61
(dp3771
sg70
g3677
sg63
(lp3772
g56
(g77
g58
NtRp3773
(dp3774
g61
(dp3775
g81
g82
ssg70
g3769
sg63
(lp3776
S'X-Powered-By'
p3777
asbag56
(g77
g58
NtRp3778
(dp3779
g61
(dp3780
g88
g89
ssg70
g3769
sg63
(lp3781
S':'
asbag56
(g77
g58
NtRp3782
(dp3783
g61
(dp3784
sg70
g3769
sg63
(lp3785
g56
(g57
g58
NtRp3786
(dp3787
g61
(dp3788
g69
I4
ssg70
g3782
sg63
(lp3789
S'web2py'
p3790
asbasbasbasbasbasbasbag56
(g72
g58
NtRp3791
(dp3792
g61
(dp3793
sg70
g3339
sg63
(lp3794
g56
(g77
g58
NtRp3795
(dp3796
g61
(dp3797
g81
g82
ssg70
g3791
sg63
(lp3798
S'menu'
p3799
asbag56
(g77
g58
NtRp3800
(dp3801
g61
(dp3802
g88
g89
ssg70
g3791
sg63
(lp3803
S':'
asbag56
(g77
g58
NtRp3804
(dp3805
g61
(dp3806
sg70
g3791
sg63
(lp3807
g56
(g57
g58
NtRp3808
(dp3809
g61
(dp3810
g69
I5
ssg70
g3804
sg63
(lp3811
g56
(g65
g58
NtRp3812
(dp3813
g61
(dp3814
g69
I4
ssg70
Nsg63
(lp3815
g56
(g72
g58
NtRp3816
(dp3817
g61
(dp3818
sg70
g3812
sg63
(lp3819
g56
(g77
g58
NtRp3820
(dp3821
g61
(dp3822
sg70
g3816
sg63
(lp3823
g56
(g57
g58
NtRp3824
(dp3825
g61
(dp3826
g69
I4
ssg70
g3820
sg63
(lp3827
g56
(g65
g58
NtRp3828
(dp3829
g61
(dp3830
g69
I3
ssg70
Nsg63
(lp3831
g56
(g72
g58
NtRp3832
(dp3833
g61
(dp3834
sg70
g3828
sg63
(lp3835
g56
(g77
g58
NtRp3836
(dp3837
g61
(dp3838
sg70
g3832
sg63
(lp3839
g56
(g57
g58
NtRp3840
(dp3841
g61
(dp3842
g69
I3
ssg70
g3836
sg63
(lp3843
cgluon.languages
lazyT_unpickle
p3844
(S's\x04\x00\x00\x00Home'
tRp3845
asbasbasbag56
(g72
g58
NtRp3846
(dp3847
g61
(dp3848
sg70
g3828
sg63
(lp3849
g56
(g77
g58
NtRp3850
(dp3851
g61
(dp3852
sg70
g3846
sg63
(lp3853
g56
(g57
g58
NtRp3854
(dp3855
g61
(dp3856
g69
I3
ssg70
g3850
sg63
(lp3857
g99
asbasbasbag56
(g72
g58
NtRp3858
(dp3859
g61
(dp3860
sg70
g3828
sg63
(lp3861
g56
(g77
g58
NtRp3862
(dp3863
g61
(dp3864
sg70
g3858
sg63
(lp3865
g56
(g57
g58
NtRp3866
(dp3867
g61
(dp3868
g69
I3
ssg70
g3862
sg63
(lp3869
S'/ddlagoon/default/index'
p3870
asbasbasbag56
(g72
g58
NtRp3871
(dp3872
g61
(dp3873
sg70
g3828
sg63
(lp3874
g56
(g77
g58
NtRp3875
(dp3876
g61
(dp3877
sg70
g3871
sg63
(lp3878
g56
(g57
g58
NtRp3879
(dp3880
g61
(dp3881
g69
I3
ssg70
g3875
sg63
(lp3882
g56
(g65
g58
NtRp3883
(dp3884
g61
(dp3885
g69
I2
ssg70
Nsg63
(lp3886
sbasbasbasbasbasbasbasbag56
(g72
g58
NtRp3887
(dp3888
g61
(dp3889
sg70
g3812
sg63
(lp3890
g56
(g77
g58
NtRp3891
(dp3892
g61
(dp3893
sg70
g3887
sg63
(lp3894
g56
(g57
g58
NtRp3895
(dp3896
g61
(dp3897
g69
I4
ssg70
g3891
sg63
(lp3898
g56
(g65
g58
NtRp3899
(dp3900
g61
(dp3901
g69
I3
ssg70
Nsg63
(lp3902
g56
(g72
g58
NtRp3903
(dp3904
g61
(dp3905
sg70
g3899
sg63
(lp3906
g56
(g77
g58
NtRp3907
(dp3908
g61
(dp3909
sg70
g3903
sg63
(lp3910
g56
(g57
g58
NtRp3911
(dp3912
g61
(dp3913
g69
I3
ssg70
g3907
sg63
(lp3914
g3844
(S's\x08\x00\x00\x00This App'
tRp3915
asbasbasbag56
(g72
g58
NtRp3916
(dp3917
g61
(dp3918
sg70
g3899
sg63
(lp3919
g56
(g77
g58
NtRp3920
(dp3921
g61
(dp3922
sg70
g3916
sg63
(lp3923
g56
(g57
g58
NtRp3924
(dp3925
g61
(dp3926
g69
I3
ssg70
g3920
sg63
(lp3927
g99
asbasbasbag56
(g72
g58
NtRp3928
(dp3929
g61
(dp3930
sg70
g3899
sg63
(lp3931
g56
(g77
g58
NtRp3932
(dp3933
g61
(dp3934
sg70
g3928
sg63
(lp3935
g56
(g57
g58
NtRp3936
(dp3937
g61
(dp3938
g69
I3
ssg70
g3932
sg63
(lp3939
S'/admin/default/design/ddlagoon'
p3940
asbasbasbag56
(g72
g58
NtRp3941
(dp3942
g61
(dp3943
sg70
g3899
sg63
(lp3944
g56
(g77
g58
NtRp3945
(dp3946
g61
(dp3947
sg70
g3941
sg63
(lp3948
g56
(g57
g58
NtRp3949
(dp3950
g61
(dp3951
g69
I3
ssg70
g3945
sg63
(lp3952
g56
(g65
g58
NtRp3953
(dp3954
g61
(dp3955
g69
I2
ssg70
Nsg63
(lp3956
g56
(g72
g58
NtRp3957
(dp3958
g61
(dp3959
sg70
g3953
sg63
(lp3960
g56
(g77
g58
NtRp3961
(dp3962
g61
(dp3963
sg70
g3957
sg63
(lp3964
g56
(g57
g58
NtRp3965
(dp3966
g61
(dp3967
g69
I2
ssg70
g3961
sg63
(lp3968
g56
(g65
g58
NtRp3969
(dp3970
g61
(dp3971
g69
I1
ssg70
Nsg63
(lp3972
g56
(g72
g58
NtRp3973
(dp3974
g61
(dp3975
sg70
g3969
sg63
(lp3976
g56
(g77
g58
NtRp3977
(dp3978
g61
(dp3979
sg70
g3973
sg63
(lp3980
g56
(g57
g58
NtRp3981
(dp3982
g61
(dp3983
g69
I1
ssg70
g3977
sg63
(lp3984
g3844
(S's\n\x00\x00\x00Controller'
tRp3985
asbasbasbag56
(g72
g58
NtRp3986
(dp3987
g61
(dp3988
sg70
g3969
sg63
(lp3989
g56
(g77
g58
NtRp3990
(dp3991
g61
(dp3992
sg70
g3986
sg63
(lp3993
g56
(g57
g58
NtRp3994
(dp3995
g61
(dp3996
g69
I1
ssg70
g3990
sg63
(lp3997
I00
asbasbasbag56
(g72
g58
NtRp3998
(dp3999
g61
(dp4000
sg70
g3969
sg63
(lp4001
g56
(g77
g58
NtRp4002
(dp4003
g61
(dp4004
sg70
g3998
sg63
(lp4005
g56
(g57
g58
NtRp4006
(dp4007
g61
(dp4008
g69
I1
ssg70
g4002
sg63
(lp4009
S'/admin/default/edit/ddlagoon/controllers/ddl.py'
p4010
asbasbasbasbasbasbasbag56
(g72
g58
NtRp4011
(dp4012
g61
(dp4013
sg70
g3953
sg63
(lp4014
g56
(g77
g58
NtRp4015
(dp4016
g61
(dp4017
sg70
g4011
sg63
(lp4018
g56
(g57
g58
NtRp4019
(dp4020
g61
(dp4021
g69
I2
ssg70
g4015
sg63
(lp4022
g56
(g65
g58
NtRp4023
(dp4024
g61
(dp4025
g69
I1
ssg70
Nsg63
(lp4026
g56
(g72
g58
NtRp4027
(dp4028
g61
(dp4029
sg70
g4023
sg63
(lp4030
g56
(g77
g58
NtRp4031
(dp4032
g61
(dp4033
sg70
g4027
sg63
(lp4034
g56
(g57
g58
NtRp4035
(dp4036
g61
(dp4037
g69
I1
ssg70
g4031
sg63
(lp4038
g3844
(S's\x04\x00\x00\x00View'
tRp4039
asbasbasbag56
(g72
g58
NtRp4040
(dp4041
g61
(dp4042
sg70
g4023
sg63
(lp4043
g56
(g77
g58
NtRp4044
(dp4045
g61
(dp4046
sg70
g4040
sg63
(lp4047
g56
(g57
g58
NtRp4048
(dp4049
g61
(dp4050
g69
I1
ssg70
g4044
sg63
(lp4051
I00
asbasbasbag56
(g72
g58
NtRp4052
(dp4053
g61
(dp4054
sg70
g4023
sg63
(lp4055
g56
(g77
g58
NtRp4056
(dp4057
g61
(dp4058
sg70
g4052
sg63
(lp4059
g56
(g57
g58
NtRp4060
(dp4061
g61
(dp4062
g69
I1
ssg70
g4056
sg63
(lp4063
S'/admin/default/edit/ddlagoon/views/ddl/get.html'
p4064
asbasbasbasbasbasbasbag56
(g72
g58
NtRp4065
(dp4066
g61
(dp4067
sg70
g3953
sg63
(lp4068
g56
(g77
g58
NtRp4069
(dp4070
g61
(dp4071
sg70
g4065
sg63
(lp4072
g56
(g57
g58
NtRp4073
(dp4074
g61
(dp4075
g69
I2
ssg70
g4069
sg63
(lp4076
g56
(g65
g58
NtRp4077
(dp4078
g61
(dp4079
g69
I1
ssg70
Nsg63
(lp4080
g56
(g72
g58
NtRp4081
(dp4082
g61
(dp4083
sg70
g4077
sg63
(lp4084
g56
(g77
g58
NtRp4085
(dp4086
g61
(dp4087
sg70
g4081
sg63
(lp4088
g56
(g57
g58
NtRp4089
(dp4090
g61
(dp4091
g69
I1
ssg70
g4085
sg63
(lp4092
g3844
(S's\x06\x00\x00\x00Layout'
tRp4093
asbasbasbag56
(g72
g58
NtRp4094
(dp4095
g61
(dp4096
sg70
g4077
sg63
(lp4097
g56
(g77
g58
NtRp4098
(dp4099
g61
(dp4100
sg70
g4094
sg63
(lp4101
g56
(g57
g58
NtRp4102
(dp4103
g61
(dp4104
g69
I1
ssg70
g4098
sg63
(lp4105
I00
asbasbasbag56
(g72
g58
NtRp4106
(dp4107
g61
(dp4108
sg70
g4077
sg63
(lp4109
g56
(g77
g58
NtRp4110
(dp4111
g61
(dp4112
sg70
g4106
sg63
(lp4113
g56
(g57
g58
NtRp4114
(dp4115
g61
(dp4116
g69
I1
ssg70
g4110
sg63
(lp4117
S'/admin/default/edit/ddlagoon/views/layout.html'
p4118
asbasbasbasbasbasbasbag56
(g72
g58
NtRp4119
(dp4120
g61
(dp4121
sg70
g3953
sg63
(lp4122
g56
(g77
g58
NtRp4123
(dp4124
g61
(dp4125
sg70
g4119
sg63
(lp4126
g56
(g57
g58
NtRp4127
(dp4128
g61
(dp4129
g69
I2
ssg70
g4123
sg63
(lp4130
g56
(g65
g58
NtRp4131
(dp4132
g61
(dp4133
g69
I1
ssg70
Nsg63
(lp4134
g56
(g72
g58
NtRp4135
(dp4136
g61
(dp4137
sg70
g4131
sg63
(lp4138
g56
(g77
g58
NtRp4139
(dp4140
g61
(dp4141
sg70
g4135
sg63
(lp4142
g56
(g57
g58
NtRp4143
(dp4144
g61
(dp4145
g69
I1
ssg70
g4139
sg63
(lp4146
g3844
(S's\n\x00\x00\x00Stylesheet'
tRp4147
asbasbasbag56
(g72
g58
NtRp4148
(dp4149
g61
(dp4150
sg70
g4131
sg63
(lp4151
g56
(g77
g58
NtRp4152
(dp4153
g61
(dp4154
sg70
g4148
sg63
(lp4155
g56
(g57
g58
NtRp4156
(dp4157
g61
(dp4158
g69
I1
ssg70
g4152
sg63
(lp4159
I00
asbasbasbag56
(g72
g58
NtRp4160
(dp4161
g61
(dp4162
sg70
g4131
sg63
(lp4163
g56
(g77
g58
NtRp4164
(dp4165
g61
(dp4166
sg70
g4160
sg63
(lp4167
g56
(g57
g58
NtRp4168
(dp4169
g61
(dp4170
g69
I1
ssg70
g4164
sg63
(lp4171
S'/admin/default/edit/ddlagoon/static/base.css'
p4172
asbasbasbasbasbasbasbag56
(g72
g58
NtRp4173
(dp4174
g61
(dp4175
sg70
g3953
sg63
(lp4176
g56
(g77
g58
NtRp4177
(dp4178
g61
(dp4179
sg70
g4173
sg63
(lp4180
g56
(g57
g58
NtRp4181
(dp4182
g61
(dp4183
g69
I2
ssg70
g4177
sg63
(lp4184
g56
(g65
g58
NtRp4185
(dp4186
g61
(dp4187
g69
I1
ssg70
Nsg63
(lp4188
g56
(g72
g58
NtRp4189
(dp4190
g61
(dp4191
sg70
g4185
sg63
(lp4192
g56
(g77
g58
NtRp4193
(dp4194
g61
(dp4195
sg70
g4189
sg63
(lp4196
g56
(g57
g58
NtRp4197
(dp4198
g61
(dp4199
g69
I1
ssg70
g4193
sg63
(lp4200
g3844
(S's\x08\x00\x00\x00DB Model'
tRp4201
asbasbasbag56
(g72
g58
NtRp4202
(dp4203
g61
(dp4204
sg70
g4185
sg63
(lp4205
g56
(g77
g58
NtRp4206
(dp4207
g61
(dp4208
sg70
g4202
sg63
(lp4209
g56
(g57
g58
NtRp4210
(dp4211
g61
(dp4212
g69
I1
ssg70
g4206
sg63
(lp4213
I00
asbasbasbag56
(g72
g58
NtRp4214
(dp4215
g61
(dp4216
sg70
g4185
sg63
(lp4217
g56
(g77
g58
NtRp4218
(dp4219
g61
(dp4220
sg70
g4214
sg63
(lp4221
g56
(g57
g58
NtRp4222
(dp4223
g61
(dp4224
g69
I1
ssg70
g4218
sg63
(lp4225
S'/admin/default/edit/ddlagoon/models/db.py'
p4226
asbasbasbasbasbasbasbag56
(g72
g58
NtRp4227
(dp4228
g61
(dp4229
sg70
g3953
sg63
(lp4230
g56
(g77
g58
NtRp4231
(dp4232
g61
(dp4233
sg70
g4227
sg63
(lp4234
g56
(g57
g58
NtRp4235
(dp4236
g61
(dp4237
g69
I2
ssg70
g4231
sg63
(lp4238
g56
(g65
g58
NtRp4239
(dp4240
g61
(dp4241
g69
I1
ssg70
Nsg63
(lp4242
g56
(g72
g58
NtRp4243
(dp4244
g61
(dp4245
sg70
g4239
sg63
(lp4246
g56
(g77
g58
NtRp4247
(dp4248
g61
(dp4249
sg70
g4243
sg63
(lp4250
g56
(g57
g58
NtRp4251
(dp4252
g61
(dp4253
g69
I1
ssg70
g4247
sg63
(lp4254
g3844
(S's\n\x00\x00\x00Menu Model'
tRp4255
asbasbasbag56
(g72
g58
NtRp4256
(dp4257
g61
(dp4258
sg70
g4239
sg63
(lp4259
g56
(g77
g58
NtRp4260
(dp4261
g61
(dp4262
sg70
g4256
sg63
(lp4263
g56
(g57
g58
NtRp4264
(dp4265
g61
(dp4266
g69
I1
ssg70
g4260
sg63
(lp4267
I00
asbasbasbag56
(g72
g58
NtRp4268
(dp4269
g61
(dp4270
sg70
g4239
sg63
(lp4271
g56
(g77
g58
NtRp4272
(dp4273
g61
(dp4274
sg70
g4268
sg63
(lp4275
g56
(g57
g58
NtRp4276
(dp4277
g61
(dp4278
g69
I1
ssg70
g4272
sg63
(lp4279
S'/admin/default/edit/ddlagoon/models/menu.py'
p4280
asbasbasbasbasbasbasbag56
(g72
g58
NtRp4281
(dp4282
g61
(dp4283
sg70
g3953
sg63
(lp4284
g56
(g77
g58
NtRp4285
(dp4286
g61
(dp4287
sg70
g4281
sg63
(lp4288
g56
(g57
g58
NtRp4289
(dp4290
g61
(dp4291
g69
I2
ssg70
g4285
sg63
(lp4292
g56
(g65
g58
NtRp4293
(dp4294
g61
(dp4295
g69
I1
ssg70
Nsg63
(lp4296
g56
(g72
g58
NtRp4297
(dp4298
g61
(dp4299
sg70
g4293
sg63
(lp4300
g56
(g77
g58
NtRp4301
(dp4302
g61
(dp4303
sg70
g4297
sg63
(lp4304
g56
(g57
g58
NtRp4305
(dp4306
g61
(dp4307
g69
I1
ssg70
g4301
sg63
(lp4308
g3844
(S's\x08\x00\x00\x00Database'
tRp4309
asbasbasbag56
(g72
g58
NtRp4310
(dp4311
g61
(dp4312
sg70
g4293
sg63
(lp4313
g56
(g77
g58
NtRp4314
(dp4315
g61
(dp4316
sg70
g4310
sg63
(lp4317
g56
(g57
g58
NtRp4318
(dp4319
g61
(dp4320
g69
I1
ssg70
g4314
sg63
(lp4321
I00
asbasbasbag56
(g72
g58
NtRp4322
(dp4323
g61
(dp4324
sg70
g4293
sg63
(lp4325
g56
(g77
g58
NtRp4326
(dp4327
g61
(dp4328
sg70
g4322
sg63
(lp4329
g56
(g57
g58
NtRp4330
(dp4331
g61
(dp4332
g69
I1
ssg70
g4326
sg63
(lp4333
S'/ddlagoon/appadmin/index'
p4334
asbasbasbasbasbasbasbag56
(g72
g58
NtRp4335
(dp4336
g61
(dp4337
sg70
g3953
sg63
(lp4338
g56
(g77
g58
NtRp4339
(dp4340
g61
(dp4341
sg70
g4335
sg63
(lp4342
g56
(g57
g58
NtRp4343
(dp4344
g61
(dp4345
g69
I2
ssg70
g4339
sg63
(lp4346
g56
(g65
g58
NtRp4347
(dp4348
g61
(dp4349
g69
I1
ssg70
Nsg63
(lp4350
g56
(g72
g58
NtRp4351
(dp4352
g61
(dp4353
sg70
g4347
sg63
(lp4354
g56
(g77
g58
NtRp4355
(dp4356
g61
(dp4357
sg70
g4351
sg63
(lp4358
g56
(g57
g58
NtRp4359
(dp4360
g61
(dp4361
g69
I1
ssg70
g4355
sg63
(lp4362
g3844
(S's\x06\x00\x00\x00Errors'
tRp4363
asbasbasbag56
(g72
g58
NtRp4364
(dp4365
g61
(dp4366
sg70
g4347
sg63
(lp4367
g56
(g77
g58
NtRp4368
(dp4369
g61
(dp4370
sg70
g4364
sg63
(lp4371
g56
(g57
g58
NtRp4372
(dp4373
g61
(dp4374
g69
I1
ssg70
g4368
sg63
(lp4375
I00
asbasbasbag56
(g72
g58
NtRp4376
(dp4377
g61
(dp4378
sg70
g4347
sg63
(lp4379
g56
(g77
g58
NtRp4380
(dp4381
g61
(dp4382
sg70
g4376
sg63
(lp4383
g56
(g57
g58
NtRp4384
(dp4385
g61
(dp4386
g69
I1
ssg70
g4380
sg63
(lp4387
S'/admin/default/errors/ddlagoon'
p4388
asbasbasbasbasbasbasbag56
(g72
g58
NtRp4389
(dp4390
g61
(dp4391
sg70
g3953
sg63
(lp4392
g56
(g77
g58
NtRp4393
(dp4394
g61
(dp4395
sg70
g4389
sg63
(lp4396
g56
(g57
g58
NtRp4397
(dp4398
g61
(dp4399
g69
I2
ssg70
g4393
sg63
(lp4400
g56
(g65
g58
NtRp4401
(dp4402
g61
(dp4403
g69
I1
ssg70
Nsg63
(lp4404
g56
(g72
g58
NtRp4405
(dp4406
g61
(dp4407
sg70
g4401
sg63
(lp4408
g56
(g77
g58
NtRp4409
(dp4410
g61
(dp4411
sg70
g4405
sg63
(lp4412
g56
(g57
g58
NtRp4413
(dp4414
g61
(dp4415
g69
I1
ssg70
g4409
sg63
(lp4416
g3844
(S's\x05\x00\x00\x00About'
tRp4417
asbasbasbag56
(g72
g58
NtRp4418
(dp4419
g61
(dp4420
sg70
g4401
sg63
(lp4421
g56
(g77
g58
NtRp4422
(dp4423
g61
(dp4424
sg70
g4418
sg63
(lp4425
g56
(g57
g58
NtRp4426
(dp4427
g61
(dp4428
g69
I1
ssg70
g4422
sg63
(lp4429
I00
asbasbasbag56
(g72
g58
NtRp4430
(dp4431
g61
(dp4432
sg70
g4401
sg63
(lp4433
g56
(g77
g58
NtRp4434
(dp4435
g61
(dp4436
sg70
g4430
sg63
(lp4437
g56
(g57
g58
NtRp4438
(dp4439
g61
(dp4440
g69
I1
ssg70
g4434
sg63
(lp4441
S'/admin/default/about/ddlagoon'
p4442
asbasbasbasbasbasbasbasbasbasbasbasbasbasbasbag56
(g72
g58
NtRp4443
(dp4444
g61
(dp4445
sg70
g3812
sg63
(lp4446
g56
(g77
g58
NtRp4447
(dp4448
g61
(dp4449
sg70
g4443
sg63
(lp4450
g56
(g57
g58
NtRp4451
(dp4452
g61
(dp4453
g69
I4
ssg70
g4447
sg63
(lp4454
g56
(g65
g58
NtRp4455
(dp4456
g61
(dp4457
g69
I3
ssg70
Nsg63
(lp4458
g56
(g72
g58
NtRp4459
(dp4460
g61
(dp4461
sg70
g4455
sg63
(lp4462
g56
(g77
g58
NtRp4463
(dp4464
g61
(dp4465
sg70
g4459
sg63
(lp4466
g56
(g57
g58
NtRp4467
(dp4468
g61
(dp4469
g69
I3
ssg70
g4463
sg63
(lp4470
g3844
(S's\t\x00\x00\x00Resources'
tRp4471
asbasbasbag56
(g72
g58
NtRp4472
(dp4473
g61
(dp4474
sg70
g4455
sg63
(lp4475
g56
(g77
g58
NtRp4476
(dp4477
g61
(dp4478
sg70
g4472
sg63
(lp4479
g56
(g57
g58
NtRp4480
(dp4481
g61
(dp4482
g69
I3
ssg70
g4476
sg63
(lp4483
g99
asbasbasbag56
(g72
g58
NtRp4484
(dp4485
g61
(dp4486
sg70
g4455
sg63
(lp4487
g56
(g77
g58
NtRp4488
(dp4489
g61
(dp4490
sg70
g4484
sg63
(lp4491
g56
(g57
g58
NtRp4492
(dp4493
g61
(dp4494
g69
I3
ssg70
g4488
sg63
(lp4495
S'None'
p4496
asbasbasbag56
(g72
g58
NtRp4497
(dp4498
g61
(dp4499
sg70
g4455
sg63
(lp4500
g56
(g77
g58
NtRp4501
(dp4502
g61
(dp4503
sg70
g4497
sg63
(lp4504
g56
(g57
g58
NtRp4505
(dp4506
g61
(dp4507
g69
I3
ssg70
g4501
sg63
(lp4508
g56
(g65
g58
NtRp4509
(dp4510
g61
(dp4511
g69
I2
ssg70
Nsg63
(lp4512
g56
(g72
g58
NtRp4513
(dp4514
g61
(dp4515
sg70
g4509
sg63
(lp4516
g56
(g77
g58
NtRp4517
(dp4518
g61
(dp4519
sg70
g4513
sg63
(lp4520
g56
(g57
g58
NtRp4521
(dp4522
g61
(dp4523
g69
I2
ssg70
g4517
sg63
(lp4524
g56
(g65
g58
NtRp4525
(dp4526
g61
(dp4527
g69
I1
ssg70
Nsg63
(lp4528
g56
(g72
g58
NtRp4529
(dp4530
g61
(dp4531
sg70
g4525
sg63
(lp4532
g56
(g77
g58
NtRp4533
(dp4534
g61
(dp4535
sg70
g4529
sg63
(lp4536
g56
(g57
g58
NtRp4537
(dp4538
g61
(dp4539
g69
I1
ssg70
g4533
sg63
(lp4540
g3844
(S's\r\x00\x00\x00Documentation'
tRp4541
asbasbasbag56
(g72
g58
NtRp4542
(dp4543
g61
(dp4544
sg70
g4525
sg63
(lp4545
g56
(g77
g58
NtRp4546
(dp4547
g61
(dp4548
sg70
g4542
sg63
(lp4549
g56
(g57
g58
NtRp4550
(dp4551
g61
(dp4552
g69
I1
ssg70
g4546
sg63
(lp4553
I00
asbasbasbag56
(g72
g58
NtRp4554
(dp4555
g61
(dp4556
sg70
g4525
sg63
(lp4557
g56
(g77
g58
NtRp4558
(dp4559
g61
(dp4560
sg70
g4554
sg63
(lp4561
g56
(g57
g58
NtRp4562
(dp4563
g61
(dp4564
g69
I1
ssg70
g4558
sg63
(lp4565
S'http://www.web2py.com/book'
p4566
asbasbasbag56
(g72
g58
NtRp4567
(dp4568
g61
(dp4569
sg70
g4525
sg63
(lp4570
g56
(g77
g58
NtRp4571
(dp4572
g61
(dp4573
sg70
g4567
sg63
(lp4574
g56
(g57
g58
NtRp4575
(dp4576
g61
(dp4577
g69
I1
ssg70
g4571
sg63
(lp4578
(lp4579
(g3844
(S's\x07\x00\x00\x00Preface'
tRp4580
I00
S'http://www.web2py.com/book/default/chapter/00'
p4581
tp4582
a(g3844
(S's\x0c\x00\x00\x00Introduction'
tRp4583
I00
S'http://www.web2py.com/book/default/chapter/01'
p4584
tp4585
a(g3844
(S's\x06\x00\x00\x00Python'
tRp4586
I00
S'http://www.web2py.com/book/default/chapter/02'
p4587
tp4588
a(g3844
(S's\x08\x00\x00\x00Overview'
tRp4589
I00
S'http://www.web2py.com/book/default/chapter/03'
p4590
tp4591
a(g3844
(S's\x08\x00\x00\x00The Core'
tRp4592
I00
S'http://www.web2py.com/book/default/chapter/04'
p4593
tp4594
a(g3844
(S's\t\x00\x00\x00The Views'
tRp4595
I00
S'http://www.web2py.com/book/default/chapter/05'
p4596
tp4597
a(g3844
(S's\x08\x00\x00\x00Database'
tRp4598
I00
S'http://www.web2py.com/book/default/chapter/06'
p4599
tp4600
a(g3844
(S's\x14\x00\x00\x00Forms and Validators'
tRp4601
I00
S'http://www.web2py.com/book/default/chapter/07'
p4602
tp4603
a(g3844
(S's\x0e\x00\x00\x00Access Control'
tRp4604
I00
S'http://www.web2py.com/book/default/chapter/08'
p4605
tp4606
a(g3844
(S's\x08\x00\x00\x00Services'
tRp4607
I00
S'http://www.web2py.com/book/default/chapter/09'
p4608
tp4609
a(g3844
(S's\x0c\x00\x00\x00Ajax Recipes'
tRp4610
I00
S'http://www.web2py.com/book/default/chapter/10'
p4611
tp4612
a(g3844
(S's\x12\x00\x00\x00Deployment Recipes'
tRp4613
I00
S'http://www.web2py.com/book/default/chapter/11'
p4614
tp4615
a(g3844
(S's\r\x00\x00\x00Other Recipes'
tRp4616
I00
S'http://www.web2py.com/book/default/chapter/12'
p4617
tp4618
a(g3844
(S's\r\x00\x00\x00Buy this book'
tRp4619
I00
S'http://stores.lulu.com/web2py'
p4620
tp4621
aasbasbasbasbasbasbasbag56
(g72
g58
NtRp4622
(dp4623
g61
(dp4624
sg70
g4509
sg63
(lp4625
g56
(g77
g58
NtRp4626
(dp4627
g61
(dp4628
sg70
g4622
sg63
(lp4629
g56
(g57
g58
NtRp4630
(dp4631
g61
(dp4632
g69
I2
ssg70
g4626
sg63
(lp4633
g56
(g65
g58
NtRp4634
(dp4635
g61
(dp4636
g69
I1
ssg70
Nsg63
(lp4637
g56
(g72
g58
NtRp4638
(dp4639
g61
(dp4640
sg70
g4634
sg63
(lp4641
g56
(g77
g58
NtRp4642
(dp4643
g61
(dp4644
sg70
g4638
sg63
(lp4645
g56
(g57
g58
NtRp4646
(dp4647
g61
(dp4648
g69
I1
ssg70
g4642
sg63
(lp4649
g3844
(S's\t\x00\x00\x00Community'
tRp4650
asbasbasbag56
(g72
g58
NtRp4651
(dp4652
g61
(dp4653
sg70
g4634
sg63
(lp4654
g56
(g77
g58
NtRp4655
(dp4656
g61
(dp4657
sg70
g4651
sg63
(lp4658
g56
(g57
g58
NtRp4659
(dp4660
g61
(dp4661
g69
I1
ssg70
g4655
sg63
(lp4662
I00
asbasbasbag56
(g72
g58
NtRp4663
(dp4664
g61
(dp4665
sg70
g4634
sg63
(lp4666
g56
(g77
g58
NtRp4667
(dp4668
g61
(dp4669
sg70
g4663
sg63
(lp4670
g56
(g57
g58
NtRp4671
(dp4672
g61
(dp4673
g69
I1
ssg70
g4667
sg63
(lp4674
Nasbasbasbag56
(g72
g58
NtRp4675
(dp4676
g61
(dp4677
sg70
g4634
sg63
(lp4678
g56
(g77
g58
NtRp4679
(dp4680
g61
(dp4681
sg70
g4675
sg63
(lp4682
g56
(g57
g58
NtRp4683
(dp4684
g61
(dp4685
g69
I1
ssg70
g4679
sg63
(lp4686
(lp4687
(g3844
(S's\x06\x00\x00\x00Groups'
tRp4688
I00
S'http://www.web2py.com/examples/default/usergroups'
p4689
tp4690
a(g3844
(S's\x07\x00\x00\x00Twitter'
tRp4691
I00
S'http://twitter.com/web2py'
p4692
tp4693
a(g3844
(S's\t\x00\x00\x00Live chat'
tRp4694
I00
S'http://mibbit.com/?channel=%23web2py&server=irc.mibbit.net'
p4695
tp4696
a(g3844
(S's\n\x00\x00\x00User Voice'
tRp4697
I00
S'http://web2py.uservoice.com/'
p4698
tp4699
aasbasbasbasbasbasbasbag56
(g72
g58
NtRp4700
(dp4701
g61
(dp4702
sg70
g4509
sg63
(lp4703
g56
(g77
g58
NtRp4704
(dp4705
g61
(dp4706
sg70
g4700
sg63
(lp4707
g56
(g57
g58
NtRp4708
(dp4709
g61
(dp4710
g69
I2
ssg70
g4704
sg63
(lp4711
g56
(g65
g58
NtRp4712
(dp4713
g61
(dp4714
g69
I1
ssg70
Nsg63
(lp4715
g56
(g72
g58
NtRp4716
(dp4717
g61
(dp4718
sg70
g4712
sg63
(lp4719
g56
(g77
g58
NtRp4720
(dp4721
g61
(dp4722
sg70
g4716
sg63
(lp4723
g56
(g57
g58
NtRp4724
(dp4725
g61
(dp4726
g69
I1
ssg70
g4720
sg63
(lp4727
g3844
(S's\x06\x00\x00\x00Web2py'
tRp4728
asbasbasbag56
(g72
g58
NtRp4729
(dp4730
g61
(dp4731
sg70
g4712
sg63
(lp4732
g56
(g77
g58
NtRp4733
(dp4734
g61
(dp4735
sg70
g4729
sg63
(lp4736
g56
(g57
g58
NtRp4737
(dp4738
g61
(dp4739
g69
I1
ssg70
g4733
sg63
(lp4740
I00
asbasbasbag56
(g72
g58
NtRp4741
(dp4742
g61
(dp4743
sg70
g4712
sg63
(lp4744
g56
(g77
g58
NtRp4745
(dp4746
g61
(dp4747
sg70
g4741
sg63
(lp4748
g56
(g57
g58
NtRp4749
(dp4750
g61
(dp4751
g69
I1
ssg70
g4745
sg63
(lp4752
S'http://www.web2py.com'
p4753
asbasbasbag56
(g72
g58
NtRp4754
(dp4755
g61
(dp4756
sg70
g4712
sg63
(lp4757
g56
(g77
g58
NtRp4758
(dp4759
g61
(dp4760
sg70
g4754
sg63
(lp4761
g56
(g57
g58
NtRp4762
(dp4763
g61
(dp4764
g69
I1
ssg70
g4758
sg63
(lp4765
(lp4766
(g3844
(S's\x08\x00\x00\x00Download'
tRp4767
I00
S'http://www.web2py.com/examples/default/download'
p4768
tp4769
a(g3844
(S's\x07\x00\x00\x00Support'
tRp4770
I00
S'http://www.web2py.com/examples/default/support'
p4771
tp4772
a(g3844
(S's\x0e\x00\x00\x00Quick Examples'
tRp4773
I00
S'http://web2py.com/examples/default/examples'
p4774
tp4775
a(g3844
(S's\x03\x00\x00\x00FAQ'
tRp4776
I00
S'http://web2py.com/AlterEgo'
p4777
tp4778
a(g3844
(S's\x11\x00\x00\x00Free Applications'
tRp4779
I00
S'http://web2py.com/appliances'
p4780
tp4781
a(g3844
(S's\x07\x00\x00\x00Plugins'
tRp4782
I00
S'http://web2py.com/plugins'
p4783
tp4784
a(g3844
(S's\x07\x00\x00\x00Recipes'
tRp4785
I00
S'http://web2pyslices.com/'
p4786
tp4787
a(g3844
(S's\x04\x00\x00\x00Demo'
tRp4788
I00
S'http://web2py.com/demo_admin'
p4789
tp4790
a(g3844
(S's\x08\x00\x00\x00Semantic'
tRp4791
I00
S'http://web2py.com/semantic'
p4792
tp4793
a(g3844
(S's\x07\x00\x00\x00Layouts'
tRp4794
I00
S'http://web2py.com/layouts'
p4795
tp4796
a(g3844
(S's\x06\x00\x00\x00Videos'
tRp4797
I00
S'http://www.web2py.com/examples/default/videos/'
p4798
tp4799
aasbasbasbasbasbasbasbasbasbasbasbasbasbasbasbasbasbasbasbag56
(g72
g58
NtRp4800
(dp4801
g61
(dp4802
sg70
g3339
sg63
(lp4803
g56
(g77
g58
NtRp4804
(dp4805
g61
(dp4806
g81
g82
ssg70
g4800
sg63
(lp4807
S'meta'
p4808
asbag56
(g77
g58
NtRp4809
(dp4810
g61
(dp4811
g88
g89
ssg70
g4800
sg63
(lp4812
S':'
asbag56
(g77
g58
NtRp4813
(dp4814
g61
(dp4815
sg70
g4800
sg63
(lp4816
g56
(g57
g58
NtRp4817
(dp4818
g61
(dp4819
g69
I5
ssg70
g4813
sg63
(lp4820
g56
(g65
g58
NtRp4821
(dp4822
g61
(dp4823
g69
I4
ssg70
Nsg63
(lp4824
g56
(g72
g58
NtRp4825
(dp4826
g61
(dp4827
sg70
g4821
sg63
(lp4828
g56
(g77
g58
NtRp4829
(dp4830
g61
(dp4831
g81
g82
ssg70
g4825
sg63
(lp4832
S'author'
p4833
asbag56
(g77
g58
NtRp4834
(dp4835
g61
(dp4836
g88
g89
ssg70
g4825
sg63
(lp4837
S':'
asbag56
(g77
g58
NtRp4838
(dp4839
g61
(dp4840
sg70
g4825
sg63
(lp4841
g56
(g57
g58
NtRp4842
(dp4843
g61
(dp4844
g69
I4
ssg70
g4838
sg63
(lp4845
S'Your Name <you@example.com>'
p4846
asbasbasbag56
(g72
g58
NtRp4847
(dp4848
g61
(dp4849
sg70
g4821
sg63
(lp4850
g56
(g77
g58
NtRp4851
(dp4852
g61
(dp4853
g81
g82
ssg70
g4847
sg63
(lp4854
S'copyright'
p4855
asbag56
(g77
g58
NtRp4856
(dp4857
g61
(dp4858
g88
g89
ssg70
g4847
sg63
(lp4859
S':'
asbag56
(g77
g58
NtRp4860
(dp4861
g61
(dp4862
sg70
g4847
sg63
(lp4863
g56
(g57
g58
NtRp4864
(dp4865
g61
(dp4866
g69
I4
ssg70
g4860
sg63
(lp4867
S'Copyright 2011'
p4868
asbasbasbag56
(g72
g58
NtRp4869
(dp4870
g61
(dp4871
sg70
g4821
sg63
(lp4872
g56
(g77
g58
NtRp4873
(dp4874
g61
(dp4875
g81
g82
ssg70
g4869
sg63
(lp4876
S'description'
p4877
asbag56
(g77
g58
NtRp4878
(dp4879
g61
(dp4880
g88
g89
ssg70
g4869
sg63
(lp4881
S':'
asbag56
(g77
g58
NtRp4882
(dp4883
g61
(dp4884
sg70
g4869
sg63
(lp4885
g56
(g57
g58
NtRp4886
(dp4887
g61
(dp4888
g69
I4
ssg70
g4882
sg63
(lp4889
S'a cool new app'
p4890
asbasbasbag56
(g72
g58
NtRp4891
(dp4892
g61
(dp4893
sg70
g4821
sg63
(lp4894
g56
(g77
g58
NtRp4895
(dp4896
g61
(dp4897
g81
g82
ssg70
g4891
sg63
(lp4898
S'generator'
p4899
asbag56
(g77
g58
NtRp4900
(dp4901
g61
(dp4902
g88
g89
ssg70
g4891
sg63
(lp4903
S':'
asbag56
(g77
g58
NtRp4904
(dp4905
g61
(dp4906
sg70
g4891
sg63
(lp4907
g56
(g57
g58
NtRp4908
(dp4909
g61
(dp4910
g69
I4
ssg70
g4904
sg63
(lp4911
S'Web2py Web Framework'
p4912
asbasbasbag56
(g72
g58
NtRp4913
(dp4914
g61
(dp4915
sg70
g4821
sg63
(lp4916
g56
(g77
g58
NtRp4917
(dp4918
g61
(dp4919
g81
g82
ssg70
g4913
sg63
(lp4920
S'keywords'
p4921
asbag56
(g77
g58
NtRp4922
(dp4923
g61
(dp4924
g88
g89
ssg70
g4913
sg63
(lp4925
S':'
asbag56
(g77
g58
NtRp4926
(dp4927
g61
(dp4928
sg70
g4913
sg63
(lp4929
g56
(g57
g58
NtRp4930
(dp4931
g61
(dp4932
g69
I4
ssg70
g4926
sg63
(lp4933
S'web2py, python, framework'
p4934
asbasbasbasbasbasbasbag56
(g72
g58
NtRp4935
(dp4936
g61
(dp4937
sg70
g3339
sg63
(lp4938
g56
(g77
g58
NtRp4939
(dp4940
g61
(dp4941
g81
g82
ssg70
g4935
sg63
(lp4942
S'postprocessing'
p4943
asbag56
(g77
g58
NtRp4944
(dp4945
g61
(dp4946
g88
g89
ssg70
g4935
sg63
(lp4947
S':'
asbag56
(g77
g58
NtRp4948
(dp4949
g61
(dp4950
sg70
g4935
sg63
(lp4951
g56
(g57
g58
NtRp4952
(dp4953
g61
(dp4954
g69
I5
ssg70
g4948
sg63
(lp4955
g56
(g65
g58
NtRp4956
(dp4957
g61
(dp4958
g69
I4
ssg70
Nsg63
(lp4959
sbasbasbasbag56
(g72
g58
NtRp4960
(dp4961
g61
(dp4962
sg70
g3339
sg63
(lp4963
g56
(g77
g58
NtRp4964
(dp4965
g61
(dp4966
g81
g82
ssg70
g4960
sg63
(lp4967
S'session_filename'
p4968
asbag56
(g77
g58
NtRp4969
(dp4970
g61
(dp4971
g88
g89
ssg70
g4960
sg63
(lp4972
S':'
asbag56
(g77
g58
NtRp4973
(dp4974
g61
(dp4975
sg70
g4960
sg63
(lp4976
g56
(g57
g58
NtRp4977
(dp4978
g61
(dp4979
g69
I5
ssg70
g4973
sg63
(lp4980
S'/windows/Users/Thomas/Dropbox/appz/2011/GAE/ddl-lagoon/applications/ddlagoon/sessions/127.0.0.1-8abc8e6d-df02-4298-b1c4-62e09cf7e1b1'
p4981
asbasbasbag56
(g72
g58
NtRp4982
(dp4983
g61
(dp4984
sg70
g3339
sg63
(lp4985
g56
(g77
g58
NtRp4986
(dp4987
g61
(dp4988
g81
g82
ssg70
g4982
sg63
(lp4989
S'session_id'
p4990
asbag56
(g77
g58
NtRp4991
(dp4992
g61
(dp4993
g88
g89
ssg70
g4982
sg63
(lp4994
S':'
asbag56
(g77
g58
NtRp4995
(dp4996
g61
(dp4997
sg70
g4982
sg63
(lp4998
g56
(g57
g58
NtRp4999
(dp5000
g61
(dp5001
g69
I5
ssg70
g4995
sg63
(lp5002
S'127.0.0.1-8abc8e6d-df02-4298-b1c4-62e09cf7e1b1'
p5003
asbasbasbag56
(g72
g58
NtRp5004
(dp5005
g61
(dp5006
sg70
g3339
sg63
(lp5007
g56
(g77
g58
NtRp5008
(dp5009
g61
(dp5010
g81
g82
ssg70
g5004
sg63
(lp5011
S'session_id_name'
p5012
asbag56
(g77
g58
NtRp5013
(dp5014
g61
(dp5015
g88
g89
ssg70
g5004
sg63
(lp5016
S':'
asbag56
(g77
g58
NtRp5017
(dp5018
g61
(dp5019
sg70
g5004
sg63
(lp5020
g56
(g57
g58
NtRp5021
(dp5022
g61
(dp5023
g69
I5
ssg70
g5017
sg63
(lp5024
g3396
asbasbasbag56
(g72
g58
NtRp5025
(dp5026
g61
(dp5027
sg70
g3339
sg63
(lp5028
g56
(g77
g58
NtRp5029
(dp5030
g61
(dp5031
g81
g82
ssg70
g5025
sg63
(lp5032
S'session_new'
p5033
asbag56
(g77
g58
NtRp5034
(dp5035
g61
(dp5036
g88
g89
ssg70
g5025
sg63
(lp5037
S':'
asbag56
(g77
g58
NtRp5038
(dp5039
g61
(dp5040
sg70
g5025
sg63
(lp5041
g56
(g57
g58
NtRp5042
(dp5043
g61
(dp5044
g69
I5
ssg70
g5038
sg63
(lp5045
g1750
asbasbasbag56
(g72
g58
NtRp5046
(dp5047
g61
(dp5048
sg70
g3339
sg63
(lp5049
g56
(g77
g58
NtRp5050
(dp5051
g61
(dp5052
g81
g82
ssg70
g5046
sg63
(lp5053
S'status'
p5054
asbag56
(g77
g58
NtRp5055
(dp5056
g61
(dp5057
g88
g89
ssg70
g5046
sg63
(lp5058
S':'
asbag56
(g77
g58
NtRp5059
(dp5060
g61
(dp5061
sg70
g5046
sg63
(lp5062
g56
(g57
g58
NtRp5063
(dp5064
g61
(dp5065
g69
I5
ssg70
g5059
sg63
(lp5066
S'200'
p5067
asbasbasbag56
(g72
g58
NtRp5068
(dp5069
g61
(dp5070
sg70
g3339
sg63
(lp5071
g56
(g77
g58
NtRp5072
(dp5073
g61
(dp5074
g81
g82
ssg70
g5068
sg63
(lp5075
S'subtitle'
p5076
asbag56
(g77
g58
NtRp5077
(dp5078
g61
(dp5079
g88
g89
ssg70
g5068
sg63
(lp5080
S':'
asbag56
(g77
g58
NtRp5081
(dp5082
g61
(dp5083
sg70
g5068
sg63
(lp5084
g56
(g57
g58
NtRp5085
(dp5086
g61
(dp5087
g69
I5
ssg70
g5081
sg63
(lp5088
g3844
(S's\r\x00\x00\x00customize me!'
tRp5089
asbasbasbag56
(g72
g58
NtRp5090
(dp5091
g61
(dp5092
sg70
g3339
sg63
(lp5093
g56
(g77
g58
NtRp5094
(dp5095
g61
(dp5096
g81
g82
ssg70
g5090
sg63
(lp5097
S'title'
p5098
asbag56
(g77
g58
NtRp5099
(dp5100
g61
(dp5101
g88
g89
ssg70
g5090
sg63
(lp5102
S':'
asbag56
(g77
g58
NtRp5103
(dp5104
g61
(dp5105
sg70
g5090
sg63
(lp5106
g56
(g57
g58
NtRp5107
(dp5108
g61
(dp5109
g69
I5
ssg70
g5103
sg63
(lp5110
g121
asbasbasbag56
(g72
g58
NtRp5111
(dp5112
g61
(dp5113
sg70
g3339
sg63
(lp5114
g56
(g77
g58
NtRp5115
(dp5116
g61
(dp5117
g81
g82
ssg70
g5111
sg63
(lp5118
g2416
asbag56
(g77
g58
NtRp5119
(dp5120
g61
(dp5121
g88
g89
ssg70
g5111
sg63
(lp5122
S':'
asbag56
(g77
g58
NtRp5123
(dp5124
g61
(dp5125
sg70
g5111
sg63
(lp5126
g56
(g57
g58
NtRp5127
(dp5128
g61
(dp5129
g69
I5
ssg70
g5123
sg63
(lp5130
g2429
asbasbasbag56
(g72
g58
NtRp5131
(dp5132
g61
(dp5133
sg70
g3339
sg63
(lp5134
g56
(g77
g58
NtRp5135
(dp5136
g61
(dp5137
g81
g82
ssg70
g5131
sg63
(lp5138
S'view'
p5139
asbag56
(g77
g58
NtRp5140
(dp5141
g61
(dp5142
g88
g89
ssg70
g5131
sg63
(lp5143
S':'
asbag56
(g77
g58
NtRp5144
(dp5145
g61
(dp5146
sg70
g5131
sg63
(lp5147
g56
(g57
g58
NtRp5148
(dp5149
g61
(dp5150
g69
I5
ssg70
g5144
sg63
(lp5151
S'ddl/get.html'
p5152
asbasbasbasbasbsS'locals'
p5153
(dp5154
S'self'
p5155
S"<open file '<fdopen>', mode 'w+b'>"
p5156
sS'name'
p5157
S"'args'"
p5158
sg3120
S"<open file '<fdopen>', mode 'w+b'>"
p5159
sssS'traceback'
p5160
S'Traceback (most recent call last):\n  File "/windows/Users/Thomas/Dropbox/appz/2011/GAE/ddl-lagoon/gluon/restricted.py", line 194, in restricted\n    exec ccode in environment\n  File "/windows/Users/Thomas/Dropbox/appz/2011/GAE/ddl-lagoon/applications/ddlagoon/controllers/ddl.py", line 46, in <module>\n  File "/windows/Users/Thomas/Dropbox/appz/2011/GAE/ddl-lagoon/gluon/globals.py", line 149, in <lambda>\n    self._caller = lambda f: f()\n  File "/windows/Users/Thomas/Dropbox/appz/2011/GAE/ddl-lagoon/applications/ddlagoon/controllers/ddl.py", line 14, in get\n    return service()\n  File "/windows/Users/Thomas/Dropbox/appz/2011/GAE/ddl-lagoon/gluon/tools.py", line 3834, in __call__\n    return self.serve_run(request.args[1:])\n  File "/windows/Users/Thomas/Dropbox/appz/2011/GAE/ddl-lagoon/gluon/tools.py", line 3585, in serve_run\n    *args[1:], **dict(request.vars)))\n  File "/windows/Users/Thomas/Dropbox/appz/2011/GAE/ddl-lagoon/gluon/tools.py", line 3351, in universal_caller\n    return f(**arg_dict)\n  File "/windows/Users/Thomas/Dropbox/appz/2011/GAE/ddl-lagoon/applications/ddlagoon/controllers/ddl.py", line 45, in ddl\n    return response.download(ddlFile, ddlFile.name)\n  File "/windows/Users/Thomas/Dropbox/appz/2011/GAE/ddl-lagoon/gluon/globals.py", line 258, in download\n    if not request.args:\n  File "/usr/lib/python2.6/tempfile.py", line 376, in __getattr__\n    a = getattr(file, name)\nAttributeError: \'file\' object has no attribute \'args\'\n'
p5161
s.