(dp1
S'output'
p2
S''
sS'layer'
p3
S'/windows/Users/Thomas/Dropbox/appz/2011/GAE/ddl-lagoon/applications/ddlagoon/views/default/index.html'
p4
sS'code'
p5
S'left_sidebar_enabled=right_sidebar_enabled=True\nresponse.write(\'\\n\', escape=False)\nresponse.write(\'<!DOCTYPE html>\\n<html lang="\', escape=False)\nresponse.write(T.accepted_language or \'en\')\nresponse.write(\'" class="no-js"><!-- no-js need it for modernzr -->\\n  <head>\\n    \\n    <meta charset="utf-8" />        \\n    <!-- www.phpied.com/conditional-comments-block-downloads/ -->\\n    <!--[if IE]>\\n      <!-- Always force latest IE rendering engine \\n       (even in intranet) & Chrome Frame \\n       Remove this if you use the .htaccess -->\\n      <meta http-equiv="X-UA-Compatible" content="IE=edge,chrome=1">\\n    <![endif]-->    \\n\\n    <title>DDLagoon</title>\\n    \\n    <!-- http://dev.w3.org/html5/markup/meta.name.html -->\\n    <meta name="application-name" content="\', escape=False)\nresponse.write(request.application)\nresponse.write(\'" /> \\n    \\n    <!-- Speaking of Google, don\\\'t forget to set your site up: \\n     http://google.com/webmasters -->\\n    <meta name="google-site-verification" content="" />\\n    \\n    <!--  Mobile Viewport Fix\\n      j.mp/mobileviewport & davidbcalhoun.com/2010/viewport-metatag \\n      device-width: Occupy full width of the screen in its current orientation\\n      initial-scale = 1.0 retains dimensions instead of zooming out if page height > device height\\n      maximum-scale = 1.0 retains dimensions instead of zooming in if page width < device width\\n      -->\\n    <meta name="viewport" content="width=device-width, initial-scale=1.0, maximum-scale=1.0">\\n    \\n    <!-- Place favicon.ico and apple-touch-icon.png in the root of your domain and delete these references -->\\n    <link rel="shortcut icon" href="\', escape=False)\nresponse.write(URL(\'static\',\'favicon.ico\'))\nresponse.write(\'" type="image/x-icon">\\n    <link rel="apple-touch-icon" href="\', escape=False)\nresponse.write(URL(\'static\',\'favicon.png\'))\nresponse.write(\'">\\n\\n    <!-- For the less-enabled mobile browsers like Opera Mini -->\\n    <link rel="stylesheet" media="handheld" href="\', escape=False)\nresponse.write(URL(\'static\',\'css/handheld.css\'))\nresponse.write(\'">\\n    \\n    <!-- All JavaScript at the bottom, except for Modernizr which enables HTML5 elements & feature detects -->\\n    <script src="\', escape=False)\nresponse.write(URL(\'static\',\'js/modernizr-1.7.min.js\'))\nresponse.write(\'"></script>\\n    \\n    \', escape=False)\n#------  require CSS and JS files for this page (read info in base.css) ------\nresponse.write(\'\\n    \', escape=False)\nresponse.files.append(URL(\'static\',\'css/base.css\'))\nresponse.write(\'\\n    \', escape=False)\nresponse.files.append(URL(\'static\',\'css/superfish.css\'))\nresponse.write(\'\\n    \', escape=False)\nresponse.files.append(URL(\'static\',\'js/superfish.js\'))\nresponse.write(\'\\n    \', escape=False)\n#------ include web2py specific js code (jquery, calendar, form stuff) ------\nresponse.write(\'\\n    \', escape=False)\nresponse.files.insert(0,URL(\'static\',\'js/jquery.js\'))\nresponse.files.insert(1,URL(\'static\',\'css/anytime.css\'))\nresponse.files.insert(2,URL(\'static\',\'js/anytime.js\'))\nresponse.include_meta()\nresponse.include_files()\nresponse.write(\'\\n<script type="text/javascript"><!--\\n    // These variables are used by the web2py_ajax_init function in web2py_ajax.js (which is loaded below).\\n    var w2p_ajax_confirm_message = "\', escape=False)\nresponse.write(T(\'Are you sure you want to delete this object?\'))\nresponse.write(\'";\\n    var w2p_ajax_date_format = "\', escape=False)\nresponse.write(T(\'%Y-%m-%d\'))\nresponse.write(\'";\\n    var w2p_ajax_datetime_format = "\', escape=False)\nresponse.write(T(\'%Y-%m-%d %H:%M:%S\'))\nresponse.write(\'";\\n    //--></script>\\n    <script src="\', escape=False)\nresponse.write(URL(\'static\',\'js/web2py_ajax.js\'))\nresponse.write(\'" type="text/javascript"></script>\\n\', escape=False)\nresponse.write(\'\\n\\n    \', escape=False)\n#using sidebars need to know what sidebar you want to use\n#prior of using it, because of static width size of content, you can use\n#left_sidebar, right_sidebar, both or none (False left and right)\nleft_sidebar_enabled = globals().get(\'left_sidebar_enabled\',False)\nright_sidebar_enabled = globals().get(\'right_sidebar_enabled\',False)\nif left_sidebar_enabled and right_sidebar_enabled: width_content=\'63%\'\nelif left_sidebar_enabled != right_sidebar_enabled: width_content=\'740px\'\nelse: width_content=\'100%\'\nif left_sidebar_enabled: left_sidebar_style = \'style="display: block;"\'\nelse: left_sidebar_style = \'style="display: none;"\'\nif right_sidebar_enabled: right_sidebar_style = \'style="display: block;"\'\nelse: right_sidebar_style = \'style="display: none;"\'\nstyle_content = \'style="width: %s"\' % width_content\nresponse.write(\'\\n    \\n    <!-- uncomment here to load jquery-ui -->\\n    \\n    <link rel="stylesheet" href="http://ajax.googleapis.com/ajax/libs/jqueryui/1.8.16/themes/base/jquery-ui.css" type="text/css" media="all" />\\n    <script src="http://ajax.googleapis.com/ajax/libs/jqueryui/1.8.16/jquery-ui.min.js" type="text/javascript"></script>\\n    \\n   <!-- uncomment to load jquery-ui -->\\n    \\n    \\n  </head>\\n  \\n  <!-- paulirish.com/2008/conditional-stylesheets-vs-css-hacks-answer-neither/ -->  \\n  <!--[if lt IE 7 ]> <body class="ie6"> <![endif]-->\\n  <!--[if IE 7 ]>    <body class="ie7"> <![endif]-->\\n  <!--[if IE 8 ]>    <body class="ie8"> <![endif]-->\\n  <!--[if IE 9 ]>    <body class="ie9"> <![endif]-->\\n  <!--[if (gt IE 9)|!(IE)]><!--> <body> <!--<![endif]-->\\n    \\n    <div class="flash">\', escape=False)\nresponse.write(response.flash or \'\')\nresponse.write(\'</div> <!-- notification div -->\\n\\n        \\n\\n    <div id="container">                        \\n      \\n      <div id="wrapper">        \\n      \', escape=False)\ntry:\n    response.write(auth.navbar(action=URL(\'default\',\'user\')))\nexcept:pass\nresponse.write(\'\\n    \\n    <div id="header"> <!-- header and login nav -->\\n      \', escape=False)\nresponse.write(\' <!-- this is default header -->\\n      \\n      <h1>\\n        DDLagoon <span id="appname"> The lagoon of DDL</span>\\n      </h1>\\n      <div style="clear: both;"></div><!-- Clear the divs -->\\n      \', escape=False)\nresponse.write(\'\\n    </div><!-- header  -->\\n    \\n\\n    \\n    <div id="page"> <!-- Here my central body -->     \\n\\n      \', escape=False)\nif left_sidebar_enabled:\n    response.write(\'\\n          <div id="left_sidebar" \', escape=False)\n    response.write(XML(left_sidebar_style))\n    response.write(\' >\\n            <div style="padding: 4px;">\\n          \', escape=False)\n    response.write(\'Link 1<br />Link 2\', escape=False)\n    response.write(\'       \\n            </div>\\n          </div><!-- left_sidebar -->\\n      \', escape=False)\n    pass\nresponse.write(\'\\n\\n      <!-- content -->\\n      <div id="content" \', escape=False)\nresponse.write(XML(style_content))\nresponse.write(\' >\\n        \', escape=False)\nresponse.write(\'\\n\\n\', escape=False)\nif \'ddlz\' in globals():\n    response.write(\'\\n    \', escape=False)\n    for ddl in ddlz:\n        response.write(\'\\n        \', escape=False)\n        response.write(ddl.filename)\n        response.write(\'\\n    \', escape=False)\n        pass\n    response.write(\'\\n\', escape=False)\n    else\n    response.write(\'\\n    No DDL, snif!\\n\', escape=False)\n    pass\nresponse.write(\'\\n\\n\', escape=False)\nresponse.write(\'\\n\', escape=False)\nresponse.write(\'\\n\', escape=False)\nresponse.write(\' \\n      </div>\\n      <!-- content -->\\n\\n      \', escape=False)\nif right_sidebar_enabled:\n    response.write(\'\\n          <div id="right_sidebar" \', escape=False)\n    response.write(XML(right_sidebar_style))\n    response.write(\' >\\n            <div style="padding: 4px;">\\n              \', escape=False)\n    response.write(\'\\n            </div>\\n      </div><!-- right_sidebar -->\\n          \', escape=False)\n    pass\nresponse.write(\'\\n\\n\\n      <div style="clear: both;"></div><!-- Clear the divs -->\\n      \\n    </div><!-- page -->                         \\n    \\n    <div id="footer">\\n      \', escape=False)\nresponse.write(\' <!-- this is default footer -->\\n      <span style="float: left; padding-right: 6px;">\\n        DDLagoon\\n      </span>\\n\\n        <span style="float: right; padding-right: 6px;">\', escape=False)\nresponse.write(T(\'Copyright\'))\nresponse.write(\' &#169; 2011</span>\\n      <div style="clear: both;"></div><!-- Clear the divs -->\\n      \', escape=False)\nresponse.write(\'\\n\\n    </div><!-- footer -->           \\n      </div><!-- wrapper -->\\n    </div><!-- container -->        \\n    \\n    <!--[if lt IE 7 ]>\\n    <script src="\', escape=False)\nresponse.write(URL(\'static\',\'js/dd_belatedpng.js\'))\nresponse.write(\'"></script>\\n    <script> DD_belatedPNG.fix(\\\'img, .png_bg\\\'); //fix any <img> or .png_bg background-images </script>\\n    <![endif]-->\\n    \', escape=False)\nif response.google_analytics_id:\n    response.write("<script>/* http://mathiasbynens.be/notes/async-analytics-snippet */ var _gaq=[[\'_setAccount\',\'", escape=False)\n    response.write(response.google_analyitics_id)\n    response.write("\'],[\'_trackPageview\']];(function(d,t){var g=d.createElement(t),s=d.getElementsByTagName(t)[0];g.src=\'//www.google-analytics.com/ga.js\';s.parentNode.insertBefore(g,s)}(document,\'script\')) </script>", escape=False)\n    pass\nresponse.write(\'\\n  </body>\\n</html>\\n\', escape=False)'
p6
sS'snapshot'
p7
(dp8
S'exception'
p9
(dp10
S'__getslice__'
p11
S"<method-wrapper '__getslice__' of exceptions.SyntaxError object>"
p12
sS'text'
p13
S"'    else\\n'"
p14
sS'__str__'
p15
S"<method-wrapper '__str__' of exceptions.SyntaxError object>"
p16
sS'__reduce__'
p17
S'<built-in method __reduce__ of exceptions.SyntaxError object>'
p18
sS'__dict__'
p19
S'{}'
p20
sS'__sizeof__'
p21
S'<built-in method __sizeof__ of exceptions.SyntaxError object>'
p22
sS'__init__'
p23
S"<method-wrapper '__init__' of exceptions.SyntaxError object>"
p24
sS'__setattr__'
p25
S"<method-wrapper '__setattr__' of exceptions.SyntaxError object>"
p26
sS'__reduce_ex__'
p27
S'<built-in method __reduce_ex__ of exceptions.SyntaxError object>'
p28
sS'__new__'
p29
S'<built-in method __new__ of type object>'
p30
sS'__format__'
p31
S'<built-in method __format__ of exceptions.SyntaxError object>'
p32
sS'__class__'
p33
S"<type 'exceptions.SyntaxError'>"
p34
sS'filename'
p35
S"'/windows/Users/Thomas/Dropbox/appz/2011/GAE/ddl-...on/applications/ddlagoon/views/default/index.html'"
p36
sS'lineno'
p37
S'82'
p38
sS'msg'
p39
S"'invalid syntax'"
p40
sS'__doc__'
p41
S"'Invalid syntax.'"
p42
sS'__getitem__'
p43
S"<method-wrapper '__getitem__' of exceptions.SyntaxError object>"
p44
sS'__setstate__'
p45
S'<built-in method __setstate__ of exceptions.SyntaxError object>'
p46
sS'__getattribute__'
p47
S"<method-wrapper '__getattribute__' of exceptions.SyntaxError object>"
p48
sS'print_file_and_line'
p49
S'None'
p50
sS'args'
p51
S"('invalid syntax', ('/windows/Users/Thomas/Dropbox/appz/2011/GAE/ddl-...on/applications/ddlagoon/views/default/index.html', 82, 8, '    else\\n'))"
p52
sS'__subclasshook__'
p53
S'<built-in method __subclasshook__ of type object>'
p54
sS'offset'
p55
S'8'
sS'__unicode__'
p56
S'<built-in method __unicode__ of exceptions.SyntaxError object>'
p57
sS'__delattr__'
p58
S"<method-wrapper '__delattr__' of exceptions.SyntaxError object>"
p59
sS'__repr__'
p60
S"<method-wrapper '__repr__' of exceptions.SyntaxError object>"
p61
sS'__hash__'
p62
S"<method-wrapper '__hash__' of exceptions.SyntaxError object>"
p63
ssS'evalue'
p64
S'invalid syntax (index.html, line 82)'
p65
sS'request'
p66
ccopy_reg
_reconstructor
p67
(cgluon.html
BEAUTIFY
p68
c__builtin__
object
p69
NtRp70
(dp71
S'attributes'
p72
(dp73
sS'components'
p74
(lp75
g67
(cgluon.html
TABLE
p76
g69
NtRp77
(dp78
g72
(dp79
S'level'
p80
I5
ssS'parent'
p81
Nsg74
(lp82
g67
(cgluon.html
TR
p83
g69
NtRp84
(dp85
g72
(dp86
sg81
g77
sg74
(lp87
g67
(cgluon.html
TD
p88
g69
NtRp89
(dp90
g72
(dp91
S'_style'
p92
S'font-weight:bold;'
p93
ssg81
g84
sg74
(lp94
S'ajax'
p95
asbag67
(g88
g69
NtRp96
(dp97
g72
(dp98
S'_valign'
p99
S'top'
p100
ssg81
g84
sg74
(lp101
S':'
asbag67
(g88
g69
NtRp102
(dp103
g72
(dp104
sg81
g84
sg74
(lp105
g67
(g68
g69
NtRp106
(dp107
g72
(dp108
g80
I5
ssg81
g102
sg74
(lp109
S'False'
p110
asbasbasbag67
(g83
g69
NtRp111
(dp112
g72
(dp113
sg81
g77
sg74
(lp114
g67
(g88
g69
NtRp115
(dp116
g72
(dp117
g92
g93
ssg81
g111
sg74
(lp118
S'application'
p119
asbag67
(g88
g69
NtRp120
(dp121
g72
(dp122
g99
g100
ssg81
g111
sg74
(lp123
S':'
asbag67
(g88
g69
NtRp124
(dp125
g72
(dp126
sg81
g111
sg74
(lp127
g67
(g68
g69
NtRp128
(dp129
g72
(dp130
g80
I5
ssg81
g124
sg74
(lp131
S'ddlagoon'
p132
asbasbasbag67
(g83
g69
NtRp133
(dp134
g72
(dp135
sg81
g77
sg74
(lp136
g67
(g88
g69
NtRp137
(dp138
g72
(dp139
g92
g93
ssg81
g133
sg74
(lp140
g51
asbag67
(g88
g69
NtRp141
(dp142
g72
(dp143
g99
g100
ssg81
g133
sg74
(lp144
S':'
asbag67
(g88
g69
NtRp145
(dp146
g72
(dp147
sg81
g133
sg74
(lp148
g67
(g68
g69
NtRp149
(dp150
g72
(dp151
g80
I5
ssg81
g145
sg74
(lp152
g67
(g76
g69
NtRp153
(dp154
g72
(dp155
g80
I4
ssg81
Nsg74
(lp156
sbasbasbasbag67
(g83
g69
NtRp157
(dp158
g72
(dp159
sg81
g77
sg74
(lp160
g67
(g88
g69
NtRp161
(dp162
g72
(dp163
g92
g93
ssg81
g157
sg74
(lp164
S'body'
p165
asbag67
(g88
g69
NtRp166
(dp167
g72
(dp168
g99
g100
ssg81
g157
sg74
(lp169
S':'
asbag67
(g88
g69
NtRp170
(dp171
g72
(dp172
sg81
g157
sg74
(lp173
g67
(g68
g69
NtRp174
(dp175
g72
(dp176
g80
I5
ssg81
g170
sg74
(lp177
S'<cStringIO.StringO object at 0x3677b20>'
p178
asbasbasbag67
(g83
g69
NtRp179
(dp180
g72
(dp181
sg81
g77
sg74
(lp182
g67
(g88
g69
NtRp183
(dp184
g72
(dp185
g92
g93
ssg81
g179
sg74
(lp186
S'client'
p187
asbag67
(g88
g69
NtRp188
(dp189
g72
(dp190
g99
g100
ssg81
g179
sg74
(lp191
S':'
asbag67
(g88
g69
NtRp192
(dp193
g72
(dp194
sg81
g179
sg74
(lp195
g67
(g68
g69
NtRp196
(dp197
g72
(dp198
g80
I5
ssg81
g192
sg74
(lp199
S'127.0.0.1'
p200
asbasbasbag67
(g83
g69
NtRp201
(dp202
g72
(dp203
sg81
g77
sg74
(lp204
g67
(g88
g69
NtRp205
(dp206
g72
(dp207
g92
g93
ssg81
g201
sg74
(lp208
S'controller'
p209
asbag67
(g88
g69
NtRp210
(dp211
g72
(dp212
g99
g100
ssg81
g201
sg74
(lp213
S':'
asbag67
(g88
g69
NtRp214
(dp215
g72
(dp216
sg81
g201
sg74
(lp217
g67
(g68
g69
NtRp218
(dp219
g72
(dp220
g80
I5
ssg81
g214
sg74
(lp221
S'default'
p222
asbasbasbag67
(g83
g69
NtRp223
(dp224
g72
(dp225
sg81
g77
sg74
(lp226
g67
(g88
g69
NtRp227
(dp228
g72
(dp229
g92
g93
ssg81
g223
sg74
(lp230
S'cookies'
p231
asbag67
(g88
g69
NtRp232
(dp233
g72
(dp234
g99
g100
ssg81
g223
sg74
(lp235
S':'
asbag67
(g88
g69
NtRp236
(dp237
g72
(dp238
sg81
g223
sg74
(lp239
g67
(g68
g69
NtRp240
(dp241
g72
(dp242
g80
I5
ssg81
g236
sg74
(lp243
g67
(g76
g69
NtRp244
(dp245
g72
(dp246
g80
I4
ssg81
Nsg74
(lp247
g67
(g83
g69
NtRp248
(dp249
g72
(dp250
sg81
g244
sg74
(lp251
g67
(g88
g69
NtRp252
(dp253
g72
(dp254
g92
g93
ssg81
g248
sg74
(lp255
S'session_id_admin'
p256
asbag67
(g88
g69
NtRp257
(dp258
g72
(dp259
g99
g100
ssg81
g248
sg74
(lp260
S':'
asbag67
(g88
g69
NtRp261
(dp262
g72
(dp263
sg81
g248
sg74
(lp264
g67
(g68
g69
NtRp265
(dp266
g72
(dp267
g80
I4
ssg81
g261
sg74
(lp268
g67
(g76
g69
NtRp269
(dp270
g72
(dp271
g80
I3
ssg81
Nsg74
(lp272
g67
(g83
g69
NtRp273
(dp274
g72
(dp275
sg81
g269
sg74
(lp276
g67
(g88
g69
NtRp277
(dp278
g72
(dp279
g92
g93
ssg81
g273
sg74
(lp280
S'comment'
p281
asbag67
(g88
g69
NtRp282
(dp283
g72
(dp284
g99
g100
ssg81
g273
sg74
(lp285
S':'
asbag67
(g88
g69
NtRp286
(dp287
g72
(dp288
sg81
g273
sg74
(lp289
g67
(g68
g69
NtRp290
(dp291
g72
(dp292
g80
I3
ssg81
g286
sg74
(lp293
S''
asbasbasbag67
(g83
g69
NtRp294
(dp295
g72
(dp296
sg81
g269
sg74
(lp297
g67
(g88
g69
NtRp298
(dp299
g72
(dp300
g92
g93
ssg81
g294
sg74
(lp301
S'domain'
p302
asbag67
(g88
g69
NtRp303
(dp304
g72
(dp305
g99
g100
ssg81
g294
sg74
(lp306
S':'
asbag67
(g88
g69
NtRp307
(dp308
g72
(dp309
sg81
g294
sg74
(lp310
g67
(g68
g69
NtRp311
(dp312
g72
(dp313
g80
I3
ssg81
g307
sg74
(lp314
S''
asbasbasbag67
(g83
g69
NtRp315
(dp316
g72
(dp317
sg81
g269
sg74
(lp318
g67
(g88
g69
NtRp319
(dp320
g72
(dp321
g92
g93
ssg81
g315
sg74
(lp322
S'expires'
p323
asbag67
(g88
g69
NtRp324
(dp325
g72
(dp326
g99
g100
ssg81
g315
sg74
(lp327
S':'
asbag67
(g88
g69
NtRp328
(dp329
g72
(dp330
sg81
g315
sg74
(lp331
g67
(g68
g69
NtRp332
(dp333
g72
(dp334
g80
I3
ssg81
g328
sg74
(lp335
S''
asbasbasbag67
(g83
g69
NtRp336
(dp337
g72
(dp338
sg81
g269
sg74
(lp339
g67
(g88
g69
NtRp340
(dp341
g72
(dp342
g92
g93
ssg81
g336
sg74
(lp343
S'httponly'
p344
asbag67
(g88
g69
NtRp345
(dp346
g72
(dp347
g99
g100
ssg81
g336
sg74
(lp348
S':'
asbag67
(g88
g69
NtRp349
(dp350
g72
(dp351
sg81
g336
sg74
(lp352
g67
(g68
g69
NtRp353
(dp354
g72
(dp355
g80
I3
ssg81
g349
sg74
(lp356
S''
asbasbasbag67
(g83
g69
NtRp357
(dp358
g72
(dp359
sg81
g269
sg74
(lp360
g67
(g88
g69
NtRp361
(dp362
g72
(dp363
g92
g93
ssg81
g357
sg74
(lp364
S'max-age'
p365
asbag67
(g88
g69
NtRp366
(dp367
g72
(dp368
g99
g100
ssg81
g357
sg74
(lp369
S':'
asbag67
(g88
g69
NtRp370
(dp371
g72
(dp372
sg81
g357
sg74
(lp373
g67
(g68
g69
NtRp374
(dp375
g72
(dp376
g80
I3
ssg81
g370
sg74
(lp377
S''
asbasbasbag67
(g83
g69
NtRp378
(dp379
g72
(dp380
sg81
g269
sg74
(lp381
g67
(g88
g69
NtRp382
(dp383
g72
(dp384
g92
g93
ssg81
g378
sg74
(lp385
S'path'
p386
asbag67
(g88
g69
NtRp387
(dp388
g72
(dp389
g99
g100
ssg81
g378
sg74
(lp390
S':'
asbag67
(g88
g69
NtRp391
(dp392
g72
(dp393
sg81
g378
sg74
(lp394
g67
(g68
g69
NtRp395
(dp396
g72
(dp397
g80
I3
ssg81
g391
sg74
(lp398
S''
asbasbasbag67
(g83
g69
NtRp399
(dp400
g72
(dp401
sg81
g269
sg74
(lp402
g67
(g88
g69
NtRp403
(dp404
g72
(dp405
g92
g93
ssg81
g399
sg74
(lp406
S'secure'
p407
asbag67
(g88
g69
NtRp408
(dp409
g72
(dp410
g99
g100
ssg81
g399
sg74
(lp411
S':'
asbag67
(g88
g69
NtRp412
(dp413
g72
(dp414
sg81
g399
sg74
(lp415
g67
(g68
g69
NtRp416
(dp417
g72
(dp418
g80
I3
ssg81
g412
sg74
(lp419
S''
asbasbasbag67
(g83
g69
NtRp420
(dp421
g72
(dp422
sg81
g269
sg74
(lp423
g67
(g88
g69
NtRp424
(dp425
g72
(dp426
g92
g93
ssg81
g420
sg74
(lp427
S'version'
p428
asbag67
(g88
g69
NtRp429
(dp430
g72
(dp431
g99
g100
ssg81
g420
sg74
(lp432
S':'
asbag67
(g88
g69
NtRp433
(dp434
g72
(dp435
sg81
g420
sg74
(lp436
g67
(g68
g69
NtRp437
(dp438
g72
(dp439
g80
I3
ssg81
g433
sg74
(lp440
S''
asbasbasbasbasbasbasbag67
(g83
g69
NtRp441
(dp442
g72
(dp443
sg81
g244
sg74
(lp444
g67
(g88
g69
NtRp445
(dp446
g72
(dp447
g92
g93
ssg81
g441
sg74
(lp448
S'session_id_ddlagoon'
p449
asbag67
(g88
g69
NtRp450
(dp451
g72
(dp452
g99
g100
ssg81
g441
sg74
(lp453
S':'
asbag67
(g88
g69
NtRp454
(dp455
g72
(dp456
sg81
g441
sg74
(lp457
g67
(g68
g69
NtRp458
(dp459
g72
(dp460
g80
I4
ssg81
g454
sg74
(lp461
g67
(g76
g69
NtRp462
(dp463
g72
(dp464
g80
I3
ssg81
Nsg74
(lp465
g67
(g83
g69
NtRp466
(dp467
g72
(dp468
sg81
g462
sg74
(lp469
g67
(g88
g69
NtRp470
(dp471
g72
(dp472
g92
g93
ssg81
g466
sg74
(lp473
g281
asbag67
(g88
g69
NtRp474
(dp475
g72
(dp476
g99
g100
ssg81
g466
sg74
(lp477
S':'
asbag67
(g88
g69
NtRp478
(dp479
g72
(dp480
sg81
g466
sg74
(lp481
g67
(g68
g69
NtRp482
(dp483
g72
(dp484
g80
I3
ssg81
g478
sg74
(lp485
S''
asbasbasbag67
(g83
g69
NtRp486
(dp487
g72
(dp488
sg81
g462
sg74
(lp489
g67
(g88
g69
NtRp490
(dp491
g72
(dp492
g92
g93
ssg81
g486
sg74
(lp493
g302
asbag67
(g88
g69
NtRp494
(dp495
g72
(dp496
g99
g100
ssg81
g486
sg74
(lp497
S':'
asbag67
(g88
g69
NtRp498
(dp499
g72
(dp500
sg81
g486
sg74
(lp501
g67
(g68
g69
NtRp502
(dp503
g72
(dp504
g80
I3
ssg81
g498
sg74
(lp505
S''
asbasbasbag67
(g83
g69
NtRp506
(dp507
g72
(dp508
sg81
g462
sg74
(lp509
g67
(g88
g69
NtRp510
(dp511
g72
(dp512
g92
g93
ssg81
g506
sg74
(lp513
g323
asbag67
(g88
g69
NtRp514
(dp515
g72
(dp516
g99
g100
ssg81
g506
sg74
(lp517
S':'
asbag67
(g88
g69
NtRp518
(dp519
g72
(dp520
sg81
g506
sg74
(lp521
g67
(g68
g69
NtRp522
(dp523
g72
(dp524
g80
I3
ssg81
g518
sg74
(lp525
S''
asbasbasbag67
(g83
g69
NtRp526
(dp527
g72
(dp528
sg81
g462
sg74
(lp529
g67
(g88
g69
NtRp530
(dp531
g72
(dp532
g92
g93
ssg81
g526
sg74
(lp533
g344
asbag67
(g88
g69
NtRp534
(dp535
g72
(dp536
g99
g100
ssg81
g526
sg74
(lp537
S':'
asbag67
(g88
g69
NtRp538
(dp539
g72
(dp540
sg81
g526
sg74
(lp541
g67
(g68
g69
NtRp542
(dp543
g72
(dp544
g80
I3
ssg81
g538
sg74
(lp545
S''
asbasbasbag67
(g83
g69
NtRp546
(dp547
g72
(dp548
sg81
g462
sg74
(lp549
g67
(g88
g69
NtRp550
(dp551
g72
(dp552
g92
g93
ssg81
g546
sg74
(lp553
g365
asbag67
(g88
g69
NtRp554
(dp555
g72
(dp556
g99
g100
ssg81
g546
sg74
(lp557
S':'
asbag67
(g88
g69
NtRp558
(dp559
g72
(dp560
sg81
g546
sg74
(lp561
g67
(g68
g69
NtRp562
(dp563
g72
(dp564
g80
I3
ssg81
g558
sg74
(lp565
S''
asbasbasbag67
(g83
g69
NtRp566
(dp567
g72
(dp568
sg81
g462
sg74
(lp569
g67
(g88
g69
NtRp570
(dp571
g72
(dp572
g92
g93
ssg81
g566
sg74
(lp573
g386
asbag67
(g88
g69
NtRp574
(dp575
g72
(dp576
g99
g100
ssg81
g566
sg74
(lp577
S':'
asbag67
(g88
g69
NtRp578
(dp579
g72
(dp580
sg81
g566
sg74
(lp581
g67
(g68
g69
NtRp582
(dp583
g72
(dp584
g80
I3
ssg81
g578
sg74
(lp585
S''
asbasbasbag67
(g83
g69
NtRp586
(dp587
g72
(dp588
sg81
g462
sg74
(lp589
g67
(g88
g69
NtRp590
(dp591
g72
(dp592
g92
g93
ssg81
g586
sg74
(lp593
g407
asbag67
(g88
g69
NtRp594
(dp595
g72
(dp596
g99
g100
ssg81
g586
sg74
(lp597
S':'
asbag67
(g88
g69
NtRp598
(dp599
g72
(dp600
sg81
g586
sg74
(lp601
g67
(g68
g69
NtRp602
(dp603
g72
(dp604
g80
I3
ssg81
g598
sg74
(lp605
S''
asbasbasbag67
(g83
g69
NtRp606
(dp607
g72
(dp608
sg81
g462
sg74
(lp609
g67
(g88
g69
NtRp610
(dp611
g72
(dp612
g92
g93
ssg81
g606
sg74
(lp613
g428
asbag67
(g88
g69
NtRp614
(dp615
g72
(dp616
g99
g100
ssg81
g606
sg74
(lp617
S':'
asbag67
(g88
g69
NtRp618
(dp619
g72
(dp620
sg81
g606
sg74
(lp621
g67
(g68
g69
NtRp622
(dp623
g72
(dp624
g80
I3
ssg81
g618
sg74
(lp625
S''
asbasbasbasbasbasbasbag67
(g83
g69
NtRp626
(dp627
g72
(dp628
sg81
g244
sg74
(lp629
g67
(g88
g69
NtRp630
(dp631
g72
(dp632
g92
g93
ssg81
g626
sg74
(lp633
S'session_id_simple_app_test'
p634
asbag67
(g88
g69
NtRp635
(dp636
g72
(dp637
g99
g100
ssg81
g626
sg74
(lp638
S':'
asbag67
(g88
g69
NtRp639
(dp640
g72
(dp641
sg81
g626
sg74
(lp642
g67
(g68
g69
NtRp643
(dp644
g72
(dp645
g80
I4
ssg81
g639
sg74
(lp646
g67
(g76
g69
NtRp647
(dp648
g72
(dp649
g80
I3
ssg81
Nsg74
(lp650
g67
(g83
g69
NtRp651
(dp652
g72
(dp653
sg81
g647
sg74
(lp654
g67
(g88
g69
NtRp655
(dp656
g72
(dp657
g92
g93
ssg81
g651
sg74
(lp658
g281
asbag67
(g88
g69
NtRp659
(dp660
g72
(dp661
g99
g100
ssg81
g651
sg74
(lp662
S':'
asbag67
(g88
g69
NtRp663
(dp664
g72
(dp665
sg81
g651
sg74
(lp666
g67
(g68
g69
NtRp667
(dp668
g72
(dp669
g80
I3
ssg81
g663
sg74
(lp670
S''
asbasbasbag67
(g83
g69
NtRp671
(dp672
g72
(dp673
sg81
g647
sg74
(lp674
g67
(g88
g69
NtRp675
(dp676
g72
(dp677
g92
g93
ssg81
g671
sg74
(lp678
g302
asbag67
(g88
g69
NtRp679
(dp680
g72
(dp681
g99
g100
ssg81
g671
sg74
(lp682
S':'
asbag67
(g88
g69
NtRp683
(dp684
g72
(dp685
sg81
g671
sg74
(lp686
g67
(g68
g69
NtRp687
(dp688
g72
(dp689
g80
I3
ssg81
g683
sg74
(lp690
S''
asbasbasbag67
(g83
g69
NtRp691
(dp692
g72
(dp693
sg81
g647
sg74
(lp694
g67
(g88
g69
NtRp695
(dp696
g72
(dp697
g92
g93
ssg81
g691
sg74
(lp698
g323
asbag67
(g88
g69
NtRp699
(dp700
g72
(dp701
g99
g100
ssg81
g691
sg74
(lp702
S':'
asbag67
(g88
g69
NtRp703
(dp704
g72
(dp705
sg81
g691
sg74
(lp706
g67
(g68
g69
NtRp707
(dp708
g72
(dp709
g80
I3
ssg81
g703
sg74
(lp710
S''
asbasbasbag67
(g83
g69
NtRp711
(dp712
g72
(dp713
sg81
g647
sg74
(lp714
g67
(g88
g69
NtRp715
(dp716
g72
(dp717
g92
g93
ssg81
g711
sg74
(lp718
g344
asbag67
(g88
g69
NtRp719
(dp720
g72
(dp721
g99
g100
ssg81
g711
sg74
(lp722
S':'
asbag67
(g88
g69
NtRp723
(dp724
g72
(dp725
sg81
g711
sg74
(lp726
g67
(g68
g69
NtRp727
(dp728
g72
(dp729
g80
I3
ssg81
g723
sg74
(lp730
S''
asbasbasbag67
(g83
g69
NtRp731
(dp732
g72
(dp733
sg81
g647
sg74
(lp734
g67
(g88
g69
NtRp735
(dp736
g72
(dp737
g92
g93
ssg81
g731
sg74
(lp738
g365
asbag67
(g88
g69
NtRp739
(dp740
g72
(dp741
g99
g100
ssg81
g731
sg74
(lp742
S':'
asbag67
(g88
g69
NtRp743
(dp744
g72
(dp745
sg81
g731
sg74
(lp746
g67
(g68
g69
NtRp747
(dp748
g72
(dp749
g80
I3
ssg81
g743
sg74
(lp750
S''
asbasbasbag67
(g83
g69
NtRp751
(dp752
g72
(dp753
sg81
g647
sg74
(lp754
g67
(g88
g69
NtRp755
(dp756
g72
(dp757
g92
g93
ssg81
g751
sg74
(lp758
g386
asbag67
(g88
g69
NtRp759
(dp760
g72
(dp761
g99
g100
ssg81
g751
sg74
(lp762
S':'
asbag67
(g88
g69
NtRp763
(dp764
g72
(dp765
sg81
g751
sg74
(lp766
g67
(g68
g69
NtRp767
(dp768
g72
(dp769
g80
I3
ssg81
g763
sg74
(lp770
S''
asbasbasbag67
(g83
g69
NtRp771
(dp772
g72
(dp773
sg81
g647
sg74
(lp774
g67
(g88
g69
NtRp775
(dp776
g72
(dp777
g92
g93
ssg81
g771
sg74
(lp778
g407
asbag67
(g88
g69
NtRp779
(dp780
g72
(dp781
g99
g100
ssg81
g771
sg74
(lp782
S':'
asbag67
(g88
g69
NtRp783
(dp784
g72
(dp785
sg81
g771
sg74
(lp786
g67
(g68
g69
NtRp787
(dp788
g72
(dp789
g80
I3
ssg81
g783
sg74
(lp790
S''
asbasbasbag67
(g83
g69
NtRp791
(dp792
g72
(dp793
sg81
g647
sg74
(lp794
g67
(g88
g69
NtRp795
(dp796
g72
(dp797
g92
g93
ssg81
g791
sg74
(lp798
g428
asbag67
(g88
g69
NtRp799
(dp800
g72
(dp801
g99
g100
ssg81
g791
sg74
(lp802
S':'
asbag67
(g88
g69
NtRp803
(dp804
g72
(dp805
sg81
g791
sg74
(lp806
g67
(g68
g69
NtRp807
(dp808
g72
(dp809
g80
I3
ssg81
g803
sg74
(lp810
S''
asbasbasbasbasbasbasbag67
(g83
g69
NtRp811
(dp812
g72
(dp813
sg81
g244
sg74
(lp814
g67
(g88
g69
NtRp815
(dp816
g72
(dp817
g92
g93
ssg81
g811
sg74
(lp818
S'session_id_welcome'
p819
asbag67
(g88
g69
NtRp820
(dp821
g72
(dp822
g99
g100
ssg81
g811
sg74
(lp823
S':'
asbag67
(g88
g69
NtRp824
(dp825
g72
(dp826
sg81
g811
sg74
(lp827
g67
(g68
g69
NtRp828
(dp829
g72
(dp830
g80
I4
ssg81
g824
sg74
(lp831
g67
(g76
g69
NtRp832
(dp833
g72
(dp834
g80
I3
ssg81
Nsg74
(lp835
g67
(g83
g69
NtRp836
(dp837
g72
(dp838
sg81
g832
sg74
(lp839
g67
(g88
g69
NtRp840
(dp841
g72
(dp842
g92
g93
ssg81
g836
sg74
(lp843
g281
asbag67
(g88
g69
NtRp844
(dp845
g72
(dp846
g99
g100
ssg81
g836
sg74
(lp847
S':'
asbag67
(g88
g69
NtRp848
(dp849
g72
(dp850
sg81
g836
sg74
(lp851
g67
(g68
g69
NtRp852
(dp853
g72
(dp854
g80
I3
ssg81
g848
sg74
(lp855
S''
asbasbasbag67
(g83
g69
NtRp856
(dp857
g72
(dp858
sg81
g832
sg74
(lp859
g67
(g88
g69
NtRp860
(dp861
g72
(dp862
g92
g93
ssg81
g856
sg74
(lp863
g302
asbag67
(g88
g69
NtRp864
(dp865
g72
(dp866
g99
g100
ssg81
g856
sg74
(lp867
S':'
asbag67
(g88
g69
NtRp868
(dp869
g72
(dp870
sg81
g856
sg74
(lp871
g67
(g68
g69
NtRp872
(dp873
g72
(dp874
g80
I3
ssg81
g868
sg74
(lp875
S''
asbasbasbag67
(g83
g69
NtRp876
(dp877
g72
(dp878
sg81
g832
sg74
(lp879
g67
(g88
g69
NtRp880
(dp881
g72
(dp882
g92
g93
ssg81
g876
sg74
(lp883
g323
asbag67
(g88
g69
NtRp884
(dp885
g72
(dp886
g99
g100
ssg81
g876
sg74
(lp887
S':'
asbag67
(g88
g69
NtRp888
(dp889
g72
(dp890
sg81
g876
sg74
(lp891
g67
(g68
g69
NtRp892
(dp893
g72
(dp894
g80
I3
ssg81
g888
sg74
(lp895
S''
asbasbasbag67
(g83
g69
NtRp896
(dp897
g72
(dp898
sg81
g832
sg74
(lp899
g67
(g88
g69
NtRp900
(dp901
g72
(dp902
g92
g93
ssg81
g896
sg74
(lp903
g344
asbag67
(g88
g69
NtRp904
(dp905
g72
(dp906
g99
g100
ssg81
g896
sg74
(lp907
S':'
asbag67
(g88
g69
NtRp908
(dp909
g72
(dp910
sg81
g896
sg74
(lp911
g67
(g68
g69
NtRp912
(dp913
g72
(dp914
g80
I3
ssg81
g908
sg74
(lp915
S''
asbasbasbag67
(g83
g69
NtRp916
(dp917
g72
(dp918
sg81
g832
sg74
(lp919
g67
(g88
g69
NtRp920
(dp921
g72
(dp922
g92
g93
ssg81
g916
sg74
(lp923
g365
asbag67
(g88
g69
NtRp924
(dp925
g72
(dp926
g99
g100
ssg81
g916
sg74
(lp927
S':'
asbag67
(g88
g69
NtRp928
(dp929
g72
(dp930
sg81
g916
sg74
(lp931
g67
(g68
g69
NtRp932
(dp933
g72
(dp934
g80
I3
ssg81
g928
sg74
(lp935
S''
asbasbasbag67
(g83
g69
NtRp936
(dp937
g72
(dp938
sg81
g832
sg74
(lp939
g67
(g88
g69
NtRp940
(dp941
g72
(dp942
g92
g93
ssg81
g936
sg74
(lp943
g386
asbag67
(g88
g69
NtRp944
(dp945
g72
(dp946
g99
g100
ssg81
g936
sg74
(lp947
S':'
asbag67
(g88
g69
NtRp948
(dp949
g72
(dp950
sg81
g936
sg74
(lp951
g67
(g68
g69
NtRp952
(dp953
g72
(dp954
g80
I3
ssg81
g948
sg74
(lp955
S''
asbasbasbag67
(g83
g69
NtRp956
(dp957
g72
(dp958
sg81
g832
sg74
(lp959
g67
(g88
g69
NtRp960
(dp961
g72
(dp962
g92
g93
ssg81
g956
sg74
(lp963
g407
asbag67
(g88
g69
NtRp964
(dp965
g72
(dp966
g99
g100
ssg81
g956
sg74
(lp967
S':'
asbag67
(g88
g69
NtRp968
(dp969
g72
(dp970
sg81
g956
sg74
(lp971
g67
(g68
g69
NtRp972
(dp973
g72
(dp974
g80
I3
ssg81
g968
sg74
(lp975
S''
asbasbasbag67
(g83
g69
NtRp976
(dp977
g72
(dp978
sg81
g832
sg74
(lp979
g67
(g88
g69
NtRp980
(dp981
g72
(dp982
g92
g93
ssg81
g976
sg74
(lp983
g428
asbag67
(g88
g69
NtRp984
(dp985
g72
(dp986
g99
g100
ssg81
g976
sg74
(lp987
S':'
asbag67
(g88
g69
NtRp988
(dp989
g72
(dp990
sg81
g976
sg74
(lp991
g67
(g68
g69
NtRp992
(dp993
g72
(dp994
g80
I3
ssg81
g988
sg74
(lp995
S''
asbasbasbasbasbasbasbasbasbasbasbag67
(g83
g69
NtRp996
(dp997
g72
(dp998
sg81
g77
sg74
(lp999
g67
(g88
g69
NtRp1000
(dp1001
g72
(dp1002
g92
g93
ssg81
g996
sg74
(lp1003
S'env'
p1004
asbag67
(g88
g69
NtRp1005
(dp1006
g72
(dp1007
g99
g100
ssg81
g996
sg74
(lp1008
S':'
asbag67
(g88
g69
NtRp1009
(dp1010
g72
(dp1011
sg81
g996
sg74
(lp1012
g67
(g68
g69
NtRp1013
(dp1014
g72
(dp1015
g80
I5
ssg81
g1009
sg74
(lp1016
g67
(g76
g69
NtRp1017
(dp1018
g72
(dp1019
g80
I4
ssg81
Nsg74
(lp1020
g67
(g83
g69
NtRp1021
(dp1022
g72
(dp1023
sg81
g1017
sg74
(lp1024
g67
(g88
g69
NtRp1025
(dp1026
g72
(dp1027
g92
g93
ssg81
g1021
sg74
(lp1028
S'app_folders'
p1029
asbag67
(g88
g69
NtRp1030
(dp1031
g72
(dp1032
g99
g100
ssg81
g1021
sg74
(lp1033
S':'
asbag67
(g88
g69
NtRp1034
(dp1035
g72
(dp1036
sg81
g1021
sg74
(lp1037
g67
(g68
g69
NtRp1038
(dp1039
g72
(dp1040
g80
I4
ssg81
g1034
sg74
(lp1041
S"set(['/windows/Users/Thomas/Dropbox/appz/2011/GAE/ddl-lagoon/applications/ddlagoon/', '/windows/Users/Thomas/Dropbox/appz/2011/GAE/ddl-lagoon/applications/welcome/', '/windows/Users/Thomas/Dropbox/appz/2011/GAE/ddl-lagoon/applications/admin/', '/windows/Users/Thomas/Dropbox/appz/2011/GAE/ddl-lagoon/applications/simple_app_test/'])"
p1042
asbasbasbag67
(g83
g69
NtRp1043
(dp1044
g72
(dp1045
sg81
g1017
sg74
(lp1046
g67
(g88
g69
NtRp1047
(dp1048
g72
(dp1049
g92
g93
ssg81
g1043
sg74
(lp1050
S'applications_parent'
p1051
asbag67
(g88
g69
NtRp1052
(dp1053
g72
(dp1054
g99
g100
ssg81
g1043
sg74
(lp1055
S':'
asbag67
(g88
g69
NtRp1056
(dp1057
g72
(dp1058
sg81
g1043
sg74
(lp1059
g67
(g68
g69
NtRp1060
(dp1061
g72
(dp1062
g80
I4
ssg81
g1056
sg74
(lp1063
S'/windows/Users/Thomas/Dropbox/appz/2011/GAE/ddl-lagoon'
p1064
asbasbasbag67
(g83
g69
NtRp1065
(dp1066
g72
(dp1067
sg81
g1017
sg74
(lp1068
g67
(g88
g69
NtRp1069
(dp1070
g72
(dp1071
g92
g93
ssg81
g1065
sg74
(lp1072
S'cmd_args'
p1073
asbag67
(g88
g69
NtRp1074
(dp1075
g72
(dp1076
g99
g100
ssg81
g1065
sg74
(lp1077
S':'
asbag67
(g88
g69
NtRp1078
(dp1079
g72
(dp1080
sg81
g1065
sg74
(lp1081
g67
(g68
g69
NtRp1082
(dp1083
g72
(dp1084
g80
I4
ssg81
g1078
sg74
(lp1085
g67
(g76
g69
NtRp1086
(dp1087
g72
(dp1088
g80
I3
ssg81
Nsg74
(lp1089
sbasbasbasbag67
(g83
g69
NtRp1090
(dp1091
g72
(dp1092
sg81
g1017
sg74
(lp1093
g67
(g88
g69
NtRp1094
(dp1095
g72
(dp1096
g92
g93
ssg81
g1090
sg74
(lp1097
S'cmd_options'
p1098
asbag67
(g88
g69
NtRp1099
(dp1100
g72
(dp1101
g99
g100
ssg81
g1090
sg74
(lp1102
S':'
asbag67
(g88
g69
NtRp1103
(dp1104
g72
(dp1105
sg81
g1090
sg74
(lp1106
g67
(g68
g69
NtRp1107
(dp1108
g72
(dp1109
g80
I4
ssg81
g1103
sg74
(lp1110
S"<Values at 0x1ba50e0: {'verbose': False, 'ip': '127.0.0.1', 'shutdown_timeout': 5, 'taskbar': False, 'nocron': False, 'pid_filename': 'httpserver.pid', 'maxthreads': None, 'softcron': False, 'server_name': 'VPCF22AJ', 'bpython': False, 'nogui': False, 'port': 8000, 'extcron': False, 'debuglevel': 30, 'test': None, 'folder': '/windows/Users/Thomas/Dropbox/appz/2011/GAE/ddl-lagoon', 'config': '', 'import_models': False, 'winservice': '', 'shell': None, 'run': '', 'log_filename': 'httpserver.log', 'args': [''], 'ssl_ca_certificate': None, 'scheduler': None, 'profiler_filename': None, 'ssl_private_key': '', 'password': 'admin', 'request_queue_size': 5, 'ssl_certificate': '', 'cronjob': False, 'plain': False, 'quiet': False, 'interfaces': None, 'minthreads': None, 'timeout': 10, 'numthreads': None, 'nobanner': False}>"
p1111
asbasbasbag67
(g83
g69
NtRp1112
(dp1113
g72
(dp1114
sg81
g1017
sg74
(lp1115
g67
(g88
g69
NtRp1116
(dp1117
g72
(dp1118
g92
g93
ssg81
g1112
sg74
(lp1119
S'db_sessions'
p1120
asbag67
(g88
g69
NtRp1121
(dp1122
g72
(dp1123
g99
g100
ssg81
g1112
sg74
(lp1124
S':'
asbag67
(g88
g69
NtRp1125
(dp1126
g72
(dp1127
sg81
g1112
sg74
(lp1128
g67
(g68
g69
NtRp1129
(dp1130
g72
(dp1131
g80
I4
ssg81
g1125
sg74
(lp1132
S'set([])'
p1133
asbasbasbag67
(g83
g69
NtRp1134
(dp1135
g72
(dp1136
sg81
g1017
sg74
(lp1137
g67
(g88
g69
NtRp1138
(dp1139
g72
(dp1140
g92
g93
ssg81
g1134
sg74
(lp1141
S'debugging'
p1142
asbag67
(g88
g69
NtRp1143
(dp1144
g72
(dp1145
g99
g100
ssg81
g1134
sg74
(lp1146
S':'
asbag67
(g88
g69
NtRp1147
(dp1148
g72
(dp1149
sg81
g1134
sg74
(lp1150
g67
(g68
g69
NtRp1151
(dp1152
g72
(dp1153
g80
I4
ssg81
g1147
sg74
(lp1154
g110
asbasbasbag67
(g83
g69
NtRp1155
(dp1156
g72
(dp1157
sg81
g1017
sg74
(lp1158
g67
(g88
g69
NtRp1159
(dp1160
g72
(dp1161
g92
g93
ssg81
g1155
sg74
(lp1162
S'gluon_parent'
p1163
asbag67
(g88
g69
NtRp1164
(dp1165
g72
(dp1166
g99
g100
ssg81
g1155
sg74
(lp1167
S':'
asbag67
(g88
g69
NtRp1168
(dp1169
g72
(dp1170
sg81
g1155
sg74
(lp1171
g67
(g68
g69
NtRp1172
(dp1173
g72
(dp1174
g80
I4
ssg81
g1168
sg74
(lp1175
S'/windows/Users/Thomas/Dropbox/appz/2011/GAE/ddl-lagoon'
p1176
asbasbasbag67
(g83
g69
NtRp1177
(dp1178
g72
(dp1179
sg81
g1017
sg74
(lp1180
g67
(g88
g69
NtRp1181
(dp1182
g72
(dp1183
g92
g93
ssg81
g1177
sg74
(lp1184
S'http_accept'
p1185
asbag67
(g88
g69
NtRp1186
(dp1187
g72
(dp1188
g99
g100
ssg81
g1177
sg74
(lp1189
S':'
asbag67
(g88
g69
NtRp1190
(dp1191
g72
(dp1192
sg81
g1177
sg74
(lp1193
g67
(g68
g69
NtRp1194
(dp1195
g72
(dp1196
g80
I4
ssg81
g1190
sg74
(lp1197
S'text/html,application/xhtml+xml,application/xml;q=0.9,*/*;q=0.8'
p1198
asbasbasbag67
(g83
g69
NtRp1199
(dp1200
g72
(dp1201
sg81
g1017
sg74
(lp1202
g67
(g88
g69
NtRp1203
(dp1204
g72
(dp1205
g92
g93
ssg81
g1199
sg74
(lp1206
S'http_accept_charset'
p1207
asbag67
(g88
g69
NtRp1208
(dp1209
g72
(dp1210
g99
g100
ssg81
g1199
sg74
(lp1211
S':'
asbag67
(g88
g69
NtRp1212
(dp1213
g72
(dp1214
sg81
g1199
sg74
(lp1215
g67
(g68
g69
NtRp1216
(dp1217
g72
(dp1218
g80
I4
ssg81
g1212
sg74
(lp1219
S'ISO-8859-1,utf-8;q=0.7,*;q=0.3'
p1220
asbasbasbag67
(g83
g69
NtRp1221
(dp1222
g72
(dp1223
sg81
g1017
sg74
(lp1224
g67
(g88
g69
NtRp1225
(dp1226
g72
(dp1227
g92
g93
ssg81
g1221
sg74
(lp1228
S'http_accept_encoding'
p1229
asbag67
(g88
g69
NtRp1230
(dp1231
g72
(dp1232
g99
g100
ssg81
g1221
sg74
(lp1233
S':'
asbag67
(g88
g69
NtRp1234
(dp1235
g72
(dp1236
sg81
g1221
sg74
(lp1237
g67
(g68
g69
NtRp1238
(dp1239
g72
(dp1240
g80
I4
ssg81
g1234
sg74
(lp1241
S'gzip,deflate,sdch'
p1242
asbasbasbag67
(g83
g69
NtRp1243
(dp1244
g72
(dp1245
sg81
g1017
sg74
(lp1246
g67
(g88
g69
NtRp1247
(dp1248
g72
(dp1249
g92
g93
ssg81
g1243
sg74
(lp1250
S'http_accept_language'
p1251
asbag67
(g88
g69
NtRp1252
(dp1253
g72
(dp1254
g99
g100
ssg81
g1243
sg74
(lp1255
S':'
asbag67
(g88
g69
NtRp1256
(dp1257
g72
(dp1258
sg81
g1243
sg74
(lp1259
g67
(g68
g69
NtRp1260
(dp1261
g72
(dp1262
g80
I4
ssg81
g1256
sg74
(lp1263
S'en-US,en;q=0.8,fr;q=0.6'
p1264
asbasbasbag67
(g83
g69
NtRp1265
(dp1266
g72
(dp1267
sg81
g1017
sg74
(lp1268
g67
(g88
g69
NtRp1269
(dp1270
g72
(dp1271
g92
g93
ssg81
g1265
sg74
(lp1272
S'http_cache_control'
p1273
asbag67
(g88
g69
NtRp1274
(dp1275
g72
(dp1276
g99
g100
ssg81
g1265
sg74
(lp1277
S':'
asbag67
(g88
g69
NtRp1278
(dp1279
g72
(dp1280
sg81
g1265
sg74
(lp1281
g67
(g68
g69
NtRp1282
(dp1283
g72
(dp1284
g80
I4
ssg81
g1278
sg74
(lp1285
S'max-age=0'
p1286
asbasbasbag67
(g83
g69
NtRp1287
(dp1288
g72
(dp1289
sg81
g1017
sg74
(lp1290
g67
(g88
g69
NtRp1291
(dp1292
g72
(dp1293
g92
g93
ssg81
g1287
sg74
(lp1294
S'http_connection'
p1295
asbag67
(g88
g69
NtRp1296
(dp1297
g72
(dp1298
g99
g100
ssg81
g1287
sg74
(lp1299
S':'
asbag67
(g88
g69
NtRp1300
(dp1301
g72
(dp1302
sg81
g1287
sg74
(lp1303
g67
(g68
g69
NtRp1304
(dp1305
g72
(dp1306
g80
I4
ssg81
g1300
sg74
(lp1307
S'keep-alive'
p1308
asbasbasbag67
(g83
g69
NtRp1309
(dp1310
g72
(dp1311
sg81
g1017
sg74
(lp1312
g67
(g88
g69
NtRp1313
(dp1314
g72
(dp1315
g92
g93
ssg81
g1309
sg74
(lp1316
S'http_cookie'
p1317
asbag67
(g88
g69
NtRp1318
(dp1319
g72
(dp1320
g99
g100
ssg81
g1309
sg74
(lp1321
S':'
asbag67
(g88
g69
NtRp1322
(dp1323
g72
(dp1324
sg81
g1309
sg74
(lp1325
g67
(g68
g69
NtRp1326
(dp1327
g72
(dp1328
g80
I4
ssg81
g1322
sg74
(lp1329
S'session_id_simple_app_test=127.0.0.1-27319f10-315d-4497-8aae-2c05fd178f5c; session_id_welcome=127.0.0.1-2168298f-c3c8-4733-a7ef-a6d1ff710f62; __utma_a2a=5510587673.1349489975.1317933049.1319659660.1319659660.47; session_id_ddlagoon=127.0.0.1-5c26095d-5a0b-4829-92f8-f45d96c51d41; session_id_admin=127.0.0.1-6f7d8a72-0c03-4c5b-a42a-9821af1f57b2'
p1330
asbasbasbag67
(g83
g69
NtRp1331
(dp1332
g72
(dp1333
sg81
g1017
sg74
(lp1334
g67
(g88
g69
NtRp1335
(dp1336
g72
(dp1337
g92
g93
ssg81
g1331
sg74
(lp1338
S'http_host'
p1339
asbag67
(g88
g69
NtRp1340
(dp1341
g72
(dp1342
g99
g100
ssg81
g1331
sg74
(lp1343
S':'
asbag67
(g88
g69
NtRp1344
(dp1345
g72
(dp1346
sg81
g1331
sg74
(lp1347
g67
(g68
g69
NtRp1348
(dp1349
g72
(dp1350
g80
I4
ssg81
g1344
sg74
(lp1351
S'127.0.0.1:8000'
p1352
asbasbasbag67
(g83
g69
NtRp1353
(dp1354
g72
(dp1355
sg81
g1017
sg74
(lp1356
g67
(g88
g69
NtRp1357
(dp1358
g72
(dp1359
g92
g93
ssg81
g1353
sg74
(lp1360
S'http_user_agent'
p1361
asbag67
(g88
g69
NtRp1362
(dp1363
g72
(dp1364
g99
g100
ssg81
g1353
sg74
(lp1365
S':'
asbag67
(g88
g69
NtRp1366
(dp1367
g72
(dp1368
sg81
g1353
sg74
(lp1369
g67
(g68
g69
NtRp1370
(dp1371
g72
(dp1372
g80
I4
ssg81
g1366
sg74
(lp1373
S'Mozilla/5.0 (X11; Linux x86_64) AppleWebKit/535.1 (KHTML, like Gecko) Chrome/14.0.835.202 Safari/535.1'
p1374
asbasbasbag67
(g83
g69
NtRp1375
(dp1376
g72
(dp1377
sg81
g1017
sg74
(lp1378
g67
(g88
g69
NtRp1379
(dp1380
g72
(dp1381
g92
g93
ssg81
g1375
sg74
(lp1382
S'is_jython'
p1383
asbag67
(g88
g69
NtRp1384
(dp1385
g72
(dp1386
g99
g100
ssg81
g1375
sg74
(lp1387
S':'
asbag67
(g88
g69
NtRp1388
(dp1389
g72
(dp1390
sg81
g1375
sg74
(lp1391
g67
(g68
g69
NtRp1392
(dp1393
g72
(dp1394
g80
I4
ssg81
g1388
sg74
(lp1395
g110
asbasbasbag67
(g83
g69
NtRp1396
(dp1397
g72
(dp1398
sg81
g1017
sg74
(lp1399
g67
(g88
g69
NtRp1400
(dp1401
g72
(dp1402
g92
g93
ssg81
g1396
sg74
(lp1403
S'path_info'
p1404
asbag67
(g88
g69
NtRp1405
(dp1406
g72
(dp1407
g99
g100
ssg81
g1396
sg74
(lp1408
S':'
asbag67
(g88
g69
NtRp1409
(dp1410
g72
(dp1411
sg81
g1396
sg74
(lp1412
g67
(g68
g69
NtRp1413
(dp1414
g72
(dp1415
g80
I4
ssg81
g1409
sg74
(lp1416
S'/ddlagoon'
p1417
asbasbasbag67
(g83
g69
NtRp1418
(dp1419
g72
(dp1420
sg81
g1017
sg74
(lp1421
g67
(g88
g69
NtRp1422
(dp1423
g72
(dp1424
g92
g93
ssg81
g1418
sg74
(lp1425
S'query_string'
p1426
asbag67
(g88
g69
NtRp1427
(dp1428
g72
(dp1429
g99
g100
ssg81
g1418
sg74
(lp1430
S':'
asbag67
(g88
g69
NtRp1431
(dp1432
g72
(dp1433
sg81
g1418
sg74
(lp1434
g67
(g68
g69
NtRp1435
(dp1436
g72
(dp1437
g80
I4
ssg81
g1431
sg74
(lp1438
S''
asbasbasbag67
(g83
g69
NtRp1439
(dp1440
g72
(dp1441
sg81
g1017
sg74
(lp1442
g67
(g88
g69
NtRp1443
(dp1444
g72
(dp1445
g92
g93
ssg81
g1439
sg74
(lp1446
S'remote_addr'
p1447
asbag67
(g88
g69
NtRp1448
(dp1449
g72
(dp1450
g99
g100
ssg81
g1439
sg74
(lp1451
S':'
asbag67
(g88
g69
NtRp1452
(dp1453
g72
(dp1454
sg81
g1439
sg74
(lp1455
g67
(g68
g69
NtRp1456
(dp1457
g72
(dp1458
g80
I4
ssg81
g1452
sg74
(lp1459
g200
asbasbasbag67
(g83
g69
NtRp1460
(dp1461
g72
(dp1462
sg81
g1017
sg74
(lp1463
g67
(g88
g69
NtRp1464
(dp1465
g72
(dp1466
g92
g93
ssg81
g1460
sg74
(lp1467
S'remote_port'
p1468
asbag67
(g88
g69
NtRp1469
(dp1470
g72
(dp1471
g99
g100
ssg81
g1460
sg74
(lp1472
S':'
asbag67
(g88
g69
NtRp1473
(dp1474
g72
(dp1475
sg81
g1460
sg74
(lp1476
g67
(g68
g69
NtRp1477
(dp1478
g72
(dp1479
g80
I4
ssg81
g1473
sg74
(lp1480
S'34598'
p1481
asbasbasbag67
(g83
g69
NtRp1482
(dp1483
g72
(dp1484
sg81
g1017
sg74
(lp1485
g67
(g88
g69
NtRp1486
(dp1487
g72
(dp1488
g92
g93
ssg81
g1482
sg74
(lp1489
S'request_method'
p1490
asbag67
(g88
g69
NtRp1491
(dp1492
g72
(dp1493
g99
g100
ssg81
g1482
sg74
(lp1494
S':'
asbag67
(g88
g69
NtRp1495
(dp1496
g72
(dp1497
sg81
g1482
sg74
(lp1498
g67
(g68
g69
NtRp1499
(dp1500
g72
(dp1501
g80
I4
ssg81
g1495
sg74
(lp1502
S'GET'
p1503
asbasbasbag67
(g83
g69
NtRp1504
(dp1505
g72
(dp1506
sg81
g1017
sg74
(lp1507
g67
(g88
g69
NtRp1508
(dp1509
g72
(dp1510
g92
g93
ssg81
g1504
sg74
(lp1511
S'script_name'
p1512
asbag67
(g88
g69
NtRp1513
(dp1514
g72
(dp1515
g99
g100
ssg81
g1504
sg74
(lp1516
S':'
asbag67
(g88
g69
NtRp1517
(dp1518
g72
(dp1519
sg81
g1504
sg74
(lp1520
g67
(g68
g69
NtRp1521
(dp1522
g72
(dp1523
g80
I4
ssg81
g1517
sg74
(lp1524
S''
asbasbasbag67
(g83
g69
NtRp1525
(dp1526
g72
(dp1527
sg81
g1017
sg74
(lp1528
g67
(g88
g69
NtRp1529
(dp1530
g72
(dp1531
g92
g93
ssg81
g1525
sg74
(lp1532
S'server_name'
p1533
asbag67
(g88
g69
NtRp1534
(dp1535
g72
(dp1536
g99
g100
ssg81
g1525
sg74
(lp1537
S':'
asbag67
(g88
g69
NtRp1538
(dp1539
g72
(dp1540
sg81
g1525
sg74
(lp1541
g67
(g68
g69
NtRp1542
(dp1543
g72
(dp1544
g80
I4
ssg81
g1538
sg74
(lp1545
S'VPCF22AJ'
p1546
asbasbasbag67
(g83
g69
NtRp1547
(dp1548
g72
(dp1549
sg81
g1017
sg74
(lp1550
g67
(g88
g69
NtRp1551
(dp1552
g72
(dp1553
g92
g93
ssg81
g1547
sg74
(lp1554
S'server_port'
p1555
asbag67
(g88
g69
NtRp1556
(dp1557
g72
(dp1558
g99
g100
ssg81
g1547
sg74
(lp1559
S':'
asbag67
(g88
g69
NtRp1560
(dp1561
g72
(dp1562
sg81
g1547
sg74
(lp1563
g67
(g68
g69
NtRp1564
(dp1565
g72
(dp1566
g80
I4
ssg81
g1560
sg74
(lp1567
S'8000'
p1568
asbasbasbag67
(g83
g69
NtRp1569
(dp1570
g72
(dp1571
sg81
g1017
sg74
(lp1572
g67
(g88
g69
NtRp1573
(dp1574
g72
(dp1575
g92
g93
ssg81
g1569
sg74
(lp1576
S'server_protocol'
p1577
asbag67
(g88
g69
NtRp1578
(dp1579
g72
(dp1580
g99
g100
ssg81
g1569
sg74
(lp1581
S':'
asbag67
(g88
g69
NtRp1582
(dp1583
g72
(dp1584
sg81
g1569
sg74
(lp1585
g67
(g68
g69
NtRp1586
(dp1587
g72
(dp1588
g80
I4
ssg81
g1582
sg74
(lp1589
S'HTTP/1.1'
p1590
asbasbasbag67
(g83
g69
NtRp1591
(dp1592
g72
(dp1593
sg81
g1017
sg74
(lp1594
g67
(g88
g69
NtRp1595
(dp1596
g72
(dp1597
g92
g93
ssg81
g1591
sg74
(lp1598
S'server_software'
p1599
asbag67
(g88
g69
NtRp1600
(dp1601
g72
(dp1602
g99
g100
ssg81
g1591
sg74
(lp1603
S':'
asbag67
(g88
g69
NtRp1604
(dp1605
g72
(dp1606
sg81
g1591
sg74
(lp1607
g67
(g68
g69
NtRp1608
(dp1609
g72
(dp1610
g80
I4
ssg81
g1604
sg74
(lp1611
S'Rocket 1.2.4'
p1612
asbasbasbag67
(g83
g69
NtRp1613
(dp1614
g72
(dp1615
sg81
g1017
sg74
(lp1616
g67
(g88
g69
NtRp1617
(dp1618
g72
(dp1619
g92
g93
ssg81
g1613
sg74
(lp1620
S'web2py_crontype'
p1621
asbag67
(g88
g69
NtRp1622
(dp1623
g72
(dp1624
g99
g100
ssg81
g1613
sg74
(lp1625
S':'
asbag67
(g88
g69
NtRp1626
(dp1627
g72
(dp1628
sg81
g1613
sg74
(lp1629
g67
(g68
g69
NtRp1630
(dp1631
g72
(dp1632
g80
I4
ssg81
g1626
sg74
(lp1633
S'hard'
p1634
asbasbasbag67
(g83
g69
NtRp1635
(dp1636
g72
(dp1637
sg81
g1017
sg74
(lp1638
g67
(g88
g69
NtRp1639
(dp1640
g72
(dp1641
g92
g93
ssg81
g1635
sg74
(lp1642
S'web2py_path'
p1643
asbag67
(g88
g69
NtRp1644
(dp1645
g72
(dp1646
g99
g100
ssg81
g1635
sg74
(lp1647
S':'
asbag67
(g88
g69
NtRp1648
(dp1649
g72
(dp1650
sg81
g1635
sg74
(lp1651
g67
(g68
g69
NtRp1652
(dp1653
g72
(dp1654
g80
I4
ssg81
g1648
sg74
(lp1655
g1064
asbasbasbag67
(g83
g69
NtRp1656
(dp1657
g72
(dp1658
sg81
g1017
sg74
(lp1659
g67
(g88
g69
NtRp1660
(dp1661
g72
(dp1662
g92
g93
ssg81
g1656
sg74
(lp1663
S'web2py_version'
p1664
asbag67
(g88
g69
NtRp1665
(dp1666
g72
(dp1667
g99
g100
ssg81
g1656
sg74
(lp1668
S':'
asbag67
(g88
g69
NtRp1669
(dp1670
g72
(dp1671
sg81
g1656
sg74
(lp1672
g67
(g68
g69
NtRp1673
(dp1674
g72
(dp1675
g80
I4
ssg81
g1669
sg74
(lp1676
g67
(g76
g69
NtRp1677
(dp1678
g72
(dp1679
g80
I3
ssg81
Nsg74
(lp1680
g67
(g83
g69
NtRp1681
(dp1682
g72
(dp1683
sg81
g1677
sg74
(lp1684
g67
(g88
g69
NtRp1685
(dp1686
g72
(dp1687
sg81
g1681
sg74
(lp1688
g67
(g68
g69
NtRp1689
(dp1690
g72
(dp1691
g80
I3
ssg81
g1685
sg74
(lp1692
S'1'
asbasbasbag67
(g83
g69
NtRp1693
(dp1694
g72
(dp1695
sg81
g1677
sg74
(lp1696
g67
(g88
g69
NtRp1697
(dp1698
g72
(dp1699
sg81
g1693
sg74
(lp1700
g67
(g68
g69
NtRp1701
(dp1702
g72
(dp1703
g80
I3
ssg81
g1697
sg74
(lp1704
S'99'
p1705
asbasbasbag67
(g83
g69
NtRp1706
(dp1707
g72
(dp1708
sg81
g1677
sg74
(lp1709
g67
(g88
g69
NtRp1710
(dp1711
g72
(dp1712
sg81
g1706
sg74
(lp1713
g67
(g68
g69
NtRp1714
(dp1715
g72
(dp1716
g80
I3
ssg81
g1710
sg74
(lp1717
S'2'
asbasbasbag67
(g83
g69
NtRp1718
(dp1719
g72
(dp1720
sg81
g1677
sg74
(lp1721
g67
(g88
g69
NtRp1722
(dp1723
g72
(dp1724
sg81
g1718
sg74
(lp1725
g67
(g68
g69
NtRp1726
(dp1727
g72
(dp1728
g80
I3
ssg81
g1722
sg74
(lp1729
S'datetime.datetime(2011, 9, 26, 6, 55, 33)'
p1730
asbasbasbag67
(g83
g69
NtRp1731
(dp1732
g72
(dp1733
sg81
g1677
sg74
(lp1734
g67
(g88
g69
NtRp1735
(dp1736
g72
(dp1737
sg81
g1731
sg74
(lp1738
g67
(g68
g69
NtRp1739
(dp1740
g72
(dp1741
g80
I3
ssg81
g1735
sg74
(lp1742
S'stable'
p1743
asbasbasbasbasbasbasbag67
(g83
g69
NtRp1744
(dp1745
g72
(dp1746
sg81
g1017
sg74
(lp1747
g67
(g88
g69
NtRp1748
(dp1749
g72
(dp1750
g92
g93
ssg81
g1744
sg74
(lp1751
S'wsgi_errors'
p1752
asbag67
(g88
g69
NtRp1753
(dp1754
g72
(dp1755
g99
g100
ssg81
g1744
sg74
(lp1756
S':'
asbag67
(g88
g69
NtRp1757
(dp1758
g72
(dp1759
sg81
g1744
sg74
(lp1760
g67
(g68
g69
NtRp1761
(dp1762
g72
(dp1763
g80
I4
ssg81
g1757
sg74
(lp1764
S"<open file '<stderr>', mode 'w' at 0x7f0a266f3270>"
p1765
asbasbasbag67
(g83
g69
NtRp1766
(dp1767
g72
(dp1768
sg81
g1017
sg74
(lp1769
g67
(g88
g69
NtRp1770
(dp1771
g72
(dp1772
g92
g93
ssg81
g1766
sg74
(lp1773
S'wsgi_file_wrapper'
p1774
asbag67
(g88
g69
NtRp1775
(dp1776
g72
(dp1777
g99
g100
ssg81
g1766
sg74
(lp1778
S':'
asbag67
(g88
g69
NtRp1779
(dp1780
g72
(dp1781
sg81
g1766
sg74
(lp1782
g67
(g68
g69
NtRp1783
(dp1784
g72
(dp1785
g80
I4
ssg81
g1779
sg74
(lp1786
S'<class wsgiref.util.FileWrapper at 0x1a73600>'
p1787
asbasbasbag67
(g83
g69
NtRp1788
(dp1789
g72
(dp1790
sg81
g1017
sg74
(lp1791
g67
(g88
g69
NtRp1792
(dp1793
g72
(dp1794
g92
g93
ssg81
g1788
sg74
(lp1795
S'wsgi_input'
p1796
asbag67
(g88
g69
NtRp1797
(dp1798
g72
(dp1799
g99
g100
ssg81
g1788
sg74
(lp1800
S':'
asbag67
(g88
g69
NtRp1801
(dp1802
g72
(dp1803
sg81
g1788
sg74
(lp1804
g67
(g68
g69
NtRp1805
(dp1806
g72
(dp1807
g80
I4
ssg81
g1801
sg74
(lp1808
S'<socket._fileobject object at 0x2c22250>'
p1809
asbasbasbag67
(g83
g69
NtRp1810
(dp1811
g72
(dp1812
sg81
g1017
sg74
(lp1813
g67
(g88
g69
NtRp1814
(dp1815
g72
(dp1816
g92
g93
ssg81
g1810
sg74
(lp1817
S'wsgi_multiprocess'
p1818
asbag67
(g88
g69
NtRp1819
(dp1820
g72
(dp1821
g99
g100
ssg81
g1810
sg74
(lp1822
S':'
asbag67
(g88
g69
NtRp1823
(dp1824
g72
(dp1825
sg81
g1810
sg74
(lp1826
g67
(g68
g69
NtRp1827
(dp1828
g72
(dp1829
g80
I4
ssg81
g1823
sg74
(lp1830
g110
asbasbasbag67
(g83
g69
NtRp1831
(dp1832
g72
(dp1833
sg81
g1017
sg74
(lp1834
g67
(g88
g69
NtRp1835
(dp1836
g72
(dp1837
g92
g93
ssg81
g1831
sg74
(lp1838
S'wsgi_multithread'
p1839
asbag67
(g88
g69
NtRp1840
(dp1841
g72
(dp1842
g99
g100
ssg81
g1831
sg74
(lp1843
S':'
asbag67
(g88
g69
NtRp1844
(dp1845
g72
(dp1846
sg81
g1831
sg74
(lp1847
g67
(g68
g69
NtRp1848
(dp1849
g72
(dp1850
g80
I4
ssg81
g1844
sg74
(lp1851
S'True'
p1852
asbasbasbag67
(g83
g69
NtRp1853
(dp1854
g72
(dp1855
sg81
g1017
sg74
(lp1856
g67
(g88
g69
NtRp1857
(dp1858
g72
(dp1859
g92
g93
ssg81
g1853
sg74
(lp1860
S'wsgi_run_once'
p1861
asbag67
(g88
g69
NtRp1862
(dp1863
g72
(dp1864
g99
g100
ssg81
g1853
sg74
(lp1865
S':'
asbag67
(g88
g69
NtRp1866
(dp1867
g72
(dp1868
sg81
g1853
sg74
(lp1869
g67
(g68
g69
NtRp1870
(dp1871
g72
(dp1872
g80
I4
ssg81
g1866
sg74
(lp1873
g110
asbasbasbag67
(g83
g69
NtRp1874
(dp1875
g72
(dp1876
sg81
g1017
sg74
(lp1877
g67
(g88
g69
NtRp1878
(dp1879
g72
(dp1880
g92
g93
ssg81
g1874
sg74
(lp1881
S'wsgi_url_scheme'
p1882
asbag67
(g88
g69
NtRp1883
(dp1884
g72
(dp1885
g99
g100
ssg81
g1874
sg74
(lp1886
S':'
asbag67
(g88
g69
NtRp1887
(dp1888
g72
(dp1889
sg81
g1874
sg74
(lp1890
g67
(g68
g69
NtRp1891
(dp1892
g72
(dp1893
g80
I4
ssg81
g1887
sg74
(lp1894
S'http'
p1895
asbasbasbag67
(g83
g69
NtRp1896
(dp1897
g72
(dp1898
sg81
g1017
sg74
(lp1899
g67
(g88
g69
NtRp1900
(dp1901
g72
(dp1902
g92
g93
ssg81
g1896
sg74
(lp1903
S'wsgi_version'
p1904
asbag67
(g88
g69
NtRp1905
(dp1906
g72
(dp1907
g99
g100
ssg81
g1896
sg74
(lp1908
S':'
asbag67
(g88
g69
NtRp1909
(dp1910
g72
(dp1911
sg81
g1896
sg74
(lp1912
g67
(g68
g69
NtRp1913
(dp1914
g72
(dp1915
g80
I4
ssg81
g1909
sg74
(lp1916
g67
(g76
g69
NtRp1917
(dp1918
g72
(dp1919
g80
I3
ssg81
Nsg74
(lp1920
g67
(g83
g69
NtRp1921
(dp1922
g72
(dp1923
sg81
g1917
sg74
(lp1924
g67
(g88
g69
NtRp1925
(dp1926
g72
(dp1927
sg81
g1921
sg74
(lp1928
g67
(g68
g69
NtRp1929
(dp1930
g72
(dp1931
g80
I3
ssg81
g1925
sg74
(lp1932
S'1'
asbasbasbag67
(g83
g69
NtRp1933
(dp1934
g72
(dp1935
sg81
g1917
sg74
(lp1936
g67
(g88
g69
NtRp1937
(dp1938
g72
(dp1939
sg81
g1933
sg74
(lp1940
g67
(g68
g69
NtRp1941
(dp1942
g72
(dp1943
g80
I3
ssg81
g1937
sg74
(lp1944
S'0'
asbasbasbasbasbasbasbasbasbasbasbag67
(g83
g69
NtRp1945
(dp1946
g72
(dp1947
sg81
g77
sg74
(lp1948
g67
(g88
g69
NtRp1949
(dp1950
g72
(dp1951
g92
g93
ssg81
g1945
sg74
(lp1952
S'extension'
p1953
asbag67
(g88
g69
NtRp1954
(dp1955
g72
(dp1956
g99
g100
ssg81
g1945
sg74
(lp1957
S':'
asbag67
(g88
g69
NtRp1958
(dp1959
g72
(dp1960
sg81
g1945
sg74
(lp1961
g67
(g68
g69
NtRp1962
(dp1963
g72
(dp1964
g80
I5
ssg81
g1958
sg74
(lp1965
S'html'
p1966
asbasbasbag67
(g83
g69
NtRp1967
(dp1968
g72
(dp1969
sg81
g77
sg74
(lp1970
g67
(g88
g69
NtRp1971
(dp1972
g72
(dp1973
g92
g93
ssg81
g1967
sg74
(lp1974
S'folder'
p1975
asbag67
(g88
g69
NtRp1976
(dp1977
g72
(dp1978
g99
g100
ssg81
g1967
sg74
(lp1979
S':'
asbag67
(g88
g69
NtRp1980
(dp1981
g72
(dp1982
sg81
g1967
sg74
(lp1983
g67
(g68
g69
NtRp1984
(dp1985
g72
(dp1986
g80
I5
ssg81
g1980
sg74
(lp1987
S'/windows/Users/Thomas/Dropbox/appz/2011/GAE/ddl-lagoon/applications/ddlagoon/'
p1988
asbasbasbag67
(g83
g69
NtRp1989
(dp1990
g72
(dp1991
sg81
g77
sg74
(lp1992
g67
(g88
g69
NtRp1993
(dp1994
g72
(dp1995
g92
g93
ssg81
g1989
sg74
(lp1996
S'function'
p1997
asbag67
(g88
g69
NtRp1998
(dp1999
g72
(dp2000
g99
g100
ssg81
g1989
sg74
(lp2001
S':'
asbag67
(g88
g69
NtRp2002
(dp2003
g72
(dp2004
sg81
g1989
sg74
(lp2005
g67
(g68
g69
NtRp2006
(dp2007
g72
(dp2008
g80
I5
ssg81
g2002
sg74
(lp2009
S'index'
p2010
asbasbasbag67
(g83
g69
NtRp2011
(dp2012
g72
(dp2013
sg81
g77
sg74
(lp2014
g67
(g88
g69
NtRp2015
(dp2016
g72
(dp2017
g92
g93
ssg81
g2011
sg74
(lp2018
S'get_vars'
p2019
asbag67
(g88
g69
NtRp2020
(dp2021
g72
(dp2022
g99
g100
ssg81
g2011
sg74
(lp2023
S':'
asbag67
(g88
g69
NtRp2024
(dp2025
g72
(dp2026
sg81
g2011
sg74
(lp2027
g67
(g68
g69
NtRp2028
(dp2029
g72
(dp2030
g80
I5
ssg81
g2024
sg74
(lp2031
g67
(g76
g69
NtRp2032
(dp2033
g72
(dp2034
g80
I4
ssg81
Nsg74
(lp2035
sbasbasbasbag67
(g83
g69
NtRp2036
(dp2037
g72
(dp2038
sg81
g77
sg74
(lp2039
g67
(g88
g69
NtRp2040
(dp2041
g72
(dp2042
g92
g93
ssg81
g2036
sg74
(lp2043
S'global_settings'
p2044
asbag67
(g88
g69
NtRp2045
(dp2046
g72
(dp2047
g99
g100
ssg81
g2036
sg74
(lp2048
S':'
asbag67
(g88
g69
NtRp2049
(dp2050
g72
(dp2051
sg81
g2036
sg74
(lp2052
g67
(g68
g69
NtRp2053
(dp2054
g72
(dp2055
g80
I5
ssg81
g2049
sg74
(lp2056
g67
(g76
g69
NtRp2057
(dp2058
g72
(dp2059
g80
I4
ssg81
Nsg74
(lp2060
g67
(g83
g69
NtRp2061
(dp2062
g72
(dp2063
sg81
g2057
sg74
(lp2064
g67
(g88
g69
NtRp2065
(dp2066
g72
(dp2067
g92
g93
ssg81
g2061
sg74
(lp2068
g1029
asbag67
(g88
g69
NtRp2069
(dp2070
g72
(dp2071
g99
g100
ssg81
g2061
sg74
(lp2072
S':'
asbag67
(g88
g69
NtRp2073
(dp2074
g72
(dp2075
sg81
g2061
sg74
(lp2076
g67
(g68
g69
NtRp2077
(dp2078
g72
(dp2079
g80
I4
ssg81
g2073
sg74
(lp2080
S"set(['/windows/Users/Thomas/Dropbox/appz/2011/GAE/ddl-lagoon/applications/ddlagoon/', '/windows/Users/Thomas/Dropbox/appz/2011/GAE/ddl-lagoon/applications/welcome/', '/windows/Users/Thomas/Dropbox/appz/2011/GAE/ddl-lagoon/applications/admin/', '/windows/Users/Thomas/Dropbox/appz/2011/GAE/ddl-lagoon/applications/simple_app_test/'])"
p2081
asbasbasbag67
(g83
g69
NtRp2082
(dp2083
g72
(dp2084
sg81
g2057
sg74
(lp2085
g67
(g88
g69
NtRp2086
(dp2087
g72
(dp2088
g92
g93
ssg81
g2082
sg74
(lp2089
g1051
asbag67
(g88
g69
NtRp2090
(dp2091
g72
(dp2092
g99
g100
ssg81
g2082
sg74
(lp2093
S':'
asbag67
(g88
g69
NtRp2094
(dp2095
g72
(dp2096
sg81
g2082
sg74
(lp2097
g67
(g68
g69
NtRp2098
(dp2099
g72
(dp2100
g80
I4
ssg81
g2094
sg74
(lp2101
g1064
asbasbasbag67
(g83
g69
NtRp2102
(dp2103
g72
(dp2104
sg81
g2057
sg74
(lp2105
g67
(g88
g69
NtRp2106
(dp2107
g72
(dp2108
g92
g93
ssg81
g2102
sg74
(lp2109
g1073
asbag67
(g88
g69
NtRp2110
(dp2111
g72
(dp2112
g99
g100
ssg81
g2102
sg74
(lp2113
S':'
asbag67
(g88
g69
NtRp2114
(dp2115
g72
(dp2116
sg81
g2102
sg74
(lp2117
g67
(g68
g69
NtRp2118
(dp2119
g72
(dp2120
g80
I4
ssg81
g2114
sg74
(lp2121
g67
(g76
g69
NtRp2122
(dp2123
g72
(dp2124
g80
I3
ssg81
Nsg74
(lp2125
sbasbasbasbag67
(g83
g69
NtRp2126
(dp2127
g72
(dp2128
sg81
g2057
sg74
(lp2129
g67
(g88
g69
NtRp2130
(dp2131
g72
(dp2132
g92
g93
ssg81
g2126
sg74
(lp2133
g1098
asbag67
(g88
g69
NtRp2134
(dp2135
g72
(dp2136
g99
g100
ssg81
g2126
sg74
(lp2137
S':'
asbag67
(g88
g69
NtRp2138
(dp2139
g72
(dp2140
sg81
g2126
sg74
(lp2141
g67
(g68
g69
NtRp2142
(dp2143
g72
(dp2144
g80
I4
ssg81
g2138
sg74
(lp2145
S"<Values at 0x1ba50e0: {'verbose': False, 'ip': '127.0.0.1', 'shutdown_timeout': 5, 'taskbar': False, 'nocron': False, 'pid_filename': 'httpserver.pid', 'maxthreads': None, 'softcron': False, 'server_name': 'VPCF22AJ', 'bpython': False, 'nogui': False, 'port': 8000, 'extcron': False, 'debuglevel': 30, 'test': None, 'folder': '/windows/Users/Thomas/Dropbox/appz/2011/GAE/ddl-lagoon', 'config': '', 'import_models': False, 'winservice': '', 'shell': None, 'run': '', 'log_filename': 'httpserver.log', 'args': [''], 'ssl_ca_certificate': None, 'scheduler': None, 'profiler_filename': None, 'ssl_private_key': '', 'password': 'admin', 'request_queue_size': 5, 'ssl_certificate': '', 'cronjob': False, 'plain': False, 'quiet': False, 'interfaces': None, 'minthreads': None, 'timeout': 10, 'numthreads': None, 'nobanner': False}>"
p2146
asbasbasbag67
(g83
g69
NtRp2147
(dp2148
g72
(dp2149
sg81
g2057
sg74
(lp2150
g67
(g88
g69
NtRp2151
(dp2152
g72
(dp2153
g92
g93
ssg81
g2147
sg74
(lp2154
g1120
asbag67
(g88
g69
NtRp2155
(dp2156
g72
(dp2157
g99
g100
ssg81
g2147
sg74
(lp2158
S':'
asbag67
(g88
g69
NtRp2159
(dp2160
g72
(dp2161
sg81
g2147
sg74
(lp2162
g67
(g68
g69
NtRp2163
(dp2164
g72
(dp2165
g80
I4
ssg81
g2159
sg74
(lp2166
S'set([])'
p2167
asbasbasbag67
(g83
g69
NtRp2168
(dp2169
g72
(dp2170
sg81
g2057
sg74
(lp2171
g67
(g88
g69
NtRp2172
(dp2173
g72
(dp2174
g92
g93
ssg81
g2168
sg74
(lp2175
g1142
asbag67
(g88
g69
NtRp2176
(dp2177
g72
(dp2178
g99
g100
ssg81
g2168
sg74
(lp2179
S':'
asbag67
(g88
g69
NtRp2180
(dp2181
g72
(dp2182
sg81
g2168
sg74
(lp2183
g67
(g68
g69
NtRp2184
(dp2185
g72
(dp2186
g80
I4
ssg81
g2180
sg74
(lp2187
g110
asbasbasbag67
(g83
g69
NtRp2188
(dp2189
g72
(dp2190
sg81
g2057
sg74
(lp2191
g67
(g88
g69
NtRp2192
(dp2193
g72
(dp2194
g92
g93
ssg81
g2188
sg74
(lp2195
g1163
asbag67
(g88
g69
NtRp2196
(dp2197
g72
(dp2198
g99
g100
ssg81
g2188
sg74
(lp2199
S':'
asbag67
(g88
g69
NtRp2200
(dp2201
g72
(dp2202
sg81
g2188
sg74
(lp2203
g67
(g68
g69
NtRp2204
(dp2205
g72
(dp2206
g80
I4
ssg81
g2200
sg74
(lp2207
g1176
asbasbasbag67
(g83
g69
NtRp2208
(dp2209
g72
(dp2210
sg81
g2057
sg74
(lp2211
g67
(g88
g69
NtRp2212
(dp2213
g72
(dp2214
g92
g93
ssg81
g2208
sg74
(lp2215
g1383
asbag67
(g88
g69
NtRp2216
(dp2217
g72
(dp2218
g99
g100
ssg81
g2208
sg74
(lp2219
S':'
asbag67
(g88
g69
NtRp2220
(dp2221
g72
(dp2222
sg81
g2208
sg74
(lp2223
g67
(g68
g69
NtRp2224
(dp2225
g72
(dp2226
g80
I4
ssg81
g2220
sg74
(lp2227
g110
asbasbasbag67
(g83
g69
NtRp2228
(dp2229
g72
(dp2230
sg81
g2057
sg74
(lp2231
g67
(g88
g69
NtRp2232
(dp2233
g72
(dp2234
g92
g93
ssg81
g2228
sg74
(lp2235
g1621
asbag67
(g88
g69
NtRp2236
(dp2237
g72
(dp2238
g99
g100
ssg81
g2228
sg74
(lp2239
S':'
asbag67
(g88
g69
NtRp2240
(dp2241
g72
(dp2242
sg81
g2228
sg74
(lp2243
g67
(g68
g69
NtRp2244
(dp2245
g72
(dp2246
g80
I4
ssg81
g2240
sg74
(lp2247
g1634
asbasbasbag67
(g83
g69
NtRp2248
(dp2249
g72
(dp2250
sg81
g2057
sg74
(lp2251
g67
(g88
g69
NtRp2252
(dp2253
g72
(dp2254
g92
g93
ssg81
g2248
sg74
(lp2255
g1664
asbag67
(g88
g69
NtRp2256
(dp2257
g72
(dp2258
g99
g100
ssg81
g2248
sg74
(lp2259
S':'
asbag67
(g88
g69
NtRp2260
(dp2261
g72
(dp2262
sg81
g2248
sg74
(lp2263
g67
(g68
g69
NtRp2264
(dp2265
g72
(dp2266
g80
I4
ssg81
g2260
sg74
(lp2267
g67
(g76
g69
NtRp2268
(dp2269
g72
(dp2270
g80
I3
ssg81
Nsg74
(lp2271
g67
(g83
g69
NtRp2272
(dp2273
g72
(dp2274
sg81
g2268
sg74
(lp2275
g67
(g88
g69
NtRp2276
(dp2277
g72
(dp2278
sg81
g2272
sg74
(lp2279
g67
(g68
g69
NtRp2280
(dp2281
g72
(dp2282
g80
I3
ssg81
g2276
sg74
(lp2283
S'1'
asbasbasbag67
(g83
g69
NtRp2284
(dp2285
g72
(dp2286
sg81
g2268
sg74
(lp2287
g67
(g88
g69
NtRp2288
(dp2289
g72
(dp2290
sg81
g2284
sg74
(lp2291
g67
(g68
g69
NtRp2292
(dp2293
g72
(dp2294
g80
I3
ssg81
g2288
sg74
(lp2295
S'99'
p2296
asbasbasbag67
(g83
g69
NtRp2297
(dp2298
g72
(dp2299
sg81
g2268
sg74
(lp2300
g67
(g88
g69
NtRp2301
(dp2302
g72
(dp2303
sg81
g2297
sg74
(lp2304
g67
(g68
g69
NtRp2305
(dp2306
g72
(dp2307
g80
I3
ssg81
g2301
sg74
(lp2308
S'2'
asbasbasbag67
(g83
g69
NtRp2309
(dp2310
g72
(dp2311
sg81
g2268
sg74
(lp2312
g67
(g88
g69
NtRp2313
(dp2314
g72
(dp2315
sg81
g2309
sg74
(lp2316
g67
(g68
g69
NtRp2317
(dp2318
g72
(dp2319
g80
I3
ssg81
g2313
sg74
(lp2320
S'datetime.datetime(2011, 9, 26, 6, 55, 33)'
p2321
asbasbasbag67
(g83
g69
NtRp2322
(dp2323
g72
(dp2324
sg81
g2268
sg74
(lp2325
g67
(g88
g69
NtRp2326
(dp2327
g72
(dp2328
sg81
g2322
sg74
(lp2329
g67
(g68
g69
NtRp2330
(dp2331
g72
(dp2332
g80
I3
ssg81
g2326
sg74
(lp2333
g1743
asbasbasbasbasbasbasbasbasbasbasbag67
(g83
g69
NtRp2334
(dp2335
g72
(dp2336
sg81
g77
sg74
(lp2337
g67
(g88
g69
NtRp2338
(dp2339
g72
(dp2340
g92
g93
ssg81
g2334
sg74
(lp2341
S'is_https'
p2342
asbag67
(g88
g69
NtRp2343
(dp2344
g72
(dp2345
g99
g100
ssg81
g2334
sg74
(lp2346
S':'
asbag67
(g88
g69
NtRp2347
(dp2348
g72
(dp2349
sg81
g2334
sg74
(lp2350
g67
(g68
g69
NtRp2351
(dp2352
g72
(dp2353
g80
I5
ssg81
g2347
sg74
(lp2354
g110
asbasbasbag67
(g83
g69
NtRp2355
(dp2356
g72
(dp2357
sg81
g77
sg74
(lp2358
g67
(g88
g69
NtRp2359
(dp2360
g72
(dp2361
g92
g93
ssg81
g2355
sg74
(lp2362
S'is_local'
p2363
asbag67
(g88
g69
NtRp2364
(dp2365
g72
(dp2366
g99
g100
ssg81
g2355
sg74
(lp2367
S':'
asbag67
(g88
g69
NtRp2368
(dp2369
g72
(dp2370
sg81
g2355
sg74
(lp2371
g67
(g68
g69
NtRp2372
(dp2373
g72
(dp2374
g80
I5
ssg81
g2368
sg74
(lp2375
g1852
asbasbasbag67
(g83
g69
NtRp2376
(dp2377
g72
(dp2378
sg81
g77
sg74
(lp2379
g67
(g88
g69
NtRp2380
(dp2381
g72
(dp2382
g92
g93
ssg81
g2376
sg74
(lp2383
S'is_restful'
p2384
asbag67
(g88
g69
NtRp2385
(dp2386
g72
(dp2387
g99
g100
ssg81
g2376
sg74
(lp2388
S':'
asbag67
(g88
g69
NtRp2389
(dp2390
g72
(dp2391
sg81
g2376
sg74
(lp2392
g67
(g68
g69
NtRp2393
(dp2394
g72
(dp2395
g80
I5
ssg81
g2389
sg74
(lp2396
g110
asbasbasbag67
(g83
g69
NtRp2397
(dp2398
g72
(dp2399
sg81
g77
sg74
(lp2400
g67
(g88
g69
NtRp2401
(dp2402
g72
(dp2403
g92
g93
ssg81
g2397
sg74
(lp2404
S'now'
p2405
asbag67
(g88
g69
NtRp2406
(dp2407
g72
(dp2408
g99
g100
ssg81
g2397
sg74
(lp2409
S':'
asbag67
(g88
g69
NtRp2410
(dp2411
g72
(dp2412
sg81
g2397
sg74
(lp2413
g67
(g68
g69
NtRp2414
(dp2415
g72
(dp2416
g80
I5
ssg81
g2410
sg74
(lp2417
S'datetime.datetime(2011, 10, 26, 21, 25, 10, 783137)'
p2418
asbasbasbag67
(g83
g69
NtRp2419
(dp2420
g72
(dp2421
sg81
g77
sg74
(lp2422
g67
(g88
g69
NtRp2423
(dp2424
g72
(dp2425
g92
g93
ssg81
g2419
sg74
(lp2426
S'post_vars'
p2427
asbag67
(g88
g69
NtRp2428
(dp2429
g72
(dp2430
g99
g100
ssg81
g2419
sg74
(lp2431
S':'
asbag67
(g88
g69
NtRp2432
(dp2433
g72
(dp2434
sg81
g2419
sg74
(lp2435
g67
(g68
g69
NtRp2436
(dp2437
g72
(dp2438
g80
I5
ssg81
g2432
sg74
(lp2439
g67
(g76
g69
NtRp2440
(dp2441
g72
(dp2442
g80
I4
ssg81
Nsg74
(lp2443
sbasbasbasbag67
(g83
g69
NtRp2444
(dp2445
g72
(dp2446
sg81
g77
sg74
(lp2447
g67
(g88
g69
NtRp2448
(dp2449
g72
(dp2450
g92
g93
ssg81
g2444
sg74
(lp2451
S'url'
p2452
asbag67
(g88
g69
NtRp2453
(dp2454
g72
(dp2455
g99
g100
ssg81
g2444
sg74
(lp2456
S':'
asbag67
(g88
g69
NtRp2457
(dp2458
g72
(dp2459
sg81
g2444
sg74
(lp2460
g67
(g68
g69
NtRp2461
(dp2462
g72
(dp2463
g80
I5
ssg81
g2457
sg74
(lp2464
S'/ddlagoon/default/index'
p2465
asbasbasbag67
(g83
g69
NtRp2466
(dp2467
g72
(dp2468
sg81
g77
sg74
(lp2469
g67
(g88
g69
NtRp2470
(dp2471
g72
(dp2472
g92
g93
ssg81
g2466
sg74
(lp2473
S'utcnow'
p2474
asbag67
(g88
g69
NtRp2475
(dp2476
g72
(dp2477
g99
g100
ssg81
g2466
sg74
(lp2478
S':'
asbag67
(g88
g69
NtRp2479
(dp2480
g72
(dp2481
sg81
g2466
sg74
(lp2482
g67
(g68
g69
NtRp2483
(dp2484
g72
(dp2485
g80
I5
ssg81
g2479
sg74
(lp2486
S'datetime.datetime(2011, 10, 26, 20, 25, 10, 783152)'
p2487
asbasbasbag67
(g83
g69
NtRp2488
(dp2489
g72
(dp2490
sg81
g77
sg74
(lp2491
g67
(g88
g69
NtRp2492
(dp2493
g72
(dp2494
g92
g93
ssg81
g2488
sg74
(lp2495
S'uuid'
p2496
asbag67
(g88
g69
NtRp2497
(dp2498
g72
(dp2499
g99
g100
ssg81
g2488
sg74
(lp2500
S':'
asbag67
(g88
g69
NtRp2501
(dp2502
g72
(dp2503
sg81
g2488
sg74
(lp2504
g67
(g68
g69
NtRp2505
(dp2506
g72
(dp2507
g80
I5
ssg81
g2501
sg74
(lp2508
S'ddlagoon/127.0.0.1.2011-10-26.21-25-10.cbdaad7b-323a-4953-9ad7-e7798e2258e4'
p2509
asbasbasbag67
(g83
g69
NtRp2510
(dp2511
g72
(dp2512
sg81
g77
sg74
(lp2513
g67
(g88
g69
NtRp2514
(dp2515
g72
(dp2516
g92
g93
ssg81
g2510
sg74
(lp2517
S'vars'
p2518
asbag67
(g88
g69
NtRp2519
(dp2520
g72
(dp2521
g99
g100
ssg81
g2510
sg74
(lp2522
S':'
asbag67
(g88
g69
NtRp2523
(dp2524
g72
(dp2525
sg81
g2510
sg74
(lp2526
g67
(g68
g69
NtRp2527
(dp2528
g72
(dp2529
g80
I5
ssg81
g2523
sg74
(lp2530
g67
(g76
g69
NtRp2531
(dp2532
g72
(dp2533
g80
I4
ssg81
Nsg74
(lp2534
sbasbasbasbag67
(g83
g69
NtRp2535
(dp2536
g72
(dp2537
sg81
g77
sg74
(lp2538
g67
(g88
g69
NtRp2539
(dp2540
g72
(dp2541
g92
g93
ssg81
g2535
sg74
(lp2542
S'wsgi'
p2543
asbag67
(g88
g69
NtRp2544
(dp2545
g72
(dp2546
g99
g100
ssg81
g2535
sg74
(lp2547
S':'
asbag67
(g88
g69
NtRp2548
(dp2549
g72
(dp2550
sg81
g2535
sg74
(lp2551
g67
(g68
g69
NtRp2552
(dp2553
g72
(dp2554
g80
I5
ssg81
g2548
sg74
(lp2555
g67
(g76
g69
NtRp2556
(dp2557
g72
(dp2558
g80
I4
ssg81
Nsg74
(lp2559
g67
(g83
g69
NtRp2560
(dp2561
g72
(dp2562
sg81
g2556
sg74
(lp2563
g67
(g88
g69
NtRp2564
(dp2565
g72
(dp2566
g92
g93
ssg81
g2560
sg74
(lp2567
S'environ'
p2568
asbag67
(g88
g69
NtRp2569
(dp2570
g72
(dp2571
g99
g100
ssg81
g2560
sg74
(lp2572
S':'
asbag67
(g88
g69
NtRp2573
(dp2574
g72
(dp2575
sg81
g2560
sg74
(lp2576
g67
(g68
g69
NtRp2577
(dp2578
g72
(dp2579
g80
I4
ssg81
g2573
sg74
(lp2580
g67
(g76
g69
NtRp2581
(dp2582
g72
(dp2583
g80
I3
ssg81
Nsg74
(lp2584
g67
(g83
g69
NtRp2585
(dp2586
g72
(dp2587
sg81
g2581
sg74
(lp2588
g67
(g88
g69
NtRp2589
(dp2590
g72
(dp2591
g92
g93
ssg81
g2585
sg74
(lp2592
S'HTTP_ACCEPT'
p2593
asbag67
(g88
g69
NtRp2594
(dp2595
g72
(dp2596
g99
g100
ssg81
g2585
sg74
(lp2597
S':'
asbag67
(g88
g69
NtRp2598
(dp2599
g72
(dp2600
sg81
g2585
sg74
(lp2601
g67
(g68
g69
NtRp2602
(dp2603
g72
(dp2604
g80
I3
ssg81
g2598
sg74
(lp2605
g1198
asbasbasbag67
(g83
g69
NtRp2606
(dp2607
g72
(dp2608
sg81
g2581
sg74
(lp2609
g67
(g88
g69
NtRp2610
(dp2611
g72
(dp2612
g92
g93
ssg81
g2606
sg74
(lp2613
S'HTTP_ACCEPT_CHARSET'
p2614
asbag67
(g88
g69
NtRp2615
(dp2616
g72
(dp2617
g99
g100
ssg81
g2606
sg74
(lp2618
S':'
asbag67
(g88
g69
NtRp2619
(dp2620
g72
(dp2621
sg81
g2606
sg74
(lp2622
g67
(g68
g69
NtRp2623
(dp2624
g72
(dp2625
g80
I3
ssg81
g2619
sg74
(lp2626
g1220
asbasbasbag67
(g83
g69
NtRp2627
(dp2628
g72
(dp2629
sg81
g2581
sg74
(lp2630
g67
(g88
g69
NtRp2631
(dp2632
g72
(dp2633
g92
g93
ssg81
g2627
sg74
(lp2634
S'HTTP_ACCEPT_ENCODING'
p2635
asbag67
(g88
g69
NtRp2636
(dp2637
g72
(dp2638
g99
g100
ssg81
g2627
sg74
(lp2639
S':'
asbag67
(g88
g69
NtRp2640
(dp2641
g72
(dp2642
sg81
g2627
sg74
(lp2643
g67
(g68
g69
NtRp2644
(dp2645
g72
(dp2646
g80
I3
ssg81
g2640
sg74
(lp2647
g1242
asbasbasbag67
(g83
g69
NtRp2648
(dp2649
g72
(dp2650
sg81
g2581
sg74
(lp2651
g67
(g88
g69
NtRp2652
(dp2653
g72
(dp2654
g92
g93
ssg81
g2648
sg74
(lp2655
S'HTTP_ACCEPT_LANGUAGE'
p2656
asbag67
(g88
g69
NtRp2657
(dp2658
g72
(dp2659
g99
g100
ssg81
g2648
sg74
(lp2660
S':'
asbag67
(g88
g69
NtRp2661
(dp2662
g72
(dp2663
sg81
g2648
sg74
(lp2664
g67
(g68
g69
NtRp2665
(dp2666
g72
(dp2667
g80
I3
ssg81
g2661
sg74
(lp2668
g1264
asbasbasbag67
(g83
g69
NtRp2669
(dp2670
g72
(dp2671
sg81
g2581
sg74
(lp2672
g67
(g88
g69
NtRp2673
(dp2674
g72
(dp2675
g92
g93
ssg81
g2669
sg74
(lp2676
S'HTTP_CACHE_CONTROL'
p2677
asbag67
(g88
g69
NtRp2678
(dp2679
g72
(dp2680
g99
g100
ssg81
g2669
sg74
(lp2681
S':'
asbag67
(g88
g69
NtRp2682
(dp2683
g72
(dp2684
sg81
g2669
sg74
(lp2685
g67
(g68
g69
NtRp2686
(dp2687
g72
(dp2688
g80
I3
ssg81
g2682
sg74
(lp2689
g1286
asbasbasbag67
(g83
g69
NtRp2690
(dp2691
g72
(dp2692
sg81
g2581
sg74
(lp2693
g67
(g88
g69
NtRp2694
(dp2695
g72
(dp2696
g92
g93
ssg81
g2690
sg74
(lp2697
S'HTTP_CONNECTION'
p2698
asbag67
(g88
g69
NtRp2699
(dp2700
g72
(dp2701
g99
g100
ssg81
g2690
sg74
(lp2702
S':'
asbag67
(g88
g69
NtRp2703
(dp2704
g72
(dp2705
sg81
g2690
sg74
(lp2706
g67
(g68
g69
NtRp2707
(dp2708
g72
(dp2709
g80
I3
ssg81
g2703
sg74
(lp2710
g1308
asbasbasbag67
(g83
g69
NtRp2711
(dp2712
g72
(dp2713
sg81
g2581
sg74
(lp2714
g67
(g88
g69
NtRp2715
(dp2716
g72
(dp2717
g92
g93
ssg81
g2711
sg74
(lp2718
S'HTTP_COOKIE'
p2719
asbag67
(g88
g69
NtRp2720
(dp2721
g72
(dp2722
g99
g100
ssg81
g2711
sg74
(lp2723
S':'
asbag67
(g88
g69
NtRp2724
(dp2725
g72
(dp2726
sg81
g2711
sg74
(lp2727
g67
(g68
g69
NtRp2728
(dp2729
g72
(dp2730
g80
I3
ssg81
g2724
sg74
(lp2731
g1330
asbasbasbag67
(g83
g69
NtRp2732
(dp2733
g72
(dp2734
sg81
g2581
sg74
(lp2735
g67
(g88
g69
NtRp2736
(dp2737
g72
(dp2738
g92
g93
ssg81
g2732
sg74
(lp2739
S'HTTP_HOST'
p2740
asbag67
(g88
g69
NtRp2741
(dp2742
g72
(dp2743
g99
g100
ssg81
g2732
sg74
(lp2744
S':'
asbag67
(g88
g69
NtRp2745
(dp2746
g72
(dp2747
sg81
g2732
sg74
(lp2748
g67
(g68
g69
NtRp2749
(dp2750
g72
(dp2751
g80
I3
ssg81
g2745
sg74
(lp2752
g1352
asbasbasbag67
(g83
g69
NtRp2753
(dp2754
g72
(dp2755
sg81
g2581
sg74
(lp2756
g67
(g88
g69
NtRp2757
(dp2758
g72
(dp2759
g92
g93
ssg81
g2753
sg74
(lp2760
S'HTTP_USER_AGENT'
p2761
asbag67
(g88
g69
NtRp2762
(dp2763
g72
(dp2764
g99
g100
ssg81
g2753
sg74
(lp2765
S':'
asbag67
(g88
g69
NtRp2766
(dp2767
g72
(dp2768
sg81
g2753
sg74
(lp2769
g67
(g68
g69
NtRp2770
(dp2771
g72
(dp2772
g80
I3
ssg81
g2766
sg74
(lp2773
g1374
asbasbasbag67
(g83
g69
NtRp2774
(dp2775
g72
(dp2776
sg81
g2581
sg74
(lp2777
g67
(g88
g69
NtRp2778
(dp2779
g72
(dp2780
g92
g93
ssg81
g2774
sg74
(lp2781
S'PATH_INFO'
p2782
asbag67
(g88
g69
NtRp2783
(dp2784
g72
(dp2785
g99
g100
ssg81
g2774
sg74
(lp2786
S':'
asbag67
(g88
g69
NtRp2787
(dp2788
g72
(dp2789
sg81
g2774
sg74
(lp2790
g67
(g68
g69
NtRp2791
(dp2792
g72
(dp2793
g80
I3
ssg81
g2787
sg74
(lp2794
g1417
asbasbasbag67
(g83
g69
NtRp2795
(dp2796
g72
(dp2797
sg81
g2581
sg74
(lp2798
g67
(g88
g69
NtRp2799
(dp2800
g72
(dp2801
g92
g93
ssg81
g2795
sg74
(lp2802
S'QUERY_STRING'
p2803
asbag67
(g88
g69
NtRp2804
(dp2805
g72
(dp2806
g99
g100
ssg81
g2795
sg74
(lp2807
S':'
asbag67
(g88
g69
NtRp2808
(dp2809
g72
(dp2810
sg81
g2795
sg74
(lp2811
g67
(g68
g69
NtRp2812
(dp2813
g72
(dp2814
g80
I3
ssg81
g2808
sg74
(lp2815
S''
asbasbasbag67
(g83
g69
NtRp2816
(dp2817
g72
(dp2818
sg81
g2581
sg74
(lp2819
g67
(g88
g69
NtRp2820
(dp2821
g72
(dp2822
g92
g93
ssg81
g2816
sg74
(lp2823
S'REMOTE_ADDR'
p2824
asbag67
(g88
g69
NtRp2825
(dp2826
g72
(dp2827
g99
g100
ssg81
g2816
sg74
(lp2828
S':'
asbag67
(g88
g69
NtRp2829
(dp2830
g72
(dp2831
sg81
g2816
sg74
(lp2832
g67
(g68
g69
NtRp2833
(dp2834
g72
(dp2835
g80
I3
ssg81
g2829
sg74
(lp2836
g200
asbasbasbag67
(g83
g69
NtRp2837
(dp2838
g72
(dp2839
sg81
g2581
sg74
(lp2840
g67
(g88
g69
NtRp2841
(dp2842
g72
(dp2843
g92
g93
ssg81
g2837
sg74
(lp2844
S'REMOTE_PORT'
p2845
asbag67
(g88
g69
NtRp2846
(dp2847
g72
(dp2848
g99
g100
ssg81
g2837
sg74
(lp2849
S':'
asbag67
(g88
g69
NtRp2850
(dp2851
g72
(dp2852
sg81
g2837
sg74
(lp2853
g67
(g68
g69
NtRp2854
(dp2855
g72
(dp2856
g80
I3
ssg81
g2850
sg74
(lp2857
g1481
asbasbasbag67
(g83
g69
NtRp2858
(dp2859
g72
(dp2860
sg81
g2581
sg74
(lp2861
g67
(g88
g69
NtRp2862
(dp2863
g72
(dp2864
g92
g93
ssg81
g2858
sg74
(lp2865
S'REQUEST_METHOD'
p2866
asbag67
(g88
g69
NtRp2867
(dp2868
g72
(dp2869
g99
g100
ssg81
g2858
sg74
(lp2870
S':'
asbag67
(g88
g69
NtRp2871
(dp2872
g72
(dp2873
sg81
g2858
sg74
(lp2874
g67
(g68
g69
NtRp2875
(dp2876
g72
(dp2877
g80
I3
ssg81
g2871
sg74
(lp2878
g1503
asbasbasbag67
(g83
g69
NtRp2879
(dp2880
g72
(dp2881
sg81
g2581
sg74
(lp2882
g67
(g88
g69
NtRp2883
(dp2884
g72
(dp2885
g92
g93
ssg81
g2879
sg74
(lp2886
S'SCRIPT_NAME'
p2887
asbag67
(g88
g69
NtRp2888
(dp2889
g72
(dp2890
g99
g100
ssg81
g2879
sg74
(lp2891
S':'
asbag67
(g88
g69
NtRp2892
(dp2893
g72
(dp2894
sg81
g2879
sg74
(lp2895
g67
(g68
g69
NtRp2896
(dp2897
g72
(dp2898
g80
I3
ssg81
g2892
sg74
(lp2899
S''
asbasbasbag67
(g83
g69
NtRp2900
(dp2901
g72
(dp2902
sg81
g2581
sg74
(lp2903
g67
(g88
g69
NtRp2904
(dp2905
g72
(dp2906
g92
g93
ssg81
g2900
sg74
(lp2907
S'SERVER_NAME'
p2908
asbag67
(g88
g69
NtRp2909
(dp2910
g72
(dp2911
g99
g100
ssg81
g2900
sg74
(lp2912
S':'
asbag67
(g88
g69
NtRp2913
(dp2914
g72
(dp2915
sg81
g2900
sg74
(lp2916
g67
(g68
g69
NtRp2917
(dp2918
g72
(dp2919
g80
I3
ssg81
g2913
sg74
(lp2920
g1546
asbasbasbag67
(g83
g69
NtRp2921
(dp2922
g72
(dp2923
sg81
g2581
sg74
(lp2924
g67
(g88
g69
NtRp2925
(dp2926
g72
(dp2927
g92
g93
ssg81
g2921
sg74
(lp2928
S'SERVER_PORT'
p2929
asbag67
(g88
g69
NtRp2930
(dp2931
g72
(dp2932
g99
g100
ssg81
g2921
sg74
(lp2933
S':'
asbag67
(g88
g69
NtRp2934
(dp2935
g72
(dp2936
sg81
g2921
sg74
(lp2937
g67
(g68
g69
NtRp2938
(dp2939
g72
(dp2940
g80
I3
ssg81
g2934
sg74
(lp2941
g1568
asbasbasbag67
(g83
g69
NtRp2942
(dp2943
g72
(dp2944
sg81
g2581
sg74
(lp2945
g67
(g88
g69
NtRp2946
(dp2947
g72
(dp2948
g92
g93
ssg81
g2942
sg74
(lp2949
S'SERVER_PROTOCOL'
p2950
asbag67
(g88
g69
NtRp2951
(dp2952
g72
(dp2953
g99
g100
ssg81
g2942
sg74
(lp2954
S':'
asbag67
(g88
g69
NtRp2955
(dp2956
g72
(dp2957
sg81
g2942
sg74
(lp2958
g67
(g68
g69
NtRp2959
(dp2960
g72
(dp2961
g80
I3
ssg81
g2955
sg74
(lp2962
g1590
asbasbasbag67
(g83
g69
NtRp2963
(dp2964
g72
(dp2965
sg81
g2581
sg74
(lp2966
g67
(g88
g69
NtRp2967
(dp2968
g72
(dp2969
g92
g93
ssg81
g2963
sg74
(lp2970
S'SERVER_SOFTWARE'
p2971
asbag67
(g88
g69
NtRp2972
(dp2973
g72
(dp2974
g99
g100
ssg81
g2963
sg74
(lp2975
S':'
asbag67
(g88
g69
NtRp2976
(dp2977
g72
(dp2978
sg81
g2963
sg74
(lp2979
g67
(g68
g69
NtRp2980
(dp2981
g72
(dp2982
g80
I3
ssg81
g2976
sg74
(lp2983
g1612
asbasbasbag67
(g83
g69
NtRp2984
(dp2985
g72
(dp2986
sg81
g2581
sg74
(lp2987
g67
(g88
g69
NtRp2988
(dp2989
g72
(dp2990
g92
g93
ssg81
g2984
sg74
(lp2991
S'wsgi.errors'
p2992
asbag67
(g88
g69
NtRp2993
(dp2994
g72
(dp2995
g99
g100
ssg81
g2984
sg74
(lp2996
S':'
asbag67
(g88
g69
NtRp2997
(dp2998
g72
(dp2999
sg81
g2984
sg74
(lp3000
g67
(g68
g69
NtRp3001
(dp3002
g72
(dp3003
g80
I3
ssg81
g2997
sg74
(lp3004
S"<open file '<stderr>', mode 'w' at 0x7f0a266f3270>"
p3005
asbasbasbag67
(g83
g69
NtRp3006
(dp3007
g72
(dp3008
sg81
g2581
sg74
(lp3009
g67
(g88
g69
NtRp3010
(dp3011
g72
(dp3012
g92
g93
ssg81
g3006
sg74
(lp3013
S'wsgi.file_wrapper'
p3014
asbag67
(g88
g69
NtRp3015
(dp3016
g72
(dp3017
g99
g100
ssg81
g3006
sg74
(lp3018
S':'
asbag67
(g88
g69
NtRp3019
(dp3020
g72
(dp3021
sg81
g3006
sg74
(lp3022
g67
(g68
g69
NtRp3023
(dp3024
g72
(dp3025
g80
I3
ssg81
g3019
sg74
(lp3026
S'<class wsgiref.util.FileWrapper at 0x1a73600>'
p3027
asbasbasbag67
(g83
g69
NtRp3028
(dp3029
g72
(dp3030
sg81
g2581
sg74
(lp3031
g67
(g88
g69
NtRp3032
(dp3033
g72
(dp3034
g92
g93
ssg81
g3028
sg74
(lp3035
S'wsgi.input'
p3036
asbag67
(g88
g69
NtRp3037
(dp3038
g72
(dp3039
g99
g100
ssg81
g3028
sg74
(lp3040
S':'
asbag67
(g88
g69
NtRp3041
(dp3042
g72
(dp3043
sg81
g3028
sg74
(lp3044
g67
(g68
g69
NtRp3045
(dp3046
g72
(dp3047
g80
I3
ssg81
g3041
sg74
(lp3048
S'<cStringIO.StringO object at 0x3677b20>'
p3049
asbasbasbag67
(g83
g69
NtRp3050
(dp3051
g72
(dp3052
sg81
g2581
sg74
(lp3053
g67
(g88
g69
NtRp3054
(dp3055
g72
(dp3056
g92
g93
ssg81
g3050
sg74
(lp3057
S'wsgi.multiprocess'
p3058
asbag67
(g88
g69
NtRp3059
(dp3060
g72
(dp3061
g99
g100
ssg81
g3050
sg74
(lp3062
S':'
asbag67
(g88
g69
NtRp3063
(dp3064
g72
(dp3065
sg81
g3050
sg74
(lp3066
g67
(g68
g69
NtRp3067
(dp3068
g72
(dp3069
g80
I3
ssg81
g3063
sg74
(lp3070
g110
asbasbasbag67
(g83
g69
NtRp3071
(dp3072
g72
(dp3073
sg81
g2581
sg74
(lp3074
g67
(g88
g69
NtRp3075
(dp3076
g72
(dp3077
g92
g93
ssg81
g3071
sg74
(lp3078
S'wsgi.multithread'
p3079
asbag67
(g88
g69
NtRp3080
(dp3081
g72
(dp3082
g99
g100
ssg81
g3071
sg74
(lp3083
S':'
asbag67
(g88
g69
NtRp3084
(dp3085
g72
(dp3086
sg81
g3071
sg74
(lp3087
g67
(g68
g69
NtRp3088
(dp3089
g72
(dp3090
g80
I3
ssg81
g3084
sg74
(lp3091
g1852
asbasbasbag67
(g83
g69
NtRp3092
(dp3093
g72
(dp3094
sg81
g2581
sg74
(lp3095
g67
(g88
g69
NtRp3096
(dp3097
g72
(dp3098
g92
g93
ssg81
g3092
sg74
(lp3099
S'wsgi.run_once'
p3100
asbag67
(g88
g69
NtRp3101
(dp3102
g72
(dp3103
g99
g100
ssg81
g3092
sg74
(lp3104
S':'
asbag67
(g88
g69
NtRp3105
(dp3106
g72
(dp3107
sg81
g3092
sg74
(lp3108
g67
(g68
g69
NtRp3109
(dp3110
g72
(dp3111
g80
I3
ssg81
g3105
sg74
(lp3112
g110
asbasbasbag67
(g83
g69
NtRp3113
(dp3114
g72
(dp3115
sg81
g2581
sg74
(lp3116
g67
(g88
g69
NtRp3117
(dp3118
g72
(dp3119
g92
g93
ssg81
g3113
sg74
(lp3120
S'wsgi.url_scheme'
p3121
asbag67
(g88
g69
NtRp3122
(dp3123
g72
(dp3124
g99
g100
ssg81
g3113
sg74
(lp3125
S':'
asbag67
(g88
g69
NtRp3126
(dp3127
g72
(dp3128
sg81
g3113
sg74
(lp3129
g67
(g68
g69
NtRp3130
(dp3131
g72
(dp3132
g80
I3
ssg81
g3126
sg74
(lp3133
g1895
asbasbasbag67
(g83
g69
NtRp3134
(dp3135
g72
(dp3136
sg81
g2581
sg74
(lp3137
g67
(g88
g69
NtRp3138
(dp3139
g72
(dp3140
g92
g93
ssg81
g3134
sg74
(lp3141
S'wsgi.version'
p3142
asbag67
(g88
g69
NtRp3143
(dp3144
g72
(dp3145
g99
g100
ssg81
g3134
sg74
(lp3146
S':'
asbag67
(g88
g69
NtRp3147
(dp3148
g72
(dp3149
sg81
g3134
sg74
(lp3150
g67
(g68
g69
NtRp3151
(dp3152
g72
(dp3153
g80
I3
ssg81
g3147
sg74
(lp3154
S'1'
asbasbasbasbasbasbasbasbasbasbasbasbasbsS'frames'
p3155
(lp3156
(dp3157
S'file'
p3158
S'/windows/Users/Thomas/Dropbox/appz/2011/GAE/ddl-lagoon/gluon/restricted.py'
p3159
sS'dump'
p3160
(dp3161
S'code'
p3162
S'"left_sidebar_enabled=right_sidebar_enabled=True\\n...nse.write(\'\\\\n  </body>\\\\n</html>\\\\n\', escape=False)"'
p3163
sS'layer'
p3164
S"'/windows/Users/Thomas/Dropbox/appz/2011/GAE/ddl-...on/applications/ddlagoon/views/default/index.html'"
p3165
sS'global compile2'
p3166
S'<function compile2>'
p3167
sS'ccode'
p3168
S'undefined'
p3169
ssS'lnum'
p3170
I193
sS'lines'
p3171
(dp3172
I192
S'        else:'
p3173
sI193
S'            ccode = compile2(code,layer)'
p3174
sI194
S'        exec ccode in environment'
p3175
sI195
S'    except HTTP:'
p3176
sI196
S'        raise'
p3177
sI197
S'    except Exception, error:'
p3178
sI188
S"    environment['__file__'] = layer"
p3179
sI189
S'    try:'
p3180
sI190
S'        if type(code) == types.CodeType:'
p3181
sI191
S'            ccode = code'
p3182
ssS'call'
p3183
S'(code="left_sidebar_enabled=right_sidebar_enabled=True\\n...nse.write(\'\\\\n  </body>\\\\n</html>\\\\n\', escape=False)", environment={\'A\': <class \'gluon.html.A\'>, \'Auth\': <class \'gluon.tools.Auth\'>, \'B\': <class \'gluon.html.B\'>, \'BEAUTIFY\': <class \'gluon.html.BEAUTIFY\'>, \'BODY\': <class \'gluon.html.BODY\'>, \'BR\': <class \'gluon.html.BR\'>, \'BUTTON\': <class \'gluon.html.BUTTON\'>, \'CAT\': <class \'gluon.html.CAT\'>, \'CENTER\': <class \'gluon.html.CENTER\'>, \'CLEANUP\': <class \'gluon.validators.CLEANUP\'>, ...}, layer=\'/windows/Users/Thomas/Dropbox/appz/2011/GAE/ddl-...on/applications/ddlagoon/views/default/index.html\')'
p3184
sS'func'
p3185
S'restricted'
p3186
sa(dp3187
g3158
S'/windows/Users/Thomas/Dropbox/appz/2011/GAE/ddl-lagoon/gluon/restricted.py'
p3188
sg3160
(dp3189
S'builtincompile'
p3190
S'<built-in function compile>'
p3191
sS'code'
p3192
S'"left_sidebar_enabled=right_sidebar_enabled=True\\n...nse.write(\'\\\\n  </body>\\\\n</html>\\\\n\', escape=False)"'
p3193
sS'code.rstrip'
p3194
S'<built-in method rstrip of str object>'
p3195
sS').replace'
p3196
g3169
sS'layer'
p3197
S"'/windows/Users/Thomas/Dropbox/appz/2011/GAE/ddl-...on/applications/ddlagoon/views/default/index.html'"
p3198
ssg3170
I179
sg3171
(dp3199
I174
S''
sI175
S'def compile2(code,layer):'
p3200
sI176
S'    """'
p3201
sI177
S"    The +'\\n' is necessary else compile fails when code ends in a comment."
p3202
sI178
S'    """'
p3203
sI179
S"    return compile(code.rstrip().replace('\\r\\n','\\n')+'\\n', layer, 'exec')"
p3204
sI180
S''
sI181
S"def restricted(code, environment=None, layer='Unknown'):"
p3205
sI182
S'    """'
p3206
sI183
S'    runs code in environment and returns the output. if an exception occurs'
p3207
ssg3183
S'(code="left_sidebar_enabled=right_sidebar_enabled=True\\n...nse.write(\'\\\\n  </body>\\\\n</html>\\\\n\', escape=False)", layer=\'/windows/Users/Thomas/Dropbox/appz/2011/GAE/ddl-...on/applications/ddlagoon/views/default/index.html\')'
p3208
sg3185
S'compile2'
p3209
sasS'pyver'
p3210
S'Python 2.7.2+: /usr/bin/python'
p3211
sS'session'
p3212
g67
(g68
g69
NtRp3213
(dp3214
g72
(dp3215
sg74
(lp3216
g67
(g76
g69
NtRp3217
(dp3218
g72
(dp3219
g80
I5
ssg81
Nsg74
(lp3220
g67
(g83
g69
NtRp3221
(dp3222
g72
(dp3223
sg81
g3217
sg74
(lp3224
g67
(g88
g69
NtRp3225
(dp3226
g72
(dp3227
g92
g93
ssg81
g3221
sg74
(lp3228
S'last_query'
p3229
asbag67
(g88
g69
NtRp3230
(dp3231
g72
(dp3232
g99
g100
ssg81
g3221
sg74
(lp3233
S':'
asbag67
(g88
g69
NtRp3234
(dp3235
g72
(dp3236
sg81
g3221
sg74
(lp3237
g67
(g68
g69
NtRp3238
(dp3239
g72
(dp3240
g80
I5
ssg81
g3234
sg74
(lp3241
S'db.ddl.id>0'
p3242
asbasbasbasbasbsS'etype'
p3243
S"<type 'exceptions.SyntaxError'>"
p3244
sS'date'
p3245
S'Wed Oct 26 21:25:10 2011'
p3246
sS'response'
p3247
g67
(g68
g69
NtRp3248
(dp3249
g72
(dp3250
sg74
(lp3251
g67
(g76
g69
NtRp3252
(dp3253
g72
(dp3254
g80
I5
ssg81
Nsg74
(lp3255
g67
(g83
g69
NtRp3256
(dp3257
g72
(dp3258
sg81
g3252
sg74
(lp3259
g67
(g88
g69
NtRp3260
(dp3261
g72
(dp3262
g92
g93
ssg81
g3256
sg74
(lp3263
g165
asbag67
(g88
g69
NtRp3264
(dp3265
g72
(dp3266
g99
g100
ssg81
g3256
sg74
(lp3267
S':'
asbag67
(g88
g69
NtRp3268
(dp3269
g72
(dp3270
sg81
g3256
sg74
(lp3271
g67
(g68
g69
NtRp3272
(dp3273
g72
(dp3274
g80
I5
ssg81
g3268
sg74
(lp3275
S'<cStringIO.StringO object at 0x4577228>'
p3276
asbasbasbag67
(g83
g69
NtRp3277
(dp3278
g72
(dp3279
sg81
g3252
sg74
(lp3280
g67
(g88
g69
NtRp3281
(dp3282
g72
(dp3283
g92
g93
ssg81
g3277
sg74
(lp3284
g231
asbag67
(g88
g69
NtRp3285
(dp3286
g72
(dp3287
g99
g100
ssg81
g3277
sg74
(lp3288
S':'
asbag67
(g88
g69
NtRp3289
(dp3290
g72
(dp3291
sg81
g3277
sg74
(lp3292
g67
(g68
g69
NtRp3293
(dp3294
g72
(dp3295
g80
I5
ssg81
g3289
sg74
(lp3296
g67
(g76
g69
NtRp3297
(dp3298
g72
(dp3299
g80
I4
ssg81
Nsg74
(lp3300
g67
(g83
g69
NtRp3301
(dp3302
g72
(dp3303
sg81
g3297
sg74
(lp3304
g67
(g88
g69
NtRp3305
(dp3306
g72
(dp3307
g92
g93
ssg81
g3301
sg74
(lp3308
S'session_id_ddlagoon'
p3309
asbag67
(g88
g69
NtRp3310
(dp3311
g72
(dp3312
g99
g100
ssg81
g3301
sg74
(lp3313
S':'
asbag67
(g88
g69
NtRp3314
(dp3315
g72
(dp3316
sg81
g3301
sg74
(lp3317
g67
(g68
g69
NtRp3318
(dp3319
g72
(dp3320
g80
I4
ssg81
g3314
sg74
(lp3321
g67
(g76
g69
NtRp3322
(dp3323
g72
(dp3324
g80
I3
ssg81
Nsg74
(lp3325
g67
(g83
g69
NtRp3326
(dp3327
g72
(dp3328
sg81
g3322
sg74
(lp3329
g67
(g88
g69
NtRp3330
(dp3331
g72
(dp3332
g92
g93
ssg81
g3326
sg74
(lp3333
g281
asbag67
(g88
g69
NtRp3334
(dp3335
g72
(dp3336
g99
g100
ssg81
g3326
sg74
(lp3337
S':'
asbag67
(g88
g69
NtRp3338
(dp3339
g72
(dp3340
sg81
g3326
sg74
(lp3341
g67
(g68
g69
NtRp3342
(dp3343
g72
(dp3344
g80
I3
ssg81
g3338
sg74
(lp3345
S''
asbasbasbag67
(g83
g69
NtRp3346
(dp3347
g72
(dp3348
sg81
g3322
sg74
(lp3349
g67
(g88
g69
NtRp3350
(dp3351
g72
(dp3352
g92
g93
ssg81
g3346
sg74
(lp3353
g302
asbag67
(g88
g69
NtRp3354
(dp3355
g72
(dp3356
g99
g100
ssg81
g3346
sg74
(lp3357
S':'
asbag67
(g88
g69
NtRp3358
(dp3359
g72
(dp3360
sg81
g3346
sg74
(lp3361
g67
(g68
g69
NtRp3362
(dp3363
g72
(dp3364
g80
I3
ssg81
g3358
sg74
(lp3365
S''
asbasbasbag67
(g83
g69
NtRp3366
(dp3367
g72
(dp3368
sg81
g3322
sg74
(lp3369
g67
(g88
g69
NtRp3370
(dp3371
g72
(dp3372
g92
g93
ssg81
g3366
sg74
(lp3373
g323
asbag67
(g88
g69
NtRp3374
(dp3375
g72
(dp3376
g99
g100
ssg81
g3366
sg74
(lp3377
S':'
asbag67
(g88
g69
NtRp3378
(dp3379
g72
(dp3380
sg81
g3366
sg74
(lp3381
g67
(g68
g69
NtRp3382
(dp3383
g72
(dp3384
g80
I3
ssg81
g3378
sg74
(lp3385
S''
asbasbasbag67
(g83
g69
NtRp3386
(dp3387
g72
(dp3388
sg81
g3322
sg74
(lp3389
g67
(g88
g69
NtRp3390
(dp3391
g72
(dp3392
g92
g93
ssg81
g3386
sg74
(lp3393
g344
asbag67
(g88
g69
NtRp3394
(dp3395
g72
(dp3396
g99
g100
ssg81
g3386
sg74
(lp3397
S':'
asbag67
(g88
g69
NtRp3398
(dp3399
g72
(dp3400
sg81
g3386
sg74
(lp3401
g67
(g68
g69
NtRp3402
(dp3403
g72
(dp3404
g80
I3
ssg81
g3398
sg74
(lp3405
S''
asbasbasbag67
(g83
g69
NtRp3406
(dp3407
g72
(dp3408
sg81
g3322
sg74
(lp3409
g67
(g88
g69
NtRp3410
(dp3411
g72
(dp3412
g92
g93
ssg81
g3406
sg74
(lp3413
g365
asbag67
(g88
g69
NtRp3414
(dp3415
g72
(dp3416
g99
g100
ssg81
g3406
sg74
(lp3417
S':'
asbag67
(g88
g69
NtRp3418
(dp3419
g72
(dp3420
sg81
g3406
sg74
(lp3421
g67
(g68
g69
NtRp3422
(dp3423
g72
(dp3424
g80
I3
ssg81
g3418
sg74
(lp3425
S''
asbasbasbag67
(g83
g69
NtRp3426
(dp3427
g72
(dp3428
sg81
g3322
sg74
(lp3429
g67
(g88
g69
NtRp3430
(dp3431
g72
(dp3432
g92
g93
ssg81
g3426
sg74
(lp3433
g386
asbag67
(g88
g69
NtRp3434
(dp3435
g72
(dp3436
g99
g100
ssg81
g3426
sg74
(lp3437
S':'
asbag67
(g88
g69
NtRp3438
(dp3439
g72
(dp3440
sg81
g3426
sg74
(lp3441
g67
(g68
g69
NtRp3442
(dp3443
g72
(dp3444
g80
I3
ssg81
g3438
sg74
(lp3445
S'/'
asbasbasbag67
(g83
g69
NtRp3446
(dp3447
g72
(dp3448
sg81
g3322
sg74
(lp3449
g67
(g88
g69
NtRp3450
(dp3451
g72
(dp3452
g92
g93
ssg81
g3446
sg74
(lp3453
g407
asbag67
(g88
g69
NtRp3454
(dp3455
g72
(dp3456
g99
g100
ssg81
g3446
sg74
(lp3457
S':'
asbag67
(g88
g69
NtRp3458
(dp3459
g72
(dp3460
sg81
g3446
sg74
(lp3461
g67
(g68
g69
NtRp3462
(dp3463
g72
(dp3464
g80
I3
ssg81
g3458
sg74
(lp3465
S''
asbasbasbag67
(g83
g69
NtRp3466
(dp3467
g72
(dp3468
sg81
g3322
sg74
(lp3469
g67
(g88
g69
NtRp3470
(dp3471
g72
(dp3472
g92
g93
ssg81
g3466
sg74
(lp3473
g428
asbag67
(g88
g69
NtRp3474
(dp3475
g72
(dp3476
g99
g100
ssg81
g3466
sg74
(lp3477
S':'
asbag67
(g88
g69
NtRp3478
(dp3479
g72
(dp3480
sg81
g3466
sg74
(lp3481
g67
(g68
g69
NtRp3482
(dp3483
g72
(dp3484
g80
I3
ssg81
g3478
sg74
(lp3485
S''
asbasbasbasbasbasbasbasbasbasbasbag67
(g83
g69
NtRp3486
(dp3487
g72
(dp3488
sg81
g3252
sg74
(lp3489
g67
(g88
g69
NtRp3490
(dp3491
g72
(dp3492
g92
g93
ssg81
g3486
sg74
(lp3493
S'files'
p3494
asbag67
(g88
g69
NtRp3495
(dp3496
g72
(dp3497
g99
g100
ssg81
g3486
sg74
(lp3498
S':'
asbag67
(g88
g69
NtRp3499
(dp3500
g72
(dp3501
sg81
g3486
sg74
(lp3502
g67
(g68
g69
NtRp3503
(dp3504
g72
(dp3505
g80
I5
ssg81
g3499
sg74
(lp3506
g67
(g76
g69
NtRp3507
(dp3508
g72
(dp3509
g80
I4
ssg81
Nsg74
(lp3510
sbasbasbasbag67
(g83
g69
NtRp3511
(dp3512
g72
(dp3513
sg81
g3252
sg74
(lp3514
g67
(g88
g69
NtRp3515
(dp3516
g72
(dp3517
g92
g93
ssg81
g3511
sg74
(lp3518
S'flash'
p3519
asbag67
(g88
g69
NtRp3520
(dp3521
g72
(dp3522
g99
g100
ssg81
g3511
sg74
(lp3523
S':'
asbag67
(g88
g69
NtRp3524
(dp3525
g72
(dp3526
sg81
g3511
sg74
(lp3527
g67
(g68
g69
NtRp3528
(dp3529
g72
(dp3530
g80
I5
ssg81
g3524
sg74
(lp3531
S''
asbasbasbag67
(g83
g69
NtRp3532
(dp3533
g72
(dp3534
sg81
g3252
sg74
(lp3535
g67
(g88
g69
NtRp3536
(dp3537
g72
(dp3538
g92
g93
ssg81
g3532
sg74
(lp3539
S'generic_patterns'
p3540
asbag67
(g88
g69
NtRp3541
(dp3542
g72
(dp3543
g99
g100
ssg81
g3532
sg74
(lp3544
S':'
asbag67
(g88
g69
NtRp3545
(dp3546
g72
(dp3547
sg81
g3532
sg74
(lp3548
g67
(g68
g69
NtRp3549
(dp3550
g72
(dp3551
g80
I5
ssg81
g3545
sg74
(lp3552
g67
(g76
g69
NtRp3553
(dp3554
g72
(dp3555
g80
I4
ssg81
Nsg74
(lp3556
g67
(g83
g69
NtRp3557
(dp3558
g72
(dp3559
sg81
g3553
sg74
(lp3560
g67
(g88
g69
NtRp3561
(dp3562
g72
(dp3563
sg81
g3557
sg74
(lp3564
g67
(g68
g69
NtRp3565
(dp3566
g72
(dp3567
g80
I4
ssg81
g3561
sg74
(lp3568
S'*'
asbasbasbasbasbasbasbag67
(g83
g69
NtRp3569
(dp3570
g72
(dp3571
sg81
g3252
sg74
(lp3572
g67
(g88
g69
NtRp3573
(dp3574
g72
(dp3575
g92
g93
ssg81
g3569
sg74
(lp3576
S'headers'
p3577
asbag67
(g88
g69
NtRp3578
(dp3579
g72
(dp3580
g99
g100
ssg81
g3569
sg74
(lp3581
S':'
asbag67
(g88
g69
NtRp3582
(dp3583
g72
(dp3584
sg81
g3569
sg74
(lp3585
g67
(g68
g69
NtRp3586
(dp3587
g72
(dp3588
g80
I5
ssg81
g3582
sg74
(lp3589
g67
(g76
g69
NtRp3590
(dp3591
g72
(dp3592
g80
I4
ssg81
Nsg74
(lp3593
g67
(g83
g69
NtRp3594
(dp3595
g72
(dp3596
sg81
g3590
sg74
(lp3597
g67
(g88
g69
NtRp3598
(dp3599
g72
(dp3600
g92
g93
ssg81
g3594
sg74
(lp3601
S'Cache-Control'
p3602
asbag67
(g88
g69
NtRp3603
(dp3604
g72
(dp3605
g99
g100
ssg81
g3594
sg74
(lp3606
S':'
asbag67
(g88
g69
NtRp3607
(dp3608
g72
(dp3609
sg81
g3594
sg74
(lp3610
g67
(g68
g69
NtRp3611
(dp3612
g72
(dp3613
g80
I4
ssg81
g3607
sg74
(lp3614
S'no-store, no-cache, must-revalidate, post-check=0, pre-check=0'
p3615
asbasbasbag67
(g83
g69
NtRp3616
(dp3617
g72
(dp3618
sg81
g3590
sg74
(lp3619
g67
(g88
g69
NtRp3620
(dp3621
g72
(dp3622
g92
g93
ssg81
g3616
sg74
(lp3623
S'Content-Type'
p3624
asbag67
(g88
g69
NtRp3625
(dp3626
g72
(dp3627
g99
g100
ssg81
g3616
sg74
(lp3628
S':'
asbag67
(g88
g69
NtRp3629
(dp3630
g72
(dp3631
sg81
g3616
sg74
(lp3632
g67
(g68
g69
NtRp3633
(dp3634
g72
(dp3635
g80
I4
ssg81
g3629
sg74
(lp3636
S'text/html; charset=utf-8'
p3637
asbasbasbag67
(g83
g69
NtRp3638
(dp3639
g72
(dp3640
sg81
g3590
sg74
(lp3641
g67
(g88
g69
NtRp3642
(dp3643
g72
(dp3644
g92
g93
ssg81
g3638
sg74
(lp3645
S'Expires'
p3646
asbag67
(g88
g69
NtRp3647
(dp3648
g72
(dp3649
g99
g100
ssg81
g3638
sg74
(lp3650
S':'
asbag67
(g88
g69
NtRp3651
(dp3652
g72
(dp3653
sg81
g3638
sg74
(lp3654
g67
(g68
g69
NtRp3655
(dp3656
g72
(dp3657
g80
I4
ssg81
g3651
sg74
(lp3658
S'Wed, 26 Oct 2011 20:25:10 GMT'
p3659
asbasbasbag67
(g83
g69
NtRp3660
(dp3661
g72
(dp3662
sg81
g3590
sg74
(lp3663
g67
(g88
g69
NtRp3664
(dp3665
g72
(dp3666
g92
g93
ssg81
g3660
sg74
(lp3667
S'Pragma'
p3668
asbag67
(g88
g69
NtRp3669
(dp3670
g72
(dp3671
g99
g100
ssg81
g3660
sg74
(lp3672
S':'
asbag67
(g88
g69
NtRp3673
(dp3674
g72
(dp3675
sg81
g3660
sg74
(lp3676
g67
(g68
g69
NtRp3677
(dp3678
g72
(dp3679
g80
I4
ssg81
g3673
sg74
(lp3680
S'no-cache'
p3681
asbasbasbag67
(g83
g69
NtRp3682
(dp3683
g72
(dp3684
sg81
g3590
sg74
(lp3685
g67
(g88
g69
NtRp3686
(dp3687
g72
(dp3688
g92
g93
ssg81
g3682
sg74
(lp3689
S'X-Powered-By'
p3690
asbag67
(g88
g69
NtRp3691
(dp3692
g72
(dp3693
g99
g100
ssg81
g3682
sg74
(lp3694
S':'
asbag67
(g88
g69
NtRp3695
(dp3696
g72
(dp3697
sg81
g3682
sg74
(lp3698
g67
(g68
g69
NtRp3699
(dp3700
g72
(dp3701
g80
I4
ssg81
g3695
sg74
(lp3702
S'web2py'
p3703
asbasbasbasbasbasbasbag67
(g83
g69
NtRp3704
(dp3705
g72
(dp3706
sg81
g3252
sg74
(lp3707
g67
(g88
g69
NtRp3708
(dp3709
g72
(dp3710
g92
g93
ssg81
g3704
sg74
(lp3711
S'menu'
p3712
asbag67
(g88
g69
NtRp3713
(dp3714
g72
(dp3715
g99
g100
ssg81
g3704
sg74
(lp3716
S':'
asbag67
(g88
g69
NtRp3717
(dp3718
g72
(dp3719
sg81
g3704
sg74
(lp3720
g67
(g68
g69
NtRp3721
(dp3722
g72
(dp3723
g80
I5
ssg81
g3717
sg74
(lp3724
g67
(g76
g69
NtRp3725
(dp3726
g72
(dp3727
g80
I4
ssg81
Nsg74
(lp3728
g67
(g83
g69
NtRp3729
(dp3730
g72
(dp3731
sg81
g3725
sg74
(lp3732
g67
(g88
g69
NtRp3733
(dp3734
g72
(dp3735
sg81
g3729
sg74
(lp3736
g67
(g68
g69
NtRp3737
(dp3738
g72
(dp3739
g80
I4
ssg81
g3733
sg74
(lp3740
g67
(g76
g69
NtRp3741
(dp3742
g72
(dp3743
g80
I3
ssg81
Nsg74
(lp3744
g67
(g83
g69
NtRp3745
(dp3746
g72
(dp3747
sg81
g3741
sg74
(lp3748
g67
(g88
g69
NtRp3749
(dp3750
g72
(dp3751
sg81
g3745
sg74
(lp3752
g67
(g68
g69
NtRp3753
(dp3754
g72
(dp3755
g80
I3
ssg81
g3749
sg74
(lp3756
cgluon.languages
lazyT_unpickle
p3757
(S't\x04\x00\x00\x00Home'
tRp3758
asbasbasbag67
(g83
g69
NtRp3759
(dp3760
g72
(dp3761
sg81
g3741
sg74
(lp3762
g67
(g88
g69
NtRp3763
(dp3764
g72
(dp3765
sg81
g3759
sg74
(lp3766
g67
(g68
g69
NtRp3767
(dp3768
g72
(dp3769
g80
I3
ssg81
g3763
sg74
(lp3770
g110
asbasbasbag67
(g83
g69
NtRp3771
(dp3772
g72
(dp3773
sg81
g3741
sg74
(lp3774
g67
(g88
g69
NtRp3775
(dp3776
g72
(dp3777
sg81
g3771
sg74
(lp3778
g67
(g68
g69
NtRp3779
(dp3780
g72
(dp3781
g80
I3
ssg81
g3775
sg74
(lp3782
S'/ddlagoon/default/index'
p3783
asbasbasbag67
(g83
g69
NtRp3784
(dp3785
g72
(dp3786
sg81
g3741
sg74
(lp3787
g67
(g88
g69
NtRp3788
(dp3789
g72
(dp3790
sg81
g3784
sg74
(lp3791
g67
(g68
g69
NtRp3792
(dp3793
g72
(dp3794
g80
I3
ssg81
g3788
sg74
(lp3795
g67
(g76
g69
NtRp3796
(dp3797
g72
(dp3798
g80
I2
ssg81
Nsg74
(lp3799
sbasbasbasbasbasbasbasbag67
(g83
g69
NtRp3800
(dp3801
g72
(dp3802
sg81
g3725
sg74
(lp3803
g67
(g88
g69
NtRp3804
(dp3805
g72
(dp3806
sg81
g3800
sg74
(lp3807
g67
(g68
g69
NtRp3808
(dp3809
g72
(dp3810
g80
I4
ssg81
g3804
sg74
(lp3811
g67
(g76
g69
NtRp3812
(dp3813
g72
(dp3814
g80
I3
ssg81
Nsg74
(lp3815
g67
(g83
g69
NtRp3816
(dp3817
g72
(dp3818
sg81
g3812
sg74
(lp3819
g67
(g88
g69
NtRp3820
(dp3821
g72
(dp3822
sg81
g3816
sg74
(lp3823
g67
(g68
g69
NtRp3824
(dp3825
g72
(dp3826
g80
I3
ssg81
g3820
sg74
(lp3827
g3757
(S's\x08\x00\x00\x00This App'
tRp3828
asbasbasbag67
(g83
g69
NtRp3829
(dp3830
g72
(dp3831
sg81
g3812
sg74
(lp3832
g67
(g88
g69
NtRp3833
(dp3834
g72
(dp3835
sg81
g3829
sg74
(lp3836
g67
(g68
g69
NtRp3837
(dp3838
g72
(dp3839
g80
I3
ssg81
g3833
sg74
(lp3840
g110
asbasbasbag67
(g83
g69
NtRp3841
(dp3842
g72
(dp3843
sg81
g3812
sg74
(lp3844
g67
(g88
g69
NtRp3845
(dp3846
g72
(dp3847
sg81
g3841
sg74
(lp3848
g67
(g68
g69
NtRp3849
(dp3850
g72
(dp3851
g80
I3
ssg81
g3845
sg74
(lp3852
S'/admin/default/design/ddlagoon'
p3853
asbasbasbag67
(g83
g69
NtRp3854
(dp3855
g72
(dp3856
sg81
g3812
sg74
(lp3857
g67
(g88
g69
NtRp3858
(dp3859
g72
(dp3860
sg81
g3854
sg74
(lp3861
g67
(g68
g69
NtRp3862
(dp3863
g72
(dp3864
g80
I3
ssg81
g3858
sg74
(lp3865
g67
(g76
g69
NtRp3866
(dp3867
g72
(dp3868
g80
I2
ssg81
Nsg74
(lp3869
g67
(g83
g69
NtRp3870
(dp3871
g72
(dp3872
sg81
g3866
sg74
(lp3873
g67
(g88
g69
NtRp3874
(dp3875
g72
(dp3876
sg81
g3870
sg74
(lp3877
g67
(g68
g69
NtRp3878
(dp3879
g72
(dp3880
g80
I2
ssg81
g3874
sg74
(lp3881
g67
(g76
g69
NtRp3882
(dp3883
g72
(dp3884
g80
I1
ssg81
Nsg74
(lp3885
g67
(g83
g69
NtRp3886
(dp3887
g72
(dp3888
sg81
g3882
sg74
(lp3889
g67
(g88
g69
NtRp3890
(dp3891
g72
(dp3892
sg81
g3886
sg74
(lp3893
g67
(g68
g69
NtRp3894
(dp3895
g72
(dp3896
g80
I1
ssg81
g3890
sg74
(lp3897
g3757
(S't\n\x00\x00\x00Controller'
tRp3898
asbasbasbag67
(g83
g69
NtRp3899
(dp3900
g72
(dp3901
sg81
g3882
sg74
(lp3902
g67
(g88
g69
NtRp3903
(dp3904
g72
(dp3905
sg81
g3899
sg74
(lp3906
g67
(g68
g69
NtRp3907
(dp3908
g72
(dp3909
g80
I1
ssg81
g3903
sg74
(lp3910
I00
asbasbasbag67
(g83
g69
NtRp3911
(dp3912
g72
(dp3913
sg81
g3882
sg74
(lp3914
g67
(g88
g69
NtRp3915
(dp3916
g72
(dp3917
sg81
g3911
sg74
(lp3918
g67
(g68
g69
NtRp3919
(dp3920
g72
(dp3921
g80
I1
ssg81
g3915
sg74
(lp3922
S'/admin/default/edit/ddlagoon/controllers/default.py'
p3923
asbasbasbasbasbasbasbag67
(g83
g69
NtRp3924
(dp3925
g72
(dp3926
sg81
g3866
sg74
(lp3927
g67
(g88
g69
NtRp3928
(dp3929
g72
(dp3930
sg81
g3924
sg74
(lp3931
g67
(g68
g69
NtRp3932
(dp3933
g72
(dp3934
g80
I2
ssg81
g3928
sg74
(lp3935
g67
(g76
g69
NtRp3936
(dp3937
g72
(dp3938
g80
I1
ssg81
Nsg74
(lp3939
g67
(g83
g69
NtRp3940
(dp3941
g72
(dp3942
sg81
g3936
sg74
(lp3943
g67
(g88
g69
NtRp3944
(dp3945
g72
(dp3946
sg81
g3940
sg74
(lp3947
g67
(g68
g69
NtRp3948
(dp3949
g72
(dp3950
g80
I1
ssg81
g3944
sg74
(lp3951
g3757
(S't\x04\x00\x00\x00View'
tRp3952
asbasbasbag67
(g83
g69
NtRp3953
(dp3954
g72
(dp3955
sg81
g3936
sg74
(lp3956
g67
(g88
g69
NtRp3957
(dp3958
g72
(dp3959
sg81
g3953
sg74
(lp3960
g67
(g68
g69
NtRp3961
(dp3962
g72
(dp3963
g80
I1
ssg81
g3957
sg74
(lp3964
I00
asbasbasbag67
(g83
g69
NtRp3965
(dp3966
g72
(dp3967
sg81
g3936
sg74
(lp3968
g67
(g88
g69
NtRp3969
(dp3970
g72
(dp3971
sg81
g3965
sg74
(lp3972
g67
(g68
g69
NtRp3973
(dp3974
g72
(dp3975
g80
I1
ssg81
g3969
sg74
(lp3976
S'/admin/default/edit/ddlagoon/views/default/index.html'
p3977
asbasbasbasbasbasbasbag67
(g83
g69
NtRp3978
(dp3979
g72
(dp3980
sg81
g3866
sg74
(lp3981
g67
(g88
g69
NtRp3982
(dp3983
g72
(dp3984
sg81
g3978
sg74
(lp3985
g67
(g68
g69
NtRp3986
(dp3987
g72
(dp3988
g80
I2
ssg81
g3982
sg74
(lp3989
g67
(g76
g69
NtRp3990
(dp3991
g72
(dp3992
g80
I1
ssg81
Nsg74
(lp3993
g67
(g83
g69
NtRp3994
(dp3995
g72
(dp3996
sg81
g3990
sg74
(lp3997
g67
(g88
g69
NtRp3998
(dp3999
g72
(dp4000
sg81
g3994
sg74
(lp4001
g67
(g68
g69
NtRp4002
(dp4003
g72
(dp4004
g80
I1
ssg81
g3998
sg74
(lp4005
g3757
(S't\x06\x00\x00\x00Layout'
tRp4006
asbasbasbag67
(g83
g69
NtRp4007
(dp4008
g72
(dp4009
sg81
g3990
sg74
(lp4010
g67
(g88
g69
NtRp4011
(dp4012
g72
(dp4013
sg81
g4007
sg74
(lp4014
g67
(g68
g69
NtRp4015
(dp4016
g72
(dp4017
g80
I1
ssg81
g4011
sg74
(lp4018
I00
asbasbasbag67
(g83
g69
NtRp4019
(dp4020
g72
(dp4021
sg81
g3990
sg74
(lp4022
g67
(g88
g69
NtRp4023
(dp4024
g72
(dp4025
sg81
g4019
sg74
(lp4026
g67
(g68
g69
NtRp4027
(dp4028
g72
(dp4029
g80
I1
ssg81
g4023
sg74
(lp4030
S'/admin/default/edit/ddlagoon/views/layout.html'
p4031
asbasbasbasbasbasbasbag67
(g83
g69
NtRp4032
(dp4033
g72
(dp4034
sg81
g3866
sg74
(lp4035
g67
(g88
g69
NtRp4036
(dp4037
g72
(dp4038
sg81
g4032
sg74
(lp4039
g67
(g68
g69
NtRp4040
(dp4041
g72
(dp4042
g80
I2
ssg81
g4036
sg74
(lp4043
g67
(g76
g69
NtRp4044
(dp4045
g72
(dp4046
g80
I1
ssg81
Nsg74
(lp4047
g67
(g83
g69
NtRp4048
(dp4049
g72
(dp4050
sg81
g4044
sg74
(lp4051
g67
(g88
g69
NtRp4052
(dp4053
g72
(dp4054
sg81
g4048
sg74
(lp4055
g67
(g68
g69
NtRp4056
(dp4057
g72
(dp4058
g80
I1
ssg81
g4052
sg74
(lp4059
g3757
(S't\n\x00\x00\x00Stylesheet'
tRp4060
asbasbasbag67
(g83
g69
NtRp4061
(dp4062
g72
(dp4063
sg81
g4044
sg74
(lp4064
g67
(g88
g69
NtRp4065
(dp4066
g72
(dp4067
sg81
g4061
sg74
(lp4068
g67
(g68
g69
NtRp4069
(dp4070
g72
(dp4071
g80
I1
ssg81
g4065
sg74
(lp4072
I00
asbasbasbag67
(g83
g69
NtRp4073
(dp4074
g72
(dp4075
sg81
g4044
sg74
(lp4076
g67
(g88
g69
NtRp4077
(dp4078
g72
(dp4079
sg81
g4073
sg74
(lp4080
g67
(g68
g69
NtRp4081
(dp4082
g72
(dp4083
g80
I1
ssg81
g4077
sg74
(lp4084
S'/admin/default/edit/ddlagoon/static/base.css'
p4085
asbasbasbasbasbasbasbag67
(g83
g69
NtRp4086
(dp4087
g72
(dp4088
sg81
g3866
sg74
(lp4089
g67
(g88
g69
NtRp4090
(dp4091
g72
(dp4092
sg81
g4086
sg74
(lp4093
g67
(g68
g69
NtRp4094
(dp4095
g72
(dp4096
g80
I2
ssg81
g4090
sg74
(lp4097
g67
(g76
g69
NtRp4098
(dp4099
g72
(dp4100
g80
I1
ssg81
Nsg74
(lp4101
g67
(g83
g69
NtRp4102
(dp4103
g72
(dp4104
sg81
g4098
sg74
(lp4105
g67
(g88
g69
NtRp4106
(dp4107
g72
(dp4108
sg81
g4102
sg74
(lp4109
g67
(g68
g69
NtRp4110
(dp4111
g72
(dp4112
g80
I1
ssg81
g4106
sg74
(lp4113
g3757
(S's\x08\x00\x00\x00DB Model'
tRp4114
asbasbasbag67
(g83
g69
NtRp4115
(dp4116
g72
(dp4117
sg81
g4098
sg74
(lp4118
g67
(g88
g69
NtRp4119
(dp4120
g72
(dp4121
sg81
g4115
sg74
(lp4122
g67
(g68
g69
NtRp4123
(dp4124
g72
(dp4125
g80
I1
ssg81
g4119
sg74
(lp4126
I00
asbasbasbag67
(g83
g69
NtRp4127
(dp4128
g72
(dp4129
sg81
g4098
sg74
(lp4130
g67
(g88
g69
NtRp4131
(dp4132
g72
(dp4133
sg81
g4127
sg74
(lp4134
g67
(g68
g69
NtRp4135
(dp4136
g72
(dp4137
g80
I1
ssg81
g4131
sg74
(lp4138
S'/admin/default/edit/ddlagoon/models/db.py'
p4139
asbasbasbasbasbasbasbag67
(g83
g69
NtRp4140
(dp4141
g72
(dp4142
sg81
g3866
sg74
(lp4143
g67
(g88
g69
NtRp4144
(dp4145
g72
(dp4146
sg81
g4140
sg74
(lp4147
g67
(g68
g69
NtRp4148
(dp4149
g72
(dp4150
g80
I2
ssg81
g4144
sg74
(lp4151
g67
(g76
g69
NtRp4152
(dp4153
g72
(dp4154
g80
I1
ssg81
Nsg74
(lp4155
g67
(g83
g69
NtRp4156
(dp4157
g72
(dp4158
sg81
g4152
sg74
(lp4159
g67
(g88
g69
NtRp4160
(dp4161
g72
(dp4162
sg81
g4156
sg74
(lp4163
g67
(g68
g69
NtRp4164
(dp4165
g72
(dp4166
g80
I1
ssg81
g4160
sg74
(lp4167
g3757
(S's\n\x00\x00\x00Menu Model'
tRp4168
asbasbasbag67
(g83
g69
NtRp4169
(dp4170
g72
(dp4171
sg81
g4152
sg74
(lp4172
g67
(g88
g69
NtRp4173
(dp4174
g72
(dp4175
sg81
g4169
sg74
(lp4176
g67
(g68
g69
NtRp4177
(dp4178
g72
(dp4179
g80
I1
ssg81
g4173
sg74
(lp4180
I00
asbasbasbag67
(g83
g69
NtRp4181
(dp4182
g72
(dp4183
sg81
g4152
sg74
(lp4184
g67
(g88
g69
NtRp4185
(dp4186
g72
(dp4187
sg81
g4181
sg74
(lp4188
g67
(g68
g69
NtRp4189
(dp4190
g72
(dp4191
g80
I1
ssg81
g4185
sg74
(lp4192
S'/admin/default/edit/ddlagoon/models/menu.py'
p4193
asbasbasbasbasbasbasbag67
(g83
g69
NtRp4194
(dp4195
g72
(dp4196
sg81
g3866
sg74
(lp4197
g67
(g88
g69
NtRp4198
(dp4199
g72
(dp4200
sg81
g4194
sg74
(lp4201
g67
(g68
g69
NtRp4202
(dp4203
g72
(dp4204
g80
I2
ssg81
g4198
sg74
(lp4205
g67
(g76
g69
NtRp4206
(dp4207
g72
(dp4208
g80
I1
ssg81
Nsg74
(lp4209
g67
(g83
g69
NtRp4210
(dp4211
g72
(dp4212
sg81
g4206
sg74
(lp4213
g67
(g88
g69
NtRp4214
(dp4215
g72
(dp4216
sg81
g4210
sg74
(lp4217
g67
(g68
g69
NtRp4218
(dp4219
g72
(dp4220
g80
I1
ssg81
g4214
sg74
(lp4221
g3757
(S't\x08\x00\x00\x00Database'
tRp4222
asbasbasbag67
(g83
g69
NtRp4223
(dp4224
g72
(dp4225
sg81
g4206
sg74
(lp4226
g67
(g88
g69
NtRp4227
(dp4228
g72
(dp4229
sg81
g4223
sg74
(lp4230
g67
(g68
g69
NtRp4231
(dp4232
g72
(dp4233
g80
I1
ssg81
g4227
sg74
(lp4234
I00
asbasbasbag67
(g83
g69
NtRp4235
(dp4236
g72
(dp4237
sg81
g4206
sg74
(lp4238
g67
(g88
g69
NtRp4239
(dp4240
g72
(dp4241
sg81
g4235
sg74
(lp4242
g67
(g68
g69
NtRp4243
(dp4244
g72
(dp4245
g80
I1
ssg81
g4239
sg74
(lp4246
S'/ddlagoon/appadmin/index'
p4247
asbasbasbasbasbasbasbag67
(g83
g69
NtRp4248
(dp4249
g72
(dp4250
sg81
g3866
sg74
(lp4251
g67
(g88
g69
NtRp4252
(dp4253
g72
(dp4254
sg81
g4248
sg74
(lp4255
g67
(g68
g69
NtRp4256
(dp4257
g72
(dp4258
g80
I2
ssg81
g4252
sg74
(lp4259
g67
(g76
g69
NtRp4260
(dp4261
g72
(dp4262
g80
I1
ssg81
Nsg74
(lp4263
g67
(g83
g69
NtRp4264
(dp4265
g72
(dp4266
sg81
g4260
sg74
(lp4267
g67
(g88
g69
NtRp4268
(dp4269
g72
(dp4270
sg81
g4264
sg74
(lp4271
g67
(g68
g69
NtRp4272
(dp4273
g72
(dp4274
g80
I1
ssg81
g4268
sg74
(lp4275
g3757
(S't\x06\x00\x00\x00Errors'
tRp4276
asbasbasbag67
(g83
g69
NtRp4277
(dp4278
g72
(dp4279
sg81
g4260
sg74
(lp4280
g67
(g88
g69
NtRp4281
(dp4282
g72
(dp4283
sg81
g4277
sg74
(lp4284
g67
(g68
g69
NtRp4285
(dp4286
g72
(dp4287
g80
I1
ssg81
g4281
sg74
(lp4288
I00
asbasbasbag67
(g83
g69
NtRp4289
(dp4290
g72
(dp4291
sg81
g4260
sg74
(lp4292
g67
(g88
g69
NtRp4293
(dp4294
g72
(dp4295
sg81
g4289
sg74
(lp4296
g67
(g68
g69
NtRp4297
(dp4298
g72
(dp4299
g80
I1
ssg81
g4293
sg74
(lp4300
S'/admin/default/errors/ddlagoon'
p4301
asbasbasbasbasbasbasbag67
(g83
g69
NtRp4302
(dp4303
g72
(dp4304
sg81
g3866
sg74
(lp4305
g67
(g88
g69
NtRp4306
(dp4307
g72
(dp4308
sg81
g4302
sg74
(lp4309
g67
(g68
g69
NtRp4310
(dp4311
g72
(dp4312
g80
I2
ssg81
g4306
sg74
(lp4313
g67
(g76
g69
NtRp4314
(dp4315
g72
(dp4316
g80
I1
ssg81
Nsg74
(lp4317
g67
(g83
g69
NtRp4318
(dp4319
g72
(dp4320
sg81
g4314
sg74
(lp4321
g67
(g88
g69
NtRp4322
(dp4323
g72
(dp4324
sg81
g4318
sg74
(lp4325
g67
(g68
g69
NtRp4326
(dp4327
g72
(dp4328
g80
I1
ssg81
g4322
sg74
(lp4329
g3757
(S't\x05\x00\x00\x00About'
tRp4330
asbasbasbag67
(g83
g69
NtRp4331
(dp4332
g72
(dp4333
sg81
g4314
sg74
(lp4334
g67
(g88
g69
NtRp4335
(dp4336
g72
(dp4337
sg81
g4331
sg74
(lp4338
g67
(g68
g69
NtRp4339
(dp4340
g72
(dp4341
g80
I1
ssg81
g4335
sg74
(lp4342
I00
asbasbasbag67
(g83
g69
NtRp4343
(dp4344
g72
(dp4345
sg81
g4314
sg74
(lp4346
g67
(g88
g69
NtRp4347
(dp4348
g72
(dp4349
sg81
g4343
sg74
(lp4350
g67
(g68
g69
NtRp4351
(dp4352
g72
(dp4353
g80
I1
ssg81
g4347
sg74
(lp4354
S'/admin/default/about/ddlagoon'
p4355
asbasbasbasbasbasbasbasbasbasbasbasbasbasbasbag67
(g83
g69
NtRp4356
(dp4357
g72
(dp4358
sg81
g3725
sg74
(lp4359
g67
(g88
g69
NtRp4360
(dp4361
g72
(dp4362
sg81
g4356
sg74
(lp4363
g67
(g68
g69
NtRp4364
(dp4365
g72
(dp4366
g80
I4
ssg81
g4360
sg74
(lp4367
g67
(g76
g69
NtRp4368
(dp4369
g72
(dp4370
g80
I3
ssg81
Nsg74
(lp4371
g67
(g83
g69
NtRp4372
(dp4373
g72
(dp4374
sg81
g4368
sg74
(lp4375
g67
(g88
g69
NtRp4376
(dp4377
g72
(dp4378
sg81
g4372
sg74
(lp4379
g67
(g68
g69
NtRp4380
(dp4381
g72
(dp4382
g80
I3
ssg81
g4376
sg74
(lp4383
g3757
(S't\t\x00\x00\x00Resources'
tRp4384
asbasbasbag67
(g83
g69
NtRp4385
(dp4386
g72
(dp4387
sg81
g4368
sg74
(lp4388
g67
(g88
g69
NtRp4389
(dp4390
g72
(dp4391
sg81
g4385
sg74
(lp4392
g67
(g68
g69
NtRp4393
(dp4394
g72
(dp4395
g80
I3
ssg81
g4389
sg74
(lp4396
g110
asbasbasbag67
(g83
g69
NtRp4397
(dp4398
g72
(dp4399
sg81
g4368
sg74
(lp4400
g67
(g88
g69
NtRp4401
(dp4402
g72
(dp4403
sg81
g4397
sg74
(lp4404
g67
(g68
g69
NtRp4405
(dp4406
g72
(dp4407
g80
I3
ssg81
g4401
sg74
(lp4408
S'None'
p4409
asbasbasbag67
(g83
g69
NtRp4410
(dp4411
g72
(dp4412
sg81
g4368
sg74
(lp4413
g67
(g88
g69
NtRp4414
(dp4415
g72
(dp4416
sg81
g4410
sg74
(lp4417
g67
(g68
g69
NtRp4418
(dp4419
g72
(dp4420
g80
I3
ssg81
g4414
sg74
(lp4421
g67
(g76
g69
NtRp4422
(dp4423
g72
(dp4424
g80
I2
ssg81
Nsg74
(lp4425
g67
(g83
g69
NtRp4426
(dp4427
g72
(dp4428
sg81
g4422
sg74
(lp4429
g67
(g88
g69
NtRp4430
(dp4431
g72
(dp4432
sg81
g4426
sg74
(lp4433
g67
(g68
g69
NtRp4434
(dp4435
g72
(dp4436
g80
I2
ssg81
g4430
sg74
(lp4437
g67
(g76
g69
NtRp4438
(dp4439
g72
(dp4440
g80
I1
ssg81
Nsg74
(lp4441
g67
(g83
g69
NtRp4442
(dp4443
g72
(dp4444
sg81
g4438
sg74
(lp4445
g67
(g88
g69
NtRp4446
(dp4447
g72
(dp4448
sg81
g4442
sg74
(lp4449
g67
(g68
g69
NtRp4450
(dp4451
g72
(dp4452
g80
I1
ssg81
g4446
sg74
(lp4453
g3757
(S't\r\x00\x00\x00Documentation'
tRp4454
asbasbasbag67
(g83
g69
NtRp4455
(dp4456
g72
(dp4457
sg81
g4438
sg74
(lp4458
g67
(g88
g69
NtRp4459
(dp4460
g72
(dp4461
sg81
g4455
sg74
(lp4462
g67
(g68
g69
NtRp4463
(dp4464
g72
(dp4465
g80
I1
ssg81
g4459
sg74
(lp4466
I00
asbasbasbag67
(g83
g69
NtRp4467
(dp4468
g72
(dp4469
sg81
g4438
sg74
(lp4470
g67
(g88
g69
NtRp4471
(dp4472
g72
(dp4473
sg81
g4467
sg74
(lp4474
g67
(g68
g69
NtRp4475
(dp4476
g72
(dp4477
g80
I1
ssg81
g4471
sg74
(lp4478
S'http://www.web2py.com/book'
p4479
asbasbasbag67
(g83
g69
NtRp4480
(dp4481
g72
(dp4482
sg81
g4438
sg74
(lp4483
g67
(g88
g69
NtRp4484
(dp4485
g72
(dp4486
sg81
g4480
sg74
(lp4487
g67
(g68
g69
NtRp4488
(dp4489
g72
(dp4490
g80
I1
ssg81
g4484
sg74
(lp4491
(lp4492
(g3757
(S't\x07\x00\x00\x00Preface'
tRp4493
I00
S'http://www.web2py.com/book/default/chapter/00'
p4494
tp4495
a(g3757
(S't\x0c\x00\x00\x00Introduction'
tRp4496
I00
S'http://www.web2py.com/book/default/chapter/01'
p4497
tp4498
a(g3757
(S't\x06\x00\x00\x00Python'
tRp4499
I00
S'http://www.web2py.com/book/default/chapter/02'
p4500
tp4501
a(g3757
(S't\x08\x00\x00\x00Overview'
tRp4502
I00
S'http://www.web2py.com/book/default/chapter/03'
p4503
tp4504
a(g3757
(S's\x08\x00\x00\x00The Core'
tRp4505
I00
S'http://www.web2py.com/book/default/chapter/04'
p4506
tp4507
a(g3757
(S's\t\x00\x00\x00The Views'
tRp4508
I00
S'http://www.web2py.com/book/default/chapter/05'
p4509
tp4510
a(g3757
(S't\x08\x00\x00\x00Database'
tRp4511
I00
S'http://www.web2py.com/book/default/chapter/06'
p4512
tp4513
a(g3757
(S's\x14\x00\x00\x00Forms and Validators'
tRp4514
I00
S'http://www.web2py.com/book/default/chapter/07'
p4515
tp4516
a(g3757
(S's\x0e\x00\x00\x00Access Control'
tRp4517
I00
S'http://www.web2py.com/book/default/chapter/08'
p4518
tp4519
a(g3757
(S't\x08\x00\x00\x00Services'
tRp4520
I00
S'http://www.web2py.com/book/default/chapter/09'
p4521
tp4522
a(g3757
(S's\x0c\x00\x00\x00Ajax Recipes'
tRp4523
I00
S'http://www.web2py.com/book/default/chapter/10'
p4524
tp4525
a(g3757
(S's\x12\x00\x00\x00Deployment Recipes'
tRp4526
I00
S'http://www.web2py.com/book/default/chapter/11'
p4527
tp4528
a(g3757
(S's\r\x00\x00\x00Other Recipes'
tRp4529
I00
S'http://www.web2py.com/book/default/chapter/12'
p4530
tp4531
a(g3757
(S's\r\x00\x00\x00Buy this book'
tRp4532
I00
S'http://stores.lulu.com/web2py'
p4533
tp4534
aasbasbasbasbasbasbasbag67
(g83
g69
NtRp4535
(dp4536
g72
(dp4537
sg81
g4422
sg74
(lp4538
g67
(g88
g69
NtRp4539
(dp4540
g72
(dp4541
sg81
g4535
sg74
(lp4542
g67
(g68
g69
NtRp4543
(dp4544
g72
(dp4545
g80
I2
ssg81
g4539
sg74
(lp4546
g67
(g76
g69
NtRp4547
(dp4548
g72
(dp4549
g80
I1
ssg81
Nsg74
(lp4550
g67
(g83
g69
NtRp4551
(dp4552
g72
(dp4553
sg81
g4547
sg74
(lp4554
g67
(g88
g69
NtRp4555
(dp4556
g72
(dp4557
sg81
g4551
sg74
(lp4558
g67
(g68
g69
NtRp4559
(dp4560
g72
(dp4561
g80
I1
ssg81
g4555
sg74
(lp4562
g3757
(S't\t\x00\x00\x00Community'
tRp4563
asbasbasbag67
(g83
g69
NtRp4564
(dp4565
g72
(dp4566
sg81
g4547
sg74
(lp4567
g67
(g88
g69
NtRp4568
(dp4569
g72
(dp4570
sg81
g4564
sg74
(lp4571
g67
(g68
g69
NtRp4572
(dp4573
g72
(dp4574
g80
I1
ssg81
g4568
sg74
(lp4575
I00
asbasbasbag67
(g83
g69
NtRp4576
(dp4577
g72
(dp4578
sg81
g4547
sg74
(lp4579
g67
(g88
g69
NtRp4580
(dp4581
g72
(dp4582
sg81
g4576
sg74
(lp4583
g67
(g68
g69
NtRp4584
(dp4585
g72
(dp4586
g80
I1
ssg81
g4580
sg74
(lp4587
Nasbasbasbag67
(g83
g69
NtRp4588
(dp4589
g72
(dp4590
sg81
g4547
sg74
(lp4591
g67
(g88
g69
NtRp4592
(dp4593
g72
(dp4594
sg81
g4588
sg74
(lp4595
g67
(g68
g69
NtRp4596
(dp4597
g72
(dp4598
g80
I1
ssg81
g4592
sg74
(lp4599
(lp4600
(g3757
(S't\x06\x00\x00\x00Groups'
tRp4601
I00
S'http://www.web2py.com/examples/default/usergroups'
p4602
tp4603
a(g3757
(S't\x07\x00\x00\x00Twitter'
tRp4604
I00
S'http://twitter.com/web2py'
p4605
tp4606
a(g3757
(S's\t\x00\x00\x00Live chat'
tRp4607
I00
S'http://mibbit.com/?channel=%23web2py&server=irc.mibbit.net'
p4608
tp4609
a(g3757
(S's\n\x00\x00\x00User Voice'
tRp4610
I00
S'http://web2py.uservoice.com/'
p4611
tp4612
aasbasbasbasbasbasbasbag67
(g83
g69
NtRp4613
(dp4614
g72
(dp4615
sg81
g4422
sg74
(lp4616
g67
(g88
g69
NtRp4617
(dp4618
g72
(dp4619
sg81
g4613
sg74
(lp4620
g67
(g68
g69
NtRp4621
(dp4622
g72
(dp4623
g80
I2
ssg81
g4617
sg74
(lp4624
g67
(g76
g69
NtRp4625
(dp4626
g72
(dp4627
g80
I1
ssg81
Nsg74
(lp4628
g67
(g83
g69
NtRp4629
(dp4630
g72
(dp4631
sg81
g4625
sg74
(lp4632
g67
(g88
g69
NtRp4633
(dp4634
g72
(dp4635
sg81
g4629
sg74
(lp4636
g67
(g68
g69
NtRp4637
(dp4638
g72
(dp4639
g80
I1
ssg81
g4633
sg74
(lp4640
g3757
(S't\x06\x00\x00\x00Web2py'
tRp4641
asbasbasbag67
(g83
g69
NtRp4642
(dp4643
g72
(dp4644
sg81
g4625
sg74
(lp4645
g67
(g88
g69
NtRp4646
(dp4647
g72
(dp4648
sg81
g4642
sg74
(lp4649
g67
(g68
g69
NtRp4650
(dp4651
g72
(dp4652
g80
I1
ssg81
g4646
sg74
(lp4653
I00
asbasbasbag67
(g83
g69
NtRp4654
(dp4655
g72
(dp4656
sg81
g4625
sg74
(lp4657
g67
(g88
g69
NtRp4658
(dp4659
g72
(dp4660
sg81
g4654
sg74
(lp4661
g67
(g68
g69
NtRp4662
(dp4663
g72
(dp4664
g80
I1
ssg81
g4658
sg74
(lp4665
S'http://www.web2py.com'
p4666
asbasbasbag67
(g83
g69
NtRp4667
(dp4668
g72
(dp4669
sg81
g4625
sg74
(lp4670
g67
(g88
g69
NtRp4671
(dp4672
g72
(dp4673
sg81
g4667
sg74
(lp4674
g67
(g68
g69
NtRp4675
(dp4676
g72
(dp4677
g80
I1
ssg81
g4671
sg74
(lp4678
(lp4679
(g3757
(S't\x08\x00\x00\x00Download'
tRp4680
I00
S'http://www.web2py.com/examples/default/download'
p4681
tp4682
a(g3757
(S't\x07\x00\x00\x00Support'
tRp4683
I00
S'http://www.web2py.com/examples/default/support'
p4684
tp4685
a(g3757
(S's\x0e\x00\x00\x00Quick Examples'
tRp4686
I00
S'http://web2py.com/examples/default/examples'
p4687
tp4688
a(g3757
(S't\x03\x00\x00\x00FAQ'
tRp4689
I00
S'http://web2py.com/AlterEgo'
p4690
tp4691
a(g3757
(S's\x11\x00\x00\x00Free Applications'
tRp4692
I00
S'http://web2py.com/appliances'
p4693
tp4694
a(g3757
(S't\x07\x00\x00\x00Plugins'
tRp4695
I00
S'http://web2py.com/plugins'
p4696
tp4697
a(g3757
(S't\x07\x00\x00\x00Recipes'
tRp4698
I00
S'http://web2pyslices.com/'
p4699
tp4700
a(g3757
(S't\x04\x00\x00\x00Demo'
tRp4701
I00
S'http://web2py.com/demo_admin'
p4702
tp4703
a(g3757
(S't\x08\x00\x00\x00Semantic'
tRp4704
I00
S'http://web2py.com/semantic'
p4705
tp4706
a(g3757
(S't\x07\x00\x00\x00Layouts'
tRp4707
I00
S'http://web2py.com/layouts'
p4708
tp4709
a(g3757
(S't\x06\x00\x00\x00Videos'
tRp4710
I00
S'http://www.web2py.com/examples/default/videos/'
p4711
tp4712
aasbasbasbasbasbasbasbasbasbasbasbasbasbasbasbasbasbasbasbag67
(g83
g69
NtRp4713
(dp4714
g72
(dp4715
sg81
g3252
sg74
(lp4716
g67
(g88
g69
NtRp4717
(dp4718
g72
(dp4719
g92
g93
ssg81
g4713
sg74
(lp4720
S'meta'
p4721
asbag67
(g88
g69
NtRp4722
(dp4723
g72
(dp4724
g99
g100
ssg81
g4713
sg74
(lp4725
S':'
asbag67
(g88
g69
NtRp4726
(dp4727
g72
(dp4728
sg81
g4713
sg74
(lp4729
g67
(g68
g69
NtRp4730
(dp4731
g72
(dp4732
g80
I5
ssg81
g4726
sg74
(lp4733
g67
(g76
g69
NtRp4734
(dp4735
g72
(dp4736
g80
I4
ssg81
Nsg74
(lp4737
g67
(g83
g69
NtRp4738
(dp4739
g72
(dp4740
sg81
g4734
sg74
(lp4741
g67
(g88
g69
NtRp4742
(dp4743
g72
(dp4744
g92
g93
ssg81
g4738
sg74
(lp4745
S'author'
p4746
asbag67
(g88
g69
NtRp4747
(dp4748
g72
(dp4749
g99
g100
ssg81
g4738
sg74
(lp4750
S':'
asbag67
(g88
g69
NtRp4751
(dp4752
g72
(dp4753
sg81
g4738
sg74
(lp4754
g67
(g68
g69
NtRp4755
(dp4756
g72
(dp4757
g80
I4
ssg81
g4751
sg74
(lp4758
S'Your Name <you@example.com>'
p4759
asbasbasbag67
(g83
g69
NtRp4760
(dp4761
g72
(dp4762
sg81
g4734
sg74
(lp4763
g67
(g88
g69
NtRp4764
(dp4765
g72
(dp4766
g92
g93
ssg81
g4760
sg74
(lp4767
S'copyright'
p4768
asbag67
(g88
g69
NtRp4769
(dp4770
g72
(dp4771
g99
g100
ssg81
g4760
sg74
(lp4772
S':'
asbag67
(g88
g69
NtRp4773
(dp4774
g72
(dp4775
sg81
g4760
sg74
(lp4776
g67
(g68
g69
NtRp4777
(dp4778
g72
(dp4779
g80
I4
ssg81
g4773
sg74
(lp4780
S'Copyright 2011'
p4781
asbasbasbag67
(g83
g69
NtRp4782
(dp4783
g72
(dp4784
sg81
g4734
sg74
(lp4785
g67
(g88
g69
NtRp4786
(dp4787
g72
(dp4788
g92
g93
ssg81
g4782
sg74
(lp4789
S'description'
p4790
asbag67
(g88
g69
NtRp4791
(dp4792
g72
(dp4793
g99
g100
ssg81
g4782
sg74
(lp4794
S':'
asbag67
(g88
g69
NtRp4795
(dp4796
g72
(dp4797
sg81
g4782
sg74
(lp4798
g67
(g68
g69
NtRp4799
(dp4800
g72
(dp4801
g80
I4
ssg81
g4795
sg74
(lp4802
S'a cool new app'
p4803
asbasbasbag67
(g83
g69
NtRp4804
(dp4805
g72
(dp4806
sg81
g4734
sg74
(lp4807
g67
(g88
g69
NtRp4808
(dp4809
g72
(dp4810
g92
g93
ssg81
g4804
sg74
(lp4811
S'generator'
p4812
asbag67
(g88
g69
NtRp4813
(dp4814
g72
(dp4815
g99
g100
ssg81
g4804
sg74
(lp4816
S':'
asbag67
(g88
g69
NtRp4817
(dp4818
g72
(dp4819
sg81
g4804
sg74
(lp4820
g67
(g68
g69
NtRp4821
(dp4822
g72
(dp4823
g80
I4
ssg81
g4817
sg74
(lp4824
S'Web2py Web Framework'
p4825
asbasbasbag67
(g83
g69
NtRp4826
(dp4827
g72
(dp4828
sg81
g4734
sg74
(lp4829
g67
(g88
g69
NtRp4830
(dp4831
g72
(dp4832
g92
g93
ssg81
g4826
sg74
(lp4833
S'keywords'
p4834
asbag67
(g88
g69
NtRp4835
(dp4836
g72
(dp4837
g99
g100
ssg81
g4826
sg74
(lp4838
S':'
asbag67
(g88
g69
NtRp4839
(dp4840
g72
(dp4841
sg81
g4826
sg74
(lp4842
g67
(g68
g69
NtRp4843
(dp4844
g72
(dp4845
g80
I4
ssg81
g4839
sg74
(lp4846
S'web2py, python, framework'
p4847
asbasbasbasbasbasbasbag67
(g83
g69
NtRp4848
(dp4849
g72
(dp4850
sg81
g3252
sg74
(lp4851
g67
(g88
g69
NtRp4852
(dp4853
g72
(dp4854
g92
g93
ssg81
g4848
sg74
(lp4855
S'postprocessing'
p4856
asbag67
(g88
g69
NtRp4857
(dp4858
g72
(dp4859
g99
g100
ssg81
g4848
sg74
(lp4860
S':'
asbag67
(g88
g69
NtRp4861
(dp4862
g72
(dp4863
sg81
g4848
sg74
(lp4864
g67
(g68
g69
NtRp4865
(dp4866
g72
(dp4867
g80
I5
ssg81
g4861
sg74
(lp4868
g67
(g76
g69
NtRp4869
(dp4870
g72
(dp4871
g80
I4
ssg81
Nsg74
(lp4872
sbasbasbasbag67
(g83
g69
NtRp4873
(dp4874
g72
(dp4875
sg81
g3252
sg74
(lp4876
g67
(g88
g69
NtRp4877
(dp4878
g72
(dp4879
g92
g93
ssg81
g4873
sg74
(lp4880
S'session_file'
p4881
asbag67
(g88
g69
NtRp4882
(dp4883
g72
(dp4884
g99
g100
ssg81
g4873
sg74
(lp4885
S':'
asbag67
(g88
g69
NtRp4886
(dp4887
g72
(dp4888
sg81
g4873
sg74
(lp4889
g67
(g68
g69
NtRp4890
(dp4891
g72
(dp4892
g80
I5
ssg81
g4886
sg74
(lp4893
S"<open file '/windows/Users/Thomas/Dropbox/appz/2011/GAE/ddl-lagoon/applications/ddlagoon/sessions/127.0.0.1-5c26095d-5a0b-4829-92f8-f45d96c51d41', mode 'rb+' at 0x2950390>"
p4894
asbasbasbag67
(g83
g69
NtRp4895
(dp4896
g72
(dp4897
sg81
g3252
sg74
(lp4898
g67
(g88
g69
NtRp4899
(dp4900
g72
(dp4901
g92
g93
ssg81
g4895
sg74
(lp4902
S'session_filename'
p4903
asbag67
(g88
g69
NtRp4904
(dp4905
g72
(dp4906
g99
g100
ssg81
g4895
sg74
(lp4907
S':'
asbag67
(g88
g69
NtRp4908
(dp4909
g72
(dp4910
sg81
g4895
sg74
(lp4911
g67
(g68
g69
NtRp4912
(dp4913
g72
(dp4914
g80
I5
ssg81
g4908
sg74
(lp4915
S'/windows/Users/Thomas/Dropbox/appz/2011/GAE/ddl-lagoon/applications/ddlagoon/sessions/127.0.0.1-5c26095d-5a0b-4829-92f8-f45d96c51d41'
p4916
asbasbasbag67
(g83
g69
NtRp4917
(dp4918
g72
(dp4919
sg81
g3252
sg74
(lp4920
g67
(g88
g69
NtRp4921
(dp4922
g72
(dp4923
g92
g93
ssg81
g4917
sg74
(lp4924
S'session_id'
p4925
asbag67
(g88
g69
NtRp4926
(dp4927
g72
(dp4928
g99
g100
ssg81
g4917
sg74
(lp4929
S':'
asbag67
(g88
g69
NtRp4930
(dp4931
g72
(dp4932
sg81
g4917
sg74
(lp4933
g67
(g68
g69
NtRp4934
(dp4935
g72
(dp4936
g80
I5
ssg81
g4930
sg74
(lp4937
S'127.0.0.1-5c26095d-5a0b-4829-92f8-f45d96c51d41'
p4938
asbasbasbag67
(g83
g69
NtRp4939
(dp4940
g72
(dp4941
sg81
g3252
sg74
(lp4942
g67
(g88
g69
NtRp4943
(dp4944
g72
(dp4945
g92
g93
ssg81
g4939
sg74
(lp4946
S'session_id_name'
p4947
asbag67
(g88
g69
NtRp4948
(dp4949
g72
(dp4950
g99
g100
ssg81
g4939
sg74
(lp4951
S':'
asbag67
(g88
g69
NtRp4952
(dp4953
g72
(dp4954
sg81
g4939
sg74
(lp4955
g67
(g68
g69
NtRp4956
(dp4957
g72
(dp4958
g80
I5
ssg81
g4952
sg74
(lp4959
g3309
asbasbasbag67
(g83
g69
NtRp4960
(dp4961
g72
(dp4962
sg81
g3252
sg74
(lp4963
g67
(g88
g69
NtRp4964
(dp4965
g72
(dp4966
g92
g93
ssg81
g4960
sg74
(lp4967
S'session_locked'
p4968
asbag67
(g88
g69
NtRp4969
(dp4970
g72
(dp4971
g99
g100
ssg81
g4960
sg74
(lp4972
S':'
asbag67
(g88
g69
NtRp4973
(dp4974
g72
(dp4975
sg81
g4960
sg74
(lp4976
g67
(g68
g69
NtRp4977
(dp4978
g72
(dp4979
g80
I5
ssg81
g4973
sg74
(lp4980
g1852
asbasbasbag67
(g83
g69
NtRp4981
(dp4982
g72
(dp4983
sg81
g3252
sg74
(lp4984
g67
(g88
g69
NtRp4985
(dp4986
g72
(dp4987
g92
g93
ssg81
g4981
sg74
(lp4988
S'session_new'
p4989
asbag67
(g88
g69
NtRp4990
(dp4991
g72
(dp4992
g99
g100
ssg81
g4981
sg74
(lp4993
S':'
asbag67
(g88
g69
NtRp4994
(dp4995
g72
(dp4996
sg81
g4981
sg74
(lp4997
g67
(g68
g69
NtRp4998
(dp4999
g72
(dp5000
g80
I5
ssg81
g4994
sg74
(lp5001
g110
asbasbasbag67
(g83
g69
NtRp5002
(dp5003
g72
(dp5004
sg81
g3252
sg74
(lp5005
g67
(g88
g69
NtRp5006
(dp5007
g72
(dp5008
g92
g93
ssg81
g5002
sg74
(lp5009
S'status'
p5010
asbag67
(g88
g69
NtRp5011
(dp5012
g72
(dp5013
g99
g100
ssg81
g5002
sg74
(lp5014
S':'
asbag67
(g88
g69
NtRp5015
(dp5016
g72
(dp5017
sg81
g5002
sg74
(lp5018
g67
(g68
g69
NtRp5019
(dp5020
g72
(dp5021
g80
I5
ssg81
g5015
sg74
(lp5022
S'200'
p5023
asbasbasbag67
(g83
g69
NtRp5024
(dp5025
g72
(dp5026
sg81
g3252
sg74
(lp5027
g67
(g88
g69
NtRp5028
(dp5029
g72
(dp5030
g92
g93
ssg81
g5024
sg74
(lp5031
S'subtitle'
p5032
asbag67
(g88
g69
NtRp5033
(dp5034
g72
(dp5035
g99
g100
ssg81
g5024
sg74
(lp5036
S':'
asbag67
(g88
g69
NtRp5037
(dp5038
g72
(dp5039
sg81
g5024
sg74
(lp5040
g67
(g68
g69
NtRp5041
(dp5042
g72
(dp5043
g80
I5
ssg81
g5037
sg74
(lp5044
g3757
(S's\r\x00\x00\x00customize me!'
tRp5045
asbasbasbag67
(g83
g69
NtRp5046
(dp5047
g72
(dp5048
sg81
g3252
sg74
(lp5049
g67
(g88
g69
NtRp5050
(dp5051
g72
(dp5052
g92
g93
ssg81
g5046
sg74
(lp5053
S'title'
p5054
asbag67
(g88
g69
NtRp5055
(dp5056
g72
(dp5057
g99
g100
ssg81
g5046
sg74
(lp5058
S':'
asbag67
(g88
g69
NtRp5059
(dp5060
g72
(dp5061
sg81
g5046
sg74
(lp5062
g67
(g68
g69
NtRp5063
(dp5064
g72
(dp5065
g80
I5
ssg81
g5059
sg74
(lp5066
g132
asbasbasbag67
(g83
g69
NtRp5067
(dp5068
g72
(dp5069
sg81
g3252
sg74
(lp5070
g67
(g88
g69
NtRp5071
(dp5072
g72
(dp5073
g92
g93
ssg81
g5067
sg74
(lp5074
g2496
asbag67
(g88
g69
NtRp5075
(dp5076
g72
(dp5077
g99
g100
ssg81
g5067
sg74
(lp5078
S':'
asbag67
(g88
g69
NtRp5079
(dp5080
g72
(dp5081
sg81
g5067
sg74
(lp5082
g67
(g68
g69
NtRp5083
(dp5084
g72
(dp5085
g80
I5
ssg81
g5079
sg74
(lp5086
g2509
asbasbasbag67
(g83
g69
NtRp5087
(dp5088
g72
(dp5089
sg81
g3252
sg74
(lp5090
g67
(g88
g69
NtRp5091
(dp5092
g72
(dp5093
g92
g93
ssg81
g5087
sg74
(lp5094
S'view'
p5095
asbag67
(g88
g69
NtRp5096
(dp5097
g72
(dp5098
g99
g100
ssg81
g5087
sg74
(lp5099
S':'
asbag67
(g88
g69
NtRp5100
(dp5101
g72
(dp5102
sg81
g5087
sg74
(lp5103
g67
(g68
g69
NtRp5104
(dp5105
g72
(dp5106
g80
I5
ssg81
g5100
sg74
(lp5107
S'default/index.html'
p5108
asbasbasbasbasbsS'locals'
p5109
(dp5110
g3
S"'/windows/Users/Thomas/Dropbox/appz/2011/GAE/ddl-...on/applications/ddlagoon/views/default/index.html'"
p5111
sg5
S'"left_sidebar_enabled=right_sidebar_enabled=True\\n...nse.write(\'\\\\n  </body>\\\\n</html>\\\\n\', escape=False)"'
p5112
sssS'traceback'
p5113
S'Traceback (most recent call last):\n  File "/windows/Users/Thomas/Dropbox/appz/2011/GAE/ddl-lagoon/gluon/restricted.py", line 193, in restricted\n    ccode = compile2(code,layer)\n  File "/windows/Users/Thomas/Dropbox/appz/2011/GAE/ddl-lagoon/gluon/restricted.py", line 179, in compile2\n    return compile(code.rstrip().replace(\'\\r\\n\',\'\\n\')+\'\\n\', layer, \'exec\')\n  File "/windows/Users/Thomas/Dropbox/appz/2011/GAE/ddl-lagoon/applications/ddlagoon/views/default/index.html", line 82\n    else\n       ^\nSyntaxError: invalid syntax\n'
p5114
s.