(dp1
S'output'
p2
S''
sS'layer'
p3
S'/windows/Users/Thomas/Dropbox/appz/2011/GAE/ddl-lagoon/applications/ddlagoon/controllers/ddl.py'
p4
sS'code'
p5
S'import tempfile\nfrom time import mktime\nfrom default import encryptForClient\n\nif False:\n    from gluon.contrib.pysimplesoap.client import response\n    from gluon.contrib.pysimplesoap.server import request\n    from applications.ddlagoon.models.db import service, db\n\nfrom gluon.contrib import simplejson as json\n\n__author__ = \'thomas\'\n\ndef get():\n    return service()\n\n@service.xml\ndef ddl(id="", filename=""):\n    # find the record\n    ddl= db((db.ddl.filename==filename) & (db.ddl.id==id)).select().first()\n    if not ddl:\n        return "404 - File not found."\n    else:\n        # prepare the file\n        ddlJ = {\n            \'author\':ddl.author,\n            \'filename\':ddl.filename,\n            \'description\':ddl.description,\n            \'size\':ddl.size,\n            \'hash\':ddl.hash,\n            \'parts\':ddl.parts,\n            \'service\':ddl.service,\n            \'links\':ddl.links.split("|"),\n            \'version\':ddl.version,\n            \'time\':int(mktime(ddl.date_added.timetuple()))\n        }\n        ddlJson = json.dumps(ddlJ, sort_keys=True, indent=4)\n        public_ddl = {\n            "e": 65537,\n            "n": 138699374543223257537557103176001704226735255147448649583225017098287197630734176291676474096655313606555548753275002732095146725547697816211326459323755204828036245647843790985208692060549009977103102474302073609652750671753426409739287485014860128030833183117757223967930924686377060843991855851119927153483\n        }\n        encryptedMsg = encryptForClient(public_ddl[\'n\'],public_ddl[\'e\'],ddlJson)\n        #response.headers[\'Content-Type\'] = \'application/ddl\'\n        #response.headers[\'Content-Disposition\'] = \'attachment; filename=test.ddl\'\n        #return response.stream(ddlFile, request=request)\n#        request.args[0] = ddlFile.name\n#        return response.download(request, ddlFile)\n        response.headers[\'Content-Type\'] = "application/octet-stream"\n        response.headers[\'Content-Disposition\'] = \'attachment; filename=%s.ddl\' % ddl.filename\n        return encryptedMsg\nresponse._vars=response._caller(get)\n'
p6
sS'snapshot'
p7
(dp8
S'exception'
p9
(dp10
S'__hash__'
p11
S"<method-wrapper '__hash__' of exceptions.ImportError object>"
p12
sS'__setattr__'
p13
S"<method-wrapper '__setattr__' of exceptions.ImportError object>"
p14
sS'__reduce_ex__'
p15
S'<built-in method __reduce_ex__ of exceptions.ImportError object>'
p16
sS'__getslice__'
p17
S"<method-wrapper '__getslice__' of exceptions.ImportError object>"
p18
sS'__getitem__'
p19
S"<method-wrapper '__getitem__' of exceptions.ImportError object>"
p20
sS'__setstate__'
p21
S'<built-in method __setstate__ of exceptions.ImportError object>'
p22
sS'args'
p23
S"('No module named default',)"
p24
sS'__reduce__'
p25
S'<built-in method __reduce__ of exceptions.ImportError object>'
p26
sS'__str__'
p27
S"<method-wrapper '__str__' of exceptions.ImportError object>"
p28
sS'__format__'
p29
S'<built-in method __format__ of exceptions.ImportError object>'
p30
sS'__getattribute__'
p31
S"<method-wrapper '__getattribute__' of exceptions.ImportError object>"
p32
sS'__class__'
p33
S"<type 'exceptions.ImportError'>"
p34
sS'__unicode__'
p35
S'<built-in method __unicode__ of exceptions.ImportError object>'
p36
sS'__delattr__'
p37
S"<method-wrapper '__delattr__' of exceptions.ImportError object>"
p38
sS'__subclasshook__'
p39
S'<built-in method __subclasshook__ of type object>'
p40
sS'__repr__'
p41
S"<method-wrapper '__repr__' of exceptions.ImportError object>"
p42
sS'__dict__'
p43
S'{}'
p44
sS'__sizeof__'
p45
S'<built-in method __sizeof__ of exceptions.ImportError object>'
p46
sS'__doc__'
p47
S'"Import can\'t find module, or can\'t find name in module."'
p48
sS'__init__'
p49
S"<method-wrapper '__init__' of exceptions.ImportError object>"
p50
sS'__new__'
p51
S'<built-in method __new__ of type object>'
p52
ssS'evalue'
p53
S'No module named default'
p54
sS'request'
p55
ccopy_reg
_reconstructor
p56
(cgluon.html
BEAUTIFY
p57
c__builtin__
object
p58
NtRp59
(dp60
S'attributes'
p61
(dp62
sS'components'
p63
(lp64
g56
(cgluon.html
TABLE
p65
g58
NtRp66
(dp67
g61
(dp68
S'level'
p69
I5
ssS'parent'
p70
Nsg63
(lp71
g56
(cgluon.html
TR
p72
g58
NtRp73
(dp74
g61
(dp75
sg70
g66
sg63
(lp76
g56
(cgluon.html
TD
p77
g58
NtRp78
(dp79
g61
(dp80
S'_style'
p81
S'font-weight:bold;'
p82
ssg70
g73
sg63
(lp83
S'ajax'
p84
asbag56
(g77
g58
NtRp85
(dp86
g61
(dp87
S'_valign'
p88
S'top'
p89
ssg70
g73
sg63
(lp90
S':'
asbag56
(g77
g58
NtRp91
(dp92
g61
(dp93
sg70
g73
sg63
(lp94
g56
(g57
g58
NtRp95
(dp96
g61
(dp97
g69
I5
ssg70
g91
sg63
(lp98
S'False'
p99
asbasbasbag56
(g72
g58
NtRp100
(dp101
g61
(dp102
sg70
g66
sg63
(lp103
g56
(g77
g58
NtRp104
(dp105
g61
(dp106
g81
g82
ssg70
g100
sg63
(lp107
S'application'
p108
asbag56
(g77
g58
NtRp109
(dp110
g61
(dp111
g88
g89
ssg70
g100
sg63
(lp112
S':'
asbag56
(g77
g58
NtRp113
(dp114
g61
(dp115
sg70
g100
sg63
(lp116
g56
(g57
g58
NtRp117
(dp118
g61
(dp119
g69
I5
ssg70
g113
sg63
(lp120
S'ddlagoon'
p121
asbasbasbag56
(g72
g58
NtRp122
(dp123
g61
(dp124
sg70
g66
sg63
(lp125
g56
(g77
g58
NtRp126
(dp127
g61
(dp128
g81
g82
ssg70
g122
sg63
(lp129
g23
asbag56
(g77
g58
NtRp130
(dp131
g61
(dp132
g88
g89
ssg70
g122
sg63
(lp133
S':'
asbag56
(g77
g58
NtRp134
(dp135
g61
(dp136
sg70
g122
sg63
(lp137
g56
(g57
g58
NtRp138
(dp139
g61
(dp140
g69
I5
ssg70
g134
sg63
(lp141
g56
(g65
g58
NtRp142
(dp143
g61
(dp144
g69
I4
ssg70
Nsg63
(lp145
g56
(g72
g58
NtRp146
(dp147
g61
(dp148
sg70
g142
sg63
(lp149
g56
(g77
g58
NtRp150
(dp151
g61
(dp152
sg70
g146
sg63
(lp153
g56
(g57
g58
NtRp154
(dp155
g61
(dp156
g69
I4
ssg70
g150
sg63
(lp157
S'run'
p158
asbasbasbag56
(g72
g58
NtRp159
(dp160
g61
(dp161
sg70
g142
sg63
(lp162
g56
(g77
g58
NtRp163
(dp164
g61
(dp165
sg70
g159
sg63
(lp166
g56
(g57
g58
NtRp167
(dp168
g61
(dp169
g69
I4
ssg70
g163
sg63
(lp170
S'ddl'
p171
asbasbasbag56
(g72
g58
NtRp172
(dp173
g61
(dp174
sg70
g142
sg63
(lp175
g56
(g77
g58
NtRp176
(dp177
g61
(dp178
sg70
g172
sg63
(lp179
g56
(g57
g58
NtRp180
(dp181
g61
(dp182
g69
I4
ssg70
g176
sg63
(lp183
S'14'
p184
asbasbasbag56
(g72
g58
NtRp185
(dp186
g61
(dp187
sg70
g142
sg63
(lp188
g56
(g77
g58
NtRp189
(dp190
g61
(dp191
sg70
g185
sg63
(lp192
g56
(g57
g58
NtRp193
(dp194
g61
(dp195
g69
I4
ssg70
g189
sg63
(lp196
S'The_Thing_2011_TS_XviD_READNFO___MiSTERE.avi'
p197
asbasbasbasbasbasbasbag56
(g72
g58
NtRp198
(dp199
g61
(dp200
sg70
g66
sg63
(lp201
g56
(g77
g58
NtRp202
(dp203
g61
(dp204
g81
g82
ssg70
g198
sg63
(lp205
S'body'
p206
asbag56
(g77
g58
NtRp207
(dp208
g61
(dp209
g88
g89
ssg70
g198
sg63
(lp210
S':'
asbag56
(g77
g58
NtRp211
(dp212
g61
(dp213
sg70
g198
sg63
(lp214
g56
(g57
g58
NtRp215
(dp216
g61
(dp217
g69
I5
ssg70
g211
sg63
(lp218
S'<cStringIO.StringO object at 0x3d626f8>'
p219
asbasbasbag56
(g72
g58
NtRp220
(dp221
g61
(dp222
sg70
g66
sg63
(lp223
g56
(g77
g58
NtRp224
(dp225
g61
(dp226
g81
g82
ssg70
g220
sg63
(lp227
S'client'
p228
asbag56
(g77
g58
NtRp229
(dp230
g61
(dp231
g88
g89
ssg70
g220
sg63
(lp232
S':'
asbag56
(g77
g58
NtRp233
(dp234
g61
(dp235
sg70
g220
sg63
(lp236
g56
(g57
g58
NtRp237
(dp238
g61
(dp239
g69
I5
ssg70
g233
sg63
(lp240
S'127.0.0.1'
p241
asbasbasbag56
(g72
g58
NtRp242
(dp243
g61
(dp244
sg70
g66
sg63
(lp245
g56
(g77
g58
NtRp246
(dp247
g61
(dp248
g81
g82
ssg70
g242
sg63
(lp249
S'controller'
p250
asbag56
(g77
g58
NtRp251
(dp252
g61
(dp253
g88
g89
ssg70
g242
sg63
(lp254
S':'
asbag56
(g77
g58
NtRp255
(dp256
g61
(dp257
sg70
g242
sg63
(lp258
g56
(g57
g58
NtRp259
(dp260
g61
(dp261
g69
I5
ssg70
g255
sg63
(lp262
S'ddl'
p263
asbasbasbag56
(g72
g58
NtRp264
(dp265
g61
(dp266
sg70
g66
sg63
(lp267
g56
(g77
g58
NtRp268
(dp269
g61
(dp270
g81
g82
ssg70
g264
sg63
(lp271
S'cookies'
p272
asbag56
(g77
g58
NtRp273
(dp274
g61
(dp275
g88
g89
ssg70
g264
sg63
(lp276
S':'
asbag56
(g77
g58
NtRp277
(dp278
g61
(dp279
sg70
g264
sg63
(lp280
g56
(g57
g58
NtRp281
(dp282
g61
(dp283
g69
I5
ssg70
g277
sg63
(lp284
g56
(g65
g58
NtRp285
(dp286
g61
(dp287
g69
I4
ssg70
Nsg63
(lp288
g56
(g72
g58
NtRp289
(dp290
g61
(dp291
sg70
g285
sg63
(lp292
g56
(g77
g58
NtRp293
(dp294
g61
(dp295
g81
g82
ssg70
g289
sg63
(lp296
S'session_id_admin'
p297
asbag56
(g77
g58
NtRp298
(dp299
g61
(dp300
g88
g89
ssg70
g289
sg63
(lp301
S':'
asbag56
(g77
g58
NtRp302
(dp303
g61
(dp304
sg70
g289
sg63
(lp305
g56
(g57
g58
NtRp306
(dp307
g61
(dp308
g69
I4
ssg70
g302
sg63
(lp309
g56
(g65
g58
NtRp310
(dp311
g61
(dp312
g69
I3
ssg70
Nsg63
(lp313
g56
(g72
g58
NtRp314
(dp315
g61
(dp316
sg70
g310
sg63
(lp317
g56
(g77
g58
NtRp318
(dp319
g61
(dp320
g81
g82
ssg70
g314
sg63
(lp321
S'comment'
p322
asbag56
(g77
g58
NtRp323
(dp324
g61
(dp325
g88
g89
ssg70
g314
sg63
(lp326
S':'
asbag56
(g77
g58
NtRp327
(dp328
g61
(dp329
sg70
g314
sg63
(lp330
g56
(g57
g58
NtRp331
(dp332
g61
(dp333
g69
I3
ssg70
g327
sg63
(lp334
S''
asbasbasbag56
(g72
g58
NtRp335
(dp336
g61
(dp337
sg70
g310
sg63
(lp338
g56
(g77
g58
NtRp339
(dp340
g61
(dp341
g81
g82
ssg70
g335
sg63
(lp342
S'domain'
p343
asbag56
(g77
g58
NtRp344
(dp345
g61
(dp346
g88
g89
ssg70
g335
sg63
(lp347
S':'
asbag56
(g77
g58
NtRp348
(dp349
g61
(dp350
sg70
g335
sg63
(lp351
g56
(g57
g58
NtRp352
(dp353
g61
(dp354
g69
I3
ssg70
g348
sg63
(lp355
S''
asbasbasbag56
(g72
g58
NtRp356
(dp357
g61
(dp358
sg70
g310
sg63
(lp359
g56
(g77
g58
NtRp360
(dp361
g61
(dp362
g81
g82
ssg70
g356
sg63
(lp363
S'expires'
p364
asbag56
(g77
g58
NtRp365
(dp366
g61
(dp367
g88
g89
ssg70
g356
sg63
(lp368
S':'
asbag56
(g77
g58
NtRp369
(dp370
g61
(dp371
sg70
g356
sg63
(lp372
g56
(g57
g58
NtRp373
(dp374
g61
(dp375
g69
I3
ssg70
g369
sg63
(lp376
S''
asbasbasbag56
(g72
g58
NtRp377
(dp378
g61
(dp379
sg70
g310
sg63
(lp380
g56
(g77
g58
NtRp381
(dp382
g61
(dp383
g81
g82
ssg70
g377
sg63
(lp384
S'httponly'
p385
asbag56
(g77
g58
NtRp386
(dp387
g61
(dp388
g88
g89
ssg70
g377
sg63
(lp389
S':'
asbag56
(g77
g58
NtRp390
(dp391
g61
(dp392
sg70
g377
sg63
(lp393
g56
(g57
g58
NtRp394
(dp395
g61
(dp396
g69
I3
ssg70
g390
sg63
(lp397
S''
asbasbasbag56
(g72
g58
NtRp398
(dp399
g61
(dp400
sg70
g310
sg63
(lp401
g56
(g77
g58
NtRp402
(dp403
g61
(dp404
g81
g82
ssg70
g398
sg63
(lp405
S'max-age'
p406
asbag56
(g77
g58
NtRp407
(dp408
g61
(dp409
g88
g89
ssg70
g398
sg63
(lp410
S':'
asbag56
(g77
g58
NtRp411
(dp412
g61
(dp413
sg70
g398
sg63
(lp414
g56
(g57
g58
NtRp415
(dp416
g61
(dp417
g69
I3
ssg70
g411
sg63
(lp418
S''
asbasbasbag56
(g72
g58
NtRp419
(dp420
g61
(dp421
sg70
g310
sg63
(lp422
g56
(g77
g58
NtRp423
(dp424
g61
(dp425
g81
g82
ssg70
g419
sg63
(lp426
S'path'
p427
asbag56
(g77
g58
NtRp428
(dp429
g61
(dp430
g88
g89
ssg70
g419
sg63
(lp431
S':'
asbag56
(g77
g58
NtRp432
(dp433
g61
(dp434
sg70
g419
sg63
(lp435
g56
(g57
g58
NtRp436
(dp437
g61
(dp438
g69
I3
ssg70
g432
sg63
(lp439
S''
asbasbasbag56
(g72
g58
NtRp440
(dp441
g61
(dp442
sg70
g310
sg63
(lp443
g56
(g77
g58
NtRp444
(dp445
g61
(dp446
g81
g82
ssg70
g440
sg63
(lp447
S'secure'
p448
asbag56
(g77
g58
NtRp449
(dp450
g61
(dp451
g88
g89
ssg70
g440
sg63
(lp452
S':'
asbag56
(g77
g58
NtRp453
(dp454
g61
(dp455
sg70
g440
sg63
(lp456
g56
(g57
g58
NtRp457
(dp458
g61
(dp459
g69
I3
ssg70
g453
sg63
(lp460
S''
asbasbasbag56
(g72
g58
NtRp461
(dp462
g61
(dp463
sg70
g310
sg63
(lp464
g56
(g77
g58
NtRp465
(dp466
g61
(dp467
g81
g82
ssg70
g461
sg63
(lp468
S'version'
p469
asbag56
(g77
g58
NtRp470
(dp471
g61
(dp472
g88
g89
ssg70
g461
sg63
(lp473
S':'
asbag56
(g77
g58
NtRp474
(dp475
g61
(dp476
sg70
g461
sg63
(lp477
g56
(g57
g58
NtRp478
(dp479
g61
(dp480
g69
I3
ssg70
g474
sg63
(lp481
S''
asbasbasbasbasbasbasbag56
(g72
g58
NtRp482
(dp483
g61
(dp484
sg70
g285
sg63
(lp485
g56
(g77
g58
NtRp486
(dp487
g61
(dp488
g81
g82
ssg70
g482
sg63
(lp489
S'session_id_ddlagoon'
p490
asbag56
(g77
g58
NtRp491
(dp492
g61
(dp493
g88
g89
ssg70
g482
sg63
(lp494
S':'
asbag56
(g77
g58
NtRp495
(dp496
g61
(dp497
sg70
g482
sg63
(lp498
g56
(g57
g58
NtRp499
(dp500
g61
(dp501
g69
I4
ssg70
g495
sg63
(lp502
g56
(g65
g58
NtRp503
(dp504
g61
(dp505
g69
I3
ssg70
Nsg63
(lp506
g56
(g72
g58
NtRp507
(dp508
g61
(dp509
sg70
g503
sg63
(lp510
g56
(g77
g58
NtRp511
(dp512
g61
(dp513
g81
g82
ssg70
g507
sg63
(lp514
g322
asbag56
(g77
g58
NtRp515
(dp516
g61
(dp517
g88
g89
ssg70
g507
sg63
(lp518
S':'
asbag56
(g77
g58
NtRp519
(dp520
g61
(dp521
sg70
g507
sg63
(lp522
g56
(g57
g58
NtRp523
(dp524
g61
(dp525
g69
I3
ssg70
g519
sg63
(lp526
S''
asbasbasbag56
(g72
g58
NtRp527
(dp528
g61
(dp529
sg70
g503
sg63
(lp530
g56
(g77
g58
NtRp531
(dp532
g61
(dp533
g81
g82
ssg70
g527
sg63
(lp534
g343
asbag56
(g77
g58
NtRp535
(dp536
g61
(dp537
g88
g89
ssg70
g527
sg63
(lp538
S':'
asbag56
(g77
g58
NtRp539
(dp540
g61
(dp541
sg70
g527
sg63
(lp542
g56
(g57
g58
NtRp543
(dp544
g61
(dp545
g69
I3
ssg70
g539
sg63
(lp546
S''
asbasbasbag56
(g72
g58
NtRp547
(dp548
g61
(dp549
sg70
g503
sg63
(lp550
g56
(g77
g58
NtRp551
(dp552
g61
(dp553
g81
g82
ssg70
g547
sg63
(lp554
g364
asbag56
(g77
g58
NtRp555
(dp556
g61
(dp557
g88
g89
ssg70
g547
sg63
(lp558
S':'
asbag56
(g77
g58
NtRp559
(dp560
g61
(dp561
sg70
g547
sg63
(lp562
g56
(g57
g58
NtRp563
(dp564
g61
(dp565
g69
I3
ssg70
g559
sg63
(lp566
S''
asbasbasbag56
(g72
g58
NtRp567
(dp568
g61
(dp569
sg70
g503
sg63
(lp570
g56
(g77
g58
NtRp571
(dp572
g61
(dp573
g81
g82
ssg70
g567
sg63
(lp574
g385
asbag56
(g77
g58
NtRp575
(dp576
g61
(dp577
g88
g89
ssg70
g567
sg63
(lp578
S':'
asbag56
(g77
g58
NtRp579
(dp580
g61
(dp581
sg70
g567
sg63
(lp582
g56
(g57
g58
NtRp583
(dp584
g61
(dp585
g69
I3
ssg70
g579
sg63
(lp586
S''
asbasbasbag56
(g72
g58
NtRp587
(dp588
g61
(dp589
sg70
g503
sg63
(lp590
g56
(g77
g58
NtRp591
(dp592
g61
(dp593
g81
g82
ssg70
g587
sg63
(lp594
g406
asbag56
(g77
g58
NtRp595
(dp596
g61
(dp597
g88
g89
ssg70
g587
sg63
(lp598
S':'
asbag56
(g77
g58
NtRp599
(dp600
g61
(dp601
sg70
g587
sg63
(lp602
g56
(g57
g58
NtRp603
(dp604
g61
(dp605
g69
I3
ssg70
g599
sg63
(lp606
S''
asbasbasbag56
(g72
g58
NtRp607
(dp608
g61
(dp609
sg70
g503
sg63
(lp610
g56
(g77
g58
NtRp611
(dp612
g61
(dp613
g81
g82
ssg70
g607
sg63
(lp614
g427
asbag56
(g77
g58
NtRp615
(dp616
g61
(dp617
g88
g89
ssg70
g607
sg63
(lp618
S':'
asbag56
(g77
g58
NtRp619
(dp620
g61
(dp621
sg70
g607
sg63
(lp622
g56
(g57
g58
NtRp623
(dp624
g61
(dp625
g69
I3
ssg70
g619
sg63
(lp626
S''
asbasbasbag56
(g72
g58
NtRp627
(dp628
g61
(dp629
sg70
g503
sg63
(lp630
g56
(g77
g58
NtRp631
(dp632
g61
(dp633
g81
g82
ssg70
g627
sg63
(lp634
g448
asbag56
(g77
g58
NtRp635
(dp636
g61
(dp637
g88
g89
ssg70
g627
sg63
(lp638
S':'
asbag56
(g77
g58
NtRp639
(dp640
g61
(dp641
sg70
g627
sg63
(lp642
g56
(g57
g58
NtRp643
(dp644
g61
(dp645
g69
I3
ssg70
g639
sg63
(lp646
S''
asbasbasbag56
(g72
g58
NtRp647
(dp648
g61
(dp649
sg70
g503
sg63
(lp650
g56
(g77
g58
NtRp651
(dp652
g61
(dp653
g81
g82
ssg70
g647
sg63
(lp654
g469
asbag56
(g77
g58
NtRp655
(dp656
g61
(dp657
g88
g89
ssg70
g647
sg63
(lp658
S':'
asbag56
(g77
g58
NtRp659
(dp660
g61
(dp661
sg70
g647
sg63
(lp662
g56
(g57
g58
NtRp663
(dp664
g61
(dp665
g69
I3
ssg70
g659
sg63
(lp666
S''
asbasbasbasbasbasbasbag56
(g72
g58
NtRp667
(dp668
g61
(dp669
sg70
g285
sg63
(lp670
g56
(g77
g58
NtRp671
(dp672
g61
(dp673
g81
g82
ssg70
g667
sg63
(lp674
S'session_id_welcome'
p675
asbag56
(g77
g58
NtRp676
(dp677
g61
(dp678
g88
g89
ssg70
g667
sg63
(lp679
S':'
asbag56
(g77
g58
NtRp680
(dp681
g61
(dp682
sg70
g667
sg63
(lp683
g56
(g57
g58
NtRp684
(dp685
g61
(dp686
g69
I4
ssg70
g680
sg63
(lp687
g56
(g65
g58
NtRp688
(dp689
g61
(dp690
g69
I3
ssg70
Nsg63
(lp691
g56
(g72
g58
NtRp692
(dp693
g61
(dp694
sg70
g688
sg63
(lp695
g56
(g77
g58
NtRp696
(dp697
g61
(dp698
g81
g82
ssg70
g692
sg63
(lp699
g322
asbag56
(g77
g58
NtRp700
(dp701
g61
(dp702
g88
g89
ssg70
g692
sg63
(lp703
S':'
asbag56
(g77
g58
NtRp704
(dp705
g61
(dp706
sg70
g692
sg63
(lp707
g56
(g57
g58
NtRp708
(dp709
g61
(dp710
g69
I3
ssg70
g704
sg63
(lp711
S''
asbasbasbag56
(g72
g58
NtRp712
(dp713
g61
(dp714
sg70
g688
sg63
(lp715
g56
(g77
g58
NtRp716
(dp717
g61
(dp718
g81
g82
ssg70
g712
sg63
(lp719
g343
asbag56
(g77
g58
NtRp720
(dp721
g61
(dp722
g88
g89
ssg70
g712
sg63
(lp723
S':'
asbag56
(g77
g58
NtRp724
(dp725
g61
(dp726
sg70
g712
sg63
(lp727
g56
(g57
g58
NtRp728
(dp729
g61
(dp730
g69
I3
ssg70
g724
sg63
(lp731
S''
asbasbasbag56
(g72
g58
NtRp732
(dp733
g61
(dp734
sg70
g688
sg63
(lp735
g56
(g77
g58
NtRp736
(dp737
g61
(dp738
g81
g82
ssg70
g732
sg63
(lp739
g364
asbag56
(g77
g58
NtRp740
(dp741
g61
(dp742
g88
g89
ssg70
g732
sg63
(lp743
S':'
asbag56
(g77
g58
NtRp744
(dp745
g61
(dp746
sg70
g732
sg63
(lp747
g56
(g57
g58
NtRp748
(dp749
g61
(dp750
g69
I3
ssg70
g744
sg63
(lp751
S''
asbasbasbag56
(g72
g58
NtRp752
(dp753
g61
(dp754
sg70
g688
sg63
(lp755
g56
(g77
g58
NtRp756
(dp757
g61
(dp758
g81
g82
ssg70
g752
sg63
(lp759
g385
asbag56
(g77
g58
NtRp760
(dp761
g61
(dp762
g88
g89
ssg70
g752
sg63
(lp763
S':'
asbag56
(g77
g58
NtRp764
(dp765
g61
(dp766
sg70
g752
sg63
(lp767
g56
(g57
g58
NtRp768
(dp769
g61
(dp770
g69
I3
ssg70
g764
sg63
(lp771
S''
asbasbasbag56
(g72
g58
NtRp772
(dp773
g61
(dp774
sg70
g688
sg63
(lp775
g56
(g77
g58
NtRp776
(dp777
g61
(dp778
g81
g82
ssg70
g772
sg63
(lp779
g406
asbag56
(g77
g58
NtRp780
(dp781
g61
(dp782
g88
g89
ssg70
g772
sg63
(lp783
S':'
asbag56
(g77
g58
NtRp784
(dp785
g61
(dp786
sg70
g772
sg63
(lp787
g56
(g57
g58
NtRp788
(dp789
g61
(dp790
g69
I3
ssg70
g784
sg63
(lp791
S''
asbasbasbag56
(g72
g58
NtRp792
(dp793
g61
(dp794
sg70
g688
sg63
(lp795
g56
(g77
g58
NtRp796
(dp797
g61
(dp798
g81
g82
ssg70
g792
sg63
(lp799
g427
asbag56
(g77
g58
NtRp800
(dp801
g61
(dp802
g88
g89
ssg70
g792
sg63
(lp803
S':'
asbag56
(g77
g58
NtRp804
(dp805
g61
(dp806
sg70
g792
sg63
(lp807
g56
(g57
g58
NtRp808
(dp809
g61
(dp810
g69
I3
ssg70
g804
sg63
(lp811
S''
asbasbasbag56
(g72
g58
NtRp812
(dp813
g61
(dp814
sg70
g688
sg63
(lp815
g56
(g77
g58
NtRp816
(dp817
g61
(dp818
g81
g82
ssg70
g812
sg63
(lp819
g448
asbag56
(g77
g58
NtRp820
(dp821
g61
(dp822
g88
g89
ssg70
g812
sg63
(lp823
S':'
asbag56
(g77
g58
NtRp824
(dp825
g61
(dp826
sg70
g812
sg63
(lp827
g56
(g57
g58
NtRp828
(dp829
g61
(dp830
g69
I3
ssg70
g824
sg63
(lp831
S''
asbasbasbag56
(g72
g58
NtRp832
(dp833
g61
(dp834
sg70
g688
sg63
(lp835
g56
(g77
g58
NtRp836
(dp837
g61
(dp838
g81
g82
ssg70
g832
sg63
(lp839
g469
asbag56
(g77
g58
NtRp840
(dp841
g61
(dp842
g88
g89
ssg70
g832
sg63
(lp843
S':'
asbag56
(g77
g58
NtRp844
(dp845
g61
(dp846
sg70
g832
sg63
(lp847
g56
(g57
g58
NtRp848
(dp849
g61
(dp850
g69
I3
ssg70
g844
sg63
(lp851
S''
asbasbasbasbasbasbasbasbasbasbasbag56
(g72
g58
NtRp852
(dp853
g61
(dp854
sg70
g66
sg63
(lp855
g56
(g77
g58
NtRp856
(dp857
g61
(dp858
g81
g82
ssg70
g852
sg63
(lp859
S'env'
p860
asbag56
(g77
g58
NtRp861
(dp862
g61
(dp863
g88
g89
ssg70
g852
sg63
(lp864
S':'
asbag56
(g77
g58
NtRp865
(dp866
g61
(dp867
sg70
g852
sg63
(lp868
g56
(g57
g58
NtRp869
(dp870
g61
(dp871
g69
I5
ssg70
g865
sg63
(lp872
g56
(g65
g58
NtRp873
(dp874
g61
(dp875
g69
I4
ssg70
Nsg63
(lp876
g56
(g72
g58
NtRp877
(dp878
g61
(dp879
sg70
g873
sg63
(lp880
g56
(g77
g58
NtRp881
(dp882
g61
(dp883
g81
g82
ssg70
g877
sg63
(lp884
S'app_folders'
p885
asbag56
(g77
g58
NtRp886
(dp887
g61
(dp888
g88
g89
ssg70
g877
sg63
(lp889
S':'
asbag56
(g77
g58
NtRp890
(dp891
g61
(dp892
sg70
g877
sg63
(lp893
g56
(g57
g58
NtRp894
(dp895
g61
(dp896
g69
I4
ssg70
g890
sg63
(lp897
S"set(['/windows/Users/Thomas/Dropbox/appz/2011/GAE/ddl-lagoon/applications/ddlagoon/', '/windows/Users/Thomas/Dropbox/appz/2011/GAE/ddl-lagoon/applications/welcome/', '/windows/Users/Thomas/Dropbox/appz/2011/GAE/ddl-lagoon/applications/admin/'])"
p898
asbasbasbag56
(g72
g58
NtRp899
(dp900
g61
(dp901
sg70
g873
sg63
(lp902
g56
(g77
g58
NtRp903
(dp904
g61
(dp905
g81
g82
ssg70
g899
sg63
(lp906
S'applications_parent'
p907
asbag56
(g77
g58
NtRp908
(dp909
g61
(dp910
g88
g89
ssg70
g899
sg63
(lp911
S':'
asbag56
(g77
g58
NtRp912
(dp913
g61
(dp914
sg70
g899
sg63
(lp915
g56
(g57
g58
NtRp916
(dp917
g61
(dp918
g69
I4
ssg70
g912
sg63
(lp919
S'/windows/Users/Thomas/Dropbox/appz/2011/GAE/ddl-lagoon'
p920
asbasbasbag56
(g72
g58
NtRp921
(dp922
g61
(dp923
sg70
g873
sg63
(lp924
g56
(g77
g58
NtRp925
(dp926
g61
(dp927
g81
g82
ssg70
g921
sg63
(lp928
S'cmd_args'
p929
asbag56
(g77
g58
NtRp930
(dp931
g61
(dp932
g88
g89
ssg70
g921
sg63
(lp933
S':'
asbag56
(g77
g58
NtRp934
(dp935
g61
(dp936
sg70
g921
sg63
(lp937
g56
(g57
g58
NtRp938
(dp939
g61
(dp940
g69
I4
ssg70
g934
sg63
(lp941
g56
(g65
g58
NtRp942
(dp943
g61
(dp944
g69
I3
ssg70
Nsg63
(lp945
sbasbasbasbag56
(g72
g58
NtRp946
(dp947
g61
(dp948
sg70
g873
sg63
(lp949
g56
(g77
g58
NtRp950
(dp951
g61
(dp952
g81
g82
ssg70
g946
sg63
(lp953
S'cmd_options'
p954
asbag56
(g77
g58
NtRp955
(dp956
g61
(dp957
g88
g89
ssg70
g946
sg63
(lp958
S':'
asbag56
(g77
g58
NtRp959
(dp960
g61
(dp961
sg70
g946
sg63
(lp962
g56
(g57
g58
NtRp963
(dp964
g61
(dp965
g69
I4
ssg70
g959
sg63
(lp966
S"<Values at 0x2569cf8: {'verbose': False, 'ip': '127.0.0.1', 'shutdown_timeout': 5, 'taskbar': False, 'nocron': False, 'pid_filename': 'httpserver.pid', 'maxthreads': None, 'softcron': False, 'server_name': 'VPCF22AJ', 'bpython': False, 'nogui': False, 'port': 8000, 'extcron': False, 'debuglevel': 30, 'test': None, 'folder': '/windows/Users/Thomas/Dropbox/appz/2011/GAE/ddl-lagoon', 'config': '', 'import_models': False, 'winservice': '', 'shell': None, 'run': '', 'log_filename': 'httpserver.log', 'args': [''], 'ssl_ca_certificate': None, 'scheduler': None, 'profiler_filename': None, 'ssl_private_key': '', 'password': 'admin', 'request_queue_size': 5, 'ssl_certificate': '', 'cronjob': False, 'plain': False, 'quiet': False, 'interfaces': None, 'minthreads': None, 'timeout': 10, 'numthreads': None, 'nobanner': False}>"
p967
asbasbasbag56
(g72
g58
NtRp968
(dp969
g61
(dp970
sg70
g873
sg63
(lp971
g56
(g77
g58
NtRp972
(dp973
g61
(dp974
g81
g82
ssg70
g968
sg63
(lp975
S'db_sessions'
p976
asbag56
(g77
g58
NtRp977
(dp978
g61
(dp979
g88
g89
ssg70
g968
sg63
(lp980
S':'
asbag56
(g77
g58
NtRp981
(dp982
g61
(dp983
sg70
g968
sg63
(lp984
g56
(g57
g58
NtRp985
(dp986
g61
(dp987
g69
I4
ssg70
g981
sg63
(lp988
S'set([])'
p989
asbasbasbag56
(g72
g58
NtRp990
(dp991
g61
(dp992
sg70
g873
sg63
(lp993
g56
(g77
g58
NtRp994
(dp995
g61
(dp996
g81
g82
ssg70
g990
sg63
(lp997
S'debugging'
p998
asbag56
(g77
g58
NtRp999
(dp1000
g61
(dp1001
g88
g89
ssg70
g990
sg63
(lp1002
S':'
asbag56
(g77
g58
NtRp1003
(dp1004
g61
(dp1005
sg70
g990
sg63
(lp1006
g56
(g57
g58
NtRp1007
(dp1008
g61
(dp1009
g69
I4
ssg70
g1003
sg63
(lp1010
g99
asbasbasbag56
(g72
g58
NtRp1011
(dp1012
g61
(dp1013
sg70
g873
sg63
(lp1014
g56
(g77
g58
NtRp1015
(dp1016
g61
(dp1017
g81
g82
ssg70
g1011
sg63
(lp1018
S'gluon_parent'
p1019
asbag56
(g77
g58
NtRp1020
(dp1021
g61
(dp1022
g88
g89
ssg70
g1011
sg63
(lp1023
S':'
asbag56
(g77
g58
NtRp1024
(dp1025
g61
(dp1026
sg70
g1011
sg63
(lp1027
g56
(g57
g58
NtRp1028
(dp1029
g61
(dp1030
g69
I4
ssg70
g1024
sg63
(lp1031
S'/windows/Users/Thomas/Dropbox/appz/2011/GAE/ddl-lagoon'
p1032
asbasbasbag56
(g72
g58
NtRp1033
(dp1034
g61
(dp1035
sg70
g873
sg63
(lp1036
g56
(g77
g58
NtRp1037
(dp1038
g61
(dp1039
g81
g82
ssg70
g1033
sg63
(lp1040
S'http_accept'
p1041
asbag56
(g77
g58
NtRp1042
(dp1043
g61
(dp1044
g88
g89
ssg70
g1033
sg63
(lp1045
S':'
asbag56
(g77
g58
NtRp1046
(dp1047
g61
(dp1048
sg70
g1033
sg63
(lp1049
g56
(g57
g58
NtRp1050
(dp1051
g61
(dp1052
g69
I4
ssg70
g1046
sg63
(lp1053
S'text/html,application/xhtml+xml,application/xml;q=0.9,*/*;q=0.8'
p1054
asbasbasbag56
(g72
g58
NtRp1055
(dp1056
g61
(dp1057
sg70
g873
sg63
(lp1058
g56
(g77
g58
NtRp1059
(dp1060
g61
(dp1061
g81
g82
ssg70
g1055
sg63
(lp1062
S'http_accept_charset'
p1063
asbag56
(g77
g58
NtRp1064
(dp1065
g61
(dp1066
g88
g89
ssg70
g1055
sg63
(lp1067
S':'
asbag56
(g77
g58
NtRp1068
(dp1069
g61
(dp1070
sg70
g1055
sg63
(lp1071
g56
(g57
g58
NtRp1072
(dp1073
g61
(dp1074
g69
I4
ssg70
g1068
sg63
(lp1075
S'ISO-8859-1,utf-8;q=0.7,*;q=0.3'
p1076
asbasbasbag56
(g72
g58
NtRp1077
(dp1078
g61
(dp1079
sg70
g873
sg63
(lp1080
g56
(g77
g58
NtRp1081
(dp1082
g61
(dp1083
g81
g82
ssg70
g1077
sg63
(lp1084
S'http_accept_encoding'
p1085
asbag56
(g77
g58
NtRp1086
(dp1087
g61
(dp1088
g88
g89
ssg70
g1077
sg63
(lp1089
S':'
asbag56
(g77
g58
NtRp1090
(dp1091
g61
(dp1092
sg70
g1077
sg63
(lp1093
g56
(g57
g58
NtRp1094
(dp1095
g61
(dp1096
g69
I4
ssg70
g1090
sg63
(lp1097
S'gzip,deflate,sdch'
p1098
asbasbasbag56
(g72
g58
NtRp1099
(dp1100
g61
(dp1101
sg70
g873
sg63
(lp1102
g56
(g77
g58
NtRp1103
(dp1104
g61
(dp1105
g81
g82
ssg70
g1099
sg63
(lp1106
S'http_accept_language'
p1107
asbag56
(g77
g58
NtRp1108
(dp1109
g61
(dp1110
g88
g89
ssg70
g1099
sg63
(lp1111
S':'
asbag56
(g77
g58
NtRp1112
(dp1113
g61
(dp1114
sg70
g1099
sg63
(lp1115
g56
(g57
g58
NtRp1116
(dp1117
g61
(dp1118
g69
I4
ssg70
g1112
sg63
(lp1119
S'en-US,en;q=0.8,fr;q=0.6'
p1120
asbasbasbag56
(g72
g58
NtRp1121
(dp1122
g61
(dp1123
sg70
g873
sg63
(lp1124
g56
(g77
g58
NtRp1125
(dp1126
g61
(dp1127
g81
g82
ssg70
g1121
sg63
(lp1128
S'http_cache_control'
p1129
asbag56
(g77
g58
NtRp1130
(dp1131
g61
(dp1132
g88
g89
ssg70
g1121
sg63
(lp1133
S':'
asbag56
(g77
g58
NtRp1134
(dp1135
g61
(dp1136
sg70
g1121
sg63
(lp1137
g56
(g57
g58
NtRp1138
(dp1139
g61
(dp1140
g69
I4
ssg70
g1134
sg63
(lp1141
S'max-age=0'
p1142
asbasbasbag56
(g72
g58
NtRp1143
(dp1144
g61
(dp1145
sg70
g873
sg63
(lp1146
g56
(g77
g58
NtRp1147
(dp1148
g61
(dp1149
g81
g82
ssg70
g1143
sg63
(lp1150
S'http_connection'
p1151
asbag56
(g77
g58
NtRp1152
(dp1153
g61
(dp1154
g88
g89
ssg70
g1143
sg63
(lp1155
S':'
asbag56
(g77
g58
NtRp1156
(dp1157
g61
(dp1158
sg70
g1143
sg63
(lp1159
g56
(g57
g58
NtRp1160
(dp1161
g61
(dp1162
g69
I4
ssg70
g1156
sg63
(lp1163
S'keep-alive'
p1164
asbasbasbag56
(g72
g58
NtRp1165
(dp1166
g61
(dp1167
sg70
g873
sg63
(lp1168
g56
(g77
g58
NtRp1169
(dp1170
g61
(dp1171
g81
g82
ssg70
g1165
sg63
(lp1172
S'http_cookie'
p1173
asbag56
(g77
g58
NtRp1174
(dp1175
g61
(dp1176
g88
g89
ssg70
g1165
sg63
(lp1177
S':'
asbag56
(g77
g58
NtRp1178
(dp1179
g61
(dp1180
sg70
g1165
sg63
(lp1181
g56
(g57
g58
NtRp1182
(dp1183
g61
(dp1184
g69
I4
ssg70
g1178
sg63
(lp1185
S'__utma_a2a=5510587673.1349489975.1317933049.1319659660.1319659660.47; session_id_welcome=127.0.0.1-f7fb4a09-ce09-4815-abcc-fca1d9093faf; session_id_admin=127.0.0.1-975d2e86-8c26-4bdc-8b21-2f846f38d507; session_id_ddlagoon=127.0.0.1-19127e1a-7611-4f40-b65d-22ada6f4ed65'
p1186
asbasbasbag56
(g72
g58
NtRp1187
(dp1188
g61
(dp1189
sg70
g873
sg63
(lp1190
g56
(g77
g58
NtRp1191
(dp1192
g61
(dp1193
g81
g82
ssg70
g1187
sg63
(lp1194
S'http_host'
p1195
asbag56
(g77
g58
NtRp1196
(dp1197
g61
(dp1198
g88
g89
ssg70
g1187
sg63
(lp1199
S':'
asbag56
(g77
g58
NtRp1200
(dp1201
g61
(dp1202
sg70
g1187
sg63
(lp1203
g56
(g57
g58
NtRp1204
(dp1205
g61
(dp1206
g69
I4
ssg70
g1200
sg63
(lp1207
S'127.0.0.1:8000'
p1208
asbasbasbag56
(g72
g58
NtRp1209
(dp1210
g61
(dp1211
sg70
g873
sg63
(lp1212
g56
(g77
g58
NtRp1213
(dp1214
g61
(dp1215
g81
g82
ssg70
g1209
sg63
(lp1216
S'http_user_agent'
p1217
asbag56
(g77
g58
NtRp1218
(dp1219
g61
(dp1220
g88
g89
ssg70
g1209
sg63
(lp1221
S':'
asbag56
(g77
g58
NtRp1222
(dp1223
g61
(dp1224
sg70
g1209
sg63
(lp1225
g56
(g57
g58
NtRp1226
(dp1227
g61
(dp1228
g69
I4
ssg70
g1222
sg63
(lp1229
S'Mozilla/5.0 (X11; Linux x86_64) AppleWebKit/535.2 (KHTML, like Gecko) Chrome/15.0.874.106 Safari/535.2'
p1230
asbasbasbag56
(g72
g58
NtRp1231
(dp1232
g61
(dp1233
sg70
g873
sg63
(lp1234
g56
(g77
g58
NtRp1235
(dp1236
g61
(dp1237
g81
g82
ssg70
g1231
sg63
(lp1238
S'is_jython'
p1239
asbag56
(g77
g58
NtRp1240
(dp1241
g61
(dp1242
g88
g89
ssg70
g1231
sg63
(lp1243
S':'
asbag56
(g77
g58
NtRp1244
(dp1245
g61
(dp1246
sg70
g1231
sg63
(lp1247
g56
(g57
g58
NtRp1248
(dp1249
g61
(dp1250
g69
I4
ssg70
g1244
sg63
(lp1251
g99
asbasbasbag56
(g72
g58
NtRp1252
(dp1253
g61
(dp1254
sg70
g873
sg63
(lp1255
g56
(g77
g58
NtRp1256
(dp1257
g61
(dp1258
g81
g82
ssg70
g1252
sg63
(lp1259
S'path_info'
p1260
asbag56
(g77
g58
NtRp1261
(dp1262
g61
(dp1263
g88
g89
ssg70
g1252
sg63
(lp1264
S':'
asbag56
(g77
g58
NtRp1265
(dp1266
g61
(dp1267
sg70
g1252
sg63
(lp1268
g56
(g57
g58
NtRp1269
(dp1270
g61
(dp1271
g69
I4
ssg70
g1265
sg63
(lp1272
S'/ddlagoon/ddl/get/run/ddl/14/The_Thing_2011_TS_XviD_READNFO___MiSTERE.avi'
p1273
asbasbasbag56
(g72
g58
NtRp1274
(dp1275
g61
(dp1276
sg70
g873
sg63
(lp1277
g56
(g77
g58
NtRp1278
(dp1279
g61
(dp1280
g81
g82
ssg70
g1274
sg63
(lp1281
S'query_string'
p1282
asbag56
(g77
g58
NtRp1283
(dp1284
g61
(dp1285
g88
g89
ssg70
g1274
sg63
(lp1286
S':'
asbag56
(g77
g58
NtRp1287
(dp1288
g61
(dp1289
sg70
g1274
sg63
(lp1290
g56
(g57
g58
NtRp1291
(dp1292
g61
(dp1293
g69
I4
ssg70
g1287
sg63
(lp1294
S''
asbasbasbag56
(g72
g58
NtRp1295
(dp1296
g61
(dp1297
sg70
g873
sg63
(lp1298
g56
(g77
g58
NtRp1299
(dp1300
g61
(dp1301
g81
g82
ssg70
g1295
sg63
(lp1302
S'remote_addr'
p1303
asbag56
(g77
g58
NtRp1304
(dp1305
g61
(dp1306
g88
g89
ssg70
g1295
sg63
(lp1307
S':'
asbag56
(g77
g58
NtRp1308
(dp1309
g61
(dp1310
sg70
g1295
sg63
(lp1311
g56
(g57
g58
NtRp1312
(dp1313
g61
(dp1314
g69
I4
ssg70
g1308
sg63
(lp1315
g241
asbasbasbag56
(g72
g58
NtRp1316
(dp1317
g61
(dp1318
sg70
g873
sg63
(lp1319
g56
(g77
g58
NtRp1320
(dp1321
g61
(dp1322
g81
g82
ssg70
g1316
sg63
(lp1323
S'remote_port'
p1324
asbag56
(g77
g58
NtRp1325
(dp1326
g61
(dp1327
g88
g89
ssg70
g1316
sg63
(lp1328
S':'
asbag56
(g77
g58
NtRp1329
(dp1330
g61
(dp1331
sg70
g1316
sg63
(lp1332
g56
(g57
g58
NtRp1333
(dp1334
g61
(dp1335
g69
I4
ssg70
g1329
sg63
(lp1336
S'45769'
p1337
asbasbasbag56
(g72
g58
NtRp1338
(dp1339
g61
(dp1340
sg70
g873
sg63
(lp1341
g56
(g77
g58
NtRp1342
(dp1343
g61
(dp1344
g81
g82
ssg70
g1338
sg63
(lp1345
S'request_method'
p1346
asbag56
(g77
g58
NtRp1347
(dp1348
g61
(dp1349
g88
g89
ssg70
g1338
sg63
(lp1350
S':'
asbag56
(g77
g58
NtRp1351
(dp1352
g61
(dp1353
sg70
g1338
sg63
(lp1354
g56
(g57
g58
NtRp1355
(dp1356
g61
(dp1357
g69
I4
ssg70
g1351
sg63
(lp1358
S'GET'
p1359
asbasbasbag56
(g72
g58
NtRp1360
(dp1361
g61
(dp1362
sg70
g873
sg63
(lp1363
g56
(g77
g58
NtRp1364
(dp1365
g61
(dp1366
g81
g82
ssg70
g1360
sg63
(lp1367
S'request_uri'
p1368
asbag56
(g77
g58
NtRp1369
(dp1370
g61
(dp1371
g88
g89
ssg70
g1360
sg63
(lp1372
S':'
asbag56
(g77
g58
NtRp1373
(dp1374
g61
(dp1375
sg70
g1360
sg63
(lp1376
g56
(g57
g58
NtRp1377
(dp1378
g61
(dp1379
g69
I4
ssg70
g1373
sg63
(lp1380
g1273
asbasbasbag56
(g72
g58
NtRp1381
(dp1382
g61
(dp1383
sg70
g873
sg63
(lp1384
g56
(g77
g58
NtRp1385
(dp1386
g61
(dp1387
g81
g82
ssg70
g1381
sg63
(lp1388
S'script_name'
p1389
asbag56
(g77
g58
NtRp1390
(dp1391
g61
(dp1392
g88
g89
ssg70
g1381
sg63
(lp1393
S':'
asbag56
(g77
g58
NtRp1394
(dp1395
g61
(dp1396
sg70
g1381
sg63
(lp1397
g56
(g57
g58
NtRp1398
(dp1399
g61
(dp1400
g69
I4
ssg70
g1394
sg63
(lp1401
S''
asbasbasbag56
(g72
g58
NtRp1402
(dp1403
g61
(dp1404
sg70
g873
sg63
(lp1405
g56
(g77
g58
NtRp1406
(dp1407
g61
(dp1408
g81
g82
ssg70
g1402
sg63
(lp1409
S'server_name'
p1410
asbag56
(g77
g58
NtRp1411
(dp1412
g61
(dp1413
g88
g89
ssg70
g1402
sg63
(lp1414
S':'
asbag56
(g77
g58
NtRp1415
(dp1416
g61
(dp1417
sg70
g1402
sg63
(lp1418
g56
(g57
g58
NtRp1419
(dp1420
g61
(dp1421
g69
I4
ssg70
g1415
sg63
(lp1422
S'VPCF22AJ'
p1423
asbasbasbag56
(g72
g58
NtRp1424
(dp1425
g61
(dp1426
sg70
g873
sg63
(lp1427
g56
(g77
g58
NtRp1428
(dp1429
g61
(dp1430
g81
g82
ssg70
g1424
sg63
(lp1431
S'server_port'
p1432
asbag56
(g77
g58
NtRp1433
(dp1434
g61
(dp1435
g88
g89
ssg70
g1424
sg63
(lp1436
S':'
asbag56
(g77
g58
NtRp1437
(dp1438
g61
(dp1439
sg70
g1424
sg63
(lp1440
g56
(g57
g58
NtRp1441
(dp1442
g61
(dp1443
g69
I4
ssg70
g1437
sg63
(lp1444
S'8000'
p1445
asbasbasbag56
(g72
g58
NtRp1446
(dp1447
g61
(dp1448
sg70
g873
sg63
(lp1449
g56
(g77
g58
NtRp1450
(dp1451
g61
(dp1452
g81
g82
ssg70
g1446
sg63
(lp1453
S'server_protocol'
p1454
asbag56
(g77
g58
NtRp1455
(dp1456
g61
(dp1457
g88
g89
ssg70
g1446
sg63
(lp1458
S':'
asbag56
(g77
g58
NtRp1459
(dp1460
g61
(dp1461
sg70
g1446
sg63
(lp1462
g56
(g57
g58
NtRp1463
(dp1464
g61
(dp1465
g69
I4
ssg70
g1459
sg63
(lp1466
S'HTTP/1.1'
p1467
asbasbasbag56
(g72
g58
NtRp1468
(dp1469
g61
(dp1470
sg70
g873
sg63
(lp1471
g56
(g77
g58
NtRp1472
(dp1473
g61
(dp1474
g81
g82
ssg70
g1468
sg63
(lp1475
S'server_software'
p1476
asbag56
(g77
g58
NtRp1477
(dp1478
g61
(dp1479
g88
g89
ssg70
g1468
sg63
(lp1480
S':'
asbag56
(g77
g58
NtRp1481
(dp1482
g61
(dp1483
sg70
g1468
sg63
(lp1484
g56
(g57
g58
NtRp1485
(dp1486
g61
(dp1487
g69
I4
ssg70
g1481
sg63
(lp1488
S'Rocket 1.2.4'
p1489
asbasbasbag56
(g72
g58
NtRp1490
(dp1491
g61
(dp1492
sg70
g873
sg63
(lp1493
g56
(g77
g58
NtRp1494
(dp1495
g61
(dp1496
g81
g82
ssg70
g1490
sg63
(lp1497
S'web2py_crontype'
p1498
asbag56
(g77
g58
NtRp1499
(dp1500
g61
(dp1501
g88
g89
ssg70
g1490
sg63
(lp1502
S':'
asbag56
(g77
g58
NtRp1503
(dp1504
g61
(dp1505
sg70
g1490
sg63
(lp1506
g56
(g57
g58
NtRp1507
(dp1508
g61
(dp1509
g69
I4
ssg70
g1503
sg63
(lp1510
S'hard'
p1511
asbasbasbag56
(g72
g58
NtRp1512
(dp1513
g61
(dp1514
sg70
g873
sg63
(lp1515
g56
(g77
g58
NtRp1516
(dp1517
g61
(dp1518
g81
g82
ssg70
g1512
sg63
(lp1519
S'web2py_original_uri'
p1520
asbag56
(g77
g58
NtRp1521
(dp1522
g61
(dp1523
g88
g89
ssg70
g1512
sg63
(lp1524
S':'
asbag56
(g77
g58
NtRp1525
(dp1526
g61
(dp1527
sg70
g1512
sg63
(lp1528
g56
(g57
g58
NtRp1529
(dp1530
g61
(dp1531
g69
I4
ssg70
g1525
sg63
(lp1532
g1273
asbasbasbag56
(g72
g58
NtRp1533
(dp1534
g61
(dp1535
sg70
g873
sg63
(lp1536
g56
(g77
g58
NtRp1537
(dp1538
g61
(dp1539
g81
g82
ssg70
g1533
sg63
(lp1540
S'web2py_path'
p1541
asbag56
(g77
g58
NtRp1542
(dp1543
g61
(dp1544
g88
g89
ssg70
g1533
sg63
(lp1545
S':'
asbag56
(g77
g58
NtRp1546
(dp1547
g61
(dp1548
sg70
g1533
sg63
(lp1549
g56
(g57
g58
NtRp1550
(dp1551
g61
(dp1552
g69
I4
ssg70
g1546
sg63
(lp1553
g920
asbasbasbag56
(g72
g58
NtRp1554
(dp1555
g61
(dp1556
sg70
g873
sg63
(lp1557
g56
(g77
g58
NtRp1558
(dp1559
g61
(dp1560
g81
g82
ssg70
g1554
sg63
(lp1561
S'web2py_version'
p1562
asbag56
(g77
g58
NtRp1563
(dp1564
g61
(dp1565
g88
g89
ssg70
g1554
sg63
(lp1566
S':'
asbag56
(g77
g58
NtRp1567
(dp1568
g61
(dp1569
sg70
g1554
sg63
(lp1570
g56
(g57
g58
NtRp1571
(dp1572
g61
(dp1573
g69
I4
ssg70
g1567
sg63
(lp1574
g56
(g65
g58
NtRp1575
(dp1576
g61
(dp1577
g69
I3
ssg70
Nsg63
(lp1578
g56
(g72
g58
NtRp1579
(dp1580
g61
(dp1581
sg70
g1575
sg63
(lp1582
g56
(g77
g58
NtRp1583
(dp1584
g61
(dp1585
sg70
g1579
sg63
(lp1586
g56
(g57
g58
NtRp1587
(dp1588
g61
(dp1589
g69
I3
ssg70
g1583
sg63
(lp1590
S'1'
asbasbasbag56
(g72
g58
NtRp1591
(dp1592
g61
(dp1593
sg70
g1575
sg63
(lp1594
g56
(g77
g58
NtRp1595
(dp1596
g61
(dp1597
sg70
g1591
sg63
(lp1598
g56
(g57
g58
NtRp1599
(dp1600
g61
(dp1601
g69
I3
ssg70
g1595
sg63
(lp1602
S'99'
p1603
asbasbasbag56
(g72
g58
NtRp1604
(dp1605
g61
(dp1606
sg70
g1575
sg63
(lp1607
g56
(g77
g58
NtRp1608
(dp1609
g61
(dp1610
sg70
g1604
sg63
(lp1611
g56
(g57
g58
NtRp1612
(dp1613
g61
(dp1614
g69
I3
ssg70
g1608
sg63
(lp1615
S'2'
asbasbasbag56
(g72
g58
NtRp1616
(dp1617
g61
(dp1618
sg70
g1575
sg63
(lp1619
g56
(g77
g58
NtRp1620
(dp1621
g61
(dp1622
sg70
g1616
sg63
(lp1623
g56
(g57
g58
NtRp1624
(dp1625
g61
(dp1626
g69
I3
ssg70
g1620
sg63
(lp1627
S'datetime.datetime(2011, 9, 26, 6, 55, 33)'
p1628
asbasbasbag56
(g72
g58
NtRp1629
(dp1630
g61
(dp1631
sg70
g1575
sg63
(lp1632
g56
(g77
g58
NtRp1633
(dp1634
g61
(dp1635
sg70
g1629
sg63
(lp1636
g56
(g57
g58
NtRp1637
(dp1638
g61
(dp1639
g69
I3
ssg70
g1633
sg63
(lp1640
S'stable'
p1641
asbasbasbasbasbasbasbag56
(g72
g58
NtRp1642
(dp1643
g61
(dp1644
sg70
g873
sg63
(lp1645
g56
(g77
g58
NtRp1646
(dp1647
g61
(dp1648
g81
g82
ssg70
g1642
sg63
(lp1649
S'wsgi_errors'
p1650
asbag56
(g77
g58
NtRp1651
(dp1652
g61
(dp1653
g88
g89
ssg70
g1642
sg63
(lp1654
S':'
asbag56
(g77
g58
NtRp1655
(dp1656
g61
(dp1657
sg70
g1642
sg63
(lp1658
g56
(g57
g58
NtRp1659
(dp1660
g61
(dp1661
g69
I4
ssg70
g1655
sg63
(lp1662
S"<open file '<stderr>', mode 'w' at 0x7f0d1464c1e0>"
p1663
asbasbasbag56
(g72
g58
NtRp1664
(dp1665
g61
(dp1666
sg70
g873
sg63
(lp1667
g56
(g77
g58
NtRp1668
(dp1669
g61
(dp1670
g81
g82
ssg70
g1664
sg63
(lp1671
S'wsgi_file_wrapper'
p1672
asbag56
(g77
g58
NtRp1673
(dp1674
g61
(dp1675
g88
g89
ssg70
g1664
sg63
(lp1676
S':'
asbag56
(g77
g58
NtRp1677
(dp1678
g61
(dp1679
sg70
g1664
sg63
(lp1680
g56
(g57
g58
NtRp1681
(dp1682
g61
(dp1683
g69
I4
ssg70
g1677
sg63
(lp1684
S'<class wsgiref.util.FileWrapper at 0x24c5110>'
p1685
asbasbasbag56
(g72
g58
NtRp1686
(dp1687
g61
(dp1688
sg70
g873
sg63
(lp1689
g56
(g77
g58
NtRp1690
(dp1691
g61
(dp1692
g81
g82
ssg70
g1686
sg63
(lp1693
S'wsgi_input'
p1694
asbag56
(g77
g58
NtRp1695
(dp1696
g61
(dp1697
g88
g89
ssg70
g1686
sg63
(lp1698
S':'
asbag56
(g77
g58
NtRp1699
(dp1700
g61
(dp1701
sg70
g1686
sg63
(lp1702
g56
(g57
g58
NtRp1703
(dp1704
g61
(dp1705
g69
I4
ssg70
g1699
sg63
(lp1706
S'<socket._fileobject object at 0x32fb7d0>'
p1707
asbasbasbag56
(g72
g58
NtRp1708
(dp1709
g61
(dp1710
sg70
g873
sg63
(lp1711
g56
(g77
g58
NtRp1712
(dp1713
g61
(dp1714
g81
g82
ssg70
g1708
sg63
(lp1715
S'wsgi_multiprocess'
p1716
asbag56
(g77
g58
NtRp1717
(dp1718
g61
(dp1719
g88
g89
ssg70
g1708
sg63
(lp1720
S':'
asbag56
(g77
g58
NtRp1721
(dp1722
g61
(dp1723
sg70
g1708
sg63
(lp1724
g56
(g57
g58
NtRp1725
(dp1726
g61
(dp1727
g69
I4
ssg70
g1721
sg63
(lp1728
g99
asbasbasbag56
(g72
g58
NtRp1729
(dp1730
g61
(dp1731
sg70
g873
sg63
(lp1732
g56
(g77
g58
NtRp1733
(dp1734
g61
(dp1735
g81
g82
ssg70
g1729
sg63
(lp1736
S'wsgi_multithread'
p1737
asbag56
(g77
g58
NtRp1738
(dp1739
g61
(dp1740
g88
g89
ssg70
g1729
sg63
(lp1741
S':'
asbag56
(g77
g58
NtRp1742
(dp1743
g61
(dp1744
sg70
g1729
sg63
(lp1745
g56
(g57
g58
NtRp1746
(dp1747
g61
(dp1748
g69
I4
ssg70
g1742
sg63
(lp1749
S'True'
p1750
asbasbasbag56
(g72
g58
NtRp1751
(dp1752
g61
(dp1753
sg70
g873
sg63
(lp1754
g56
(g77
g58
NtRp1755
(dp1756
g61
(dp1757
g81
g82
ssg70
g1751
sg63
(lp1758
S'wsgi_run_once'
p1759
asbag56
(g77
g58
NtRp1760
(dp1761
g61
(dp1762
g88
g89
ssg70
g1751
sg63
(lp1763
S':'
asbag56
(g77
g58
NtRp1764
(dp1765
g61
(dp1766
sg70
g1751
sg63
(lp1767
g56
(g57
g58
NtRp1768
(dp1769
g61
(dp1770
g69
I4
ssg70
g1764
sg63
(lp1771
g99
asbasbasbag56
(g72
g58
NtRp1772
(dp1773
g61
(dp1774
sg70
g873
sg63
(lp1775
g56
(g77
g58
NtRp1776
(dp1777
g61
(dp1778
g81
g82
ssg70
g1772
sg63
(lp1779
S'wsgi_url_scheme'
p1780
asbag56
(g77
g58
NtRp1781
(dp1782
g61
(dp1783
g88
g89
ssg70
g1772
sg63
(lp1784
S':'
asbag56
(g77
g58
NtRp1785
(dp1786
g61
(dp1787
sg70
g1772
sg63
(lp1788
g56
(g57
g58
NtRp1789
(dp1790
g61
(dp1791
g69
I4
ssg70
g1785
sg63
(lp1792
S'http'
p1793
asbasbasbag56
(g72
g58
NtRp1794
(dp1795
g61
(dp1796
sg70
g873
sg63
(lp1797
g56
(g77
g58
NtRp1798
(dp1799
g61
(dp1800
g81
g82
ssg70
g1794
sg63
(lp1801
S'wsgi_version'
p1802
asbag56
(g77
g58
NtRp1803
(dp1804
g61
(dp1805
g88
g89
ssg70
g1794
sg63
(lp1806
S':'
asbag56
(g77
g58
NtRp1807
(dp1808
g61
(dp1809
sg70
g1794
sg63
(lp1810
g56
(g57
g58
NtRp1811
(dp1812
g61
(dp1813
g69
I4
ssg70
g1807
sg63
(lp1814
g56
(g65
g58
NtRp1815
(dp1816
g61
(dp1817
g69
I3
ssg70
Nsg63
(lp1818
g56
(g72
g58
NtRp1819
(dp1820
g61
(dp1821
sg70
g1815
sg63
(lp1822
g56
(g77
g58
NtRp1823
(dp1824
g61
(dp1825
sg70
g1819
sg63
(lp1826
g56
(g57
g58
NtRp1827
(dp1828
g61
(dp1829
g69
I3
ssg70
g1823
sg63
(lp1830
S'1'
asbasbasbag56
(g72
g58
NtRp1831
(dp1832
g61
(dp1833
sg70
g1815
sg63
(lp1834
g56
(g77
g58
NtRp1835
(dp1836
g61
(dp1837
sg70
g1831
sg63
(lp1838
g56
(g57
g58
NtRp1839
(dp1840
g61
(dp1841
g69
I3
ssg70
g1835
sg63
(lp1842
S'0'
asbasbasbasbasbasbasbasbasbasbasbag56
(g72
g58
NtRp1843
(dp1844
g61
(dp1845
sg70
g66
sg63
(lp1846
g56
(g77
g58
NtRp1847
(dp1848
g61
(dp1849
g81
g82
ssg70
g1843
sg63
(lp1850
S'extension'
p1851
asbag56
(g77
g58
NtRp1852
(dp1853
g61
(dp1854
g88
g89
ssg70
g1843
sg63
(lp1855
S':'
asbag56
(g77
g58
NtRp1856
(dp1857
g61
(dp1858
sg70
g1843
sg63
(lp1859
g56
(g57
g58
NtRp1860
(dp1861
g61
(dp1862
g69
I5
ssg70
g1856
sg63
(lp1863
S'html'
p1864
asbasbasbag56
(g72
g58
NtRp1865
(dp1866
g61
(dp1867
sg70
g66
sg63
(lp1868
g56
(g77
g58
NtRp1869
(dp1870
g61
(dp1871
g81
g82
ssg70
g1865
sg63
(lp1872
S'folder'
p1873
asbag56
(g77
g58
NtRp1874
(dp1875
g61
(dp1876
g88
g89
ssg70
g1865
sg63
(lp1877
S':'
asbag56
(g77
g58
NtRp1878
(dp1879
g61
(dp1880
sg70
g1865
sg63
(lp1881
g56
(g57
g58
NtRp1882
(dp1883
g61
(dp1884
g69
I5
ssg70
g1878
sg63
(lp1885
S'/windows/Users/Thomas/Dropbox/appz/2011/GAE/ddl-lagoon/applications/ddlagoon/'
p1886
asbasbasbag56
(g72
g58
NtRp1887
(dp1888
g61
(dp1889
sg70
g66
sg63
(lp1890
g56
(g77
g58
NtRp1891
(dp1892
g61
(dp1893
g81
g82
ssg70
g1887
sg63
(lp1894
S'function'
p1895
asbag56
(g77
g58
NtRp1896
(dp1897
g61
(dp1898
g88
g89
ssg70
g1887
sg63
(lp1899
S':'
asbag56
(g77
g58
NtRp1900
(dp1901
g61
(dp1902
sg70
g1887
sg63
(lp1903
g56
(g57
g58
NtRp1904
(dp1905
g61
(dp1906
g69
I5
ssg70
g1900
sg63
(lp1907
S'get'
p1908
asbasbasbag56
(g72
g58
NtRp1909
(dp1910
g61
(dp1911
sg70
g66
sg63
(lp1912
g56
(g77
g58
NtRp1913
(dp1914
g61
(dp1915
g81
g82
ssg70
g1909
sg63
(lp1916
S'get_vars'
p1917
asbag56
(g77
g58
NtRp1918
(dp1919
g61
(dp1920
g88
g89
ssg70
g1909
sg63
(lp1921
S':'
asbag56
(g77
g58
NtRp1922
(dp1923
g61
(dp1924
sg70
g1909
sg63
(lp1925
g56
(g57
g58
NtRp1926
(dp1927
g61
(dp1928
g69
I5
ssg70
g1922
sg63
(lp1929
g56
(g65
g58
NtRp1930
(dp1931
g61
(dp1932
g69
I4
ssg70
Nsg63
(lp1933
sbasbasbasbag56
(g72
g58
NtRp1934
(dp1935
g61
(dp1936
sg70
g66
sg63
(lp1937
g56
(g77
g58
NtRp1938
(dp1939
g61
(dp1940
g81
g82
ssg70
g1934
sg63
(lp1941
S'global_settings'
p1942
asbag56
(g77
g58
NtRp1943
(dp1944
g61
(dp1945
g88
g89
ssg70
g1934
sg63
(lp1946
S':'
asbag56
(g77
g58
NtRp1947
(dp1948
g61
(dp1949
sg70
g1934
sg63
(lp1950
g56
(g57
g58
NtRp1951
(dp1952
g61
(dp1953
g69
I5
ssg70
g1947
sg63
(lp1954
g56
(g65
g58
NtRp1955
(dp1956
g61
(dp1957
g69
I4
ssg70
Nsg63
(lp1958
g56
(g72
g58
NtRp1959
(dp1960
g61
(dp1961
sg70
g1955
sg63
(lp1962
g56
(g77
g58
NtRp1963
(dp1964
g61
(dp1965
g81
g82
ssg70
g1959
sg63
(lp1966
g885
asbag56
(g77
g58
NtRp1967
(dp1968
g61
(dp1969
g88
g89
ssg70
g1959
sg63
(lp1970
S':'
asbag56
(g77
g58
NtRp1971
(dp1972
g61
(dp1973
sg70
g1959
sg63
(lp1974
g56
(g57
g58
NtRp1975
(dp1976
g61
(dp1977
g69
I4
ssg70
g1971
sg63
(lp1978
S"set(['/windows/Users/Thomas/Dropbox/appz/2011/GAE/ddl-lagoon/applications/ddlagoon/', '/windows/Users/Thomas/Dropbox/appz/2011/GAE/ddl-lagoon/applications/welcome/', '/windows/Users/Thomas/Dropbox/appz/2011/GAE/ddl-lagoon/applications/admin/'])"
p1979
asbasbasbag56
(g72
g58
NtRp1980
(dp1981
g61
(dp1982
sg70
g1955
sg63
(lp1983
g56
(g77
g58
NtRp1984
(dp1985
g61
(dp1986
g81
g82
ssg70
g1980
sg63
(lp1987
g907
asbag56
(g77
g58
NtRp1988
(dp1989
g61
(dp1990
g88
g89
ssg70
g1980
sg63
(lp1991
S':'
asbag56
(g77
g58
NtRp1992
(dp1993
g61
(dp1994
sg70
g1980
sg63
(lp1995
g56
(g57
g58
NtRp1996
(dp1997
g61
(dp1998
g69
I4
ssg70
g1992
sg63
(lp1999
g920
asbasbasbag56
(g72
g58
NtRp2000
(dp2001
g61
(dp2002
sg70
g1955
sg63
(lp2003
g56
(g77
g58
NtRp2004
(dp2005
g61
(dp2006
g81
g82
ssg70
g2000
sg63
(lp2007
g929
asbag56
(g77
g58
NtRp2008
(dp2009
g61
(dp2010
g88
g89
ssg70
g2000
sg63
(lp2011
S':'
asbag56
(g77
g58
NtRp2012
(dp2013
g61
(dp2014
sg70
g2000
sg63
(lp2015
g56
(g57
g58
NtRp2016
(dp2017
g61
(dp2018
g69
I4
ssg70
g2012
sg63
(lp2019
g56
(g65
g58
NtRp2020
(dp2021
g61
(dp2022
g69
I3
ssg70
Nsg63
(lp2023
sbasbasbasbag56
(g72
g58
NtRp2024
(dp2025
g61
(dp2026
sg70
g1955
sg63
(lp2027
g56
(g77
g58
NtRp2028
(dp2029
g61
(dp2030
g81
g82
ssg70
g2024
sg63
(lp2031
g954
asbag56
(g77
g58
NtRp2032
(dp2033
g61
(dp2034
g88
g89
ssg70
g2024
sg63
(lp2035
S':'
asbag56
(g77
g58
NtRp2036
(dp2037
g61
(dp2038
sg70
g2024
sg63
(lp2039
g56
(g57
g58
NtRp2040
(dp2041
g61
(dp2042
g69
I4
ssg70
g2036
sg63
(lp2043
S"<Values at 0x2569cf8: {'verbose': False, 'ip': '127.0.0.1', 'shutdown_timeout': 5, 'taskbar': False, 'nocron': False, 'pid_filename': 'httpserver.pid', 'maxthreads': None, 'softcron': False, 'server_name': 'VPCF22AJ', 'bpython': False, 'nogui': False, 'port': 8000, 'extcron': False, 'debuglevel': 30, 'test': None, 'folder': '/windows/Users/Thomas/Dropbox/appz/2011/GAE/ddl-lagoon', 'config': '', 'import_models': False, 'winservice': '', 'shell': None, 'run': '', 'log_filename': 'httpserver.log', 'args': [''], 'ssl_ca_certificate': None, 'scheduler': None, 'profiler_filename': None, 'ssl_private_key': '', 'password': 'admin', 'request_queue_size': 5, 'ssl_certificate': '', 'cronjob': False, 'plain': False, 'quiet': False, 'interfaces': None, 'minthreads': None, 'timeout': 10, 'numthreads': None, 'nobanner': False}>"
p2044
asbasbasbag56
(g72
g58
NtRp2045
(dp2046
g61
(dp2047
sg70
g1955
sg63
(lp2048
g56
(g77
g58
NtRp2049
(dp2050
g61
(dp2051
g81
g82
ssg70
g2045
sg63
(lp2052
g976
asbag56
(g77
g58
NtRp2053
(dp2054
g61
(dp2055
g88
g89
ssg70
g2045
sg63
(lp2056
S':'
asbag56
(g77
g58
NtRp2057
(dp2058
g61
(dp2059
sg70
g2045
sg63
(lp2060
g56
(g57
g58
NtRp2061
(dp2062
g61
(dp2063
g69
I4
ssg70
g2057
sg63
(lp2064
S'set([])'
p2065
asbasbasbag56
(g72
g58
NtRp2066
(dp2067
g61
(dp2068
sg70
g1955
sg63
(lp2069
g56
(g77
g58
NtRp2070
(dp2071
g61
(dp2072
g81
g82
ssg70
g2066
sg63
(lp2073
g998
asbag56
(g77
g58
NtRp2074
(dp2075
g61
(dp2076
g88
g89
ssg70
g2066
sg63
(lp2077
S':'
asbag56
(g77
g58
NtRp2078
(dp2079
g61
(dp2080
sg70
g2066
sg63
(lp2081
g56
(g57
g58
NtRp2082
(dp2083
g61
(dp2084
g69
I4
ssg70
g2078
sg63
(lp2085
g99
asbasbasbag56
(g72
g58
NtRp2086
(dp2087
g61
(dp2088
sg70
g1955
sg63
(lp2089
g56
(g77
g58
NtRp2090
(dp2091
g61
(dp2092
g81
g82
ssg70
g2086
sg63
(lp2093
g1019
asbag56
(g77
g58
NtRp2094
(dp2095
g61
(dp2096
g88
g89
ssg70
g2086
sg63
(lp2097
S':'
asbag56
(g77
g58
NtRp2098
(dp2099
g61
(dp2100
sg70
g2086
sg63
(lp2101
g56
(g57
g58
NtRp2102
(dp2103
g61
(dp2104
g69
I4
ssg70
g2098
sg63
(lp2105
g1032
asbasbasbag56
(g72
g58
NtRp2106
(dp2107
g61
(dp2108
sg70
g1955
sg63
(lp2109
g56
(g77
g58
NtRp2110
(dp2111
g61
(dp2112
g81
g82
ssg70
g2106
sg63
(lp2113
g1239
asbag56
(g77
g58
NtRp2114
(dp2115
g61
(dp2116
g88
g89
ssg70
g2106
sg63
(lp2117
S':'
asbag56
(g77
g58
NtRp2118
(dp2119
g61
(dp2120
sg70
g2106
sg63
(lp2121
g56
(g57
g58
NtRp2122
(dp2123
g61
(dp2124
g69
I4
ssg70
g2118
sg63
(lp2125
g99
asbasbasbag56
(g72
g58
NtRp2126
(dp2127
g61
(dp2128
sg70
g1955
sg63
(lp2129
g56
(g77
g58
NtRp2130
(dp2131
g61
(dp2132
g81
g82
ssg70
g2126
sg63
(lp2133
g1498
asbag56
(g77
g58
NtRp2134
(dp2135
g61
(dp2136
g88
g89
ssg70
g2126
sg63
(lp2137
S':'
asbag56
(g77
g58
NtRp2138
(dp2139
g61
(dp2140
sg70
g2126
sg63
(lp2141
g56
(g57
g58
NtRp2142
(dp2143
g61
(dp2144
g69
I4
ssg70
g2138
sg63
(lp2145
g1511
asbasbasbag56
(g72
g58
NtRp2146
(dp2147
g61
(dp2148
sg70
g1955
sg63
(lp2149
g56
(g77
g58
NtRp2150
(dp2151
g61
(dp2152
g81
g82
ssg70
g2146
sg63
(lp2153
g1562
asbag56
(g77
g58
NtRp2154
(dp2155
g61
(dp2156
g88
g89
ssg70
g2146
sg63
(lp2157
S':'
asbag56
(g77
g58
NtRp2158
(dp2159
g61
(dp2160
sg70
g2146
sg63
(lp2161
g56
(g57
g58
NtRp2162
(dp2163
g61
(dp2164
g69
I4
ssg70
g2158
sg63
(lp2165
g56
(g65
g58
NtRp2166
(dp2167
g61
(dp2168
g69
I3
ssg70
Nsg63
(lp2169
g56
(g72
g58
NtRp2170
(dp2171
g61
(dp2172
sg70
g2166
sg63
(lp2173
g56
(g77
g58
NtRp2174
(dp2175
g61
(dp2176
sg70
g2170
sg63
(lp2177
g56
(g57
g58
NtRp2178
(dp2179
g61
(dp2180
g69
I3
ssg70
g2174
sg63
(lp2181
S'1'
asbasbasbag56
(g72
g58
NtRp2182
(dp2183
g61
(dp2184
sg70
g2166
sg63
(lp2185
g56
(g77
g58
NtRp2186
(dp2187
g61
(dp2188
sg70
g2182
sg63
(lp2189
g56
(g57
g58
NtRp2190
(dp2191
g61
(dp2192
g69
I3
ssg70
g2186
sg63
(lp2193
S'99'
p2194
asbasbasbag56
(g72
g58
NtRp2195
(dp2196
g61
(dp2197
sg70
g2166
sg63
(lp2198
g56
(g77
g58
NtRp2199
(dp2200
g61
(dp2201
sg70
g2195
sg63
(lp2202
g56
(g57
g58
NtRp2203
(dp2204
g61
(dp2205
g69
I3
ssg70
g2199
sg63
(lp2206
S'2'
asbasbasbag56
(g72
g58
NtRp2207
(dp2208
g61
(dp2209
sg70
g2166
sg63
(lp2210
g56
(g77
g58
NtRp2211
(dp2212
g61
(dp2213
sg70
g2207
sg63
(lp2214
g56
(g57
g58
NtRp2215
(dp2216
g61
(dp2217
g69
I3
ssg70
g2211
sg63
(lp2218
S'datetime.datetime(2011, 9, 26, 6, 55, 33)'
p2219
asbasbasbag56
(g72
g58
NtRp2220
(dp2221
g61
(dp2222
sg70
g2166
sg63
(lp2223
g56
(g77
g58
NtRp2224
(dp2225
g61
(dp2226
sg70
g2220
sg63
(lp2227
g56
(g57
g58
NtRp2228
(dp2229
g61
(dp2230
g69
I3
ssg70
g2224
sg63
(lp2231
g1641
asbasbasbasbasbasbasbasbasbasbasbag56
(g72
g58
NtRp2232
(dp2233
g61
(dp2234
sg70
g66
sg63
(lp2235
g56
(g77
g58
NtRp2236
(dp2237
g61
(dp2238
g81
g82
ssg70
g2232
sg63
(lp2239
S'is_https'
p2240
asbag56
(g77
g58
NtRp2241
(dp2242
g61
(dp2243
g88
g89
ssg70
g2232
sg63
(lp2244
S':'
asbag56
(g77
g58
NtRp2245
(dp2246
g61
(dp2247
sg70
g2232
sg63
(lp2248
g56
(g57
g58
NtRp2249
(dp2250
g61
(dp2251
g69
I5
ssg70
g2245
sg63
(lp2252
g99
asbasbasbag56
(g72
g58
NtRp2253
(dp2254
g61
(dp2255
sg70
g66
sg63
(lp2256
g56
(g77
g58
NtRp2257
(dp2258
g61
(dp2259
g81
g82
ssg70
g2253
sg63
(lp2260
S'is_local'
p2261
asbag56
(g77
g58
NtRp2262
(dp2263
g61
(dp2264
g88
g89
ssg70
g2253
sg63
(lp2265
S':'
asbag56
(g77
g58
NtRp2266
(dp2267
g61
(dp2268
sg70
g2253
sg63
(lp2269
g56
(g57
g58
NtRp2270
(dp2271
g61
(dp2272
g69
I5
ssg70
g2266
sg63
(lp2273
g1750
asbasbasbag56
(g72
g58
NtRp2274
(dp2275
g61
(dp2276
sg70
g66
sg63
(lp2277
g56
(g77
g58
NtRp2278
(dp2279
g61
(dp2280
g81
g82
ssg70
g2274
sg63
(lp2281
S'is_restful'
p2282
asbag56
(g77
g58
NtRp2283
(dp2284
g61
(dp2285
g88
g89
ssg70
g2274
sg63
(lp2286
S':'
asbag56
(g77
g58
NtRp2287
(dp2288
g61
(dp2289
sg70
g2274
sg63
(lp2290
g56
(g57
g58
NtRp2291
(dp2292
g61
(dp2293
g69
I5
ssg70
g2287
sg63
(lp2294
g99
asbasbasbag56
(g72
g58
NtRp2295
(dp2296
g61
(dp2297
sg70
g66
sg63
(lp2298
g56
(g77
g58
NtRp2299
(dp2300
g61
(dp2301
g81
g82
ssg70
g2295
sg63
(lp2302
S'now'
p2303
asbag56
(g77
g58
NtRp2304
(dp2305
g61
(dp2306
g88
g89
ssg70
g2295
sg63
(lp2307
S':'
asbag56
(g77
g58
NtRp2308
(dp2309
g61
(dp2310
sg70
g2295
sg63
(lp2311
g56
(g57
g58
NtRp2312
(dp2313
g61
(dp2314
g69
I5
ssg70
g2308
sg63
(lp2315
S'datetime.datetime(2011, 10, 27, 11, 47, 49, 187231)'
p2316
asbasbasbag56
(g72
g58
NtRp2317
(dp2318
g61
(dp2319
sg70
g66
sg63
(lp2320
g56
(g77
g58
NtRp2321
(dp2322
g61
(dp2323
g81
g82
ssg70
g2317
sg63
(lp2324
S'post_vars'
p2325
asbag56
(g77
g58
NtRp2326
(dp2327
g61
(dp2328
g88
g89
ssg70
g2317
sg63
(lp2329
S':'
asbag56
(g77
g58
NtRp2330
(dp2331
g61
(dp2332
sg70
g2317
sg63
(lp2333
g56
(g57
g58
NtRp2334
(dp2335
g61
(dp2336
g69
I5
ssg70
g2330
sg63
(lp2337
g56
(g65
g58
NtRp2338
(dp2339
g61
(dp2340
g69
I4
ssg70
Nsg63
(lp2341
sbasbasbasbag56
(g72
g58
NtRp2342
(dp2343
g61
(dp2344
sg70
g66
sg63
(lp2345
g56
(g77
g58
NtRp2346
(dp2347
g61
(dp2348
g81
g82
ssg70
g2342
sg63
(lp2349
S'raw_args'
p2350
asbag56
(g77
g58
NtRp2351
(dp2352
g61
(dp2353
g88
g89
ssg70
g2342
sg63
(lp2354
S':'
asbag56
(g77
g58
NtRp2355
(dp2356
g61
(dp2357
sg70
g2342
sg63
(lp2358
g56
(g57
g58
NtRp2359
(dp2360
g61
(dp2361
g69
I5
ssg70
g2355
sg63
(lp2362
S'run/ddl/14/The_Thing_2011_TS_XviD_READNFO___MiSTERE.avi'
p2363
asbasbasbag56
(g72
g58
NtRp2364
(dp2365
g61
(dp2366
sg70
g66
sg63
(lp2367
g56
(g77
g58
NtRp2368
(dp2369
g61
(dp2370
g81
g82
ssg70
g2364
sg63
(lp2371
S'url'
p2372
asbag56
(g77
g58
NtRp2373
(dp2374
g61
(dp2375
g88
g89
ssg70
g2364
sg63
(lp2376
S':'
asbag56
(g77
g58
NtRp2377
(dp2378
g61
(dp2379
sg70
g2364
sg63
(lp2380
g56
(g57
g58
NtRp2381
(dp2382
g61
(dp2383
g69
I5
ssg70
g2377
sg63
(lp2384
S'/ddlagoon/ddl/get/run/ddl/14/The_Thing_2011_TS_XviD_READNFO___MiSTERE.avi'
p2385
asbasbasbag56
(g72
g58
NtRp2386
(dp2387
g61
(dp2388
sg70
g66
sg63
(lp2389
g56
(g77
g58
NtRp2390
(dp2391
g61
(dp2392
g81
g82
ssg70
g2386
sg63
(lp2393
S'utcnow'
p2394
asbag56
(g77
g58
NtRp2395
(dp2396
g61
(dp2397
g88
g89
ssg70
g2386
sg63
(lp2398
S':'
asbag56
(g77
g58
NtRp2399
(dp2400
g61
(dp2401
sg70
g2386
sg63
(lp2402
g56
(g57
g58
NtRp2403
(dp2404
g61
(dp2405
g69
I5
ssg70
g2399
sg63
(lp2406
S'datetime.datetime(2011, 10, 27, 10, 47, 49, 187271)'
p2407
asbasbasbag56
(g72
g58
NtRp2408
(dp2409
g61
(dp2410
sg70
g66
sg63
(lp2411
g56
(g77
g58
NtRp2412
(dp2413
g61
(dp2414
g81
g82
ssg70
g2408
sg63
(lp2415
S'uuid'
p2416
asbag56
(g77
g58
NtRp2417
(dp2418
g61
(dp2419
g88
g89
ssg70
g2408
sg63
(lp2420
S':'
asbag56
(g77
g58
NtRp2421
(dp2422
g61
(dp2423
sg70
g2408
sg63
(lp2424
g56
(g57
g58
NtRp2425
(dp2426
g61
(dp2427
g69
I5
ssg70
g2421
sg63
(lp2428
S'ddlagoon/127.0.0.1.2011-10-27.11-47-49.7b3c3631-3d30-47a2-a30c-271ffe9f437d'
p2429
asbasbasbag56
(g72
g58
NtRp2430
(dp2431
g61
(dp2432
sg70
g66
sg63
(lp2433
g56
(g77
g58
NtRp2434
(dp2435
g61
(dp2436
g81
g82
ssg70
g2430
sg63
(lp2437
S'vars'
p2438
asbag56
(g77
g58
NtRp2439
(dp2440
g61
(dp2441
g88
g89
ssg70
g2430
sg63
(lp2442
S':'
asbag56
(g77
g58
NtRp2443
(dp2444
g61
(dp2445
sg70
g2430
sg63
(lp2446
g56
(g57
g58
NtRp2447
(dp2448
g61
(dp2449
g69
I5
ssg70
g2443
sg63
(lp2450
g56
(g65
g58
NtRp2451
(dp2452
g61
(dp2453
g69
I4
ssg70
Nsg63
(lp2454
sbasbasbasbag56
(g72
g58
NtRp2455
(dp2456
g61
(dp2457
sg70
g66
sg63
(lp2458
g56
(g77
g58
NtRp2459
(dp2460
g61
(dp2461
g81
g82
ssg70
g2455
sg63
(lp2462
S'wsgi'
p2463
asbag56
(g77
g58
NtRp2464
(dp2465
g61
(dp2466
g88
g89
ssg70
g2455
sg63
(lp2467
S':'
asbag56
(g77
g58
NtRp2468
(dp2469
g61
(dp2470
sg70
g2455
sg63
(lp2471
g56
(g57
g58
NtRp2472
(dp2473
g61
(dp2474
g69
I5
ssg70
g2468
sg63
(lp2475
g56
(g65
g58
NtRp2476
(dp2477
g61
(dp2478
g69
I4
ssg70
Nsg63
(lp2479
g56
(g72
g58
NtRp2480
(dp2481
g61
(dp2482
sg70
g2476
sg63
(lp2483
g56
(g77
g58
NtRp2484
(dp2485
g61
(dp2486
g81
g82
ssg70
g2480
sg63
(lp2487
S'environ'
p2488
asbag56
(g77
g58
NtRp2489
(dp2490
g61
(dp2491
g88
g89
ssg70
g2480
sg63
(lp2492
S':'
asbag56
(g77
g58
NtRp2493
(dp2494
g61
(dp2495
sg70
g2480
sg63
(lp2496
g56
(g57
g58
NtRp2497
(dp2498
g61
(dp2499
g69
I4
ssg70
g2493
sg63
(lp2500
g56
(g65
g58
NtRp2501
(dp2502
g61
(dp2503
g69
I3
ssg70
Nsg63
(lp2504
g56
(g72
g58
NtRp2505
(dp2506
g61
(dp2507
sg70
g2501
sg63
(lp2508
g56
(g77
g58
NtRp2509
(dp2510
g61
(dp2511
g81
g82
ssg70
g2505
sg63
(lp2512
S'HTTP_ACCEPT'
p2513
asbag56
(g77
g58
NtRp2514
(dp2515
g61
(dp2516
g88
g89
ssg70
g2505
sg63
(lp2517
S':'
asbag56
(g77
g58
NtRp2518
(dp2519
g61
(dp2520
sg70
g2505
sg63
(lp2521
g56
(g57
g58
NtRp2522
(dp2523
g61
(dp2524
g69
I3
ssg70
g2518
sg63
(lp2525
g1054
asbasbasbag56
(g72
g58
NtRp2526
(dp2527
g61
(dp2528
sg70
g2501
sg63
(lp2529
g56
(g77
g58
NtRp2530
(dp2531
g61
(dp2532
g81
g82
ssg70
g2526
sg63
(lp2533
S'HTTP_ACCEPT_CHARSET'
p2534
asbag56
(g77
g58
NtRp2535
(dp2536
g61
(dp2537
g88
g89
ssg70
g2526
sg63
(lp2538
S':'
asbag56
(g77
g58
NtRp2539
(dp2540
g61
(dp2541
sg70
g2526
sg63
(lp2542
g56
(g57
g58
NtRp2543
(dp2544
g61
(dp2545
g69
I3
ssg70
g2539
sg63
(lp2546
g1076
asbasbasbag56
(g72
g58
NtRp2547
(dp2548
g61
(dp2549
sg70
g2501
sg63
(lp2550
g56
(g77
g58
NtRp2551
(dp2552
g61
(dp2553
g81
g82
ssg70
g2547
sg63
(lp2554
S'HTTP_ACCEPT_ENCODING'
p2555
asbag56
(g77
g58
NtRp2556
(dp2557
g61
(dp2558
g88
g89
ssg70
g2547
sg63
(lp2559
S':'
asbag56
(g77
g58
NtRp2560
(dp2561
g61
(dp2562
sg70
g2547
sg63
(lp2563
g56
(g57
g58
NtRp2564
(dp2565
g61
(dp2566
g69
I3
ssg70
g2560
sg63
(lp2567
g1098
asbasbasbag56
(g72
g58
NtRp2568
(dp2569
g61
(dp2570
sg70
g2501
sg63
(lp2571
g56
(g77
g58
NtRp2572
(dp2573
g61
(dp2574
g81
g82
ssg70
g2568
sg63
(lp2575
S'HTTP_ACCEPT_LANGUAGE'
p2576
asbag56
(g77
g58
NtRp2577
(dp2578
g61
(dp2579
g88
g89
ssg70
g2568
sg63
(lp2580
S':'
asbag56
(g77
g58
NtRp2581
(dp2582
g61
(dp2583
sg70
g2568
sg63
(lp2584
g56
(g57
g58
NtRp2585
(dp2586
g61
(dp2587
g69
I3
ssg70
g2581
sg63
(lp2588
g1120
asbasbasbag56
(g72
g58
NtRp2589
(dp2590
g61
(dp2591
sg70
g2501
sg63
(lp2592
g56
(g77
g58
NtRp2593
(dp2594
g61
(dp2595
g81
g82
ssg70
g2589
sg63
(lp2596
S'HTTP_CACHE_CONTROL'
p2597
asbag56
(g77
g58
NtRp2598
(dp2599
g61
(dp2600
g88
g89
ssg70
g2589
sg63
(lp2601
S':'
asbag56
(g77
g58
NtRp2602
(dp2603
g61
(dp2604
sg70
g2589
sg63
(lp2605
g56
(g57
g58
NtRp2606
(dp2607
g61
(dp2608
g69
I3
ssg70
g2602
sg63
(lp2609
g1142
asbasbasbag56
(g72
g58
NtRp2610
(dp2611
g61
(dp2612
sg70
g2501
sg63
(lp2613
g56
(g77
g58
NtRp2614
(dp2615
g61
(dp2616
g81
g82
ssg70
g2610
sg63
(lp2617
S'HTTP_CONNECTION'
p2618
asbag56
(g77
g58
NtRp2619
(dp2620
g61
(dp2621
g88
g89
ssg70
g2610
sg63
(lp2622
S':'
asbag56
(g77
g58
NtRp2623
(dp2624
g61
(dp2625
sg70
g2610
sg63
(lp2626
g56
(g57
g58
NtRp2627
(dp2628
g61
(dp2629
g69
I3
ssg70
g2623
sg63
(lp2630
g1164
asbasbasbag56
(g72
g58
NtRp2631
(dp2632
g61
(dp2633
sg70
g2501
sg63
(lp2634
g56
(g77
g58
NtRp2635
(dp2636
g61
(dp2637
g81
g82
ssg70
g2631
sg63
(lp2638
S'HTTP_COOKIE'
p2639
asbag56
(g77
g58
NtRp2640
(dp2641
g61
(dp2642
g88
g89
ssg70
g2631
sg63
(lp2643
S':'
asbag56
(g77
g58
NtRp2644
(dp2645
g61
(dp2646
sg70
g2631
sg63
(lp2647
g56
(g57
g58
NtRp2648
(dp2649
g61
(dp2650
g69
I3
ssg70
g2644
sg63
(lp2651
g1186
asbasbasbag56
(g72
g58
NtRp2652
(dp2653
g61
(dp2654
sg70
g2501
sg63
(lp2655
g56
(g77
g58
NtRp2656
(dp2657
g61
(dp2658
g81
g82
ssg70
g2652
sg63
(lp2659
S'HTTP_HOST'
p2660
asbag56
(g77
g58
NtRp2661
(dp2662
g61
(dp2663
g88
g89
ssg70
g2652
sg63
(lp2664
S':'
asbag56
(g77
g58
NtRp2665
(dp2666
g61
(dp2667
sg70
g2652
sg63
(lp2668
g56
(g57
g58
NtRp2669
(dp2670
g61
(dp2671
g69
I3
ssg70
g2665
sg63
(lp2672
g1208
asbasbasbag56
(g72
g58
NtRp2673
(dp2674
g61
(dp2675
sg70
g2501
sg63
(lp2676
g56
(g77
g58
NtRp2677
(dp2678
g61
(dp2679
g81
g82
ssg70
g2673
sg63
(lp2680
S'HTTP_USER_AGENT'
p2681
asbag56
(g77
g58
NtRp2682
(dp2683
g61
(dp2684
g88
g89
ssg70
g2673
sg63
(lp2685
S':'
asbag56
(g77
g58
NtRp2686
(dp2687
g61
(dp2688
sg70
g2673
sg63
(lp2689
g56
(g57
g58
NtRp2690
(dp2691
g61
(dp2692
g69
I3
ssg70
g2686
sg63
(lp2693
g1230
asbasbasbag56
(g72
g58
NtRp2694
(dp2695
g61
(dp2696
sg70
g2501
sg63
(lp2697
g56
(g77
g58
NtRp2698
(dp2699
g61
(dp2700
g81
g82
ssg70
g2694
sg63
(lp2701
S'PATH_INFO'
p2702
asbag56
(g77
g58
NtRp2703
(dp2704
g61
(dp2705
g88
g89
ssg70
g2694
sg63
(lp2706
S':'
asbag56
(g77
g58
NtRp2707
(dp2708
g61
(dp2709
sg70
g2694
sg63
(lp2710
g56
(g57
g58
NtRp2711
(dp2712
g61
(dp2713
g69
I3
ssg70
g2707
sg63
(lp2714
g1273
asbasbasbag56
(g72
g58
NtRp2715
(dp2716
g61
(dp2717
sg70
g2501
sg63
(lp2718
g56
(g77
g58
NtRp2719
(dp2720
g61
(dp2721
g81
g82
ssg70
g2715
sg63
(lp2722
S'QUERY_STRING'
p2723
asbag56
(g77
g58
NtRp2724
(dp2725
g61
(dp2726
g88
g89
ssg70
g2715
sg63
(lp2727
S':'
asbag56
(g77
g58
NtRp2728
(dp2729
g61
(dp2730
sg70
g2715
sg63
(lp2731
g56
(g57
g58
NtRp2732
(dp2733
g61
(dp2734
g69
I3
ssg70
g2728
sg63
(lp2735
S''
asbasbasbag56
(g72
g58
NtRp2736
(dp2737
g61
(dp2738
sg70
g2501
sg63
(lp2739
g56
(g77
g58
NtRp2740
(dp2741
g61
(dp2742
g81
g82
ssg70
g2736
sg63
(lp2743
S'REMOTE_ADDR'
p2744
asbag56
(g77
g58
NtRp2745
(dp2746
g61
(dp2747
g88
g89
ssg70
g2736
sg63
(lp2748
S':'
asbag56
(g77
g58
NtRp2749
(dp2750
g61
(dp2751
sg70
g2736
sg63
(lp2752
g56
(g57
g58
NtRp2753
(dp2754
g61
(dp2755
g69
I3
ssg70
g2749
sg63
(lp2756
g241
asbasbasbag56
(g72
g58
NtRp2757
(dp2758
g61
(dp2759
sg70
g2501
sg63
(lp2760
g56
(g77
g58
NtRp2761
(dp2762
g61
(dp2763
g81
g82
ssg70
g2757
sg63
(lp2764
S'REMOTE_PORT'
p2765
asbag56
(g77
g58
NtRp2766
(dp2767
g61
(dp2768
g88
g89
ssg70
g2757
sg63
(lp2769
S':'
asbag56
(g77
g58
NtRp2770
(dp2771
g61
(dp2772
sg70
g2757
sg63
(lp2773
g56
(g57
g58
NtRp2774
(dp2775
g61
(dp2776
g69
I3
ssg70
g2770
sg63
(lp2777
g1337
asbasbasbag56
(g72
g58
NtRp2778
(dp2779
g61
(dp2780
sg70
g2501
sg63
(lp2781
g56
(g77
g58
NtRp2782
(dp2783
g61
(dp2784
g81
g82
ssg70
g2778
sg63
(lp2785
S'REQUEST_METHOD'
p2786
asbag56
(g77
g58
NtRp2787
(dp2788
g61
(dp2789
g88
g89
ssg70
g2778
sg63
(lp2790
S':'
asbag56
(g77
g58
NtRp2791
(dp2792
g61
(dp2793
sg70
g2778
sg63
(lp2794
g56
(g57
g58
NtRp2795
(dp2796
g61
(dp2797
g69
I3
ssg70
g2791
sg63
(lp2798
g1359
asbasbasbag56
(g72
g58
NtRp2799
(dp2800
g61
(dp2801
sg70
g2501
sg63
(lp2802
g56
(g77
g58
NtRp2803
(dp2804
g61
(dp2805
g81
g82
ssg70
g2799
sg63
(lp2806
S'REQUEST_URI'
p2807
asbag56
(g77
g58
NtRp2808
(dp2809
g61
(dp2810
g88
g89
ssg70
g2799
sg63
(lp2811
S':'
asbag56
(g77
g58
NtRp2812
(dp2813
g61
(dp2814
sg70
g2799
sg63
(lp2815
g56
(g57
g58
NtRp2816
(dp2817
g61
(dp2818
g69
I3
ssg70
g2812
sg63
(lp2819
g1273
asbasbasbag56
(g72
g58
NtRp2820
(dp2821
g61
(dp2822
sg70
g2501
sg63
(lp2823
g56
(g77
g58
NtRp2824
(dp2825
g61
(dp2826
g81
g82
ssg70
g2820
sg63
(lp2827
S'SCRIPT_NAME'
p2828
asbag56
(g77
g58
NtRp2829
(dp2830
g61
(dp2831
g88
g89
ssg70
g2820
sg63
(lp2832
S':'
asbag56
(g77
g58
NtRp2833
(dp2834
g61
(dp2835
sg70
g2820
sg63
(lp2836
g56
(g57
g58
NtRp2837
(dp2838
g61
(dp2839
g69
I3
ssg70
g2833
sg63
(lp2840
S''
asbasbasbag56
(g72
g58
NtRp2841
(dp2842
g61
(dp2843
sg70
g2501
sg63
(lp2844
g56
(g77
g58
NtRp2845
(dp2846
g61
(dp2847
g81
g82
ssg70
g2841
sg63
(lp2848
S'SERVER_NAME'
p2849
asbag56
(g77
g58
NtRp2850
(dp2851
g61
(dp2852
g88
g89
ssg70
g2841
sg63
(lp2853
S':'
asbag56
(g77
g58
NtRp2854
(dp2855
g61
(dp2856
sg70
g2841
sg63
(lp2857
g56
(g57
g58
NtRp2858
(dp2859
g61
(dp2860
g69
I3
ssg70
g2854
sg63
(lp2861
g1423
asbasbasbag56
(g72
g58
NtRp2862
(dp2863
g61
(dp2864
sg70
g2501
sg63
(lp2865
g56
(g77
g58
NtRp2866
(dp2867
g61
(dp2868
g81
g82
ssg70
g2862
sg63
(lp2869
S'SERVER_PORT'
p2870
asbag56
(g77
g58
NtRp2871
(dp2872
g61
(dp2873
g88
g89
ssg70
g2862
sg63
(lp2874
S':'
asbag56
(g77
g58
NtRp2875
(dp2876
g61
(dp2877
sg70
g2862
sg63
(lp2878
g56
(g57
g58
NtRp2879
(dp2880
g61
(dp2881
g69
I3
ssg70
g2875
sg63
(lp2882
g1445
asbasbasbag56
(g72
g58
NtRp2883
(dp2884
g61
(dp2885
sg70
g2501
sg63
(lp2886
g56
(g77
g58
NtRp2887
(dp2888
g61
(dp2889
g81
g82
ssg70
g2883
sg63
(lp2890
S'SERVER_PROTOCOL'
p2891
asbag56
(g77
g58
NtRp2892
(dp2893
g61
(dp2894
g88
g89
ssg70
g2883
sg63
(lp2895
S':'
asbag56
(g77
g58
NtRp2896
(dp2897
g61
(dp2898
sg70
g2883
sg63
(lp2899
g56
(g57
g58
NtRp2900
(dp2901
g61
(dp2902
g69
I3
ssg70
g2896
sg63
(lp2903
g1467
asbasbasbag56
(g72
g58
NtRp2904
(dp2905
g61
(dp2906
sg70
g2501
sg63
(lp2907
g56
(g77
g58
NtRp2908
(dp2909
g61
(dp2910
g81
g82
ssg70
g2904
sg63
(lp2911
S'SERVER_SOFTWARE'
p2912
asbag56
(g77
g58
NtRp2913
(dp2914
g61
(dp2915
g88
g89
ssg70
g2904
sg63
(lp2916
S':'
asbag56
(g77
g58
NtRp2917
(dp2918
g61
(dp2919
sg70
g2904
sg63
(lp2920
g56
(g57
g58
NtRp2921
(dp2922
g61
(dp2923
g69
I3
ssg70
g2917
sg63
(lp2924
g1489
asbasbasbag56
(g72
g58
NtRp2925
(dp2926
g61
(dp2927
sg70
g2501
sg63
(lp2928
g56
(g77
g58
NtRp2929
(dp2930
g61
(dp2931
g81
g82
ssg70
g2925
sg63
(lp2932
S'WEB2PY_ORIGINAL_URI'
p2933
asbag56
(g77
g58
NtRp2934
(dp2935
g61
(dp2936
g88
g89
ssg70
g2925
sg63
(lp2937
S':'
asbag56
(g77
g58
NtRp2938
(dp2939
g61
(dp2940
sg70
g2925
sg63
(lp2941
g56
(g57
g58
NtRp2942
(dp2943
g61
(dp2944
g69
I3
ssg70
g2938
sg63
(lp2945
g1273
asbasbasbag56
(g72
g58
NtRp2946
(dp2947
g61
(dp2948
sg70
g2501
sg63
(lp2949
g56
(g77
g58
NtRp2950
(dp2951
g61
(dp2952
g81
g82
ssg70
g2946
sg63
(lp2953
S'wsgi.errors'
p2954
asbag56
(g77
g58
NtRp2955
(dp2956
g61
(dp2957
g88
g89
ssg70
g2946
sg63
(lp2958
S':'
asbag56
(g77
g58
NtRp2959
(dp2960
g61
(dp2961
sg70
g2946
sg63
(lp2962
g56
(g57
g58
NtRp2963
(dp2964
g61
(dp2965
g69
I3
ssg70
g2959
sg63
(lp2966
S"<open file '<stderr>', mode 'w' at 0x7f0d1464c1e0>"
p2967
asbasbasbag56
(g72
g58
NtRp2968
(dp2969
g61
(dp2970
sg70
g2501
sg63
(lp2971
g56
(g77
g58
NtRp2972
(dp2973
g61
(dp2974
g81
g82
ssg70
g2968
sg63
(lp2975
S'wsgi.file_wrapper'
p2976
asbag56
(g77
g58
NtRp2977
(dp2978
g61
(dp2979
g88
g89
ssg70
g2968
sg63
(lp2980
S':'
asbag56
(g77
g58
NtRp2981
(dp2982
g61
(dp2983
sg70
g2968
sg63
(lp2984
g56
(g57
g58
NtRp2985
(dp2986
g61
(dp2987
g69
I3
ssg70
g2981
sg63
(lp2988
S'<class wsgiref.util.FileWrapper at 0x24c5110>'
p2989
asbasbasbag56
(g72
g58
NtRp2990
(dp2991
g61
(dp2992
sg70
g2501
sg63
(lp2993
g56
(g77
g58
NtRp2994
(dp2995
g61
(dp2996
g81
g82
ssg70
g2990
sg63
(lp2997
S'wsgi.input'
p2998
asbag56
(g77
g58
NtRp2999
(dp3000
g61
(dp3001
g88
g89
ssg70
g2990
sg63
(lp3002
S':'
asbag56
(g77
g58
NtRp3003
(dp3004
g61
(dp3005
sg70
g2990
sg63
(lp3006
g56
(g57
g58
NtRp3007
(dp3008
g61
(dp3009
g69
I3
ssg70
g3003
sg63
(lp3010
S'<cStringIO.StringO object at 0x3d626f8>'
p3011
asbasbasbag56
(g72
g58
NtRp3012
(dp3013
g61
(dp3014
sg70
g2501
sg63
(lp3015
g56
(g77
g58
NtRp3016
(dp3017
g61
(dp3018
g81
g82
ssg70
g3012
sg63
(lp3019
S'wsgi.multiprocess'
p3020
asbag56
(g77
g58
NtRp3021
(dp3022
g61
(dp3023
g88
g89
ssg70
g3012
sg63
(lp3024
S':'
asbag56
(g77
g58
NtRp3025
(dp3026
g61
(dp3027
sg70
g3012
sg63
(lp3028
g56
(g57
g58
NtRp3029
(dp3030
g61
(dp3031
g69
I3
ssg70
g3025
sg63
(lp3032
g99
asbasbasbag56
(g72
g58
NtRp3033
(dp3034
g61
(dp3035
sg70
g2501
sg63
(lp3036
g56
(g77
g58
NtRp3037
(dp3038
g61
(dp3039
g81
g82
ssg70
g3033
sg63
(lp3040
S'wsgi.multithread'
p3041
asbag56
(g77
g58
NtRp3042
(dp3043
g61
(dp3044
g88
g89
ssg70
g3033
sg63
(lp3045
S':'
asbag56
(g77
g58
NtRp3046
(dp3047
g61
(dp3048
sg70
g3033
sg63
(lp3049
g56
(g57
g58
NtRp3050
(dp3051
g61
(dp3052
g69
I3
ssg70
g3046
sg63
(lp3053
g1750
asbasbasbag56
(g72
g58
NtRp3054
(dp3055
g61
(dp3056
sg70
g2501
sg63
(lp3057
g56
(g77
g58
NtRp3058
(dp3059
g61
(dp3060
g81
g82
ssg70
g3054
sg63
(lp3061
S'wsgi.run_once'
p3062
asbag56
(g77
g58
NtRp3063
(dp3064
g61
(dp3065
g88
g89
ssg70
g3054
sg63
(lp3066
S':'
asbag56
(g77
g58
NtRp3067
(dp3068
g61
(dp3069
sg70
g3054
sg63
(lp3070
g56
(g57
g58
NtRp3071
(dp3072
g61
(dp3073
g69
I3
ssg70
g3067
sg63
(lp3074
g99
asbasbasbag56
(g72
g58
NtRp3075
(dp3076
g61
(dp3077
sg70
g2501
sg63
(lp3078
g56
(g77
g58
NtRp3079
(dp3080
g61
(dp3081
g81
g82
ssg70
g3075
sg63
(lp3082
S'wsgi.url_scheme'
p3083
asbag56
(g77
g58
NtRp3084
(dp3085
g61
(dp3086
g88
g89
ssg70
g3075
sg63
(lp3087
S':'
asbag56
(g77
g58
NtRp3088
(dp3089
g61
(dp3090
sg70
g3075
sg63
(lp3091
g56
(g57
g58
NtRp3092
(dp3093
g61
(dp3094
g69
I3
ssg70
g3088
sg63
(lp3095
g1793
asbasbasbag56
(g72
g58
NtRp3096
(dp3097
g61
(dp3098
sg70
g2501
sg63
(lp3099
g56
(g77
g58
NtRp3100
(dp3101
g61
(dp3102
g81
g82
ssg70
g3096
sg63
(lp3103
S'wsgi.version'
p3104
asbag56
(g77
g58
NtRp3105
(dp3106
g61
(dp3107
g88
g89
ssg70
g3096
sg63
(lp3108
S':'
asbag56
(g77
g58
NtRp3109
(dp3110
g61
(dp3111
sg70
g3096
sg63
(lp3112
g56
(g57
g58
NtRp3113
(dp3114
g61
(dp3115
g69
I3
ssg70
g3109
sg63
(lp3116
S'1'
asbasbasbasbasbasbasbasbasbasbasbasbasbsS'frames'
p3117
(lp3118
(dp3119
S'file'
p3120
S'/windows/Users/Thomas/Dropbox/appz/2011/GAE/ddl-lagoon/gluon/restricted.py'
p3121
sS'dump'
p3122
(dp3123
S'environment'
p3124
S"{'A': <class 'gluon.html.A'>, 'Auth': <class 'gluon.tools.Auth'>, 'B': <class 'gluon.html.B'>, 'BEAUTIFY': <class 'gluon.html.BEAUTIFY'>, 'BODY': <class 'gluon.html.BODY'>, 'BR': <class 'gluon.html.BR'>, 'BUTTON': <class 'gluon.html.BUTTON'>, 'CAT': <class 'gluon.html.CAT'>, 'CENTER': <class 'gluon.html.CENTER'>, 'CLEANUP': <class 'gluon.validators.CLEANUP'>, ...}"
p3125
sS'ccode'
p3126
S'<code object <module> at 0x3d4cf30, file "/windo...pplications/ddlagoon/controllers/ddl.py", line 1>'
p3127
ssS'lnum'
p3128
I194
sS'lines'
p3129
(dp3130
I192
S'        else:'
p3131
sI193
S'            ccode = compile2(code,layer)'
p3132
sI194
S'        exec ccode in environment'
p3133
sI195
S'    except HTTP:'
p3134
sI196
S'        raise'
p3135
sI197
S'    except Exception, error:'
p3136
sI198
S'        # XXX Show exception in Wing IDE if running in debugger'
p3137
sI189
S'    try:'
p3138
sI190
S'        if type(code) == types.CodeType:'
p3139
sI191
S'            ccode = code'
p3140
ssS'call'
p3141
S"(code='import tempfile\\nfrom time import mktime\\nfrom def...ncryptedMsg\\nresponse._vars=response._caller(get)\\n', environment={'A': <class 'gluon.html.A'>, 'Auth': <class 'gluon.tools.Auth'>, 'B': <class 'gluon.html.B'>, 'BEAUTIFY': <class 'gluon.html.BEAUTIFY'>, 'BODY': <class 'gluon.html.BODY'>, 'BR': <class 'gluon.html.BR'>, 'BUTTON': <class 'gluon.html.BUTTON'>, 'CAT': <class 'gluon.html.CAT'>, 'CENTER': <class 'gluon.html.CENTER'>, 'CLEANUP': <class 'gluon.validators.CLEANUP'>, ...}, layer='/windows/Users/Thomas/Dropbox/appz/2011/GAE/ddl-lagoon/applications/ddlagoon/controllers/ddl.py')"
p3142
sS'func'
p3143
S'restricted'
p3144
sa(dp3145
g3120
S'/windows/Users/Thomas/Dropbox/appz/2011/GAE/ddl-lagoon/applications/ddlagoon/controllers/ddl.py'
p3146
sg3122
(dp3147
S'default'
p3148
S'undefined'
p3149
sS'encryptForClient'
p3150
g3149
ssg3128
I3
sg3129
(dp3151
I2
S'from time import mktime'
p3152
sI3
S'from default import encryptForClient'
p3153
sI4
S''
sI5
S'if False:'
p3154
sI6
S'    from gluon.contrib.pysimplesoap.client import response'
p3155
sI7
S'    from gluon.contrib.pysimplesoap.server import request'
p3156
sI8
S'    from applications.ddlagoon.models.db import service, db'
p3157
sI9
S''
sI10
S'from gluon.contrib import simplejson as json'
p3158
sI11
S''
ssg3141
S'()'
p3159
sg3143
S'<module>'
p3160
sa(dp3161
g3120
S'/windows/Users/Thomas/Dropbox/appz/2011/GAE/ddl-lagoon/gluon/custom_import.py'
p3162
sg3122
(dp3163
S'fromlist'
p3164
S"('encryptForClient',)"
p3165
sS'level'
p3166
S'-1'
p3167
ssg3128
I294
sg3129
(dp3168
I289
S'                            .__call__(modules_prefix+"."+name,'
p3169
sI290
S'                                    globals, locals, fromlist, level)'
p3170
sI291
S'                except ImportError:'
p3171
sI292
S'                    pass'
p3172
sI293
S'        return super(_Web2pyImporter, self).__call__(name, globals, locals,'
p3173
sI294
S'                                                    fromlist, level)'
p3174
sI295
S'        #except Exception, e:'
p3175
sI296
S"        #    raise e  # Don't hide something that went wrong"
p3176
sI297
S'        #finally:'
p3177
sI298
S'        self.end()'
p3178
ssg3141
S"(self=<gluon.custom_import._Web2pyImporter object>, name='default', globals={'A': <class 'gluon.html.A'>, 'Auth': <class 'gluon.tools.Auth'>, 'B': <class 'gluon.html.B'>, 'BEAUTIFY': <class 'gluon.html.BEAUTIFY'>, 'BODY': <class 'gluon.html.BODY'>, 'BR': <class 'gluon.html.BR'>, 'BUTTON': <class 'gluon.html.BUTTON'>, 'CAT': <class 'gluon.html.CAT'>, 'CENTER': <class 'gluon.html.CENTER'>, 'CLEANUP': <class 'gluon.validators.CLEANUP'>, ...}, locals={'A': <class 'gluon.html.A'>, 'Auth': <class 'gluon.tools.Auth'>, 'B': <class 'gluon.html.B'>, 'BEAUTIFY': <class 'gluon.html.BEAUTIFY'>, 'BODY': <class 'gluon.html.BODY'>, 'BR': <class 'gluon.html.BR'>, 'BUTTON': <class 'gluon.html.BUTTON'>, 'CAT': <class 'gluon.html.CAT'>, 'CENTER': <class 'gluon.html.CENTER'>, 'CLEANUP': <class 'gluon.validators.CLEANUP'>, ...}, fromlist=('encryptForClient',), level=-1)"
p3179
sg3143
S'__call__'
p3180
sa(dp3181
g3120
S'/windows/Users/Thomas/Dropbox/appz/2011/GAE/ddl-lagoon/gluon/custom_import.py'
p3182
sg3122
(dp3183
S'level'
p3184
S'-1'
p3185
ssg3128
I78
sg3129
(dp3186
I73
S'        """'
p3187
sI74
S'        return _STANDARD_PYTHON_IMPORTER(name,'
p3188
sI75
S'\t\t\t\t\t globals,'
p3189
sI76
S'\t\t\t\t\t locals,'
p3190
sI77
S'\t\t\t\t\t fromlist,'
p3191
sI78
S'                                         level)'
p3192
sI79
S''
sI80
S'    def end(self):'
p3193
sI81
S'        """'
p3194
sI82
S'        Needed for clean up.'
p3195
ssg3141
S"(self=<gluon.custom_import._Web2pyImporter object>, name='default', globals={'A': <class 'gluon.html.A'>, 'Auth': <class 'gluon.tools.Auth'>, 'B': <class 'gluon.html.B'>, 'BEAUTIFY': <class 'gluon.html.BEAUTIFY'>, 'BODY': <class 'gluon.html.BODY'>, 'BR': <class 'gluon.html.BR'>, 'BUTTON': <class 'gluon.html.BUTTON'>, 'CAT': <class 'gluon.html.CAT'>, 'CENTER': <class 'gluon.html.CENTER'>, 'CLEANUP': <class 'gluon.validators.CLEANUP'>, ...}, locals={'A': <class 'gluon.html.A'>, 'Auth': <class 'gluon.tools.Auth'>, 'B': <class 'gluon.html.B'>, 'BEAUTIFY': <class 'gluon.html.BEAUTIFY'>, 'BODY': <class 'gluon.html.BODY'>, 'BR': <class 'gluon.html.BR'>, 'BUTTON': <class 'gluon.html.BUTTON'>, 'CAT': <class 'gluon.html.CAT'>, 'CENTER': <class 'gluon.html.CENTER'>, 'CLEANUP': <class 'gluon.validators.CLEANUP'>, ...}, fromlist=('encryptForClient',), level=-1)"
p3196
sg3143
g3180
sasS'pyver'
p3197
S'Python 2.6.7: /usr/bin/python2.6'
p3198
sS'session'
p3199
g56
(g57
g58
NtRp3200
(dp3201
g61
(dp3202
sg63
(lp3203
g56
(g65
g58
NtRp3204
(dp3205
g61
(dp3206
g69
I5
ssg70
Nsg63
(lp3207
sbasbsS'etype'
p3208
S"<type 'exceptions.ImportError'>"
p3209
sS'date'
p3210
S'Thu Oct 27 11:47:49 2011'
p3211
sS'response'
p3212
g56
(g57
g58
NtRp3213
(dp3214
g61
(dp3215
sg63
(lp3216
g56
(g65
g58
NtRp3217
(dp3218
g61
(dp3219
g69
I5
ssg70
Nsg63
(lp3220
g56
(g72
g58
NtRp3221
(dp3222
g61
(dp3223
sg70
g3217
sg63
(lp3224
g56
(g77
g58
NtRp3225
(dp3226
g61
(dp3227
g81
g82
ssg70
g3221
sg63
(lp3228
g206
asbag56
(g77
g58
NtRp3229
(dp3230
g61
(dp3231
g88
g89
ssg70
g3221
sg63
(lp3232
S':'
asbag56
(g77
g58
NtRp3233
(dp3234
g61
(dp3235
sg70
g3221
sg63
(lp3236
g56
(g57
g58
NtRp3237
(dp3238
g61
(dp3239
g69
I5
ssg70
g3233
sg63
(lp3240
S'<cStringIO.StringO object at 0x32deab0>'
p3241
asbasbasbag56
(g72
g58
NtRp3242
(dp3243
g61
(dp3244
sg70
g3217
sg63
(lp3245
g56
(g77
g58
NtRp3246
(dp3247
g61
(dp3248
g81
g82
ssg70
g3242
sg63
(lp3249
g272
asbag56
(g77
g58
NtRp3250
(dp3251
g61
(dp3252
g88
g89
ssg70
g3242
sg63
(lp3253
S':'
asbag56
(g77
g58
NtRp3254
(dp3255
g61
(dp3256
sg70
g3242
sg63
(lp3257
g56
(g57
g58
NtRp3258
(dp3259
g61
(dp3260
g69
I5
ssg70
g3254
sg63
(lp3261
g56
(g65
g58
NtRp3262
(dp3263
g61
(dp3264
g69
I4
ssg70
Nsg63
(lp3265
g56
(g72
g58
NtRp3266
(dp3267
g61
(dp3268
sg70
g3262
sg63
(lp3269
g56
(g77
g58
NtRp3270
(dp3271
g61
(dp3272
g81
g82
ssg70
g3266
sg63
(lp3273
S'session_id_ddlagoon'
p3274
asbag56
(g77
g58
NtRp3275
(dp3276
g61
(dp3277
g88
g89
ssg70
g3266
sg63
(lp3278
S':'
asbag56
(g77
g58
NtRp3279
(dp3280
g61
(dp3281
sg70
g3266
sg63
(lp3282
g56
(g57
g58
NtRp3283
(dp3284
g61
(dp3285
g69
I4
ssg70
g3279
sg63
(lp3286
g56
(g65
g58
NtRp3287
(dp3288
g61
(dp3289
g69
I3
ssg70
Nsg63
(lp3290
g56
(g72
g58
NtRp3291
(dp3292
g61
(dp3293
sg70
g3287
sg63
(lp3294
g56
(g77
g58
NtRp3295
(dp3296
g61
(dp3297
g81
g82
ssg70
g3291
sg63
(lp3298
g322
asbag56
(g77
g58
NtRp3299
(dp3300
g61
(dp3301
g88
g89
ssg70
g3291
sg63
(lp3302
S':'
asbag56
(g77
g58
NtRp3303
(dp3304
g61
(dp3305
sg70
g3291
sg63
(lp3306
g56
(g57
g58
NtRp3307
(dp3308
g61
(dp3309
g69
I3
ssg70
g3303
sg63
(lp3310
S''
asbasbasbag56
(g72
g58
NtRp3311
(dp3312
g61
(dp3313
sg70
g3287
sg63
(lp3314
g56
(g77
g58
NtRp3315
(dp3316
g61
(dp3317
g81
g82
ssg70
g3311
sg63
(lp3318
g343
asbag56
(g77
g58
NtRp3319
(dp3320
g61
(dp3321
g88
g89
ssg70
g3311
sg63
(lp3322
S':'
asbag56
(g77
g58
NtRp3323
(dp3324
g61
(dp3325
sg70
g3311
sg63
(lp3326
g56
(g57
g58
NtRp3327
(dp3328
g61
(dp3329
g69
I3
ssg70
g3323
sg63
(lp3330
S''
asbasbasbag56
(g72
g58
NtRp3331
(dp3332
g61
(dp3333
sg70
g3287
sg63
(lp3334
g56
(g77
g58
NtRp3335
(dp3336
g61
(dp3337
g81
g82
ssg70
g3331
sg63
(lp3338
g364
asbag56
(g77
g58
NtRp3339
(dp3340
g61
(dp3341
g88
g89
ssg70
g3331
sg63
(lp3342
S':'
asbag56
(g77
g58
NtRp3343
(dp3344
g61
(dp3345
sg70
g3331
sg63
(lp3346
g56
(g57
g58
NtRp3347
(dp3348
g61
(dp3349
g69
I3
ssg70
g3343
sg63
(lp3350
S''
asbasbasbag56
(g72
g58
NtRp3351
(dp3352
g61
(dp3353
sg70
g3287
sg63
(lp3354
g56
(g77
g58
NtRp3355
(dp3356
g61
(dp3357
g81
g82
ssg70
g3351
sg63
(lp3358
g385
asbag56
(g77
g58
NtRp3359
(dp3360
g61
(dp3361
g88
g89
ssg70
g3351
sg63
(lp3362
S':'
asbag56
(g77
g58
NtRp3363
(dp3364
g61
(dp3365
sg70
g3351
sg63
(lp3366
g56
(g57
g58
NtRp3367
(dp3368
g61
(dp3369
g69
I3
ssg70
g3363
sg63
(lp3370
S''
asbasbasbag56
(g72
g58
NtRp3371
(dp3372
g61
(dp3373
sg70
g3287
sg63
(lp3374
g56
(g77
g58
NtRp3375
(dp3376
g61
(dp3377
g81
g82
ssg70
g3371
sg63
(lp3378
g406
asbag56
(g77
g58
NtRp3379
(dp3380
g61
(dp3381
g88
g89
ssg70
g3371
sg63
(lp3382
S':'
asbag56
(g77
g58
NtRp3383
(dp3384
g61
(dp3385
sg70
g3371
sg63
(lp3386
g56
(g57
g58
NtRp3387
(dp3388
g61
(dp3389
g69
I3
ssg70
g3383
sg63
(lp3390
S''
asbasbasbag56
(g72
g58
NtRp3391
(dp3392
g61
(dp3393
sg70
g3287
sg63
(lp3394
g56
(g77
g58
NtRp3395
(dp3396
g61
(dp3397
g81
g82
ssg70
g3391
sg63
(lp3398
g427
asbag56
(g77
g58
NtRp3399
(dp3400
g61
(dp3401
g88
g89
ssg70
g3391
sg63
(lp3402
S':'
asbag56
(g77
g58
NtRp3403
(dp3404
g61
(dp3405
sg70
g3391
sg63
(lp3406
g56
(g57
g58
NtRp3407
(dp3408
g61
(dp3409
g69
I3
ssg70
g3403
sg63
(lp3410
S'/'
asbasbasbag56
(g72
g58
NtRp3411
(dp3412
g61
(dp3413
sg70
g3287
sg63
(lp3414
g56
(g77
g58
NtRp3415
(dp3416
g61
(dp3417
g81
g82
ssg70
g3411
sg63
(lp3418
g448
asbag56
(g77
g58
NtRp3419
(dp3420
g61
(dp3421
g88
g89
ssg70
g3411
sg63
(lp3422
S':'
asbag56
(g77
g58
NtRp3423
(dp3424
g61
(dp3425
sg70
g3411
sg63
(lp3426
g56
(g57
g58
NtRp3427
(dp3428
g61
(dp3429
g69
I3
ssg70
g3423
sg63
(lp3430
S''
asbasbasbag56
(g72
g58
NtRp3431
(dp3432
g61
(dp3433
sg70
g3287
sg63
(lp3434
g56
(g77
g58
NtRp3435
(dp3436
g61
(dp3437
g81
g82
ssg70
g3431
sg63
(lp3438
g469
asbag56
(g77
g58
NtRp3439
(dp3440
g61
(dp3441
g88
g89
ssg70
g3431
sg63
(lp3442
S':'
asbag56
(g77
g58
NtRp3443
(dp3444
g61
(dp3445
sg70
g3431
sg63
(lp3446
g56
(g57
g58
NtRp3447
(dp3448
g61
(dp3449
g69
I3
ssg70
g3443
sg63
(lp3450
S''
asbasbasbasbasbasbasbasbasbasbasbag56
(g72
g58
NtRp3451
(dp3452
g61
(dp3453
sg70
g3217
sg63
(lp3454
g56
(g77
g58
NtRp3455
(dp3456
g61
(dp3457
g81
g82
ssg70
g3451
sg63
(lp3458
S'files'
p3459
asbag56
(g77
g58
NtRp3460
(dp3461
g61
(dp3462
g88
g89
ssg70
g3451
sg63
(lp3463
S':'
asbag56
(g77
g58
NtRp3464
(dp3465
g61
(dp3466
sg70
g3451
sg63
(lp3467
g56
(g57
g58
NtRp3468
(dp3469
g61
(dp3470
g69
I5
ssg70
g3464
sg63
(lp3471
g56
(g65
g58
NtRp3472
(dp3473
g61
(dp3474
g69
I4
ssg70
Nsg63
(lp3475
sbasbasbasbag56
(g72
g58
NtRp3476
(dp3477
g61
(dp3478
sg70
g3217
sg63
(lp3479
g56
(g77
g58
NtRp3480
(dp3481
g61
(dp3482
g81
g82
ssg70
g3476
sg63
(lp3483
S'flash'
p3484
asbag56
(g77
g58
NtRp3485
(dp3486
g61
(dp3487
g88
g89
ssg70
g3476
sg63
(lp3488
S':'
asbag56
(g77
g58
NtRp3489
(dp3490
g61
(dp3491
sg70
g3476
sg63
(lp3492
g56
(g57
g58
NtRp3493
(dp3494
g61
(dp3495
g69
I5
ssg70
g3489
sg63
(lp3496
S''
asbasbasbag56
(g72
g58
NtRp3497
(dp3498
g61
(dp3499
sg70
g3217
sg63
(lp3500
g56
(g77
g58
NtRp3501
(dp3502
g61
(dp3503
g81
g82
ssg70
g3497
sg63
(lp3504
S'generic_patterns'
p3505
asbag56
(g77
g58
NtRp3506
(dp3507
g61
(dp3508
g88
g89
ssg70
g3497
sg63
(lp3509
S':'
asbag56
(g77
g58
NtRp3510
(dp3511
g61
(dp3512
sg70
g3497
sg63
(lp3513
g56
(g57
g58
NtRp3514
(dp3515
g61
(dp3516
g69
I5
ssg70
g3510
sg63
(lp3517
g56
(g65
g58
NtRp3518
(dp3519
g61
(dp3520
g69
I4
ssg70
Nsg63
(lp3521
g56
(g72
g58
NtRp3522
(dp3523
g61
(dp3524
sg70
g3518
sg63
(lp3525
g56
(g77
g58
NtRp3526
(dp3527
g61
(dp3528
sg70
g3522
sg63
(lp3529
g56
(g57
g58
NtRp3530
(dp3531
g61
(dp3532
g69
I4
ssg70
g3526
sg63
(lp3533
S'*'
asbasbasbasbasbasbasbag56
(g72
g58
NtRp3534
(dp3535
g61
(dp3536
sg70
g3217
sg63
(lp3537
g56
(g77
g58
NtRp3538
(dp3539
g61
(dp3540
g81
g82
ssg70
g3534
sg63
(lp3541
S'headers'
p3542
asbag56
(g77
g58
NtRp3543
(dp3544
g61
(dp3545
g88
g89
ssg70
g3534
sg63
(lp3546
S':'
asbag56
(g77
g58
NtRp3547
(dp3548
g61
(dp3549
sg70
g3534
sg63
(lp3550
g56
(g57
g58
NtRp3551
(dp3552
g61
(dp3553
g69
I5
ssg70
g3547
sg63
(lp3554
g56
(g65
g58
NtRp3555
(dp3556
g61
(dp3557
g69
I4
ssg70
Nsg63
(lp3558
g56
(g72
g58
NtRp3559
(dp3560
g61
(dp3561
sg70
g3555
sg63
(lp3562
g56
(g77
g58
NtRp3563
(dp3564
g61
(dp3565
g81
g82
ssg70
g3559
sg63
(lp3566
S'Cache-Control'
p3567
asbag56
(g77
g58
NtRp3568
(dp3569
g61
(dp3570
g88
g89
ssg70
g3559
sg63
(lp3571
S':'
asbag56
(g77
g58
NtRp3572
(dp3573
g61
(dp3574
sg70
g3559
sg63
(lp3575
g56
(g57
g58
NtRp3576
(dp3577
g61
(dp3578
g69
I4
ssg70
g3572
sg63
(lp3579
S'no-store, no-cache, must-revalidate, post-check=0, pre-check=0'
p3580
asbasbasbag56
(g72
g58
NtRp3581
(dp3582
g61
(dp3583
sg70
g3555
sg63
(lp3584
g56
(g77
g58
NtRp3585
(dp3586
g61
(dp3587
g81
g82
ssg70
g3581
sg63
(lp3588
S'Content-Type'
p3589
asbag56
(g77
g58
NtRp3590
(dp3591
g61
(dp3592
g88
g89
ssg70
g3581
sg63
(lp3593
S':'
asbag56
(g77
g58
NtRp3594
(dp3595
g61
(dp3596
sg70
g3581
sg63
(lp3597
g56
(g57
g58
NtRp3598
(dp3599
g61
(dp3600
g69
I4
ssg70
g3594
sg63
(lp3601
S'text/html; charset=utf-8'
p3602
asbasbasbag56
(g72
g58
NtRp3603
(dp3604
g61
(dp3605
sg70
g3555
sg63
(lp3606
g56
(g77
g58
NtRp3607
(dp3608
g61
(dp3609
g81
g82
ssg70
g3603
sg63
(lp3610
S'Expires'
p3611
asbag56
(g77
g58
NtRp3612
(dp3613
g61
(dp3614
g88
g89
ssg70
g3603
sg63
(lp3615
S':'
asbag56
(g77
g58
NtRp3616
(dp3617
g61
(dp3618
sg70
g3603
sg63
(lp3619
g56
(g57
g58
NtRp3620
(dp3621
g61
(dp3622
g69
I4
ssg70
g3616
sg63
(lp3623
S'Thu, 27 Oct 2011 10:47:49 GMT'
p3624
asbasbasbag56
(g72
g58
NtRp3625
(dp3626
g61
(dp3627
sg70
g3555
sg63
(lp3628
g56
(g77
g58
NtRp3629
(dp3630
g61
(dp3631
g81
g82
ssg70
g3625
sg63
(lp3632
S'Pragma'
p3633
asbag56
(g77
g58
NtRp3634
(dp3635
g61
(dp3636
g88
g89
ssg70
g3625
sg63
(lp3637
S':'
asbag56
(g77
g58
NtRp3638
(dp3639
g61
(dp3640
sg70
g3625
sg63
(lp3641
g56
(g57
g58
NtRp3642
(dp3643
g61
(dp3644
g69
I4
ssg70
g3638
sg63
(lp3645
S'no-cache'
p3646
asbasbasbag56
(g72
g58
NtRp3647
(dp3648
g61
(dp3649
sg70
g3555
sg63
(lp3650
g56
(g77
g58
NtRp3651
(dp3652
g61
(dp3653
g81
g82
ssg70
g3647
sg63
(lp3654
S'X-Powered-By'
p3655
asbag56
(g77
g58
NtRp3656
(dp3657
g61
(dp3658
g88
g89
ssg70
g3647
sg63
(lp3659
S':'
asbag56
(g77
g58
NtRp3660
(dp3661
g61
(dp3662
sg70
g3647
sg63
(lp3663
g56
(g57
g58
NtRp3664
(dp3665
g61
(dp3666
g69
I4
ssg70
g3660
sg63
(lp3667
S'web2py'
p3668
asbasbasbasbasbasbasbag56
(g72
g58
NtRp3669
(dp3670
g61
(dp3671
sg70
g3217
sg63
(lp3672
g56
(g77
g58
NtRp3673
(dp3674
g61
(dp3675
g81
g82
ssg70
g3669
sg63
(lp3676
S'menu'
p3677
asbag56
(g77
g58
NtRp3678
(dp3679
g61
(dp3680
g88
g89
ssg70
g3669
sg63
(lp3681
S':'
asbag56
(g77
g58
NtRp3682
(dp3683
g61
(dp3684
sg70
g3669
sg63
(lp3685
g56
(g57
g58
NtRp3686
(dp3687
g61
(dp3688
g69
I5
ssg70
g3682
sg63
(lp3689
g56
(g65
g58
NtRp3690
(dp3691
g61
(dp3692
g69
I4
ssg70
Nsg63
(lp3693
g56
(g72
g58
NtRp3694
(dp3695
g61
(dp3696
sg70
g3690
sg63
(lp3697
g56
(g77
g58
NtRp3698
(dp3699
g61
(dp3700
sg70
g3694
sg63
(lp3701
g56
(g57
g58
NtRp3702
(dp3703
g61
(dp3704
g69
I4
ssg70
g3698
sg63
(lp3705
g56
(g65
g58
NtRp3706
(dp3707
g61
(dp3708
g69
I3
ssg70
Nsg63
(lp3709
g56
(g72
g58
NtRp3710
(dp3711
g61
(dp3712
sg70
g3706
sg63
(lp3713
g56
(g77
g58
NtRp3714
(dp3715
g61
(dp3716
sg70
g3710
sg63
(lp3717
g56
(g57
g58
NtRp3718
(dp3719
g61
(dp3720
g69
I3
ssg70
g3714
sg63
(lp3721
cgluon.languages
lazyT_unpickle
p3722
(S's\x04\x00\x00\x00Home'
tRp3723
asbasbasbag56
(g72
g58
NtRp3724
(dp3725
g61
(dp3726
sg70
g3706
sg63
(lp3727
g56
(g77
g58
NtRp3728
(dp3729
g61
(dp3730
sg70
g3724
sg63
(lp3731
g56
(g57
g58
NtRp3732
(dp3733
g61
(dp3734
g69
I3
ssg70
g3728
sg63
(lp3735
g99
asbasbasbag56
(g72
g58
NtRp3736
(dp3737
g61
(dp3738
sg70
g3706
sg63
(lp3739
g56
(g77
g58
NtRp3740
(dp3741
g61
(dp3742
sg70
g3736
sg63
(lp3743
g56
(g57
g58
NtRp3744
(dp3745
g61
(dp3746
g69
I3
ssg70
g3740
sg63
(lp3747
S'/ddlagoon/default/index'
p3748
asbasbasbag56
(g72
g58
NtRp3749
(dp3750
g61
(dp3751
sg70
g3706
sg63
(lp3752
g56
(g77
g58
NtRp3753
(dp3754
g61
(dp3755
sg70
g3749
sg63
(lp3756
g56
(g57
g58
NtRp3757
(dp3758
g61
(dp3759
g69
I3
ssg70
g3753
sg63
(lp3760
g56
(g65
g58
NtRp3761
(dp3762
g61
(dp3763
g69
I2
ssg70
Nsg63
(lp3764
sbasbasbasbasbasbasbasbag56
(g72
g58
NtRp3765
(dp3766
g61
(dp3767
sg70
g3690
sg63
(lp3768
g56
(g77
g58
NtRp3769
(dp3770
g61
(dp3771
sg70
g3765
sg63
(lp3772
g56
(g57
g58
NtRp3773
(dp3774
g61
(dp3775
g69
I4
ssg70
g3769
sg63
(lp3776
g56
(g65
g58
NtRp3777
(dp3778
g61
(dp3779
g69
I3
ssg70
Nsg63
(lp3780
g56
(g72
g58
NtRp3781
(dp3782
g61
(dp3783
sg70
g3777
sg63
(lp3784
g56
(g77
g58
NtRp3785
(dp3786
g61
(dp3787
sg70
g3781
sg63
(lp3788
g56
(g57
g58
NtRp3789
(dp3790
g61
(dp3791
g69
I3
ssg70
g3785
sg63
(lp3792
g3722
(S's\x08\x00\x00\x00This App'
tRp3793
asbasbasbag56
(g72
g58
NtRp3794
(dp3795
g61
(dp3796
sg70
g3777
sg63
(lp3797
g56
(g77
g58
NtRp3798
(dp3799
g61
(dp3800
sg70
g3794
sg63
(lp3801
g56
(g57
g58
NtRp3802
(dp3803
g61
(dp3804
g69
I3
ssg70
g3798
sg63
(lp3805
g99
asbasbasbag56
(g72
g58
NtRp3806
(dp3807
g61
(dp3808
sg70
g3777
sg63
(lp3809
g56
(g77
g58
NtRp3810
(dp3811
g61
(dp3812
sg70
g3806
sg63
(lp3813
g56
(g57
g58
NtRp3814
(dp3815
g61
(dp3816
g69
I3
ssg70
g3810
sg63
(lp3817
S'/admin/default/design/ddlagoon'
p3818
asbasbasbag56
(g72
g58
NtRp3819
(dp3820
g61
(dp3821
sg70
g3777
sg63
(lp3822
g56
(g77
g58
NtRp3823
(dp3824
g61
(dp3825
sg70
g3819
sg63
(lp3826
g56
(g57
g58
NtRp3827
(dp3828
g61
(dp3829
g69
I3
ssg70
g3823
sg63
(lp3830
g56
(g65
g58
NtRp3831
(dp3832
g61
(dp3833
g69
I2
ssg70
Nsg63
(lp3834
g56
(g72
g58
NtRp3835
(dp3836
g61
(dp3837
sg70
g3831
sg63
(lp3838
g56
(g77
g58
NtRp3839
(dp3840
g61
(dp3841
sg70
g3835
sg63
(lp3842
g56
(g57
g58
NtRp3843
(dp3844
g61
(dp3845
g69
I2
ssg70
g3839
sg63
(lp3846
g56
(g65
g58
NtRp3847
(dp3848
g61
(dp3849
g69
I1
ssg70
Nsg63
(lp3850
g56
(g72
g58
NtRp3851
(dp3852
g61
(dp3853
sg70
g3847
sg63
(lp3854
g56
(g77
g58
NtRp3855
(dp3856
g61
(dp3857
sg70
g3851
sg63
(lp3858
g56
(g57
g58
NtRp3859
(dp3860
g61
(dp3861
g69
I1
ssg70
g3855
sg63
(lp3862
g3722
(S's\n\x00\x00\x00Controller'
tRp3863
asbasbasbag56
(g72
g58
NtRp3864
(dp3865
g61
(dp3866
sg70
g3847
sg63
(lp3867
g56
(g77
g58
NtRp3868
(dp3869
g61
(dp3870
sg70
g3864
sg63
(lp3871
g56
(g57
g58
NtRp3872
(dp3873
g61
(dp3874
g69
I1
ssg70
g3868
sg63
(lp3875
I00
asbasbasbag56
(g72
g58
NtRp3876
(dp3877
g61
(dp3878
sg70
g3847
sg63
(lp3879
g56
(g77
g58
NtRp3880
(dp3881
g61
(dp3882
sg70
g3876
sg63
(lp3883
g56
(g57
g58
NtRp3884
(dp3885
g61
(dp3886
g69
I1
ssg70
g3880
sg63
(lp3887
S'/admin/default/edit/ddlagoon/controllers/ddl.py'
p3888
asbasbasbasbasbasbasbag56
(g72
g58
NtRp3889
(dp3890
g61
(dp3891
sg70
g3831
sg63
(lp3892
g56
(g77
g58
NtRp3893
(dp3894
g61
(dp3895
sg70
g3889
sg63
(lp3896
g56
(g57
g58
NtRp3897
(dp3898
g61
(dp3899
g69
I2
ssg70
g3893
sg63
(lp3900
g56
(g65
g58
NtRp3901
(dp3902
g61
(dp3903
g69
I1
ssg70
Nsg63
(lp3904
g56
(g72
g58
NtRp3905
(dp3906
g61
(dp3907
sg70
g3901
sg63
(lp3908
g56
(g77
g58
NtRp3909
(dp3910
g61
(dp3911
sg70
g3905
sg63
(lp3912
g56
(g57
g58
NtRp3913
(dp3914
g61
(dp3915
g69
I1
ssg70
g3909
sg63
(lp3916
g3722
(S's\x04\x00\x00\x00View'
tRp3917
asbasbasbag56
(g72
g58
NtRp3918
(dp3919
g61
(dp3920
sg70
g3901
sg63
(lp3921
g56
(g77
g58
NtRp3922
(dp3923
g61
(dp3924
sg70
g3918
sg63
(lp3925
g56
(g57
g58
NtRp3926
(dp3927
g61
(dp3928
g69
I1
ssg70
g3922
sg63
(lp3929
I00
asbasbasbag56
(g72
g58
NtRp3930
(dp3931
g61
(dp3932
sg70
g3901
sg63
(lp3933
g56
(g77
g58
NtRp3934
(dp3935
g61
(dp3936
sg70
g3930
sg63
(lp3937
g56
(g57
g58
NtRp3938
(dp3939
g61
(dp3940
g69
I1
ssg70
g3934
sg63
(lp3941
S'/admin/default/edit/ddlagoon/views/ddl/get.html'
p3942
asbasbasbasbasbasbasbag56
(g72
g58
NtRp3943
(dp3944
g61
(dp3945
sg70
g3831
sg63
(lp3946
g56
(g77
g58
NtRp3947
(dp3948
g61
(dp3949
sg70
g3943
sg63
(lp3950
g56
(g57
g58
NtRp3951
(dp3952
g61
(dp3953
g69
I2
ssg70
g3947
sg63
(lp3954
g56
(g65
g58
NtRp3955
(dp3956
g61
(dp3957
g69
I1
ssg70
Nsg63
(lp3958
g56
(g72
g58
NtRp3959
(dp3960
g61
(dp3961
sg70
g3955
sg63
(lp3962
g56
(g77
g58
NtRp3963
(dp3964
g61
(dp3965
sg70
g3959
sg63
(lp3966
g56
(g57
g58
NtRp3967
(dp3968
g61
(dp3969
g69
I1
ssg70
g3963
sg63
(lp3970
g3722
(S's\x06\x00\x00\x00Layout'
tRp3971
asbasbasbag56
(g72
g58
NtRp3972
(dp3973
g61
(dp3974
sg70
g3955
sg63
(lp3975
g56
(g77
g58
NtRp3976
(dp3977
g61
(dp3978
sg70
g3972
sg63
(lp3979
g56
(g57
g58
NtRp3980
(dp3981
g61
(dp3982
g69
I1
ssg70
g3976
sg63
(lp3983
I00
asbasbasbag56
(g72
g58
NtRp3984
(dp3985
g61
(dp3986
sg70
g3955
sg63
(lp3987
g56
(g77
g58
NtRp3988
(dp3989
g61
(dp3990
sg70
g3984
sg63
(lp3991
g56
(g57
g58
NtRp3992
(dp3993
g61
(dp3994
g69
I1
ssg70
g3988
sg63
(lp3995
S'/admin/default/edit/ddlagoon/views/layout.html'
p3996
asbasbasbasbasbasbasbag56
(g72
g58
NtRp3997
(dp3998
g61
(dp3999
sg70
g3831
sg63
(lp4000
g56
(g77
g58
NtRp4001
(dp4002
g61
(dp4003
sg70
g3997
sg63
(lp4004
g56
(g57
g58
NtRp4005
(dp4006
g61
(dp4007
g69
I2
ssg70
g4001
sg63
(lp4008
g56
(g65
g58
NtRp4009
(dp4010
g61
(dp4011
g69
I1
ssg70
Nsg63
(lp4012
g56
(g72
g58
NtRp4013
(dp4014
g61
(dp4015
sg70
g4009
sg63
(lp4016
g56
(g77
g58
NtRp4017
(dp4018
g61
(dp4019
sg70
g4013
sg63
(lp4020
g56
(g57
g58
NtRp4021
(dp4022
g61
(dp4023
g69
I1
ssg70
g4017
sg63
(lp4024
g3722
(S's\n\x00\x00\x00Stylesheet'
tRp4025
asbasbasbag56
(g72
g58
NtRp4026
(dp4027
g61
(dp4028
sg70
g4009
sg63
(lp4029
g56
(g77
g58
NtRp4030
(dp4031
g61
(dp4032
sg70
g4026
sg63
(lp4033
g56
(g57
g58
NtRp4034
(dp4035
g61
(dp4036
g69
I1
ssg70
g4030
sg63
(lp4037
I00
asbasbasbag56
(g72
g58
NtRp4038
(dp4039
g61
(dp4040
sg70
g4009
sg63
(lp4041
g56
(g77
g58
NtRp4042
(dp4043
g61
(dp4044
sg70
g4038
sg63
(lp4045
g56
(g57
g58
NtRp4046
(dp4047
g61
(dp4048
g69
I1
ssg70
g4042
sg63
(lp4049
S'/admin/default/edit/ddlagoon/static/base.css'
p4050
asbasbasbasbasbasbasbag56
(g72
g58
NtRp4051
(dp4052
g61
(dp4053
sg70
g3831
sg63
(lp4054
g56
(g77
g58
NtRp4055
(dp4056
g61
(dp4057
sg70
g4051
sg63
(lp4058
g56
(g57
g58
NtRp4059
(dp4060
g61
(dp4061
g69
I2
ssg70
g4055
sg63
(lp4062
g56
(g65
g58
NtRp4063
(dp4064
g61
(dp4065
g69
I1
ssg70
Nsg63
(lp4066
g56
(g72
g58
NtRp4067
(dp4068
g61
(dp4069
sg70
g4063
sg63
(lp4070
g56
(g77
g58
NtRp4071
(dp4072
g61
(dp4073
sg70
g4067
sg63
(lp4074
g56
(g57
g58
NtRp4075
(dp4076
g61
(dp4077
g69
I1
ssg70
g4071
sg63
(lp4078
g3722
(S's\x08\x00\x00\x00DB Model'
tRp4079
asbasbasbag56
(g72
g58
NtRp4080
(dp4081
g61
(dp4082
sg70
g4063
sg63
(lp4083
g56
(g77
g58
NtRp4084
(dp4085
g61
(dp4086
sg70
g4080
sg63
(lp4087
g56
(g57
g58
NtRp4088
(dp4089
g61
(dp4090
g69
I1
ssg70
g4084
sg63
(lp4091
I00
asbasbasbag56
(g72
g58
NtRp4092
(dp4093
g61
(dp4094
sg70
g4063
sg63
(lp4095
g56
(g77
g58
NtRp4096
(dp4097
g61
(dp4098
sg70
g4092
sg63
(lp4099
g56
(g57
g58
NtRp4100
(dp4101
g61
(dp4102
g69
I1
ssg70
g4096
sg63
(lp4103
S'/admin/default/edit/ddlagoon/models/db.py'
p4104
asbasbasbasbasbasbasbag56
(g72
g58
NtRp4105
(dp4106
g61
(dp4107
sg70
g3831
sg63
(lp4108
g56
(g77
g58
NtRp4109
(dp4110
g61
(dp4111
sg70
g4105
sg63
(lp4112
g56
(g57
g58
NtRp4113
(dp4114
g61
(dp4115
g69
I2
ssg70
g4109
sg63
(lp4116
g56
(g65
g58
NtRp4117
(dp4118
g61
(dp4119
g69
I1
ssg70
Nsg63
(lp4120
g56
(g72
g58
NtRp4121
(dp4122
g61
(dp4123
sg70
g4117
sg63
(lp4124
g56
(g77
g58
NtRp4125
(dp4126
g61
(dp4127
sg70
g4121
sg63
(lp4128
g56
(g57
g58
NtRp4129
(dp4130
g61
(dp4131
g69
I1
ssg70
g4125
sg63
(lp4132
g3722
(S's\n\x00\x00\x00Menu Model'
tRp4133
asbasbasbag56
(g72
g58
NtRp4134
(dp4135
g61
(dp4136
sg70
g4117
sg63
(lp4137
g56
(g77
g58
NtRp4138
(dp4139
g61
(dp4140
sg70
g4134
sg63
(lp4141
g56
(g57
g58
NtRp4142
(dp4143
g61
(dp4144
g69
I1
ssg70
g4138
sg63
(lp4145
I00
asbasbasbag56
(g72
g58
NtRp4146
(dp4147
g61
(dp4148
sg70
g4117
sg63
(lp4149
g56
(g77
g58
NtRp4150
(dp4151
g61
(dp4152
sg70
g4146
sg63
(lp4153
g56
(g57
g58
NtRp4154
(dp4155
g61
(dp4156
g69
I1
ssg70
g4150
sg63
(lp4157
S'/admin/default/edit/ddlagoon/models/menu.py'
p4158
asbasbasbasbasbasbasbag56
(g72
g58
NtRp4159
(dp4160
g61
(dp4161
sg70
g3831
sg63
(lp4162
g56
(g77
g58
NtRp4163
(dp4164
g61
(dp4165
sg70
g4159
sg63
(lp4166
g56
(g57
g58
NtRp4167
(dp4168
g61
(dp4169
g69
I2
ssg70
g4163
sg63
(lp4170
g56
(g65
g58
NtRp4171
(dp4172
g61
(dp4173
g69
I1
ssg70
Nsg63
(lp4174
g56
(g72
g58
NtRp4175
(dp4176
g61
(dp4177
sg70
g4171
sg63
(lp4178
g56
(g77
g58
NtRp4179
(dp4180
g61
(dp4181
sg70
g4175
sg63
(lp4182
g56
(g57
g58
NtRp4183
(dp4184
g61
(dp4185
g69
I1
ssg70
g4179
sg63
(lp4186
g3722
(S's\x08\x00\x00\x00Database'
tRp4187
asbasbasbag56
(g72
g58
NtRp4188
(dp4189
g61
(dp4190
sg70
g4171
sg63
(lp4191
g56
(g77
g58
NtRp4192
(dp4193
g61
(dp4194
sg70
g4188
sg63
(lp4195
g56
(g57
g58
NtRp4196
(dp4197
g61
(dp4198
g69
I1
ssg70
g4192
sg63
(lp4199
I00
asbasbasbag56
(g72
g58
NtRp4200
(dp4201
g61
(dp4202
sg70
g4171
sg63
(lp4203
g56
(g77
g58
NtRp4204
(dp4205
g61
(dp4206
sg70
g4200
sg63
(lp4207
g56
(g57
g58
NtRp4208
(dp4209
g61
(dp4210
g69
I1
ssg70
g4204
sg63
(lp4211
S'/ddlagoon/appadmin/index'
p4212
asbasbasbasbasbasbasbag56
(g72
g58
NtRp4213
(dp4214
g61
(dp4215
sg70
g3831
sg63
(lp4216
g56
(g77
g58
NtRp4217
(dp4218
g61
(dp4219
sg70
g4213
sg63
(lp4220
g56
(g57
g58
NtRp4221
(dp4222
g61
(dp4223
g69
I2
ssg70
g4217
sg63
(lp4224
g56
(g65
g58
NtRp4225
(dp4226
g61
(dp4227
g69
I1
ssg70
Nsg63
(lp4228
g56
(g72
g58
NtRp4229
(dp4230
g61
(dp4231
sg70
g4225
sg63
(lp4232
g56
(g77
g58
NtRp4233
(dp4234
g61
(dp4235
sg70
g4229
sg63
(lp4236
g56
(g57
g58
NtRp4237
(dp4238
g61
(dp4239
g69
I1
ssg70
g4233
sg63
(lp4240
g3722
(S's\x06\x00\x00\x00Errors'
tRp4241
asbasbasbag56
(g72
g58
NtRp4242
(dp4243
g61
(dp4244
sg70
g4225
sg63
(lp4245
g56
(g77
g58
NtRp4246
(dp4247
g61
(dp4248
sg70
g4242
sg63
(lp4249
g56
(g57
g58
NtRp4250
(dp4251
g61
(dp4252
g69
I1
ssg70
g4246
sg63
(lp4253
I00
asbasbasbag56
(g72
g58
NtRp4254
(dp4255
g61
(dp4256
sg70
g4225
sg63
(lp4257
g56
(g77
g58
NtRp4258
(dp4259
g61
(dp4260
sg70
g4254
sg63
(lp4261
g56
(g57
g58
NtRp4262
(dp4263
g61
(dp4264
g69
I1
ssg70
g4258
sg63
(lp4265
S'/admin/default/errors/ddlagoon'
p4266
asbasbasbasbasbasbasbag56
(g72
g58
NtRp4267
(dp4268
g61
(dp4269
sg70
g3831
sg63
(lp4270
g56
(g77
g58
NtRp4271
(dp4272
g61
(dp4273
sg70
g4267
sg63
(lp4274
g56
(g57
g58
NtRp4275
(dp4276
g61
(dp4277
g69
I2
ssg70
g4271
sg63
(lp4278
g56
(g65
g58
NtRp4279
(dp4280
g61
(dp4281
g69
I1
ssg70
Nsg63
(lp4282
g56
(g72
g58
NtRp4283
(dp4284
g61
(dp4285
sg70
g4279
sg63
(lp4286
g56
(g77
g58
NtRp4287
(dp4288
g61
(dp4289
sg70
g4283
sg63
(lp4290
g56
(g57
g58
NtRp4291
(dp4292
g61
(dp4293
g69
I1
ssg70
g4287
sg63
(lp4294
g3722
(S's\x05\x00\x00\x00About'
tRp4295
asbasbasbag56
(g72
g58
NtRp4296
(dp4297
g61
(dp4298
sg70
g4279
sg63
(lp4299
g56
(g77
g58
NtRp4300
(dp4301
g61
(dp4302
sg70
g4296
sg63
(lp4303
g56
(g57
g58
NtRp4304
(dp4305
g61
(dp4306
g69
I1
ssg70
g4300
sg63
(lp4307
I00
asbasbasbag56
(g72
g58
NtRp4308
(dp4309
g61
(dp4310
sg70
g4279
sg63
(lp4311
g56
(g77
g58
NtRp4312
(dp4313
g61
(dp4314
sg70
g4308
sg63
(lp4315
g56
(g57
g58
NtRp4316
(dp4317
g61
(dp4318
g69
I1
ssg70
g4312
sg63
(lp4319
S'/admin/default/about/ddlagoon'
p4320
asbasbasbasbasbasbasbasbasbasbasbasbasbasbasbag56
(g72
g58
NtRp4321
(dp4322
g61
(dp4323
sg70
g3690
sg63
(lp4324
g56
(g77
g58
NtRp4325
(dp4326
g61
(dp4327
sg70
g4321
sg63
(lp4328
g56
(g57
g58
NtRp4329
(dp4330
g61
(dp4331
g69
I4
ssg70
g4325
sg63
(lp4332
g56
(g65
g58
NtRp4333
(dp4334
g61
(dp4335
g69
I3
ssg70
Nsg63
(lp4336
g56
(g72
g58
NtRp4337
(dp4338
g61
(dp4339
sg70
g4333
sg63
(lp4340
g56
(g77
g58
NtRp4341
(dp4342
g61
(dp4343
sg70
g4337
sg63
(lp4344
g56
(g57
g58
NtRp4345
(dp4346
g61
(dp4347
g69
I3
ssg70
g4341
sg63
(lp4348
g3722
(S's\t\x00\x00\x00Resources'
tRp4349
asbasbasbag56
(g72
g58
NtRp4350
(dp4351
g61
(dp4352
sg70
g4333
sg63
(lp4353
g56
(g77
g58
NtRp4354
(dp4355
g61
(dp4356
sg70
g4350
sg63
(lp4357
g56
(g57
g58
NtRp4358
(dp4359
g61
(dp4360
g69
I3
ssg70
g4354
sg63
(lp4361
g99
asbasbasbag56
(g72
g58
NtRp4362
(dp4363
g61
(dp4364
sg70
g4333
sg63
(lp4365
g56
(g77
g58
NtRp4366
(dp4367
g61
(dp4368
sg70
g4362
sg63
(lp4369
g56
(g57
g58
NtRp4370
(dp4371
g61
(dp4372
g69
I3
ssg70
g4366
sg63
(lp4373
S'None'
p4374
asbasbasbag56
(g72
g58
NtRp4375
(dp4376
g61
(dp4377
sg70
g4333
sg63
(lp4378
g56
(g77
g58
NtRp4379
(dp4380
g61
(dp4381
sg70
g4375
sg63
(lp4382
g56
(g57
g58
NtRp4383
(dp4384
g61
(dp4385
g69
I3
ssg70
g4379
sg63
(lp4386
g56
(g65
g58
NtRp4387
(dp4388
g61
(dp4389
g69
I2
ssg70
Nsg63
(lp4390
g56
(g72
g58
NtRp4391
(dp4392
g61
(dp4393
sg70
g4387
sg63
(lp4394
g56
(g77
g58
NtRp4395
(dp4396
g61
(dp4397
sg70
g4391
sg63
(lp4398
g56
(g57
g58
NtRp4399
(dp4400
g61
(dp4401
g69
I2
ssg70
g4395
sg63
(lp4402
g56
(g65
g58
NtRp4403
(dp4404
g61
(dp4405
g69
I1
ssg70
Nsg63
(lp4406
g56
(g72
g58
NtRp4407
(dp4408
g61
(dp4409
sg70
g4403
sg63
(lp4410
g56
(g77
g58
NtRp4411
(dp4412
g61
(dp4413
sg70
g4407
sg63
(lp4414
g56
(g57
g58
NtRp4415
(dp4416
g61
(dp4417
g69
I1
ssg70
g4411
sg63
(lp4418
g3722
(S's\r\x00\x00\x00Documentation'
tRp4419
asbasbasbag56
(g72
g58
NtRp4420
(dp4421
g61
(dp4422
sg70
g4403
sg63
(lp4423
g56
(g77
g58
NtRp4424
(dp4425
g61
(dp4426
sg70
g4420
sg63
(lp4427
g56
(g57
g58
NtRp4428
(dp4429
g61
(dp4430
g69
I1
ssg70
g4424
sg63
(lp4431
I00
asbasbasbag56
(g72
g58
NtRp4432
(dp4433
g61
(dp4434
sg70
g4403
sg63
(lp4435
g56
(g77
g58
NtRp4436
(dp4437
g61
(dp4438
sg70
g4432
sg63
(lp4439
g56
(g57
g58
NtRp4440
(dp4441
g61
(dp4442
g69
I1
ssg70
g4436
sg63
(lp4443
S'http://www.web2py.com/book'
p4444
asbasbasbag56
(g72
g58
NtRp4445
(dp4446
g61
(dp4447
sg70
g4403
sg63
(lp4448
g56
(g77
g58
NtRp4449
(dp4450
g61
(dp4451
sg70
g4445
sg63
(lp4452
g56
(g57
g58
NtRp4453
(dp4454
g61
(dp4455
g69
I1
ssg70
g4449
sg63
(lp4456
(lp4457
(g3722
(S's\x07\x00\x00\x00Preface'
tRp4458
I00
S'http://www.web2py.com/book/default/chapter/00'
p4459
tp4460
a(g3722
(S's\x0c\x00\x00\x00Introduction'
tRp4461
I00
S'http://www.web2py.com/book/default/chapter/01'
p4462
tp4463
a(g3722
(S's\x06\x00\x00\x00Python'
tRp4464
I00
S'http://www.web2py.com/book/default/chapter/02'
p4465
tp4466
a(g3722
(S's\x08\x00\x00\x00Overview'
tRp4467
I00
S'http://www.web2py.com/book/default/chapter/03'
p4468
tp4469
a(g3722
(S's\x08\x00\x00\x00The Core'
tRp4470
I00
S'http://www.web2py.com/book/default/chapter/04'
p4471
tp4472
a(g3722
(S's\t\x00\x00\x00The Views'
tRp4473
I00
S'http://www.web2py.com/book/default/chapter/05'
p4474
tp4475
a(g3722
(S's\x08\x00\x00\x00Database'
tRp4476
I00
S'http://www.web2py.com/book/default/chapter/06'
p4477
tp4478
a(g3722
(S's\x14\x00\x00\x00Forms and Validators'
tRp4479
I00
S'http://www.web2py.com/book/default/chapter/07'
p4480
tp4481
a(g3722
(S's\x0e\x00\x00\x00Access Control'
tRp4482
I00
S'http://www.web2py.com/book/default/chapter/08'
p4483
tp4484
a(g3722
(S's\x08\x00\x00\x00Services'
tRp4485
I00
S'http://www.web2py.com/book/default/chapter/09'
p4486
tp4487
a(g3722
(S's\x0c\x00\x00\x00Ajax Recipes'
tRp4488
I00
S'http://www.web2py.com/book/default/chapter/10'
p4489
tp4490
a(g3722
(S's\x12\x00\x00\x00Deployment Recipes'
tRp4491
I00
S'http://www.web2py.com/book/default/chapter/11'
p4492
tp4493
a(g3722
(S's\r\x00\x00\x00Other Recipes'
tRp4494
I00
S'http://www.web2py.com/book/default/chapter/12'
p4495
tp4496
a(g3722
(S's\r\x00\x00\x00Buy this book'
tRp4497
I00
S'http://stores.lulu.com/web2py'
p4498
tp4499
aasbasbasbasbasbasbasbag56
(g72
g58
NtRp4500
(dp4501
g61
(dp4502
sg70
g4387
sg63
(lp4503
g56
(g77
g58
NtRp4504
(dp4505
g61
(dp4506
sg70
g4500
sg63
(lp4507
g56
(g57
g58
NtRp4508
(dp4509
g61
(dp4510
g69
I2
ssg70
g4504
sg63
(lp4511
g56
(g65
g58
NtRp4512
(dp4513
g61
(dp4514
g69
I1
ssg70
Nsg63
(lp4515
g56
(g72
g58
NtRp4516
(dp4517
g61
(dp4518
sg70
g4512
sg63
(lp4519
g56
(g77
g58
NtRp4520
(dp4521
g61
(dp4522
sg70
g4516
sg63
(lp4523
g56
(g57
g58
NtRp4524
(dp4525
g61
(dp4526
g69
I1
ssg70
g4520
sg63
(lp4527
g3722
(S's\t\x00\x00\x00Community'
tRp4528
asbasbasbag56
(g72
g58
NtRp4529
(dp4530
g61
(dp4531
sg70
g4512
sg63
(lp4532
g56
(g77
g58
NtRp4533
(dp4534
g61
(dp4535
sg70
g4529
sg63
(lp4536
g56
(g57
g58
NtRp4537
(dp4538
g61
(dp4539
g69
I1
ssg70
g4533
sg63
(lp4540
I00
asbasbasbag56
(g72
g58
NtRp4541
(dp4542
g61
(dp4543
sg70
g4512
sg63
(lp4544
g56
(g77
g58
NtRp4545
(dp4546
g61
(dp4547
sg70
g4541
sg63
(lp4548
g56
(g57
g58
NtRp4549
(dp4550
g61
(dp4551
g69
I1
ssg70
g4545
sg63
(lp4552
Nasbasbasbag56
(g72
g58
NtRp4553
(dp4554
g61
(dp4555
sg70
g4512
sg63
(lp4556
g56
(g77
g58
NtRp4557
(dp4558
g61
(dp4559
sg70
g4553
sg63
(lp4560
g56
(g57
g58
NtRp4561
(dp4562
g61
(dp4563
g69
I1
ssg70
g4557
sg63
(lp4564
(lp4565
(g3722
(S's\x06\x00\x00\x00Groups'
tRp4566
I00
S'http://www.web2py.com/examples/default/usergroups'
p4567
tp4568
a(g3722
(S's\x07\x00\x00\x00Twitter'
tRp4569
I00
S'http://twitter.com/web2py'
p4570
tp4571
a(g3722
(S's\t\x00\x00\x00Live chat'
tRp4572
I00
S'http://mibbit.com/?channel=%23web2py&server=irc.mibbit.net'
p4573
tp4574
a(g3722
(S's\n\x00\x00\x00User Voice'
tRp4575
I00
S'http://web2py.uservoice.com/'
p4576
tp4577
aasbasbasbasbasbasbasbag56
(g72
g58
NtRp4578
(dp4579
g61
(dp4580
sg70
g4387
sg63
(lp4581
g56
(g77
g58
NtRp4582
(dp4583
g61
(dp4584
sg70
g4578
sg63
(lp4585
g56
(g57
g58
NtRp4586
(dp4587
g61
(dp4588
g69
I2
ssg70
g4582
sg63
(lp4589
g56
(g65
g58
NtRp4590
(dp4591
g61
(dp4592
g69
I1
ssg70
Nsg63
(lp4593
g56
(g72
g58
NtRp4594
(dp4595
g61
(dp4596
sg70
g4590
sg63
(lp4597
g56
(g77
g58
NtRp4598
(dp4599
g61
(dp4600
sg70
g4594
sg63
(lp4601
g56
(g57
g58
NtRp4602
(dp4603
g61
(dp4604
g69
I1
ssg70
g4598
sg63
(lp4605
g3722
(S's\x06\x00\x00\x00Web2py'
tRp4606
asbasbasbag56
(g72
g58
NtRp4607
(dp4608
g61
(dp4609
sg70
g4590
sg63
(lp4610
g56
(g77
g58
NtRp4611
(dp4612
g61
(dp4613
sg70
g4607
sg63
(lp4614
g56
(g57
g58
NtRp4615
(dp4616
g61
(dp4617
g69
I1
ssg70
g4611
sg63
(lp4618
I00
asbasbasbag56
(g72
g58
NtRp4619
(dp4620
g61
(dp4621
sg70
g4590
sg63
(lp4622
g56
(g77
g58
NtRp4623
(dp4624
g61
(dp4625
sg70
g4619
sg63
(lp4626
g56
(g57
g58
NtRp4627
(dp4628
g61
(dp4629
g69
I1
ssg70
g4623
sg63
(lp4630
S'http://www.web2py.com'
p4631
asbasbasbag56
(g72
g58
NtRp4632
(dp4633
g61
(dp4634
sg70
g4590
sg63
(lp4635
g56
(g77
g58
NtRp4636
(dp4637
g61
(dp4638
sg70
g4632
sg63
(lp4639
g56
(g57
g58
NtRp4640
(dp4641
g61
(dp4642
g69
I1
ssg70
g4636
sg63
(lp4643
(lp4644
(g3722
(S's\x08\x00\x00\x00Download'
tRp4645
I00
S'http://www.web2py.com/examples/default/download'
p4646
tp4647
a(g3722
(S's\x07\x00\x00\x00Support'
tRp4648
I00
S'http://www.web2py.com/examples/default/support'
p4649
tp4650
a(g3722
(S's\x0e\x00\x00\x00Quick Examples'
tRp4651
I00
S'http://web2py.com/examples/default/examples'
p4652
tp4653
a(g3722
(S's\x03\x00\x00\x00FAQ'
tRp4654
I00
S'http://web2py.com/AlterEgo'
p4655
tp4656
a(g3722
(S's\x11\x00\x00\x00Free Applications'
tRp4657
I00
S'http://web2py.com/appliances'
p4658
tp4659
a(g3722
(S's\x07\x00\x00\x00Plugins'
tRp4660
I00
S'http://web2py.com/plugins'
p4661
tp4662
a(g3722
(S's\x07\x00\x00\x00Recipes'
tRp4663
I00
S'http://web2pyslices.com/'
p4664
tp4665
a(g3722
(S's\x04\x00\x00\x00Demo'
tRp4666
I00
S'http://web2py.com/demo_admin'
p4667
tp4668
a(g3722
(S's\x08\x00\x00\x00Semantic'
tRp4669
I00
S'http://web2py.com/semantic'
p4670
tp4671
a(g3722
(S's\x07\x00\x00\x00Layouts'
tRp4672
I00
S'http://web2py.com/layouts'
p4673
tp4674
a(g3722
(S's\x06\x00\x00\x00Videos'
tRp4675
I00
S'http://www.web2py.com/examples/default/videos/'
p4676
tp4677
aasbasbasbasbasbasbasbasbasbasbasbasbasbasbasbasbasbasbasbag56
(g72
g58
NtRp4678
(dp4679
g61
(dp4680
sg70
g3217
sg63
(lp4681
g56
(g77
g58
NtRp4682
(dp4683
g61
(dp4684
g81
g82
ssg70
g4678
sg63
(lp4685
S'meta'
p4686
asbag56
(g77
g58
NtRp4687
(dp4688
g61
(dp4689
g88
g89
ssg70
g4678
sg63
(lp4690
S':'
asbag56
(g77
g58
NtRp4691
(dp4692
g61
(dp4693
sg70
g4678
sg63
(lp4694
g56
(g57
g58
NtRp4695
(dp4696
g61
(dp4697
g69
I5
ssg70
g4691
sg63
(lp4698
g56
(g65
g58
NtRp4699
(dp4700
g61
(dp4701
g69
I4
ssg70
Nsg63
(lp4702
g56
(g72
g58
NtRp4703
(dp4704
g61
(dp4705
sg70
g4699
sg63
(lp4706
g56
(g77
g58
NtRp4707
(dp4708
g61
(dp4709
g81
g82
ssg70
g4703
sg63
(lp4710
S'author'
p4711
asbag56
(g77
g58
NtRp4712
(dp4713
g61
(dp4714
g88
g89
ssg70
g4703
sg63
(lp4715
S':'
asbag56
(g77
g58
NtRp4716
(dp4717
g61
(dp4718
sg70
g4703
sg63
(lp4719
g56
(g57
g58
NtRp4720
(dp4721
g61
(dp4722
g69
I4
ssg70
g4716
sg63
(lp4723
S'Your Name <you@example.com>'
p4724
asbasbasbag56
(g72
g58
NtRp4725
(dp4726
g61
(dp4727
sg70
g4699
sg63
(lp4728
g56
(g77
g58
NtRp4729
(dp4730
g61
(dp4731
g81
g82
ssg70
g4725
sg63
(lp4732
S'copyright'
p4733
asbag56
(g77
g58
NtRp4734
(dp4735
g61
(dp4736
g88
g89
ssg70
g4725
sg63
(lp4737
S':'
asbag56
(g77
g58
NtRp4738
(dp4739
g61
(dp4740
sg70
g4725
sg63
(lp4741
g56
(g57
g58
NtRp4742
(dp4743
g61
(dp4744
g69
I4
ssg70
g4738
sg63
(lp4745
S'Copyright 2011'
p4746
asbasbasbag56
(g72
g58
NtRp4747
(dp4748
g61
(dp4749
sg70
g4699
sg63
(lp4750
g56
(g77
g58
NtRp4751
(dp4752
g61
(dp4753
g81
g82
ssg70
g4747
sg63
(lp4754
S'description'
p4755
asbag56
(g77
g58
NtRp4756
(dp4757
g61
(dp4758
g88
g89
ssg70
g4747
sg63
(lp4759
S':'
asbag56
(g77
g58
NtRp4760
(dp4761
g61
(dp4762
sg70
g4747
sg63
(lp4763
g56
(g57
g58
NtRp4764
(dp4765
g61
(dp4766
g69
I4
ssg70
g4760
sg63
(lp4767
S'a cool new app'
p4768
asbasbasbag56
(g72
g58
NtRp4769
(dp4770
g61
(dp4771
sg70
g4699
sg63
(lp4772
g56
(g77
g58
NtRp4773
(dp4774
g61
(dp4775
g81
g82
ssg70
g4769
sg63
(lp4776
S'generator'
p4777
asbag56
(g77
g58
NtRp4778
(dp4779
g61
(dp4780
g88
g89
ssg70
g4769
sg63
(lp4781
S':'
asbag56
(g77
g58
NtRp4782
(dp4783
g61
(dp4784
sg70
g4769
sg63
(lp4785
g56
(g57
g58
NtRp4786
(dp4787
g61
(dp4788
g69
I4
ssg70
g4782
sg63
(lp4789
S'Web2py Web Framework'
p4790
asbasbasbag56
(g72
g58
NtRp4791
(dp4792
g61
(dp4793
sg70
g4699
sg63
(lp4794
g56
(g77
g58
NtRp4795
(dp4796
g61
(dp4797
g81
g82
ssg70
g4791
sg63
(lp4798
S'keywords'
p4799
asbag56
(g77
g58
NtRp4800
(dp4801
g61
(dp4802
g88
g89
ssg70
g4791
sg63
(lp4803
S':'
asbag56
(g77
g58
NtRp4804
(dp4805
g61
(dp4806
sg70
g4791
sg63
(lp4807
g56
(g57
g58
NtRp4808
(dp4809
g61
(dp4810
g69
I4
ssg70
g4804
sg63
(lp4811
S'web2py, python, framework'
p4812
asbasbasbasbasbasbasbag56
(g72
g58
NtRp4813
(dp4814
g61
(dp4815
sg70
g3217
sg63
(lp4816
g56
(g77
g58
NtRp4817
(dp4818
g61
(dp4819
g81
g82
ssg70
g4813
sg63
(lp4820
S'postprocessing'
p4821
asbag56
(g77
g58
NtRp4822
(dp4823
g61
(dp4824
g88
g89
ssg70
g4813
sg63
(lp4825
S':'
asbag56
(g77
g58
NtRp4826
(dp4827
g61
(dp4828
sg70
g4813
sg63
(lp4829
g56
(g57
g58
NtRp4830
(dp4831
g61
(dp4832
g69
I5
ssg70
g4826
sg63
(lp4833
g56
(g65
g58
NtRp4834
(dp4835
g61
(dp4836
g69
I4
ssg70
Nsg63
(lp4837
sbasbasbasbag56
(g72
g58
NtRp4838
(dp4839
g61
(dp4840
sg70
g3217
sg63
(lp4841
g56
(g77
g58
NtRp4842
(dp4843
g61
(dp4844
g81
g82
ssg70
g4838
sg63
(lp4845
S'session_filename'
p4846
asbag56
(g77
g58
NtRp4847
(dp4848
g61
(dp4849
g88
g89
ssg70
g4838
sg63
(lp4850
S':'
asbag56
(g77
g58
NtRp4851
(dp4852
g61
(dp4853
sg70
g4838
sg63
(lp4854
g56
(g57
g58
NtRp4855
(dp4856
g61
(dp4857
g69
I5
ssg70
g4851
sg63
(lp4858
S'/windows/Users/Thomas/Dropbox/appz/2011/GAE/ddl-lagoon/applications/ddlagoon/sessions/127.0.0.1-fe7b8b9f-8c6e-4f90-8a56-750c0791115a'
p4859
asbasbasbag56
(g72
g58
NtRp4860
(dp4861
g61
(dp4862
sg70
g3217
sg63
(lp4863
g56
(g77
g58
NtRp4864
(dp4865
g61
(dp4866
g81
g82
ssg70
g4860
sg63
(lp4867
S'session_id'
p4868
asbag56
(g77
g58
NtRp4869
(dp4870
g61
(dp4871
g88
g89
ssg70
g4860
sg63
(lp4872
S':'
asbag56
(g77
g58
NtRp4873
(dp4874
g61
(dp4875
sg70
g4860
sg63
(lp4876
g56
(g57
g58
NtRp4877
(dp4878
g61
(dp4879
g69
I5
ssg70
g4873
sg63
(lp4880
S'127.0.0.1-fe7b8b9f-8c6e-4f90-8a56-750c0791115a'
p4881
asbasbasbag56
(g72
g58
NtRp4882
(dp4883
g61
(dp4884
sg70
g3217
sg63
(lp4885
g56
(g77
g58
NtRp4886
(dp4887
g61
(dp4888
g81
g82
ssg70
g4882
sg63
(lp4889
S'session_id_name'
p4890
asbag56
(g77
g58
NtRp4891
(dp4892
g61
(dp4893
g88
g89
ssg70
g4882
sg63
(lp4894
S':'
asbag56
(g77
g58
NtRp4895
(dp4896
g61
(dp4897
sg70
g4882
sg63
(lp4898
g56
(g57
g58
NtRp4899
(dp4900
g61
(dp4901
g69
I5
ssg70
g4895
sg63
(lp4902
g3274
asbasbasbag56
(g72
g58
NtRp4903
(dp4904
g61
(dp4905
sg70
g3217
sg63
(lp4906
g56
(g77
g58
NtRp4907
(dp4908
g61
(dp4909
g81
g82
ssg70
g4903
sg63
(lp4910
S'session_new'
p4911
asbag56
(g77
g58
NtRp4912
(dp4913
g61
(dp4914
g88
g89
ssg70
g4903
sg63
(lp4915
S':'
asbag56
(g77
g58
NtRp4916
(dp4917
g61
(dp4918
sg70
g4903
sg63
(lp4919
g56
(g57
g58
NtRp4920
(dp4921
g61
(dp4922
g69
I5
ssg70
g4916
sg63
(lp4923
g1750
asbasbasbag56
(g72
g58
NtRp4924
(dp4925
g61
(dp4926
sg70
g3217
sg63
(lp4927
g56
(g77
g58
NtRp4928
(dp4929
g61
(dp4930
g81
g82
ssg70
g4924
sg63
(lp4931
S'status'
p4932
asbag56
(g77
g58
NtRp4933
(dp4934
g61
(dp4935
g88
g89
ssg70
g4924
sg63
(lp4936
S':'
asbag56
(g77
g58
NtRp4937
(dp4938
g61
(dp4939
sg70
g4924
sg63
(lp4940
g56
(g57
g58
NtRp4941
(dp4942
g61
(dp4943
g69
I5
ssg70
g4937
sg63
(lp4944
S'200'
p4945
asbasbasbag56
(g72
g58
NtRp4946
(dp4947
g61
(dp4948
sg70
g3217
sg63
(lp4949
g56
(g77
g58
NtRp4950
(dp4951
g61
(dp4952
g81
g82
ssg70
g4946
sg63
(lp4953
S'subtitle'
p4954
asbag56
(g77
g58
NtRp4955
(dp4956
g61
(dp4957
g88
g89
ssg70
g4946
sg63
(lp4958
S':'
asbag56
(g77
g58
NtRp4959
(dp4960
g61
(dp4961
sg70
g4946
sg63
(lp4962
g56
(g57
g58
NtRp4963
(dp4964
g61
(dp4965
g69
I5
ssg70
g4959
sg63
(lp4966
g3722
(S's\r\x00\x00\x00customize me!'
tRp4967
asbasbasbag56
(g72
g58
NtRp4968
(dp4969
g61
(dp4970
sg70
g3217
sg63
(lp4971
g56
(g77
g58
NtRp4972
(dp4973
g61
(dp4974
g81
g82
ssg70
g4968
sg63
(lp4975
S'title'
p4976
asbag56
(g77
g58
NtRp4977
(dp4978
g61
(dp4979
g88
g89
ssg70
g4968
sg63
(lp4980
S':'
asbag56
(g77
g58
NtRp4981
(dp4982
g61
(dp4983
sg70
g4968
sg63
(lp4984
g56
(g57
g58
NtRp4985
(dp4986
g61
(dp4987
g69
I5
ssg70
g4981
sg63
(lp4988
g121
asbasbasbag56
(g72
g58
NtRp4989
(dp4990
g61
(dp4991
sg70
g3217
sg63
(lp4992
g56
(g77
g58
NtRp4993
(dp4994
g61
(dp4995
g81
g82
ssg70
g4989
sg63
(lp4996
g2416
asbag56
(g77
g58
NtRp4997
(dp4998
g61
(dp4999
g88
g89
ssg70
g4989
sg63
(lp5000
S':'
asbag56
(g77
g58
NtRp5001
(dp5002
g61
(dp5003
sg70
g4989
sg63
(lp5004
g56
(g57
g58
NtRp5005
(dp5006
g61
(dp5007
g69
I5
ssg70
g5001
sg63
(lp5008
g2429
asbasbasbag56
(g72
g58
NtRp5009
(dp5010
g61
(dp5011
sg70
g3217
sg63
(lp5012
g56
(g77
g58
NtRp5013
(dp5014
g61
(dp5015
g81
g82
ssg70
g5009
sg63
(lp5016
S'view'
p5017
asbag56
(g77
g58
NtRp5018
(dp5019
g61
(dp5020
g88
g89
ssg70
g5009
sg63
(lp5021
S':'
asbag56
(g77
g58
NtRp5022
(dp5023
g61
(dp5024
sg70
g5009
sg63
(lp5025
g56
(g57
g58
NtRp5026
(dp5027
g61
(dp5028
g69
I5
ssg70
g5022
sg63
(lp5029
S'ddl/get.html'
p5030
asbasbasbasbasbsS'locals'
p5031
(dp5032
S'fromlist'
p5033
S"('encryptForClient',)"
p5034
sS'name'
p5035
S"'default'"
p5036
sg69
S'-1'
p5037
sS'self'
p5038
S'<gluon.custom_import._Web2pyImporter object>'
p5039
sS'globals'
p5040
S"{'A': <class 'gluon.html.A'>, 'Auth': <class 'gluon.tools.Auth'>, 'B': <class 'gluon.html.B'>, 'BEAUTIFY': <class 'gluon.html.BEAUTIFY'>, 'BODY': <class 'gluon.html.BODY'>, 'BR': <class 'gluon.html.BR'>, 'BUTTON': <class 'gluon.html.BUTTON'>, 'CAT': <class 'gluon.html.CAT'>, 'CENTER': <class 'gluon.html.CENTER'>, 'CLEANUP': <class 'gluon.validators.CLEANUP'>, ...}"
p5041
sg5031
S"{'A': <class 'gluon.html.A'>, 'Auth': <class 'gluon.tools.Auth'>, 'B': <class 'gluon.html.B'>, 'BEAUTIFY': <class 'gluon.html.BEAUTIFY'>, 'BODY': <class 'gluon.html.BODY'>, 'BR': <class 'gluon.html.BR'>, 'BUTTON': <class 'gluon.html.BUTTON'>, 'CAT': <class 'gluon.html.CAT'>, 'CENTER': <class 'gluon.html.CENTER'>, 'CLEANUP': <class 'gluon.validators.CLEANUP'>, ...}"
p5042
sssS'traceback'
p5043
S'Traceback (most recent call last):\n  File "/windows/Users/Thomas/Dropbox/appz/2011/GAE/ddl-lagoon/gluon/restricted.py", line 194, in restricted\n    exec ccode in environment\n  File "/windows/Users/Thomas/Dropbox/appz/2011/GAE/ddl-lagoon/applications/ddlagoon/controllers/ddl.py", line 3, in <module>\n    from default import encryptForClient\n  File "/windows/Users/Thomas/Dropbox/appz/2011/GAE/ddl-lagoon/gluon/custom_import.py", line 294, in __call__\n    fromlist, level)\n  File "/windows/Users/Thomas/Dropbox/appz/2011/GAE/ddl-lagoon/gluon/custom_import.py", line 78, in __call__\n    level)\nImportError: No module named default\n'
p5044
s.