(dp1
S'output'
p2
S''
sS'layer'
p3
S'/windows/Users/Thomas/Dropbox/appz/2011/GAE/ddl-lagoon/applications/ddlagoon/controllers/default.py'
p4
sS'code'
p5
S'# -*- coding: utf-8 -*-\n# this file is released under public domain and you can use without limitations\n\n#########################################################################\n## This is a samples controller\n## - index is the default action of any application\n## - user is required for authentication and authorization\n## - download is for downloading files uploaded in the db (does streaming)\n## - call exposes all registered services (none by default)\n#########################################################################\nfrom datetime import datetime\n#from applications.ddlagoon import pathutils\n\n__version__ = 1.5\n\nfrom Crypto.PublicKey import RSA\n#from Crypto.Random import random\nimport random\nimport base64, hashlib\nimport gluon.contrib.simplejson as json\nimport tempfile\nfrom time import mktime\n\ndef sha512(n):\n    return hashlib.sha512(str(n)).digest()\ndef sha256(n):\n    return hashlib.sha256(str(n)).digest()\ndef compute(n):\n    return 61*long(n)**3-54*long(n)**2+8942*long(n)*3\ndef chunks(s, n):\n    """Produce `n`-character chunks from `s`."""\n    for start in range(0, len(s), n):\n        yield s[start:start+n]\n\nif False:\n    from gluon.contrib import *\n    from re import T\n    from applications.ddlagoon.models.db import db, service, auth\n    from gluon.contrib.pysimplesoap.server import request\n\ndef pluralize(number, text):\n    output = str(number) + " " + text\n    if number>1:\n        output += "s"\n    return output\n\ndef getTimeDelta(weeks, days, hours, minutes, seconds):\n    output=""\n    if weeks>0:\n        return pluralize(weeks, "week")\n    elif days>0:\n        return pluralize(days, "day")\n    elif hours>0:\n        return pluralize(hours, "hour")\n    elif minutes>0:\n        return pluralize(minutes, "minute")\n    elif seconds>0:\n        return pluralize(seconds, "second")\n\n\ndef search():\n    return ""\n\ndef index():\n    """\n    example action using the internationalization operator T and flash\n    rendered by views/default/index.html or views/generic.html\n    """\n    form=FORM(\'Search:\', INPUT( _name=\'filesearch\', requires=IS_NOT_EMPTY()), INPUT(_type=\'submit\'))\n\n    if form.accepts(request,session):\n        rows= db.ddl.filename.like(\'%\'+request.vars[\'filesearch\'].replace(" ","%")+\'%\')\n    else:\n        rows= db(db.ddl.id>0).select(orderby=~db.ddl.date_added, limitby=(0,10))\n    ddlz=[]\n\n    for row in rows:\n        difference = datetime.now()-row[\'date_added\']\n        weeks, days = divmod(difference.days, 7)\n        minutes, seconds = divmod(difference.seconds, 60)\n        hours, minutes = divmod(minutes, 60)\n        row[\'timedelta\']= getTimeDelta(weeks, days, hours, minutes, seconds)\n        ddlz.append(row)\n    return dict(message=T(\'Hello World\'),ddlz=ddlz, form=form)\n\ndef user():\n    """\n    exposes:\n    http://..../[app]/default/user/login\n    http://..../[app]/default/user/logout\n    http://..../[app]/default/user/register\n    http://..../[app]/default/user/profile\n    http://..../[app]/default/user/retrieve_password\n    http://..../[app]/default/user/change_password\n    use @auth.requires_login()\n        @auth.requires_membership(\'group name\')\n        @auth.requires_permission(\'read\',\'table name\',record_id)\n    to decorate functions that need access control\n    """\n    return dict(form=auth())\n\n@auth.requires_login()\ndef profile():\n    return dict(nickname=auth.user.nickname,\n                uploader_key=auth.user.uploader_key,\n                is_uploader=auth.user.is_uploader)\n\ndef download():\n    """\n    allows downloading of uploaded files\n    http://..../[app]/default/download/[filename]\n    """\n    return response.download(request,db)\n\n@auth.requires_login()\ndef uploadDDL():\n    return service()\n\ndef call():\n    """\n    exposes services. for example:\n    http://..../[app]/default/call/jsonrpc\n    decorate with @services.jsonrpc the functions to expose\n    supports xml, json, xmlrpc, jsonrpc, amfrpc, rss, csv\n    """\n    return service()\n\n@service.xmlrpc\n@service.json\n@service.xml\ndef receiveDDL(encryptedText):\n    returnCode=-1\n    message="Unknown Error"\n    try:\n        decryptedMsg= decryptFromClient(encryptedText)\n    except:\n        returnCode=-1\n        message= "Error decrypting the DDL"\n    else:\n        try:\n            dataFromClient = json.loads(decryptedMsg)\n        except :\n            returnCode= -1\n            message="Error reading the DDL"\n        else:\n            # prepare a DDL from the received information\n            uploader= db(db.auth_user.nickname==dataFromClient[\'nickname\']).select().first()\n            ddl = dataFromClient[\'ddl\']\n            # remove previous DDL, if present\n            db((db.ddl.filename==ddl[\'filename\']) & (db.ddl.uploader==uploader.id)).delete()\n            db.ddl.insert(\n                  author=ddl[\'author\']\n                , uploader=uploader.id\n                , filename=ddl[\'filename\']\n                , description=ddl[\'description\'],\n                size=ddl[\'size\'],\n                hash=ddl[\'hash\'],\n                parts=ddl[\'parts\'],\n                service=ddl[\'service\'],\n                links="|".join(ddl[\'links\']),\n                version=ddl[\'version\']\n                #, date_created=datetime.fromtimestamp(ddl[\'time\'])\n            )\n            returnCode= 0\n            message="Upload done!"\n    dataToSend = {\n        \'returnCode\' : returnCode,\n        \'message\' : message\n    }\n    return json.dumps(dataToSend, sort_keys=True, indent=4)\n\n@service.json\n@service.xmlrpc\n@service.xml\ndef concat(a,b):\n    return dict(test=a+b)\n\ndef loginTest(nickname, uploaderKey):\n    returnCode = -1\n    message = ""\n    try:\n        record = db(db.auth_user.nickname==nickname).select().first()\n    except:\n        pass\n    else:\n        if not record:\n            returnCode= -1\n            message= "Who is %s?" % nickname\n        else:\n            if not record.uploader_key==uploaderKey:\n                returnCode= -1\n                message= "Wrong API Key"\n            else:\n                if record.is_uploader:\n                    # login the user\n                    #session.nickname= nickname\n                    returnCode=0\n                else:\n                    returnCode= -1\n                    message= "You are not allowed to upload"\n    return returnCode, message\n\n\ndef decryptFromClient(encryptedMsg):\n    decryptedMsg = ""\n    private_json = {\n        "d": 23787079891404684333685400978249298094378954863672776929346845102263722750088918762338764266712467553502811192479791825128333774826784684125489823193368527161074577530140077392439136510635896140296132025922882984837588521257841050129145633510814630843053674301016823808612405445927946023993959147765325630609,\n        "e": 65537,\n        "n": 113857278326248086267655574343523535583648376051747208707172377115619164320229146138430878888952306898474564499090572366596232150220784972504544737264372878940265396864770701575284749329394957815581364039447123399430603091303935702146927576939090729428557897918935408150236788311903915427199939052963176280397,\n        "p": 9580774579539128121039431812737453710839471771236942870475012323041145011884745445780348665996631786895791139388698030648995797187661607074610865997962403,\n        "q": 11883932492202009053507786643172605523535663521769572031030078443728388902717320133755150294842235771246601522313496536316374989301635407931585896758667599,\n        "u": 1517576679209673870508661373022611765046783829884979500337395070156130858916802958093981514472423096659658057726899513257360280724233068450029128365828499\n    }\n    private_key = RSA.construct((long(private_json[\'n\']), long(private_json[\'e\']),\n                             long(private_json[\'d\']), long(private_json[\'p\']),\n                             long(private_json[\'q\']), long(private_json[\'u\'])))\n    try:\n        for p in encryptedMsg.split("@"):\n            decryptedMsg += private_key.decrypt(base64.b16decode(p))\n    except:\n        pass\n    \n    return decryptedMsg\n\ndef encryptForClient(n, e, clearMsg):\n    client_pub_key = RSA.construct((long(n), long(e)))\n    encryptedMsg = list()\n    randomK = long(random.getrandbits(random.randint(128, 256)))\n    for part in chunks(clearMsg,127):\n        encryptedData = client_pub_key.encrypt(part, randomK)\n        coded = base64.b16encode(encryptedData[0])\n        encryptedMsg.append(coded)\n    data = "@".join(encryptedMsg)\n    return data\n\n@service.json\n@service.xmlrpc\n@service.xml\ndef checkLogin(encryptedMsg):\n    # decrypt the message with the private key\n    returnCode = -1\n    message = \'\'\n    computedNb = 0\n    decryptedMsg = decryptFromClient(encryptedMsg)\n    dataFromClient = ()\n    if not len(decryptedMsg)>0:\n        returnCode = -1\n        message = \'Server Decrypt Error\'\n    else:\n        # try to load into a json\n        try:\n            dataFromClient = json.loads(decryptedMsg)\n        except:\n            returnCode = -1\n            message = \'Server Load Error\'\n        else:\n            toFind = [\'nickname\',\'version\',\'uploaderKey\',\'n\',\'e\',\'randomNb\']\n            error = False\n            for e in toFind:\n                if e not in dataFromClient:\n                    error = True\n                    returnCode = -1\n                    message = \'Server Elements Missing\'\n            if not error:\n                # check if the client is using the last version\n                if float(dataFromClient[\'version\'])>=__version__:\n                    returnCode, message = loginTest(dataFromClient[\'nickname\'],dataFromClient[\'uploaderKey\'])\n                    computedNb = base64.b16encode(sha512(sha256(str(compute(dataFromClient[\'randomNb\'])))))\n                else:\n                    returnCode=1\n                    message="A new version of Bobpic is available.\\nYou need to upgrade."\n\n    # prepare a json\n    dataToSend = {\n        \'returnCode\' : returnCode,\n        \'message\' : message,\n        \'computedNb\' : computedNb\n    }\n    # encrypt the json with the dynamic public key of the client\n    try:\n        dataToSendStr = str(json.dumps(dataToSend, sort_keys=True, indent=4))\n        data= encryptForClient(dataFromClient[\'n\'], dataFromClient[\'e\'], dataToSendStr)\n    except :\n        dataToSend = {\n            \'returnCode\' : -2,\n            \'message\' : message\n        }\n        return json.dumps(dataToSend, sort_keys=True, indent=4)\n    else:\n        return data\n\n#def checkLogin(username, key):\n#    users = db.auth_user\n#    q = users.nickname==username\n#    s = db(q)\n#    if s.select():\n#        return dict(test=username+key)\n#    else:\n#        return "get out"\n\n@auth.requires_signature()\ndef data():\n    """\n    http://..../[app]/default/data/tables\n    http://..../[app]/default/data/create/[table]\n    http://..../[app]/default/data/read/[table]/[id]\n    http://..../[app]/default/data/update/[table]/[id]\n    http://..../[app]/default/data/delete/[table]/[id]\n    http://..../[app]/default/data/select/[table]\n    http://..../[app]/default/data/search/[table]\n    but URLs bust be signed, i.e. linked with\n      A(\'table\',_href=URL(\'data/tables\',user_signature=True))\n    or with the signed load operator\n      LOAD(\'default\',\'data.load\',args=\'tables\',ajax=True,user_signature=True)\n    """\n    return dict(form=crud())\n\n\ndef get():\n    return service()\n\n@service.xml\ndef ddl(id="", filename=""):\n    # find the record\n    ddl= db((db.ddl.filename_url==filename) & (db.ddl.id==id)).select().first()\n    if not ddl:\n        return "404 - File not found."\n    else:\n        # prepare the file\n        ddlJ = {\n            \'author\':ddl.author,\n            \'filename\':ddl.filename,\n            \'description\':ddl.description,\n            \'size\':ddl.size,\n            \'hash\':ddl.hash,\n            \'parts\':ddl.parts,\n            \'service\':ddl.service,\n            \'links\':ddl.links.split("|"),\n            \'version\':ddl.version,\n            \'time\':int(mktime(ddl.date_added.timetuple()))\n        }\n        ddlJson = json.dumps(ddlJ, sort_keys=True, indent=4)\n        public_ddl = {\n            "e": 65537,\n            "n": 138699374543223257537557103176001704226735255147448649583225017098287197630734176291676474096655313606555548753275002732095146725547697816211326459323755204828036245647843790985208692060549009977103102474302073609652750671753426409739287485014860128030833183117757223967930924686377060843991855851119927153483\n        }\n        encryptedMsg = encryptForClient(public_ddl[\'n\'],public_ddl[\'e\'],ddlJson)\n        #response.headers[\'Content-Type\'] = \'application/ddl\'\n        #response.headers[\'Content-Disposition\'] = \'attachment; filename=test.ddl\'\n        #return response.stream(ddlFile, request=request)\n#        request.args[0] = ddlFile.name\n#        return response.download(request, ddlFile)\n        response.headers[\'Content-Type\'] = "application/octet-stream"\n        response.headers[\'Content-Disposition\'] = \'attachment; filename=%s.ddl\' % ddl.filename\n        return encryptedMsg\n\ndef howto():\n    win32= "http://www.mediafire.com/?hhbfzm4i3t2n99h"\n    win64= "http://www.mediafire.com/?54t5ehe72p0i41p"\n    linux64= "http://www.mediafire.com/?5dy9bakpk8333xr"\n    return dict(win32=win32, win64=win64, linux64=linux64)\nresponse._vars=response._caller(index)\n'
p6
sS'snapshot'
p7
(dp8
S'exception'
p9
(dp10
S'__hash__'
p11
S"<method-wrapper '__hash__' of exceptions.TypeError object>"
p12
sS'__setattr__'
p13
S"<method-wrapper '__setattr__' of exceptions.TypeError object>"
p14
sS'__reduce_ex__'
p15
S'<built-in method __reduce_ex__ of exceptions.TypeError object>'
p16
sS'__getslice__'
p17
S"<method-wrapper '__getslice__' of exceptions.TypeError object>"
p18
sS'__getitem__'
p19
S"<method-wrapper '__getitem__' of exceptions.TypeError object>"
p20
sS'__setstate__'
p21
S'<built-in method __setstate__ of exceptions.TypeError object>'
p22
sS'args'
p23
S'("\'Query\' object is not iterable",)'
p24
sS'__reduce__'
p25
S'<built-in method __reduce__ of exceptions.TypeError object>'
p26
sS'__str__'
p27
S"<method-wrapper '__str__' of exceptions.TypeError object>"
p28
sS'__format__'
p29
S'<built-in method __format__ of exceptions.TypeError object>'
p30
sS'__getattribute__'
p31
S"<method-wrapper '__getattribute__' of exceptions.TypeError object>"
p32
sS'__class__'
p33
S"<type 'exceptions.TypeError'>"
p34
sS'__unicode__'
p35
S'<built-in method __unicode__ of exceptions.TypeError object>'
p36
sS'__delattr__'
p37
S"<method-wrapper '__delattr__' of exceptions.TypeError object>"
p38
sS'__subclasshook__'
p39
S'<built-in method __subclasshook__ of type object>'
p40
sS'__repr__'
p41
S"<method-wrapper '__repr__' of exceptions.TypeError object>"
p42
sS'__dict__'
p43
S'{}'
p44
sS'__sizeof__'
p45
S'<built-in method __sizeof__ of exceptions.TypeError object>'
p46
sS'__doc__'
p47
S"'Inappropriate argument type.'"
p48
sS'__init__'
p49
S"<method-wrapper '__init__' of exceptions.TypeError object>"
p50
sS'__new__'
p51
S'<built-in method __new__ of type object>'
p52
ssS'evalue'
p53
S"'Query' object is not iterable"
p54
sS'request'
p55
ccopy_reg
_reconstructor
p56
(cgluon.html
BEAUTIFY
p57
c__builtin__
object
p58
NtRp59
(dp60
S'attributes'
p61
(dp62
sS'components'
p63
(lp64
g56
(cgluon.html
TABLE
p65
g58
NtRp66
(dp67
g61
(dp68
S'level'
p69
I5
ssS'parent'
p70
Nsg63
(lp71
g56
(cgluon.html
TR
p72
g58
NtRp73
(dp74
g61
(dp75
sg70
g66
sg63
(lp76
g56
(cgluon.html
TD
p77
g58
NtRp78
(dp79
g61
(dp80
S'_style'
p81
S'font-weight:bold;'
p82
ssg70
g73
sg63
(lp83
S'ajax'
p84
asbag56
(g77
g58
NtRp85
(dp86
g61
(dp87
S'_valign'
p88
S'top'
p89
ssg70
g73
sg63
(lp90
S':'
asbag56
(g77
g58
NtRp91
(dp92
g61
(dp93
sg70
g73
sg63
(lp94
g56
(g57
g58
NtRp95
(dp96
g61
(dp97
g69
I5
ssg70
g91
sg63
(lp98
S'False'
p99
asbasbasbag56
(g72
g58
NtRp100
(dp101
g61
(dp102
sg70
g66
sg63
(lp103
g56
(g77
g58
NtRp104
(dp105
g61
(dp106
g81
g82
ssg70
g100
sg63
(lp107
S'application'
p108
asbag56
(g77
g58
NtRp109
(dp110
g61
(dp111
g88
g89
ssg70
g100
sg63
(lp112
S':'
asbag56
(g77
g58
NtRp113
(dp114
g61
(dp115
sg70
g100
sg63
(lp116
g56
(g57
g58
NtRp117
(dp118
g61
(dp119
g69
I5
ssg70
g113
sg63
(lp120
S'ddlagoon'
p121
asbasbasbag56
(g72
g58
NtRp122
(dp123
g61
(dp124
sg70
g66
sg63
(lp125
g56
(g77
g58
NtRp126
(dp127
g61
(dp128
g81
g82
ssg70
g122
sg63
(lp129
g23
asbag56
(g77
g58
NtRp130
(dp131
g61
(dp132
g88
g89
ssg70
g122
sg63
(lp133
S':'
asbag56
(g77
g58
NtRp134
(dp135
g61
(dp136
sg70
g122
sg63
(lp137
g56
(g57
g58
NtRp138
(dp139
g61
(dp140
g69
I5
ssg70
g134
sg63
(lp141
g56
(g65
g58
NtRp142
(dp143
g61
(dp144
g69
I4
ssg70
Nsg63
(lp145
sbasbasbasbag56
(g72
g58
NtRp146
(dp147
g61
(dp148
sg70
g66
sg63
(lp149
g56
(g77
g58
NtRp150
(dp151
g61
(dp152
g81
g82
ssg70
g146
sg63
(lp153
S'body'
p154
asbag56
(g77
g58
NtRp155
(dp156
g61
(dp157
g88
g89
ssg70
g146
sg63
(lp158
S':'
asbag56
(g77
g58
NtRp159
(dp160
g61
(dp161
sg70
g146
sg63
(lp162
g56
(g57
g58
NtRp163
(dp164
g61
(dp165
g69
I5
ssg70
g159
sg63
(lp166
S"<open file '<fdopen>', mode 'w+b' at 0x1d19f60>"
p167
asbasbasbag56
(g72
g58
NtRp168
(dp169
g61
(dp170
sg70
g66
sg63
(lp171
g56
(g77
g58
NtRp172
(dp173
g61
(dp174
g81
g82
ssg70
g168
sg63
(lp175
S'client'
p176
asbag56
(g77
g58
NtRp177
(dp178
g61
(dp179
g88
g89
ssg70
g168
sg63
(lp180
S':'
asbag56
(g77
g58
NtRp181
(dp182
g61
(dp183
sg70
g168
sg63
(lp184
g56
(g57
g58
NtRp185
(dp186
g61
(dp187
g69
I5
ssg70
g181
sg63
(lp188
S'127.0.0.1'
p189
asbasbasbag56
(g72
g58
NtRp190
(dp191
g61
(dp192
sg70
g66
sg63
(lp193
g56
(g77
g58
NtRp194
(dp195
g61
(dp196
g81
g82
ssg70
g190
sg63
(lp197
S'controller'
p198
asbag56
(g77
g58
NtRp199
(dp200
g61
(dp201
g88
g89
ssg70
g190
sg63
(lp202
S':'
asbag56
(g77
g58
NtRp203
(dp204
g61
(dp205
sg70
g190
sg63
(lp206
g56
(g57
g58
NtRp207
(dp208
g61
(dp209
g69
I5
ssg70
g203
sg63
(lp210
S'default'
p211
asbasbasbag56
(g72
g58
NtRp212
(dp213
g61
(dp214
sg70
g66
sg63
(lp215
g56
(g77
g58
NtRp216
(dp217
g61
(dp218
g81
g82
ssg70
g212
sg63
(lp219
S'cookies'
p220
asbag56
(g77
g58
NtRp221
(dp222
g61
(dp223
g88
g89
ssg70
g212
sg63
(lp224
S':'
asbag56
(g77
g58
NtRp225
(dp226
g61
(dp227
sg70
g212
sg63
(lp228
g56
(g57
g58
NtRp229
(dp230
g61
(dp231
g69
I5
ssg70
g225
sg63
(lp232
g56
(g65
g58
NtRp233
(dp234
g61
(dp235
g69
I4
ssg70
Nsg63
(lp236
g56
(g72
g58
NtRp237
(dp238
g61
(dp239
sg70
g233
sg63
(lp240
g56
(g77
g58
NtRp241
(dp242
g61
(dp243
g81
g82
ssg70
g237
sg63
(lp244
S'session_id_admin'
p245
asbag56
(g77
g58
NtRp246
(dp247
g61
(dp248
g88
g89
ssg70
g237
sg63
(lp249
S':'
asbag56
(g77
g58
NtRp250
(dp251
g61
(dp252
sg70
g237
sg63
(lp253
g56
(g57
g58
NtRp254
(dp255
g61
(dp256
g69
I4
ssg70
g250
sg63
(lp257
g56
(g65
g58
NtRp258
(dp259
g61
(dp260
g69
I3
ssg70
Nsg63
(lp261
g56
(g72
g58
NtRp262
(dp263
g61
(dp264
sg70
g258
sg63
(lp265
g56
(g77
g58
NtRp266
(dp267
g61
(dp268
g81
g82
ssg70
g262
sg63
(lp269
S'comment'
p270
asbag56
(g77
g58
NtRp271
(dp272
g61
(dp273
g88
g89
ssg70
g262
sg63
(lp274
S':'
asbag56
(g77
g58
NtRp275
(dp276
g61
(dp277
sg70
g262
sg63
(lp278
g56
(g57
g58
NtRp279
(dp280
g61
(dp281
g69
I3
ssg70
g275
sg63
(lp282
S''
asbasbasbag56
(g72
g58
NtRp283
(dp284
g61
(dp285
sg70
g258
sg63
(lp286
g56
(g77
g58
NtRp287
(dp288
g61
(dp289
g81
g82
ssg70
g283
sg63
(lp290
S'domain'
p291
asbag56
(g77
g58
NtRp292
(dp293
g61
(dp294
g88
g89
ssg70
g283
sg63
(lp295
S':'
asbag56
(g77
g58
NtRp296
(dp297
g61
(dp298
sg70
g283
sg63
(lp299
g56
(g57
g58
NtRp300
(dp301
g61
(dp302
g69
I3
ssg70
g296
sg63
(lp303
S''
asbasbasbag56
(g72
g58
NtRp304
(dp305
g61
(dp306
sg70
g258
sg63
(lp307
g56
(g77
g58
NtRp308
(dp309
g61
(dp310
g81
g82
ssg70
g304
sg63
(lp311
S'expires'
p312
asbag56
(g77
g58
NtRp313
(dp314
g61
(dp315
g88
g89
ssg70
g304
sg63
(lp316
S':'
asbag56
(g77
g58
NtRp317
(dp318
g61
(dp319
sg70
g304
sg63
(lp320
g56
(g57
g58
NtRp321
(dp322
g61
(dp323
g69
I3
ssg70
g317
sg63
(lp324
S''
asbasbasbag56
(g72
g58
NtRp325
(dp326
g61
(dp327
sg70
g258
sg63
(lp328
g56
(g77
g58
NtRp329
(dp330
g61
(dp331
g81
g82
ssg70
g325
sg63
(lp332
S'httponly'
p333
asbag56
(g77
g58
NtRp334
(dp335
g61
(dp336
g88
g89
ssg70
g325
sg63
(lp337
S':'
asbag56
(g77
g58
NtRp338
(dp339
g61
(dp340
sg70
g325
sg63
(lp341
g56
(g57
g58
NtRp342
(dp343
g61
(dp344
g69
I3
ssg70
g338
sg63
(lp345
S''
asbasbasbag56
(g72
g58
NtRp346
(dp347
g61
(dp348
sg70
g258
sg63
(lp349
g56
(g77
g58
NtRp350
(dp351
g61
(dp352
g81
g82
ssg70
g346
sg63
(lp353
S'max-age'
p354
asbag56
(g77
g58
NtRp355
(dp356
g61
(dp357
g88
g89
ssg70
g346
sg63
(lp358
S':'
asbag56
(g77
g58
NtRp359
(dp360
g61
(dp361
sg70
g346
sg63
(lp362
g56
(g57
g58
NtRp363
(dp364
g61
(dp365
g69
I3
ssg70
g359
sg63
(lp366
S''
asbasbasbag56
(g72
g58
NtRp367
(dp368
g61
(dp369
sg70
g258
sg63
(lp370
g56
(g77
g58
NtRp371
(dp372
g61
(dp373
g81
g82
ssg70
g367
sg63
(lp374
S'path'
p375
asbag56
(g77
g58
NtRp376
(dp377
g61
(dp378
g88
g89
ssg70
g367
sg63
(lp379
S':'
asbag56
(g77
g58
NtRp380
(dp381
g61
(dp382
sg70
g367
sg63
(lp383
g56
(g57
g58
NtRp384
(dp385
g61
(dp386
g69
I3
ssg70
g380
sg63
(lp387
S''
asbasbasbag56
(g72
g58
NtRp388
(dp389
g61
(dp390
sg70
g258
sg63
(lp391
g56
(g77
g58
NtRp392
(dp393
g61
(dp394
g81
g82
ssg70
g388
sg63
(lp395
S'secure'
p396
asbag56
(g77
g58
NtRp397
(dp398
g61
(dp399
g88
g89
ssg70
g388
sg63
(lp400
S':'
asbag56
(g77
g58
NtRp401
(dp402
g61
(dp403
sg70
g388
sg63
(lp404
g56
(g57
g58
NtRp405
(dp406
g61
(dp407
g69
I3
ssg70
g401
sg63
(lp408
S''
asbasbasbag56
(g72
g58
NtRp409
(dp410
g61
(dp411
sg70
g258
sg63
(lp412
g56
(g77
g58
NtRp413
(dp414
g61
(dp415
g81
g82
ssg70
g409
sg63
(lp416
S'version'
p417
asbag56
(g77
g58
NtRp418
(dp419
g61
(dp420
g88
g89
ssg70
g409
sg63
(lp421
S':'
asbag56
(g77
g58
NtRp422
(dp423
g61
(dp424
sg70
g409
sg63
(lp425
g56
(g57
g58
NtRp426
(dp427
g61
(dp428
g69
I3
ssg70
g422
sg63
(lp429
S''
asbasbasbasbasbasbasbag56
(g72
g58
NtRp430
(dp431
g61
(dp432
sg70
g233
sg63
(lp433
g56
(g77
g58
NtRp434
(dp435
g61
(dp436
g81
g82
ssg70
g430
sg63
(lp437
S'session_id_ddlagoon'
p438
asbag56
(g77
g58
NtRp439
(dp440
g61
(dp441
g88
g89
ssg70
g430
sg63
(lp442
S':'
asbag56
(g77
g58
NtRp443
(dp444
g61
(dp445
sg70
g430
sg63
(lp446
g56
(g57
g58
NtRp447
(dp448
g61
(dp449
g69
I4
ssg70
g443
sg63
(lp450
g56
(g65
g58
NtRp451
(dp452
g61
(dp453
g69
I3
ssg70
Nsg63
(lp454
g56
(g72
g58
NtRp455
(dp456
g61
(dp457
sg70
g451
sg63
(lp458
g56
(g77
g58
NtRp459
(dp460
g61
(dp461
g81
g82
ssg70
g455
sg63
(lp462
g270
asbag56
(g77
g58
NtRp463
(dp464
g61
(dp465
g88
g89
ssg70
g455
sg63
(lp466
S':'
asbag56
(g77
g58
NtRp467
(dp468
g61
(dp469
sg70
g455
sg63
(lp470
g56
(g57
g58
NtRp471
(dp472
g61
(dp473
g69
I3
ssg70
g467
sg63
(lp474
S''
asbasbasbag56
(g72
g58
NtRp475
(dp476
g61
(dp477
sg70
g451
sg63
(lp478
g56
(g77
g58
NtRp479
(dp480
g61
(dp481
g81
g82
ssg70
g475
sg63
(lp482
g291
asbag56
(g77
g58
NtRp483
(dp484
g61
(dp485
g88
g89
ssg70
g475
sg63
(lp486
S':'
asbag56
(g77
g58
NtRp487
(dp488
g61
(dp489
sg70
g475
sg63
(lp490
g56
(g57
g58
NtRp491
(dp492
g61
(dp493
g69
I3
ssg70
g487
sg63
(lp494
S''
asbasbasbag56
(g72
g58
NtRp495
(dp496
g61
(dp497
sg70
g451
sg63
(lp498
g56
(g77
g58
NtRp499
(dp500
g61
(dp501
g81
g82
ssg70
g495
sg63
(lp502
g312
asbag56
(g77
g58
NtRp503
(dp504
g61
(dp505
g88
g89
ssg70
g495
sg63
(lp506
S':'
asbag56
(g77
g58
NtRp507
(dp508
g61
(dp509
sg70
g495
sg63
(lp510
g56
(g57
g58
NtRp511
(dp512
g61
(dp513
g69
I3
ssg70
g507
sg63
(lp514
S''
asbasbasbag56
(g72
g58
NtRp515
(dp516
g61
(dp517
sg70
g451
sg63
(lp518
g56
(g77
g58
NtRp519
(dp520
g61
(dp521
g81
g82
ssg70
g515
sg63
(lp522
g333
asbag56
(g77
g58
NtRp523
(dp524
g61
(dp525
g88
g89
ssg70
g515
sg63
(lp526
S':'
asbag56
(g77
g58
NtRp527
(dp528
g61
(dp529
sg70
g515
sg63
(lp530
g56
(g57
g58
NtRp531
(dp532
g61
(dp533
g69
I3
ssg70
g527
sg63
(lp534
S''
asbasbasbag56
(g72
g58
NtRp535
(dp536
g61
(dp537
sg70
g451
sg63
(lp538
g56
(g77
g58
NtRp539
(dp540
g61
(dp541
g81
g82
ssg70
g535
sg63
(lp542
g354
asbag56
(g77
g58
NtRp543
(dp544
g61
(dp545
g88
g89
ssg70
g535
sg63
(lp546
S':'
asbag56
(g77
g58
NtRp547
(dp548
g61
(dp549
sg70
g535
sg63
(lp550
g56
(g57
g58
NtRp551
(dp552
g61
(dp553
g69
I3
ssg70
g547
sg63
(lp554
S''
asbasbasbag56
(g72
g58
NtRp555
(dp556
g61
(dp557
sg70
g451
sg63
(lp558
g56
(g77
g58
NtRp559
(dp560
g61
(dp561
g81
g82
ssg70
g555
sg63
(lp562
g375
asbag56
(g77
g58
NtRp563
(dp564
g61
(dp565
g88
g89
ssg70
g555
sg63
(lp566
S':'
asbag56
(g77
g58
NtRp567
(dp568
g61
(dp569
sg70
g555
sg63
(lp570
g56
(g57
g58
NtRp571
(dp572
g61
(dp573
g69
I3
ssg70
g567
sg63
(lp574
S''
asbasbasbag56
(g72
g58
NtRp575
(dp576
g61
(dp577
sg70
g451
sg63
(lp578
g56
(g77
g58
NtRp579
(dp580
g61
(dp581
g81
g82
ssg70
g575
sg63
(lp582
g396
asbag56
(g77
g58
NtRp583
(dp584
g61
(dp585
g88
g89
ssg70
g575
sg63
(lp586
S':'
asbag56
(g77
g58
NtRp587
(dp588
g61
(dp589
sg70
g575
sg63
(lp590
g56
(g57
g58
NtRp591
(dp592
g61
(dp593
g69
I3
ssg70
g587
sg63
(lp594
S''
asbasbasbag56
(g72
g58
NtRp595
(dp596
g61
(dp597
sg70
g451
sg63
(lp598
g56
(g77
g58
NtRp599
(dp600
g61
(dp601
g81
g82
ssg70
g595
sg63
(lp602
g417
asbag56
(g77
g58
NtRp603
(dp604
g61
(dp605
g88
g89
ssg70
g595
sg63
(lp606
S':'
asbag56
(g77
g58
NtRp607
(dp608
g61
(dp609
sg70
g595
sg63
(lp610
g56
(g57
g58
NtRp611
(dp612
g61
(dp613
g69
I3
ssg70
g607
sg63
(lp614
S''
asbasbasbasbasbasbasbasbasbasbasbag56
(g72
g58
NtRp615
(dp616
g61
(dp617
sg70
g66
sg63
(lp618
g56
(g77
g58
NtRp619
(dp620
g61
(dp621
g81
g82
ssg70
g615
sg63
(lp622
S'env'
p623
asbag56
(g77
g58
NtRp624
(dp625
g61
(dp626
g88
g89
ssg70
g615
sg63
(lp627
S':'
asbag56
(g77
g58
NtRp628
(dp629
g61
(dp630
sg70
g615
sg63
(lp631
g56
(g57
g58
NtRp632
(dp633
g61
(dp634
g69
I5
ssg70
g628
sg63
(lp635
g56
(g65
g58
NtRp636
(dp637
g61
(dp638
g69
I4
ssg70
Nsg63
(lp639
g56
(g72
g58
NtRp640
(dp641
g61
(dp642
sg70
g636
sg63
(lp643
g56
(g77
g58
NtRp644
(dp645
g61
(dp646
g81
g82
ssg70
g640
sg63
(lp647
S'app_folders'
p648
asbag56
(g77
g58
NtRp649
(dp650
g61
(dp651
g88
g89
ssg70
g640
sg63
(lp652
S':'
asbag56
(g77
g58
NtRp653
(dp654
g61
(dp655
sg70
g640
sg63
(lp656
g56
(g57
g58
NtRp657
(dp658
g61
(dp659
g69
I4
ssg70
g653
sg63
(lp660
S"set(['/windows/Users/Thomas/Dropbox/appz/2011/GAE/ddl-lagoon/applications/ddlagoon/', '/windows/Users/Thomas/Dropbox/appz/2011/GAE/ddl-lagoon/applications/admin/'])"
p661
asbasbasbag56
(g72
g58
NtRp662
(dp663
g61
(dp664
sg70
g636
sg63
(lp665
g56
(g77
g58
NtRp666
(dp667
g61
(dp668
g81
g82
ssg70
g662
sg63
(lp669
S'applications_parent'
p670
asbag56
(g77
g58
NtRp671
(dp672
g61
(dp673
g88
g89
ssg70
g662
sg63
(lp674
S':'
asbag56
(g77
g58
NtRp675
(dp676
g61
(dp677
sg70
g662
sg63
(lp678
g56
(g57
g58
NtRp679
(dp680
g61
(dp681
g69
I4
ssg70
g675
sg63
(lp682
S'/windows/Users/Thomas/Dropbox/appz/2011/GAE/ddl-lagoon'
p683
asbasbasbag56
(g72
g58
NtRp684
(dp685
g61
(dp686
sg70
g636
sg63
(lp687
g56
(g77
g58
NtRp688
(dp689
g61
(dp690
g81
g82
ssg70
g684
sg63
(lp691
S'cmd_args'
p692
asbag56
(g77
g58
NtRp693
(dp694
g61
(dp695
g88
g89
ssg70
g684
sg63
(lp696
S':'
asbag56
(g77
g58
NtRp697
(dp698
g61
(dp699
sg70
g684
sg63
(lp700
g56
(g57
g58
NtRp701
(dp702
g61
(dp703
g69
I4
ssg70
g697
sg63
(lp704
g56
(g65
g58
NtRp705
(dp706
g61
(dp707
g69
I3
ssg70
Nsg63
(lp708
sbasbasbasbag56
(g72
g58
NtRp709
(dp710
g61
(dp711
sg70
g636
sg63
(lp712
g56
(g77
g58
NtRp713
(dp714
g61
(dp715
g81
g82
ssg70
g709
sg63
(lp716
S'cmd_options'
p717
asbag56
(g77
g58
NtRp718
(dp719
g61
(dp720
g88
g89
ssg70
g709
sg63
(lp721
S':'
asbag56
(g77
g58
NtRp722
(dp723
g61
(dp724
sg70
g709
sg63
(lp725
g56
(g57
g58
NtRp726
(dp727
g61
(dp728
g69
I4
ssg70
g722
sg63
(lp729
S"<Values at 0x1e2b170: {'verbose': False, 'ip': '127.0.0.1', 'shutdown_timeout': 5, 'taskbar': False, 'nocron': False, 'pid_filename': 'httpserver.pid', 'maxthreads': None, 'softcron': False, 'server_name': 'VPCF22AJ', 'bpython': False, 'nogui': False, 'port': 8000, 'extcron': False, 'debuglevel': 30, 'test': None, 'folder': '/windows/Users/Thomas/Dropbox/appz/2011/GAE/ddl-lagoon', 'config': '', 'import_models': False, 'winservice': '', 'shell': None, 'run': '', 'log_filename': 'httpserver.log', 'args': [''], 'ssl_ca_certificate': None, 'scheduler': None, 'profiler_filename': None, 'ssl_private_key': '', 'password': 'admin', 'request_queue_size': 5, 'ssl_certificate': '', 'cronjob': False, 'plain': False, 'quiet': False, 'interfaces': None, 'minthreads': None, 'timeout': 10, 'numthreads': None, 'nobanner': False}>"
p730
asbasbasbag56
(g72
g58
NtRp731
(dp732
g61
(dp733
sg70
g636
sg63
(lp734
g56
(g77
g58
NtRp735
(dp736
g61
(dp737
g81
g82
ssg70
g731
sg63
(lp738
S'content_length'
p739
asbag56
(g77
g58
NtRp740
(dp741
g61
(dp742
g88
g89
ssg70
g731
sg63
(lp743
S':'
asbag56
(g77
g58
NtRp744
(dp745
g61
(dp746
sg70
g731
sg63
(lp747
g56
(g57
g58
NtRp748
(dp749
g61
(dp750
g69
I4
ssg70
g744
sg63
(lp751
S'379'
p752
asbasbasbag56
(g72
g58
NtRp753
(dp754
g61
(dp755
sg70
g636
sg63
(lp756
g56
(g77
g58
NtRp757
(dp758
g61
(dp759
g81
g82
ssg70
g753
sg63
(lp760
S'content_type'
p761
asbag56
(g77
g58
NtRp762
(dp763
g61
(dp764
g88
g89
ssg70
g753
sg63
(lp765
S':'
asbag56
(g77
g58
NtRp766
(dp767
g61
(dp768
sg70
g753
sg63
(lp769
g56
(g57
g58
NtRp770
(dp771
g61
(dp772
g69
I4
ssg70
g766
sg63
(lp773
S'multipart/form-data; boundary=----WebKitFormBoundaryivWh8kXijWQsD78B'
p774
asbasbasbag56
(g72
g58
NtRp775
(dp776
g61
(dp777
sg70
g636
sg63
(lp778
g56
(g77
g58
NtRp779
(dp780
g61
(dp781
g81
g82
ssg70
g775
sg63
(lp782
S'db_sessions'
p783
asbag56
(g77
g58
NtRp784
(dp785
g61
(dp786
g88
g89
ssg70
g775
sg63
(lp787
S':'
asbag56
(g77
g58
NtRp788
(dp789
g61
(dp790
sg70
g775
sg63
(lp791
g56
(g57
g58
NtRp792
(dp793
g61
(dp794
g69
I4
ssg70
g788
sg63
(lp795
S'set([])'
p796
asbasbasbag56
(g72
g58
NtRp797
(dp798
g61
(dp799
sg70
g636
sg63
(lp800
g56
(g77
g58
NtRp801
(dp802
g61
(dp803
g81
g82
ssg70
g797
sg63
(lp804
S'debugging'
p805
asbag56
(g77
g58
NtRp806
(dp807
g61
(dp808
g88
g89
ssg70
g797
sg63
(lp809
S':'
asbag56
(g77
g58
NtRp810
(dp811
g61
(dp812
sg70
g797
sg63
(lp813
g56
(g57
g58
NtRp814
(dp815
g61
(dp816
g69
I4
ssg70
g810
sg63
(lp817
g99
asbasbasbag56
(g72
g58
NtRp818
(dp819
g61
(dp820
sg70
g636
sg63
(lp821
g56
(g77
g58
NtRp822
(dp823
g61
(dp824
g81
g82
ssg70
g818
sg63
(lp825
S'gluon_parent'
p826
asbag56
(g77
g58
NtRp827
(dp828
g61
(dp829
g88
g89
ssg70
g818
sg63
(lp830
S':'
asbag56
(g77
g58
NtRp831
(dp832
g61
(dp833
sg70
g818
sg63
(lp834
g56
(g57
g58
NtRp835
(dp836
g61
(dp837
g69
I4
ssg70
g831
sg63
(lp838
S'/windows/Users/Thomas/Dropbox/appz/2011/GAE/ddl-lagoon'
p839
asbasbasbag56
(g72
g58
NtRp840
(dp841
g61
(dp842
sg70
g636
sg63
(lp843
g56
(g77
g58
NtRp844
(dp845
g61
(dp846
g81
g82
ssg70
g840
sg63
(lp847
S'http_accept'
p848
asbag56
(g77
g58
NtRp849
(dp850
g61
(dp851
g88
g89
ssg70
g840
sg63
(lp852
S':'
asbag56
(g77
g58
NtRp853
(dp854
g61
(dp855
sg70
g840
sg63
(lp856
g56
(g57
g58
NtRp857
(dp858
g61
(dp859
g69
I4
ssg70
g853
sg63
(lp860
S'text/html,application/xhtml+xml,application/xml;q=0.9,*/*;q=0.8'
p861
asbasbasbag56
(g72
g58
NtRp862
(dp863
g61
(dp864
sg70
g636
sg63
(lp865
g56
(g77
g58
NtRp866
(dp867
g61
(dp868
g81
g82
ssg70
g862
sg63
(lp869
S'http_accept_charset'
p870
asbag56
(g77
g58
NtRp871
(dp872
g61
(dp873
g88
g89
ssg70
g862
sg63
(lp874
S':'
asbag56
(g77
g58
NtRp875
(dp876
g61
(dp877
sg70
g862
sg63
(lp878
g56
(g57
g58
NtRp879
(dp880
g61
(dp881
g69
I4
ssg70
g875
sg63
(lp882
S'ISO-8859-1,utf-8;q=0.7,*;q=0.3'
p883
asbasbasbag56
(g72
g58
NtRp884
(dp885
g61
(dp886
sg70
g636
sg63
(lp887
g56
(g77
g58
NtRp888
(dp889
g61
(dp890
g81
g82
ssg70
g884
sg63
(lp891
S'http_accept_encoding'
p892
asbag56
(g77
g58
NtRp893
(dp894
g61
(dp895
g88
g89
ssg70
g884
sg63
(lp896
S':'
asbag56
(g77
g58
NtRp897
(dp898
g61
(dp899
sg70
g884
sg63
(lp900
g56
(g57
g58
NtRp901
(dp902
g61
(dp903
g69
I4
ssg70
g897
sg63
(lp904
S'gzip,deflate,sdch'
p905
asbasbasbag56
(g72
g58
NtRp906
(dp907
g61
(dp908
sg70
g636
sg63
(lp909
g56
(g77
g58
NtRp910
(dp911
g61
(dp912
g81
g82
ssg70
g906
sg63
(lp913
S'http_accept_language'
p914
asbag56
(g77
g58
NtRp915
(dp916
g61
(dp917
g88
g89
ssg70
g906
sg63
(lp918
S':'
asbag56
(g77
g58
NtRp919
(dp920
g61
(dp921
sg70
g906
sg63
(lp922
g56
(g57
g58
NtRp923
(dp924
g61
(dp925
g69
I4
ssg70
g919
sg63
(lp926
S'en-US,en;q=0.8,fr;q=0.6'
p927
asbasbasbag56
(g72
g58
NtRp928
(dp929
g61
(dp930
sg70
g636
sg63
(lp931
g56
(g77
g58
NtRp932
(dp933
g61
(dp934
g81
g82
ssg70
g928
sg63
(lp935
S'http_cache_control'
p936
asbag56
(g77
g58
NtRp937
(dp938
g61
(dp939
g88
g89
ssg70
g928
sg63
(lp940
S':'
asbag56
(g77
g58
NtRp941
(dp942
g61
(dp943
sg70
g928
sg63
(lp944
g56
(g57
g58
NtRp945
(dp946
g61
(dp947
g69
I4
ssg70
g941
sg63
(lp948
S'max-age=0'
p949
asbasbasbag56
(g72
g58
NtRp950
(dp951
g61
(dp952
sg70
g636
sg63
(lp953
g56
(g77
g58
NtRp954
(dp955
g61
(dp956
g81
g82
ssg70
g950
sg63
(lp957
S'http_connection'
p958
asbag56
(g77
g58
NtRp959
(dp960
g61
(dp961
g88
g89
ssg70
g950
sg63
(lp962
S':'
asbag56
(g77
g58
NtRp963
(dp964
g61
(dp965
sg70
g950
sg63
(lp966
g56
(g57
g58
NtRp967
(dp968
g61
(dp969
g69
I4
ssg70
g963
sg63
(lp970
S'keep-alive'
p971
asbasbasbag56
(g72
g58
NtRp972
(dp973
g61
(dp974
sg70
g636
sg63
(lp975
g56
(g77
g58
NtRp976
(dp977
g61
(dp978
g81
g82
ssg70
g972
sg63
(lp979
S'http_content_length'
p980
asbag56
(g77
g58
NtRp981
(dp982
g61
(dp983
g88
g89
ssg70
g972
sg63
(lp984
S':'
asbag56
(g77
g58
NtRp985
(dp986
g61
(dp987
sg70
g972
sg63
(lp988
g56
(g57
g58
NtRp989
(dp990
g61
(dp991
g69
I4
ssg70
g985
sg63
(lp992
g752
asbasbasbag56
(g72
g58
NtRp993
(dp994
g61
(dp995
sg70
g636
sg63
(lp996
g56
(g77
g58
NtRp997
(dp998
g61
(dp999
g81
g82
ssg70
g993
sg63
(lp1000
S'http_content_type'
p1001
asbag56
(g77
g58
NtRp1002
(dp1003
g61
(dp1004
g88
g89
ssg70
g993
sg63
(lp1005
S':'
asbag56
(g77
g58
NtRp1006
(dp1007
g61
(dp1008
sg70
g993
sg63
(lp1009
g56
(g57
g58
NtRp1010
(dp1011
g61
(dp1012
g69
I4
ssg70
g1006
sg63
(lp1013
g774
asbasbasbag56
(g72
g58
NtRp1014
(dp1015
g61
(dp1016
sg70
g636
sg63
(lp1017
g56
(g77
g58
NtRp1018
(dp1019
g61
(dp1020
g81
g82
ssg70
g1014
sg63
(lp1021
S'http_cookie'
p1022
asbag56
(g77
g58
NtRp1023
(dp1024
g61
(dp1025
g88
g89
ssg70
g1014
sg63
(lp1026
S':'
asbag56
(g77
g58
NtRp1027
(dp1028
g61
(dp1029
sg70
g1014
sg63
(lp1030
g56
(g57
g58
NtRp1031
(dp1032
g61
(dp1033
g69
I4
ssg70
g1027
sg63
(lp1034
S'__utma_a2a=6830991484.1350583772.1319026846.1319052270.1319052278.11; session_id_admin=127.0.0.1-7dd069a2-a0a7-4285-a99a-d0dc24f9a0a4; session_id_ddlagoon=127.0.0.1-60102476-ed87-4511-b16b-e72b3489909e'
p1035
asbasbasbag56
(g72
g58
NtRp1036
(dp1037
g61
(dp1038
sg70
g636
sg63
(lp1039
g56
(g77
g58
NtRp1040
(dp1041
g61
(dp1042
g81
g82
ssg70
g1036
sg63
(lp1043
S'http_host'
p1044
asbag56
(g77
g58
NtRp1045
(dp1046
g61
(dp1047
g88
g89
ssg70
g1036
sg63
(lp1048
S':'
asbag56
(g77
g58
NtRp1049
(dp1050
g61
(dp1051
sg70
g1036
sg63
(lp1052
g56
(g57
g58
NtRp1053
(dp1054
g61
(dp1055
g69
I4
ssg70
g1049
sg63
(lp1056
S'localhost:8000'
p1057
asbasbasbag56
(g72
g58
NtRp1058
(dp1059
g61
(dp1060
sg70
g636
sg63
(lp1061
g56
(g77
g58
NtRp1062
(dp1063
g61
(dp1064
g81
g82
ssg70
g1058
sg63
(lp1065
S'http_origin'
p1066
asbag56
(g77
g58
NtRp1067
(dp1068
g61
(dp1069
g88
g89
ssg70
g1058
sg63
(lp1070
S':'
asbag56
(g77
g58
NtRp1071
(dp1072
g61
(dp1073
sg70
g1058
sg63
(lp1074
g56
(g57
g58
NtRp1075
(dp1076
g61
(dp1077
g69
I4
ssg70
g1071
sg63
(lp1078
S'http://localhost:8000'
p1079
asbasbasbag56
(g72
g58
NtRp1080
(dp1081
g61
(dp1082
sg70
g636
sg63
(lp1083
g56
(g77
g58
NtRp1084
(dp1085
g61
(dp1086
g81
g82
ssg70
g1080
sg63
(lp1087
S'http_referer'
p1088
asbag56
(g77
g58
NtRp1089
(dp1090
g61
(dp1091
g88
g89
ssg70
g1080
sg63
(lp1092
S':'
asbag56
(g77
g58
NtRp1093
(dp1094
g61
(dp1095
sg70
g1080
sg63
(lp1096
g56
(g57
g58
NtRp1097
(dp1098
g61
(dp1099
g69
I4
ssg70
g1093
sg63
(lp1100
S'http://localhost:8000/ddlagoon/default/index'
p1101
asbasbasbag56
(g72
g58
NtRp1102
(dp1103
g61
(dp1104
sg70
g636
sg63
(lp1105
g56
(g77
g58
NtRp1106
(dp1107
g61
(dp1108
g81
g82
ssg70
g1102
sg63
(lp1109
S'http_user_agent'
p1110
asbag56
(g77
g58
NtRp1111
(dp1112
g61
(dp1113
g88
g89
ssg70
g1102
sg63
(lp1114
S':'
asbag56
(g77
g58
NtRp1115
(dp1116
g61
(dp1117
sg70
g1102
sg63
(lp1118
g56
(g57
g58
NtRp1119
(dp1120
g61
(dp1121
g69
I4
ssg70
g1115
sg63
(lp1122
S'Mozilla/5.0 (X11; Linux x86_64) AppleWebKit/535.2 (KHTML, like Gecko) Chrome/15.0.874.106 Safari/535.2'
p1123
asbasbasbag56
(g72
g58
NtRp1124
(dp1125
g61
(dp1126
sg70
g636
sg63
(lp1127
g56
(g77
g58
NtRp1128
(dp1129
g61
(dp1130
g81
g82
ssg70
g1124
sg63
(lp1131
S'is_jython'
p1132
asbag56
(g77
g58
NtRp1133
(dp1134
g61
(dp1135
g88
g89
ssg70
g1124
sg63
(lp1136
S':'
asbag56
(g77
g58
NtRp1137
(dp1138
g61
(dp1139
sg70
g1124
sg63
(lp1140
g56
(g57
g58
NtRp1141
(dp1142
g61
(dp1143
g69
I4
ssg70
g1137
sg63
(lp1144
g99
asbasbasbag56
(g72
g58
NtRp1145
(dp1146
g61
(dp1147
sg70
g636
sg63
(lp1148
g56
(g77
g58
NtRp1149
(dp1150
g61
(dp1151
g81
g82
ssg70
g1145
sg63
(lp1152
S'path_info'
p1153
asbag56
(g77
g58
NtRp1154
(dp1155
g61
(dp1156
g88
g89
ssg70
g1145
sg63
(lp1157
S':'
asbag56
(g77
g58
NtRp1158
(dp1159
g61
(dp1160
sg70
g1145
sg63
(lp1161
g56
(g57
g58
NtRp1162
(dp1163
g61
(dp1164
g69
I4
ssg70
g1158
sg63
(lp1165
S'/ddlagoon/default/index'
p1166
asbasbasbag56
(g72
g58
NtRp1167
(dp1168
g61
(dp1169
sg70
g636
sg63
(lp1170
g56
(g77
g58
NtRp1171
(dp1172
g61
(dp1173
g81
g82
ssg70
g1167
sg63
(lp1174
S'query_string'
p1175
asbag56
(g77
g58
NtRp1176
(dp1177
g61
(dp1178
g88
g89
ssg70
g1167
sg63
(lp1179
S':'
asbag56
(g77
g58
NtRp1180
(dp1181
g61
(dp1182
sg70
g1167
sg63
(lp1183
g56
(g57
g58
NtRp1184
(dp1185
g61
(dp1186
g69
I4
ssg70
g1180
sg63
(lp1187
S''
asbasbasbag56
(g72
g58
NtRp1188
(dp1189
g61
(dp1190
sg70
g636
sg63
(lp1191
g56
(g77
g58
NtRp1192
(dp1193
g61
(dp1194
g81
g82
ssg70
g1188
sg63
(lp1195
S'remote_addr'
p1196
asbag56
(g77
g58
NtRp1197
(dp1198
g61
(dp1199
g88
g89
ssg70
g1188
sg63
(lp1200
S':'
asbag56
(g77
g58
NtRp1201
(dp1202
g61
(dp1203
sg70
g1188
sg63
(lp1204
g56
(g57
g58
NtRp1205
(dp1206
g61
(dp1207
g69
I4
ssg70
g1201
sg63
(lp1208
g189
asbasbasbag56
(g72
g58
NtRp1209
(dp1210
g61
(dp1211
sg70
g636
sg63
(lp1212
g56
(g77
g58
NtRp1213
(dp1214
g61
(dp1215
g81
g82
ssg70
g1209
sg63
(lp1216
S'remote_port'
p1217
asbag56
(g77
g58
NtRp1218
(dp1219
g61
(dp1220
g88
g89
ssg70
g1209
sg63
(lp1221
S':'
asbag56
(g77
g58
NtRp1222
(dp1223
g61
(dp1224
sg70
g1209
sg63
(lp1225
g56
(g57
g58
NtRp1226
(dp1227
g61
(dp1228
g69
I4
ssg70
g1222
sg63
(lp1229
S'57270'
p1230
asbasbasbag56
(g72
g58
NtRp1231
(dp1232
g61
(dp1233
sg70
g636
sg63
(lp1234
g56
(g77
g58
NtRp1235
(dp1236
g61
(dp1237
g81
g82
ssg70
g1231
sg63
(lp1238
S'request_method'
p1239
asbag56
(g77
g58
NtRp1240
(dp1241
g61
(dp1242
g88
g89
ssg70
g1231
sg63
(lp1243
S':'
asbag56
(g77
g58
NtRp1244
(dp1245
g61
(dp1246
sg70
g1231
sg63
(lp1247
g56
(g57
g58
NtRp1248
(dp1249
g61
(dp1250
g69
I4
ssg70
g1244
sg63
(lp1251
S'POST'
p1252
asbasbasbag56
(g72
g58
NtRp1253
(dp1254
g61
(dp1255
sg70
g636
sg63
(lp1256
g56
(g77
g58
NtRp1257
(dp1258
g61
(dp1259
g81
g82
ssg70
g1253
sg63
(lp1260
S'request_uri'
p1261
asbag56
(g77
g58
NtRp1262
(dp1263
g61
(dp1264
g88
g89
ssg70
g1253
sg63
(lp1265
S':'
asbag56
(g77
g58
NtRp1266
(dp1267
g61
(dp1268
sg70
g1253
sg63
(lp1269
g56
(g57
g58
NtRp1270
(dp1271
g61
(dp1272
g69
I4
ssg70
g1266
sg63
(lp1273
g1166
asbasbasbag56
(g72
g58
NtRp1274
(dp1275
g61
(dp1276
sg70
g636
sg63
(lp1277
g56
(g77
g58
NtRp1278
(dp1279
g61
(dp1280
g81
g82
ssg70
g1274
sg63
(lp1281
S'script_name'
p1282
asbag56
(g77
g58
NtRp1283
(dp1284
g61
(dp1285
g88
g89
ssg70
g1274
sg63
(lp1286
S':'
asbag56
(g77
g58
NtRp1287
(dp1288
g61
(dp1289
sg70
g1274
sg63
(lp1290
g56
(g57
g58
NtRp1291
(dp1292
g61
(dp1293
g69
I4
ssg70
g1287
sg63
(lp1294
S''
asbasbasbag56
(g72
g58
NtRp1295
(dp1296
g61
(dp1297
sg70
g636
sg63
(lp1298
g56
(g77
g58
NtRp1299
(dp1300
g61
(dp1301
g81
g82
ssg70
g1295
sg63
(lp1302
S'server_name'
p1303
asbag56
(g77
g58
NtRp1304
(dp1305
g61
(dp1306
g88
g89
ssg70
g1295
sg63
(lp1307
S':'
asbag56
(g77
g58
NtRp1308
(dp1309
g61
(dp1310
sg70
g1295
sg63
(lp1311
g56
(g57
g58
NtRp1312
(dp1313
g61
(dp1314
g69
I4
ssg70
g1308
sg63
(lp1315
S'VPCF22AJ'
p1316
asbasbasbag56
(g72
g58
NtRp1317
(dp1318
g61
(dp1319
sg70
g636
sg63
(lp1320
g56
(g77
g58
NtRp1321
(dp1322
g61
(dp1323
g81
g82
ssg70
g1317
sg63
(lp1324
S'server_port'
p1325
asbag56
(g77
g58
NtRp1326
(dp1327
g61
(dp1328
g88
g89
ssg70
g1317
sg63
(lp1329
S':'
asbag56
(g77
g58
NtRp1330
(dp1331
g61
(dp1332
sg70
g1317
sg63
(lp1333
g56
(g57
g58
NtRp1334
(dp1335
g61
(dp1336
g69
I4
ssg70
g1330
sg63
(lp1337
S'8000'
p1338
asbasbasbag56
(g72
g58
NtRp1339
(dp1340
g61
(dp1341
sg70
g636
sg63
(lp1342
g56
(g77
g58
NtRp1343
(dp1344
g61
(dp1345
g81
g82
ssg70
g1339
sg63
(lp1346
S'server_protocol'
p1347
asbag56
(g77
g58
NtRp1348
(dp1349
g61
(dp1350
g88
g89
ssg70
g1339
sg63
(lp1351
S':'
asbag56
(g77
g58
NtRp1352
(dp1353
g61
(dp1354
sg70
g1339
sg63
(lp1355
g56
(g57
g58
NtRp1356
(dp1357
g61
(dp1358
g69
I4
ssg70
g1352
sg63
(lp1359
S'HTTP/1.1'
p1360
asbasbasbag56
(g72
g58
NtRp1361
(dp1362
g61
(dp1363
sg70
g636
sg63
(lp1364
g56
(g77
g58
NtRp1365
(dp1366
g61
(dp1367
g81
g82
ssg70
g1361
sg63
(lp1368
S'server_software'
p1369
asbag56
(g77
g58
NtRp1370
(dp1371
g61
(dp1372
g88
g89
ssg70
g1361
sg63
(lp1373
S':'
asbag56
(g77
g58
NtRp1374
(dp1375
g61
(dp1376
sg70
g1361
sg63
(lp1377
g56
(g57
g58
NtRp1378
(dp1379
g61
(dp1380
g69
I4
ssg70
g1374
sg63
(lp1381
S'Rocket 1.2.4'
p1382
asbasbasbag56
(g72
g58
NtRp1383
(dp1384
g61
(dp1385
sg70
g636
sg63
(lp1386
g56
(g77
g58
NtRp1387
(dp1388
g61
(dp1389
g81
g82
ssg70
g1383
sg63
(lp1390
S'web2py_crontype'
p1391
asbag56
(g77
g58
NtRp1392
(dp1393
g61
(dp1394
g88
g89
ssg70
g1383
sg63
(lp1395
S':'
asbag56
(g77
g58
NtRp1396
(dp1397
g61
(dp1398
sg70
g1383
sg63
(lp1399
g56
(g57
g58
NtRp1400
(dp1401
g61
(dp1402
g69
I4
ssg70
g1396
sg63
(lp1403
S'hard'
p1404
asbasbasbag56
(g72
g58
NtRp1405
(dp1406
g61
(dp1407
sg70
g636
sg63
(lp1408
g56
(g77
g58
NtRp1409
(dp1410
g61
(dp1411
g81
g82
ssg70
g1405
sg63
(lp1412
S'web2py_original_uri'
p1413
asbag56
(g77
g58
NtRp1414
(dp1415
g61
(dp1416
g88
g89
ssg70
g1405
sg63
(lp1417
S':'
asbag56
(g77
g58
NtRp1418
(dp1419
g61
(dp1420
sg70
g1405
sg63
(lp1421
g56
(g57
g58
NtRp1422
(dp1423
g61
(dp1424
g69
I4
ssg70
g1418
sg63
(lp1425
g1166
asbasbasbag56
(g72
g58
NtRp1426
(dp1427
g61
(dp1428
sg70
g636
sg63
(lp1429
g56
(g77
g58
NtRp1430
(dp1431
g61
(dp1432
g81
g82
ssg70
g1426
sg63
(lp1433
S'web2py_path'
p1434
asbag56
(g77
g58
NtRp1435
(dp1436
g61
(dp1437
g88
g89
ssg70
g1426
sg63
(lp1438
S':'
asbag56
(g77
g58
NtRp1439
(dp1440
g61
(dp1441
sg70
g1426
sg63
(lp1442
g56
(g57
g58
NtRp1443
(dp1444
g61
(dp1445
g69
I4
ssg70
g1439
sg63
(lp1446
g683
asbasbasbag56
(g72
g58
NtRp1447
(dp1448
g61
(dp1449
sg70
g636
sg63
(lp1450
g56
(g77
g58
NtRp1451
(dp1452
g61
(dp1453
g81
g82
ssg70
g1447
sg63
(lp1454
S'web2py_version'
p1455
asbag56
(g77
g58
NtRp1456
(dp1457
g61
(dp1458
g88
g89
ssg70
g1447
sg63
(lp1459
S':'
asbag56
(g77
g58
NtRp1460
(dp1461
g61
(dp1462
sg70
g1447
sg63
(lp1463
g56
(g57
g58
NtRp1464
(dp1465
g61
(dp1466
g69
I4
ssg70
g1460
sg63
(lp1467
g56
(g65
g58
NtRp1468
(dp1469
g61
(dp1470
g69
I3
ssg70
Nsg63
(lp1471
g56
(g72
g58
NtRp1472
(dp1473
g61
(dp1474
sg70
g1468
sg63
(lp1475
g56
(g77
g58
NtRp1476
(dp1477
g61
(dp1478
sg70
g1472
sg63
(lp1479
g56
(g57
g58
NtRp1480
(dp1481
g61
(dp1482
g69
I3
ssg70
g1476
sg63
(lp1483
S'1'
asbasbasbag56
(g72
g58
NtRp1484
(dp1485
g61
(dp1486
sg70
g1468
sg63
(lp1487
g56
(g77
g58
NtRp1488
(dp1489
g61
(dp1490
sg70
g1484
sg63
(lp1491
g56
(g57
g58
NtRp1492
(dp1493
g61
(dp1494
g69
I3
ssg70
g1488
sg63
(lp1495
S'99'
p1496
asbasbasbag56
(g72
g58
NtRp1497
(dp1498
g61
(dp1499
sg70
g1468
sg63
(lp1500
g56
(g77
g58
NtRp1501
(dp1502
g61
(dp1503
sg70
g1497
sg63
(lp1504
g56
(g57
g58
NtRp1505
(dp1506
g61
(dp1507
g69
I3
ssg70
g1501
sg63
(lp1508
S'2'
asbasbasbag56
(g72
g58
NtRp1509
(dp1510
g61
(dp1511
sg70
g1468
sg63
(lp1512
g56
(g77
g58
NtRp1513
(dp1514
g61
(dp1515
sg70
g1509
sg63
(lp1516
g56
(g57
g58
NtRp1517
(dp1518
g61
(dp1519
g69
I3
ssg70
g1513
sg63
(lp1520
S'datetime.datetime(2011, 9, 26, 6, 55, 33)'
p1521
asbasbasbag56
(g72
g58
NtRp1522
(dp1523
g61
(dp1524
sg70
g1468
sg63
(lp1525
g56
(g77
g58
NtRp1526
(dp1527
g61
(dp1528
sg70
g1522
sg63
(lp1529
g56
(g57
g58
NtRp1530
(dp1531
g61
(dp1532
g69
I3
ssg70
g1526
sg63
(lp1533
S'stable'
p1534
asbasbasbasbasbasbasbag56
(g72
g58
NtRp1535
(dp1536
g61
(dp1537
sg70
g636
sg63
(lp1538
g56
(g77
g58
NtRp1539
(dp1540
g61
(dp1541
g81
g82
ssg70
g1535
sg63
(lp1542
S'wsgi_errors'
p1543
asbag56
(g77
g58
NtRp1544
(dp1545
g61
(dp1546
g88
g89
ssg70
g1535
sg63
(lp1547
S':'
asbag56
(g77
g58
NtRp1548
(dp1549
g61
(dp1550
sg70
g1535
sg63
(lp1551
g56
(g57
g58
NtRp1552
(dp1553
g61
(dp1554
g69
I4
ssg70
g1548
sg63
(lp1555
S"<open file '<stderr>', mode 'w' at 0x7fa4afe891e0>"
p1556
asbasbasbag56
(g72
g58
NtRp1557
(dp1558
g61
(dp1559
sg70
g636
sg63
(lp1560
g56
(g77
g58
NtRp1561
(dp1562
g61
(dp1563
g81
g82
ssg70
g1557
sg63
(lp1564
S'wsgi_file_wrapper'
p1565
asbag56
(g77
g58
NtRp1566
(dp1567
g61
(dp1568
g88
g89
ssg70
g1557
sg63
(lp1569
S':'
asbag56
(g77
g58
NtRp1570
(dp1571
g61
(dp1572
sg70
g1557
sg63
(lp1573
g56
(g57
g58
NtRp1574
(dp1575
g61
(dp1576
g69
I4
ssg70
g1570
sg63
(lp1577
S'<class wsgiref.util.FileWrapper at 0x1bbf590>'
p1578
asbasbasbag56
(g72
g58
NtRp1579
(dp1580
g61
(dp1581
sg70
g636
sg63
(lp1582
g56
(g77
g58
NtRp1583
(dp1584
g61
(dp1585
g81
g82
ssg70
g1579
sg63
(lp1586
S'wsgi_input'
p1587
asbag56
(g77
g58
NtRp1588
(dp1589
g61
(dp1590
g88
g89
ssg70
g1579
sg63
(lp1591
S':'
asbag56
(g77
g58
NtRp1592
(dp1593
g61
(dp1594
sg70
g1579
sg63
(lp1595
g56
(g57
g58
NtRp1596
(dp1597
g61
(dp1598
g69
I4
ssg70
g1592
sg63
(lp1599
S'<socket._fileobject object at 0x1e4a250>'
p1600
asbasbasbag56
(g72
g58
NtRp1601
(dp1602
g61
(dp1603
sg70
g636
sg63
(lp1604
g56
(g77
g58
NtRp1605
(dp1606
g61
(dp1607
g81
g82
ssg70
g1601
sg63
(lp1608
S'wsgi_multiprocess'
p1609
asbag56
(g77
g58
NtRp1610
(dp1611
g61
(dp1612
g88
g89
ssg70
g1601
sg63
(lp1613
S':'
asbag56
(g77
g58
NtRp1614
(dp1615
g61
(dp1616
sg70
g1601
sg63
(lp1617
g56
(g57
g58
NtRp1618
(dp1619
g61
(dp1620
g69
I4
ssg70
g1614
sg63
(lp1621
g99
asbasbasbag56
(g72
g58
NtRp1622
(dp1623
g61
(dp1624
sg70
g636
sg63
(lp1625
g56
(g77
g58
NtRp1626
(dp1627
g61
(dp1628
g81
g82
ssg70
g1622
sg63
(lp1629
S'wsgi_multithread'
p1630
asbag56
(g77
g58
NtRp1631
(dp1632
g61
(dp1633
g88
g89
ssg70
g1622
sg63
(lp1634
S':'
asbag56
(g77
g58
NtRp1635
(dp1636
g61
(dp1637
sg70
g1622
sg63
(lp1638
g56
(g57
g58
NtRp1639
(dp1640
g61
(dp1641
g69
I4
ssg70
g1635
sg63
(lp1642
S'True'
p1643
asbasbasbag56
(g72
g58
NtRp1644
(dp1645
g61
(dp1646
sg70
g636
sg63
(lp1647
g56
(g77
g58
NtRp1648
(dp1649
g61
(dp1650
g81
g82
ssg70
g1644
sg63
(lp1651
S'wsgi_run_once'
p1652
asbag56
(g77
g58
NtRp1653
(dp1654
g61
(dp1655
g88
g89
ssg70
g1644
sg63
(lp1656
S':'
asbag56
(g77
g58
NtRp1657
(dp1658
g61
(dp1659
sg70
g1644
sg63
(lp1660
g56
(g57
g58
NtRp1661
(dp1662
g61
(dp1663
g69
I4
ssg70
g1657
sg63
(lp1664
g99
asbasbasbag56
(g72
g58
NtRp1665
(dp1666
g61
(dp1667
sg70
g636
sg63
(lp1668
g56
(g77
g58
NtRp1669
(dp1670
g61
(dp1671
g81
g82
ssg70
g1665
sg63
(lp1672
S'wsgi_url_scheme'
p1673
asbag56
(g77
g58
NtRp1674
(dp1675
g61
(dp1676
g88
g89
ssg70
g1665
sg63
(lp1677
S':'
asbag56
(g77
g58
NtRp1678
(dp1679
g61
(dp1680
sg70
g1665
sg63
(lp1681
g56
(g57
g58
NtRp1682
(dp1683
g61
(dp1684
g69
I4
ssg70
g1678
sg63
(lp1685
S'http'
p1686
asbasbasbag56
(g72
g58
NtRp1687
(dp1688
g61
(dp1689
sg70
g636
sg63
(lp1690
g56
(g77
g58
NtRp1691
(dp1692
g61
(dp1693
g81
g82
ssg70
g1687
sg63
(lp1694
S'wsgi_version'
p1695
asbag56
(g77
g58
NtRp1696
(dp1697
g61
(dp1698
g88
g89
ssg70
g1687
sg63
(lp1699
S':'
asbag56
(g77
g58
NtRp1700
(dp1701
g61
(dp1702
sg70
g1687
sg63
(lp1703
g56
(g57
g58
NtRp1704
(dp1705
g61
(dp1706
g69
I4
ssg70
g1700
sg63
(lp1707
g56
(g65
g58
NtRp1708
(dp1709
g61
(dp1710
g69
I3
ssg70
Nsg63
(lp1711
g56
(g72
g58
NtRp1712
(dp1713
g61
(dp1714
sg70
g1708
sg63
(lp1715
g56
(g77
g58
NtRp1716
(dp1717
g61
(dp1718
sg70
g1712
sg63
(lp1719
g56
(g57
g58
NtRp1720
(dp1721
g61
(dp1722
g69
I3
ssg70
g1716
sg63
(lp1723
S'1'
asbasbasbag56
(g72
g58
NtRp1724
(dp1725
g61
(dp1726
sg70
g1708
sg63
(lp1727
g56
(g77
g58
NtRp1728
(dp1729
g61
(dp1730
sg70
g1724
sg63
(lp1731
g56
(g57
g58
NtRp1732
(dp1733
g61
(dp1734
g69
I3
ssg70
g1728
sg63
(lp1735
S'0'
asbasbasbasbasbasbasbasbasbasbasbag56
(g72
g58
NtRp1736
(dp1737
g61
(dp1738
sg70
g66
sg63
(lp1739
g56
(g77
g58
NtRp1740
(dp1741
g61
(dp1742
g81
g82
ssg70
g1736
sg63
(lp1743
S'extension'
p1744
asbag56
(g77
g58
NtRp1745
(dp1746
g61
(dp1747
g88
g89
ssg70
g1736
sg63
(lp1748
S':'
asbag56
(g77
g58
NtRp1749
(dp1750
g61
(dp1751
sg70
g1736
sg63
(lp1752
g56
(g57
g58
NtRp1753
(dp1754
g61
(dp1755
g69
I5
ssg70
g1749
sg63
(lp1756
S'html'
p1757
asbasbasbag56
(g72
g58
NtRp1758
(dp1759
g61
(dp1760
sg70
g66
sg63
(lp1761
g56
(g77
g58
NtRp1762
(dp1763
g61
(dp1764
g81
g82
ssg70
g1758
sg63
(lp1765
S'folder'
p1766
asbag56
(g77
g58
NtRp1767
(dp1768
g61
(dp1769
g88
g89
ssg70
g1758
sg63
(lp1770
S':'
asbag56
(g77
g58
NtRp1771
(dp1772
g61
(dp1773
sg70
g1758
sg63
(lp1774
g56
(g57
g58
NtRp1775
(dp1776
g61
(dp1777
g69
I5
ssg70
g1771
sg63
(lp1778
S'/windows/Users/Thomas/Dropbox/appz/2011/GAE/ddl-lagoon/applications/ddlagoon/'
p1779
asbasbasbag56
(g72
g58
NtRp1780
(dp1781
g61
(dp1782
sg70
g66
sg63
(lp1783
g56
(g77
g58
NtRp1784
(dp1785
g61
(dp1786
g81
g82
ssg70
g1780
sg63
(lp1787
S'function'
p1788
asbag56
(g77
g58
NtRp1789
(dp1790
g61
(dp1791
g88
g89
ssg70
g1780
sg63
(lp1792
S':'
asbag56
(g77
g58
NtRp1793
(dp1794
g61
(dp1795
sg70
g1780
sg63
(lp1796
g56
(g57
g58
NtRp1797
(dp1798
g61
(dp1799
g69
I5
ssg70
g1793
sg63
(lp1800
S'index'
p1801
asbasbasbag56
(g72
g58
NtRp1802
(dp1803
g61
(dp1804
sg70
g66
sg63
(lp1805
g56
(g77
g58
NtRp1806
(dp1807
g61
(dp1808
g81
g82
ssg70
g1802
sg63
(lp1809
S'get_vars'
p1810
asbag56
(g77
g58
NtRp1811
(dp1812
g61
(dp1813
g88
g89
ssg70
g1802
sg63
(lp1814
S':'
asbag56
(g77
g58
NtRp1815
(dp1816
g61
(dp1817
sg70
g1802
sg63
(lp1818
g56
(g57
g58
NtRp1819
(dp1820
g61
(dp1821
g69
I5
ssg70
g1815
sg63
(lp1822
g56
(g65
g58
NtRp1823
(dp1824
g61
(dp1825
g69
I4
ssg70
Nsg63
(lp1826
sbasbasbasbag56
(g72
g58
NtRp1827
(dp1828
g61
(dp1829
sg70
g66
sg63
(lp1830
g56
(g77
g58
NtRp1831
(dp1832
g61
(dp1833
g81
g82
ssg70
g1827
sg63
(lp1834
S'global_settings'
p1835
asbag56
(g77
g58
NtRp1836
(dp1837
g61
(dp1838
g88
g89
ssg70
g1827
sg63
(lp1839
S':'
asbag56
(g77
g58
NtRp1840
(dp1841
g61
(dp1842
sg70
g1827
sg63
(lp1843
g56
(g57
g58
NtRp1844
(dp1845
g61
(dp1846
g69
I5
ssg70
g1840
sg63
(lp1847
g56
(g65
g58
NtRp1848
(dp1849
g61
(dp1850
g69
I4
ssg70
Nsg63
(lp1851
g56
(g72
g58
NtRp1852
(dp1853
g61
(dp1854
sg70
g1848
sg63
(lp1855
g56
(g77
g58
NtRp1856
(dp1857
g61
(dp1858
g81
g82
ssg70
g1852
sg63
(lp1859
g648
asbag56
(g77
g58
NtRp1860
(dp1861
g61
(dp1862
g88
g89
ssg70
g1852
sg63
(lp1863
S':'
asbag56
(g77
g58
NtRp1864
(dp1865
g61
(dp1866
sg70
g1852
sg63
(lp1867
g56
(g57
g58
NtRp1868
(dp1869
g61
(dp1870
g69
I4
ssg70
g1864
sg63
(lp1871
S"set(['/windows/Users/Thomas/Dropbox/appz/2011/GAE/ddl-lagoon/applications/ddlagoon/', '/windows/Users/Thomas/Dropbox/appz/2011/GAE/ddl-lagoon/applications/admin/'])"
p1872
asbasbasbag56
(g72
g58
NtRp1873
(dp1874
g61
(dp1875
sg70
g1848
sg63
(lp1876
g56
(g77
g58
NtRp1877
(dp1878
g61
(dp1879
g81
g82
ssg70
g1873
sg63
(lp1880
g670
asbag56
(g77
g58
NtRp1881
(dp1882
g61
(dp1883
g88
g89
ssg70
g1873
sg63
(lp1884
S':'
asbag56
(g77
g58
NtRp1885
(dp1886
g61
(dp1887
sg70
g1873
sg63
(lp1888
g56
(g57
g58
NtRp1889
(dp1890
g61
(dp1891
g69
I4
ssg70
g1885
sg63
(lp1892
g683
asbasbasbag56
(g72
g58
NtRp1893
(dp1894
g61
(dp1895
sg70
g1848
sg63
(lp1896
g56
(g77
g58
NtRp1897
(dp1898
g61
(dp1899
g81
g82
ssg70
g1893
sg63
(lp1900
g692
asbag56
(g77
g58
NtRp1901
(dp1902
g61
(dp1903
g88
g89
ssg70
g1893
sg63
(lp1904
S':'
asbag56
(g77
g58
NtRp1905
(dp1906
g61
(dp1907
sg70
g1893
sg63
(lp1908
g56
(g57
g58
NtRp1909
(dp1910
g61
(dp1911
g69
I4
ssg70
g1905
sg63
(lp1912
g56
(g65
g58
NtRp1913
(dp1914
g61
(dp1915
g69
I3
ssg70
Nsg63
(lp1916
sbasbasbasbag56
(g72
g58
NtRp1917
(dp1918
g61
(dp1919
sg70
g1848
sg63
(lp1920
g56
(g77
g58
NtRp1921
(dp1922
g61
(dp1923
g81
g82
ssg70
g1917
sg63
(lp1924
g717
asbag56
(g77
g58
NtRp1925
(dp1926
g61
(dp1927
g88
g89
ssg70
g1917
sg63
(lp1928
S':'
asbag56
(g77
g58
NtRp1929
(dp1930
g61
(dp1931
sg70
g1917
sg63
(lp1932
g56
(g57
g58
NtRp1933
(dp1934
g61
(dp1935
g69
I4
ssg70
g1929
sg63
(lp1936
S"<Values at 0x1e2b170: {'verbose': False, 'ip': '127.0.0.1', 'shutdown_timeout': 5, 'taskbar': False, 'nocron': False, 'pid_filename': 'httpserver.pid', 'maxthreads': None, 'softcron': False, 'server_name': 'VPCF22AJ', 'bpython': False, 'nogui': False, 'port': 8000, 'extcron': False, 'debuglevel': 30, 'test': None, 'folder': '/windows/Users/Thomas/Dropbox/appz/2011/GAE/ddl-lagoon', 'config': '', 'import_models': False, 'winservice': '', 'shell': None, 'run': '', 'log_filename': 'httpserver.log', 'args': [''], 'ssl_ca_certificate': None, 'scheduler': None, 'profiler_filename': None, 'ssl_private_key': '', 'password': 'admin', 'request_queue_size': 5, 'ssl_certificate': '', 'cronjob': False, 'plain': False, 'quiet': False, 'interfaces': None, 'minthreads': None, 'timeout': 10, 'numthreads': None, 'nobanner': False}>"
p1937
asbasbasbag56
(g72
g58
NtRp1938
(dp1939
g61
(dp1940
sg70
g1848
sg63
(lp1941
g56
(g77
g58
NtRp1942
(dp1943
g61
(dp1944
g81
g82
ssg70
g1938
sg63
(lp1945
g783
asbag56
(g77
g58
NtRp1946
(dp1947
g61
(dp1948
g88
g89
ssg70
g1938
sg63
(lp1949
S':'
asbag56
(g77
g58
NtRp1950
(dp1951
g61
(dp1952
sg70
g1938
sg63
(lp1953
g56
(g57
g58
NtRp1954
(dp1955
g61
(dp1956
g69
I4
ssg70
g1950
sg63
(lp1957
S'set([])'
p1958
asbasbasbag56
(g72
g58
NtRp1959
(dp1960
g61
(dp1961
sg70
g1848
sg63
(lp1962
g56
(g77
g58
NtRp1963
(dp1964
g61
(dp1965
g81
g82
ssg70
g1959
sg63
(lp1966
g805
asbag56
(g77
g58
NtRp1967
(dp1968
g61
(dp1969
g88
g89
ssg70
g1959
sg63
(lp1970
S':'
asbag56
(g77
g58
NtRp1971
(dp1972
g61
(dp1973
sg70
g1959
sg63
(lp1974
g56
(g57
g58
NtRp1975
(dp1976
g61
(dp1977
g69
I4
ssg70
g1971
sg63
(lp1978
g99
asbasbasbag56
(g72
g58
NtRp1979
(dp1980
g61
(dp1981
sg70
g1848
sg63
(lp1982
g56
(g77
g58
NtRp1983
(dp1984
g61
(dp1985
g81
g82
ssg70
g1979
sg63
(lp1986
g826
asbag56
(g77
g58
NtRp1987
(dp1988
g61
(dp1989
g88
g89
ssg70
g1979
sg63
(lp1990
S':'
asbag56
(g77
g58
NtRp1991
(dp1992
g61
(dp1993
sg70
g1979
sg63
(lp1994
g56
(g57
g58
NtRp1995
(dp1996
g61
(dp1997
g69
I4
ssg70
g1991
sg63
(lp1998
g839
asbasbasbag56
(g72
g58
NtRp1999
(dp2000
g61
(dp2001
sg70
g1848
sg63
(lp2002
g56
(g77
g58
NtRp2003
(dp2004
g61
(dp2005
g81
g82
ssg70
g1999
sg63
(lp2006
g1132
asbag56
(g77
g58
NtRp2007
(dp2008
g61
(dp2009
g88
g89
ssg70
g1999
sg63
(lp2010
S':'
asbag56
(g77
g58
NtRp2011
(dp2012
g61
(dp2013
sg70
g1999
sg63
(lp2014
g56
(g57
g58
NtRp2015
(dp2016
g61
(dp2017
g69
I4
ssg70
g2011
sg63
(lp2018
g99
asbasbasbag56
(g72
g58
NtRp2019
(dp2020
g61
(dp2021
sg70
g1848
sg63
(lp2022
g56
(g77
g58
NtRp2023
(dp2024
g61
(dp2025
g81
g82
ssg70
g2019
sg63
(lp2026
g1391
asbag56
(g77
g58
NtRp2027
(dp2028
g61
(dp2029
g88
g89
ssg70
g2019
sg63
(lp2030
S':'
asbag56
(g77
g58
NtRp2031
(dp2032
g61
(dp2033
sg70
g2019
sg63
(lp2034
g56
(g57
g58
NtRp2035
(dp2036
g61
(dp2037
g69
I4
ssg70
g2031
sg63
(lp2038
g1404
asbasbasbag56
(g72
g58
NtRp2039
(dp2040
g61
(dp2041
sg70
g1848
sg63
(lp2042
g56
(g77
g58
NtRp2043
(dp2044
g61
(dp2045
g81
g82
ssg70
g2039
sg63
(lp2046
g1455
asbag56
(g77
g58
NtRp2047
(dp2048
g61
(dp2049
g88
g89
ssg70
g2039
sg63
(lp2050
S':'
asbag56
(g77
g58
NtRp2051
(dp2052
g61
(dp2053
sg70
g2039
sg63
(lp2054
g56
(g57
g58
NtRp2055
(dp2056
g61
(dp2057
g69
I4
ssg70
g2051
sg63
(lp2058
g56
(g65
g58
NtRp2059
(dp2060
g61
(dp2061
g69
I3
ssg70
Nsg63
(lp2062
g56
(g72
g58
NtRp2063
(dp2064
g61
(dp2065
sg70
g2059
sg63
(lp2066
g56
(g77
g58
NtRp2067
(dp2068
g61
(dp2069
sg70
g2063
sg63
(lp2070
g56
(g57
g58
NtRp2071
(dp2072
g61
(dp2073
g69
I3
ssg70
g2067
sg63
(lp2074
S'1'
asbasbasbag56
(g72
g58
NtRp2075
(dp2076
g61
(dp2077
sg70
g2059
sg63
(lp2078
g56
(g77
g58
NtRp2079
(dp2080
g61
(dp2081
sg70
g2075
sg63
(lp2082
g56
(g57
g58
NtRp2083
(dp2084
g61
(dp2085
g69
I3
ssg70
g2079
sg63
(lp2086
S'99'
p2087
asbasbasbag56
(g72
g58
NtRp2088
(dp2089
g61
(dp2090
sg70
g2059
sg63
(lp2091
g56
(g77
g58
NtRp2092
(dp2093
g61
(dp2094
sg70
g2088
sg63
(lp2095
g56
(g57
g58
NtRp2096
(dp2097
g61
(dp2098
g69
I3
ssg70
g2092
sg63
(lp2099
S'2'
asbasbasbag56
(g72
g58
NtRp2100
(dp2101
g61
(dp2102
sg70
g2059
sg63
(lp2103
g56
(g77
g58
NtRp2104
(dp2105
g61
(dp2106
sg70
g2100
sg63
(lp2107
g56
(g57
g58
NtRp2108
(dp2109
g61
(dp2110
g69
I3
ssg70
g2104
sg63
(lp2111
S'datetime.datetime(2011, 9, 26, 6, 55, 33)'
p2112
asbasbasbag56
(g72
g58
NtRp2113
(dp2114
g61
(dp2115
sg70
g2059
sg63
(lp2116
g56
(g77
g58
NtRp2117
(dp2118
g61
(dp2119
sg70
g2113
sg63
(lp2120
g56
(g57
g58
NtRp2121
(dp2122
g61
(dp2123
g69
I3
ssg70
g2117
sg63
(lp2124
g1534
asbasbasbasbasbasbasbasbasbasbasbag56
(g72
g58
NtRp2125
(dp2126
g61
(dp2127
sg70
g66
sg63
(lp2128
g56
(g77
g58
NtRp2129
(dp2130
g61
(dp2131
g81
g82
ssg70
g2125
sg63
(lp2132
S'is_https'
p2133
asbag56
(g77
g58
NtRp2134
(dp2135
g61
(dp2136
g88
g89
ssg70
g2125
sg63
(lp2137
S':'
asbag56
(g77
g58
NtRp2138
(dp2139
g61
(dp2140
sg70
g2125
sg63
(lp2141
g56
(g57
g58
NtRp2142
(dp2143
g61
(dp2144
g69
I5
ssg70
g2138
sg63
(lp2145
g99
asbasbasbag56
(g72
g58
NtRp2146
(dp2147
g61
(dp2148
sg70
g66
sg63
(lp2149
g56
(g77
g58
NtRp2150
(dp2151
g61
(dp2152
g81
g82
ssg70
g2146
sg63
(lp2153
S'is_local'
p2154
asbag56
(g77
g58
NtRp2155
(dp2156
g61
(dp2157
g88
g89
ssg70
g2146
sg63
(lp2158
S':'
asbag56
(g77
g58
NtRp2159
(dp2160
g61
(dp2161
sg70
g2146
sg63
(lp2162
g56
(g57
g58
NtRp2163
(dp2164
g61
(dp2165
g69
I5
ssg70
g2159
sg63
(lp2166
g1643
asbasbasbag56
(g72
g58
NtRp2167
(dp2168
g61
(dp2169
sg70
g66
sg63
(lp2170
g56
(g77
g58
NtRp2171
(dp2172
g61
(dp2173
g81
g82
ssg70
g2167
sg63
(lp2174
S'is_restful'
p2175
asbag56
(g77
g58
NtRp2176
(dp2177
g61
(dp2178
g88
g89
ssg70
g2167
sg63
(lp2179
S':'
asbag56
(g77
g58
NtRp2180
(dp2181
g61
(dp2182
sg70
g2167
sg63
(lp2183
g56
(g57
g58
NtRp2184
(dp2185
g61
(dp2186
g69
I5
ssg70
g2180
sg63
(lp2187
g99
asbasbasbag56
(g72
g58
NtRp2188
(dp2189
g61
(dp2190
sg70
g66
sg63
(lp2191
g56
(g77
g58
NtRp2192
(dp2193
g61
(dp2194
g81
g82
ssg70
g2188
sg63
(lp2195
S'now'
p2196
asbag56
(g77
g58
NtRp2197
(dp2198
g61
(dp2199
g88
g89
ssg70
g2188
sg63
(lp2200
S':'
asbag56
(g77
g58
NtRp2201
(dp2202
g61
(dp2203
sg70
g2188
sg63
(lp2204
g56
(g57
g58
NtRp2205
(dp2206
g61
(dp2207
g69
I5
ssg70
g2201
sg63
(lp2208
S'datetime.datetime(2011, 10, 28, 20, 11, 56, 115327)'
p2209
asbasbasbag56
(g72
g58
NtRp2210
(dp2211
g61
(dp2212
sg70
g66
sg63
(lp2213
g56
(g77
g58
NtRp2214
(dp2215
g61
(dp2216
g81
g82
ssg70
g2210
sg63
(lp2217
S'post_vars'
p2218
asbag56
(g77
g58
NtRp2219
(dp2220
g61
(dp2221
g88
g89
ssg70
g2210
sg63
(lp2222
S':'
asbag56
(g77
g58
NtRp2223
(dp2224
g61
(dp2225
sg70
g2210
sg63
(lp2226
g56
(g57
g58
NtRp2227
(dp2228
g61
(dp2229
g69
I5
ssg70
g2223
sg63
(lp2230
g56
(g65
g58
NtRp2231
(dp2232
g61
(dp2233
g69
I4
ssg70
Nsg63
(lp2234
g56
(g72
g58
NtRp2235
(dp2236
g61
(dp2237
sg70
g2231
sg63
(lp2238
g56
(g77
g58
NtRp2239
(dp2240
g61
(dp2241
g81
g82
ssg70
g2235
sg63
(lp2242
S'filesearch'
p2243
asbag56
(g77
g58
NtRp2244
(dp2245
g61
(dp2246
g88
g89
ssg70
g2235
sg63
(lp2247
S':'
asbag56
(g77
g58
NtRp2248
(dp2249
g61
(dp2250
sg70
g2235
sg63
(lp2251
g56
(g57
g58
NtRp2252
(dp2253
g61
(dp2254
g69
I4
ssg70
g2248
sg63
(lp2255
S'test'
p2256
asbasbasbasbasbasbasbag56
(g72
g58
NtRp2257
(dp2258
g61
(dp2259
sg70
g66
sg63
(lp2260
g56
(g77
g58
NtRp2261
(dp2262
g61
(dp2263
g81
g82
ssg70
g2257
sg63
(lp2264
S'url'
p2265
asbag56
(g77
g58
NtRp2266
(dp2267
g61
(dp2268
g88
g89
ssg70
g2257
sg63
(lp2269
S':'
asbag56
(g77
g58
NtRp2270
(dp2271
g61
(dp2272
sg70
g2257
sg63
(lp2273
g56
(g57
g58
NtRp2274
(dp2275
g61
(dp2276
g69
I5
ssg70
g2270
sg63
(lp2277
S'/ddlagoon/default/index'
p2278
asbasbasbag56
(g72
g58
NtRp2279
(dp2280
g61
(dp2281
sg70
g66
sg63
(lp2282
g56
(g77
g58
NtRp2283
(dp2284
g61
(dp2285
g81
g82
ssg70
g2279
sg63
(lp2286
S'utcnow'
p2287
asbag56
(g77
g58
NtRp2288
(dp2289
g61
(dp2290
g88
g89
ssg70
g2279
sg63
(lp2291
S':'
asbag56
(g77
g58
NtRp2292
(dp2293
g61
(dp2294
sg70
g2279
sg63
(lp2295
g56
(g57
g58
NtRp2296
(dp2297
g61
(dp2298
g69
I5
ssg70
g2292
sg63
(lp2299
S'datetime.datetime(2011, 10, 28, 19, 11, 56, 115348)'
p2300
asbasbasbag56
(g72
g58
NtRp2301
(dp2302
g61
(dp2303
sg70
g66
sg63
(lp2304
g56
(g77
g58
NtRp2305
(dp2306
g61
(dp2307
g81
g82
ssg70
g2301
sg63
(lp2308
S'uuid'
p2309
asbag56
(g77
g58
NtRp2310
(dp2311
g61
(dp2312
g88
g89
ssg70
g2301
sg63
(lp2313
S':'
asbag56
(g77
g58
NtRp2314
(dp2315
g61
(dp2316
sg70
g2301
sg63
(lp2317
g56
(g57
g58
NtRp2318
(dp2319
g61
(dp2320
g69
I5
ssg70
g2314
sg63
(lp2321
S'ddlagoon/127.0.0.1.2011-10-28.20-11-56.61e5df0f-e6c9-4147-91a0-dda96c4027ba'
p2322
asbasbasbag56
(g72
g58
NtRp2323
(dp2324
g61
(dp2325
sg70
g66
sg63
(lp2326
g56
(g77
g58
NtRp2327
(dp2328
g61
(dp2329
g81
g82
ssg70
g2323
sg63
(lp2330
S'vars'
p2331
asbag56
(g77
g58
NtRp2332
(dp2333
g61
(dp2334
g88
g89
ssg70
g2323
sg63
(lp2335
S':'
asbag56
(g77
g58
NtRp2336
(dp2337
g61
(dp2338
sg70
g2323
sg63
(lp2339
g56
(g57
g58
NtRp2340
(dp2341
g61
(dp2342
g69
I5
ssg70
g2336
sg63
(lp2343
g56
(g65
g58
NtRp2344
(dp2345
g61
(dp2346
g69
I4
ssg70
Nsg63
(lp2347
g56
(g72
g58
NtRp2348
(dp2349
g61
(dp2350
sg70
g2344
sg63
(lp2351
g56
(g77
g58
NtRp2352
(dp2353
g61
(dp2354
g81
g82
ssg70
g2348
sg63
(lp2355
g2243
asbag56
(g77
g58
NtRp2356
(dp2357
g61
(dp2358
g88
g89
ssg70
g2348
sg63
(lp2359
S':'
asbag56
(g77
g58
NtRp2360
(dp2361
g61
(dp2362
sg70
g2348
sg63
(lp2363
g56
(g57
g58
NtRp2364
(dp2365
g61
(dp2366
g69
I4
ssg70
g2360
sg63
(lp2367
g2256
asbasbasbasbasbasbasbag56
(g72
g58
NtRp2368
(dp2369
g61
(dp2370
sg70
g66
sg63
(lp2371
g56
(g77
g58
NtRp2372
(dp2373
g61
(dp2374
g81
g82
ssg70
g2368
sg63
(lp2375
S'wsgi'
p2376
asbag56
(g77
g58
NtRp2377
(dp2378
g61
(dp2379
g88
g89
ssg70
g2368
sg63
(lp2380
S':'
asbag56
(g77
g58
NtRp2381
(dp2382
g61
(dp2383
sg70
g2368
sg63
(lp2384
g56
(g57
g58
NtRp2385
(dp2386
g61
(dp2387
g69
I5
ssg70
g2381
sg63
(lp2388
g56
(g65
g58
NtRp2389
(dp2390
g61
(dp2391
g69
I4
ssg70
Nsg63
(lp2392
g56
(g72
g58
NtRp2393
(dp2394
g61
(dp2395
sg70
g2389
sg63
(lp2396
g56
(g77
g58
NtRp2397
(dp2398
g61
(dp2399
g81
g82
ssg70
g2393
sg63
(lp2400
S'environ'
p2401
asbag56
(g77
g58
NtRp2402
(dp2403
g61
(dp2404
g88
g89
ssg70
g2393
sg63
(lp2405
S':'
asbag56
(g77
g58
NtRp2406
(dp2407
g61
(dp2408
sg70
g2393
sg63
(lp2409
g56
(g57
g58
NtRp2410
(dp2411
g61
(dp2412
g69
I4
ssg70
g2406
sg63
(lp2413
g56
(g65
g58
NtRp2414
(dp2415
g61
(dp2416
g69
I3
ssg70
Nsg63
(lp2417
g56
(g72
g58
NtRp2418
(dp2419
g61
(dp2420
sg70
g2414
sg63
(lp2421
g56
(g77
g58
NtRp2422
(dp2423
g61
(dp2424
g81
g82
ssg70
g2418
sg63
(lp2425
S'CONTENT_LENGTH'
p2426
asbag56
(g77
g58
NtRp2427
(dp2428
g61
(dp2429
g88
g89
ssg70
g2418
sg63
(lp2430
S':'
asbag56
(g77
g58
NtRp2431
(dp2432
g61
(dp2433
sg70
g2418
sg63
(lp2434
g56
(g57
g58
NtRp2435
(dp2436
g61
(dp2437
g69
I3
ssg70
g2431
sg63
(lp2438
g752
asbasbasbag56
(g72
g58
NtRp2439
(dp2440
g61
(dp2441
sg70
g2414
sg63
(lp2442
g56
(g77
g58
NtRp2443
(dp2444
g61
(dp2445
g81
g82
ssg70
g2439
sg63
(lp2446
S'CONTENT_TYPE'
p2447
asbag56
(g77
g58
NtRp2448
(dp2449
g61
(dp2450
g88
g89
ssg70
g2439
sg63
(lp2451
S':'
asbag56
(g77
g58
NtRp2452
(dp2453
g61
(dp2454
sg70
g2439
sg63
(lp2455
g56
(g57
g58
NtRp2456
(dp2457
g61
(dp2458
g69
I3
ssg70
g2452
sg63
(lp2459
g774
asbasbasbag56
(g72
g58
NtRp2460
(dp2461
g61
(dp2462
sg70
g2414
sg63
(lp2463
g56
(g77
g58
NtRp2464
(dp2465
g61
(dp2466
g81
g82
ssg70
g2460
sg63
(lp2467
S'HTTP_ACCEPT'
p2468
asbag56
(g77
g58
NtRp2469
(dp2470
g61
(dp2471
g88
g89
ssg70
g2460
sg63
(lp2472
S':'
asbag56
(g77
g58
NtRp2473
(dp2474
g61
(dp2475
sg70
g2460
sg63
(lp2476
g56
(g57
g58
NtRp2477
(dp2478
g61
(dp2479
g69
I3
ssg70
g2473
sg63
(lp2480
g861
asbasbasbag56
(g72
g58
NtRp2481
(dp2482
g61
(dp2483
sg70
g2414
sg63
(lp2484
g56
(g77
g58
NtRp2485
(dp2486
g61
(dp2487
g81
g82
ssg70
g2481
sg63
(lp2488
S'HTTP_ACCEPT_CHARSET'
p2489
asbag56
(g77
g58
NtRp2490
(dp2491
g61
(dp2492
g88
g89
ssg70
g2481
sg63
(lp2493
S':'
asbag56
(g77
g58
NtRp2494
(dp2495
g61
(dp2496
sg70
g2481
sg63
(lp2497
g56
(g57
g58
NtRp2498
(dp2499
g61
(dp2500
g69
I3
ssg70
g2494
sg63
(lp2501
g883
asbasbasbag56
(g72
g58
NtRp2502
(dp2503
g61
(dp2504
sg70
g2414
sg63
(lp2505
g56
(g77
g58
NtRp2506
(dp2507
g61
(dp2508
g81
g82
ssg70
g2502
sg63
(lp2509
S'HTTP_ACCEPT_ENCODING'
p2510
asbag56
(g77
g58
NtRp2511
(dp2512
g61
(dp2513
g88
g89
ssg70
g2502
sg63
(lp2514
S':'
asbag56
(g77
g58
NtRp2515
(dp2516
g61
(dp2517
sg70
g2502
sg63
(lp2518
g56
(g57
g58
NtRp2519
(dp2520
g61
(dp2521
g69
I3
ssg70
g2515
sg63
(lp2522
g905
asbasbasbag56
(g72
g58
NtRp2523
(dp2524
g61
(dp2525
sg70
g2414
sg63
(lp2526
g56
(g77
g58
NtRp2527
(dp2528
g61
(dp2529
g81
g82
ssg70
g2523
sg63
(lp2530
S'HTTP_ACCEPT_LANGUAGE'
p2531
asbag56
(g77
g58
NtRp2532
(dp2533
g61
(dp2534
g88
g89
ssg70
g2523
sg63
(lp2535
S':'
asbag56
(g77
g58
NtRp2536
(dp2537
g61
(dp2538
sg70
g2523
sg63
(lp2539
g56
(g57
g58
NtRp2540
(dp2541
g61
(dp2542
g69
I3
ssg70
g2536
sg63
(lp2543
g927
asbasbasbag56
(g72
g58
NtRp2544
(dp2545
g61
(dp2546
sg70
g2414
sg63
(lp2547
g56
(g77
g58
NtRp2548
(dp2549
g61
(dp2550
g81
g82
ssg70
g2544
sg63
(lp2551
S'HTTP_CACHE_CONTROL'
p2552
asbag56
(g77
g58
NtRp2553
(dp2554
g61
(dp2555
g88
g89
ssg70
g2544
sg63
(lp2556
S':'
asbag56
(g77
g58
NtRp2557
(dp2558
g61
(dp2559
sg70
g2544
sg63
(lp2560
g56
(g57
g58
NtRp2561
(dp2562
g61
(dp2563
g69
I3
ssg70
g2557
sg63
(lp2564
g949
asbasbasbag56
(g72
g58
NtRp2565
(dp2566
g61
(dp2567
sg70
g2414
sg63
(lp2568
g56
(g77
g58
NtRp2569
(dp2570
g61
(dp2571
g81
g82
ssg70
g2565
sg63
(lp2572
S'HTTP_CONNECTION'
p2573
asbag56
(g77
g58
NtRp2574
(dp2575
g61
(dp2576
g88
g89
ssg70
g2565
sg63
(lp2577
S':'
asbag56
(g77
g58
NtRp2578
(dp2579
g61
(dp2580
sg70
g2565
sg63
(lp2581
g56
(g57
g58
NtRp2582
(dp2583
g61
(dp2584
g69
I3
ssg70
g2578
sg63
(lp2585
g971
asbasbasbag56
(g72
g58
NtRp2586
(dp2587
g61
(dp2588
sg70
g2414
sg63
(lp2589
g56
(g77
g58
NtRp2590
(dp2591
g61
(dp2592
g81
g82
ssg70
g2586
sg63
(lp2593
S'HTTP_CONTENT_LENGTH'
p2594
asbag56
(g77
g58
NtRp2595
(dp2596
g61
(dp2597
g88
g89
ssg70
g2586
sg63
(lp2598
S':'
asbag56
(g77
g58
NtRp2599
(dp2600
g61
(dp2601
sg70
g2586
sg63
(lp2602
g56
(g57
g58
NtRp2603
(dp2604
g61
(dp2605
g69
I3
ssg70
g2599
sg63
(lp2606
g752
asbasbasbag56
(g72
g58
NtRp2607
(dp2608
g61
(dp2609
sg70
g2414
sg63
(lp2610
g56
(g77
g58
NtRp2611
(dp2612
g61
(dp2613
g81
g82
ssg70
g2607
sg63
(lp2614
S'HTTP_CONTENT_TYPE'
p2615
asbag56
(g77
g58
NtRp2616
(dp2617
g61
(dp2618
g88
g89
ssg70
g2607
sg63
(lp2619
S':'
asbag56
(g77
g58
NtRp2620
(dp2621
g61
(dp2622
sg70
g2607
sg63
(lp2623
g56
(g57
g58
NtRp2624
(dp2625
g61
(dp2626
g69
I3
ssg70
g2620
sg63
(lp2627
g774
asbasbasbag56
(g72
g58
NtRp2628
(dp2629
g61
(dp2630
sg70
g2414
sg63
(lp2631
g56
(g77
g58
NtRp2632
(dp2633
g61
(dp2634
g81
g82
ssg70
g2628
sg63
(lp2635
S'HTTP_COOKIE'
p2636
asbag56
(g77
g58
NtRp2637
(dp2638
g61
(dp2639
g88
g89
ssg70
g2628
sg63
(lp2640
S':'
asbag56
(g77
g58
NtRp2641
(dp2642
g61
(dp2643
sg70
g2628
sg63
(lp2644
g56
(g57
g58
NtRp2645
(dp2646
g61
(dp2647
g69
I3
ssg70
g2641
sg63
(lp2648
g1035
asbasbasbag56
(g72
g58
NtRp2649
(dp2650
g61
(dp2651
sg70
g2414
sg63
(lp2652
g56
(g77
g58
NtRp2653
(dp2654
g61
(dp2655
g81
g82
ssg70
g2649
sg63
(lp2656
S'HTTP_HOST'
p2657
asbag56
(g77
g58
NtRp2658
(dp2659
g61
(dp2660
g88
g89
ssg70
g2649
sg63
(lp2661
S':'
asbag56
(g77
g58
NtRp2662
(dp2663
g61
(dp2664
sg70
g2649
sg63
(lp2665
g56
(g57
g58
NtRp2666
(dp2667
g61
(dp2668
g69
I3
ssg70
g2662
sg63
(lp2669
g1057
asbasbasbag56
(g72
g58
NtRp2670
(dp2671
g61
(dp2672
sg70
g2414
sg63
(lp2673
g56
(g77
g58
NtRp2674
(dp2675
g61
(dp2676
g81
g82
ssg70
g2670
sg63
(lp2677
S'HTTP_ORIGIN'
p2678
asbag56
(g77
g58
NtRp2679
(dp2680
g61
(dp2681
g88
g89
ssg70
g2670
sg63
(lp2682
S':'
asbag56
(g77
g58
NtRp2683
(dp2684
g61
(dp2685
sg70
g2670
sg63
(lp2686
g56
(g57
g58
NtRp2687
(dp2688
g61
(dp2689
g69
I3
ssg70
g2683
sg63
(lp2690
g1079
asbasbasbag56
(g72
g58
NtRp2691
(dp2692
g61
(dp2693
sg70
g2414
sg63
(lp2694
g56
(g77
g58
NtRp2695
(dp2696
g61
(dp2697
g81
g82
ssg70
g2691
sg63
(lp2698
S'HTTP_REFERER'
p2699
asbag56
(g77
g58
NtRp2700
(dp2701
g61
(dp2702
g88
g89
ssg70
g2691
sg63
(lp2703
S':'
asbag56
(g77
g58
NtRp2704
(dp2705
g61
(dp2706
sg70
g2691
sg63
(lp2707
g56
(g57
g58
NtRp2708
(dp2709
g61
(dp2710
g69
I3
ssg70
g2704
sg63
(lp2711
g1101
asbasbasbag56
(g72
g58
NtRp2712
(dp2713
g61
(dp2714
sg70
g2414
sg63
(lp2715
g56
(g77
g58
NtRp2716
(dp2717
g61
(dp2718
g81
g82
ssg70
g2712
sg63
(lp2719
S'HTTP_USER_AGENT'
p2720
asbag56
(g77
g58
NtRp2721
(dp2722
g61
(dp2723
g88
g89
ssg70
g2712
sg63
(lp2724
S':'
asbag56
(g77
g58
NtRp2725
(dp2726
g61
(dp2727
sg70
g2712
sg63
(lp2728
g56
(g57
g58
NtRp2729
(dp2730
g61
(dp2731
g69
I3
ssg70
g2725
sg63
(lp2732
g1123
asbasbasbag56
(g72
g58
NtRp2733
(dp2734
g61
(dp2735
sg70
g2414
sg63
(lp2736
g56
(g77
g58
NtRp2737
(dp2738
g61
(dp2739
g81
g82
ssg70
g2733
sg63
(lp2740
S'PATH_INFO'
p2741
asbag56
(g77
g58
NtRp2742
(dp2743
g61
(dp2744
g88
g89
ssg70
g2733
sg63
(lp2745
S':'
asbag56
(g77
g58
NtRp2746
(dp2747
g61
(dp2748
sg70
g2733
sg63
(lp2749
g56
(g57
g58
NtRp2750
(dp2751
g61
(dp2752
g69
I3
ssg70
g2746
sg63
(lp2753
g1166
asbasbasbag56
(g72
g58
NtRp2754
(dp2755
g61
(dp2756
sg70
g2414
sg63
(lp2757
g56
(g77
g58
NtRp2758
(dp2759
g61
(dp2760
g81
g82
ssg70
g2754
sg63
(lp2761
S'QUERY_STRING'
p2762
asbag56
(g77
g58
NtRp2763
(dp2764
g61
(dp2765
g88
g89
ssg70
g2754
sg63
(lp2766
S':'
asbag56
(g77
g58
NtRp2767
(dp2768
g61
(dp2769
sg70
g2754
sg63
(lp2770
g56
(g57
g58
NtRp2771
(dp2772
g61
(dp2773
g69
I3
ssg70
g2767
sg63
(lp2774
S''
asbasbasbag56
(g72
g58
NtRp2775
(dp2776
g61
(dp2777
sg70
g2414
sg63
(lp2778
g56
(g77
g58
NtRp2779
(dp2780
g61
(dp2781
g81
g82
ssg70
g2775
sg63
(lp2782
S'REMOTE_ADDR'
p2783
asbag56
(g77
g58
NtRp2784
(dp2785
g61
(dp2786
g88
g89
ssg70
g2775
sg63
(lp2787
S':'
asbag56
(g77
g58
NtRp2788
(dp2789
g61
(dp2790
sg70
g2775
sg63
(lp2791
g56
(g57
g58
NtRp2792
(dp2793
g61
(dp2794
g69
I3
ssg70
g2788
sg63
(lp2795
g189
asbasbasbag56
(g72
g58
NtRp2796
(dp2797
g61
(dp2798
sg70
g2414
sg63
(lp2799
g56
(g77
g58
NtRp2800
(dp2801
g61
(dp2802
g81
g82
ssg70
g2796
sg63
(lp2803
S'REMOTE_PORT'
p2804
asbag56
(g77
g58
NtRp2805
(dp2806
g61
(dp2807
g88
g89
ssg70
g2796
sg63
(lp2808
S':'
asbag56
(g77
g58
NtRp2809
(dp2810
g61
(dp2811
sg70
g2796
sg63
(lp2812
g56
(g57
g58
NtRp2813
(dp2814
g61
(dp2815
g69
I3
ssg70
g2809
sg63
(lp2816
g1230
asbasbasbag56
(g72
g58
NtRp2817
(dp2818
g61
(dp2819
sg70
g2414
sg63
(lp2820
g56
(g77
g58
NtRp2821
(dp2822
g61
(dp2823
g81
g82
ssg70
g2817
sg63
(lp2824
S'REQUEST_METHOD'
p2825
asbag56
(g77
g58
NtRp2826
(dp2827
g61
(dp2828
g88
g89
ssg70
g2817
sg63
(lp2829
S':'
asbag56
(g77
g58
NtRp2830
(dp2831
g61
(dp2832
sg70
g2817
sg63
(lp2833
g56
(g57
g58
NtRp2834
(dp2835
g61
(dp2836
g69
I3
ssg70
g2830
sg63
(lp2837
g1252
asbasbasbag56
(g72
g58
NtRp2838
(dp2839
g61
(dp2840
sg70
g2414
sg63
(lp2841
g56
(g77
g58
NtRp2842
(dp2843
g61
(dp2844
g81
g82
ssg70
g2838
sg63
(lp2845
S'REQUEST_URI'
p2846
asbag56
(g77
g58
NtRp2847
(dp2848
g61
(dp2849
g88
g89
ssg70
g2838
sg63
(lp2850
S':'
asbag56
(g77
g58
NtRp2851
(dp2852
g61
(dp2853
sg70
g2838
sg63
(lp2854
g56
(g57
g58
NtRp2855
(dp2856
g61
(dp2857
g69
I3
ssg70
g2851
sg63
(lp2858
g1166
asbasbasbag56
(g72
g58
NtRp2859
(dp2860
g61
(dp2861
sg70
g2414
sg63
(lp2862
g56
(g77
g58
NtRp2863
(dp2864
g61
(dp2865
g81
g82
ssg70
g2859
sg63
(lp2866
S'SCRIPT_NAME'
p2867
asbag56
(g77
g58
NtRp2868
(dp2869
g61
(dp2870
g88
g89
ssg70
g2859
sg63
(lp2871
S':'
asbag56
(g77
g58
NtRp2872
(dp2873
g61
(dp2874
sg70
g2859
sg63
(lp2875
g56
(g57
g58
NtRp2876
(dp2877
g61
(dp2878
g69
I3
ssg70
g2872
sg63
(lp2879
S''
asbasbasbag56
(g72
g58
NtRp2880
(dp2881
g61
(dp2882
sg70
g2414
sg63
(lp2883
g56
(g77
g58
NtRp2884
(dp2885
g61
(dp2886
g81
g82
ssg70
g2880
sg63
(lp2887
S'SERVER_NAME'
p2888
asbag56
(g77
g58
NtRp2889
(dp2890
g61
(dp2891
g88
g89
ssg70
g2880
sg63
(lp2892
S':'
asbag56
(g77
g58
NtRp2893
(dp2894
g61
(dp2895
sg70
g2880
sg63
(lp2896
g56
(g57
g58
NtRp2897
(dp2898
g61
(dp2899
g69
I3
ssg70
g2893
sg63
(lp2900
g1316
asbasbasbag56
(g72
g58
NtRp2901
(dp2902
g61
(dp2903
sg70
g2414
sg63
(lp2904
g56
(g77
g58
NtRp2905
(dp2906
g61
(dp2907
g81
g82
ssg70
g2901
sg63
(lp2908
S'SERVER_PORT'
p2909
asbag56
(g77
g58
NtRp2910
(dp2911
g61
(dp2912
g88
g89
ssg70
g2901
sg63
(lp2913
S':'
asbag56
(g77
g58
NtRp2914
(dp2915
g61
(dp2916
sg70
g2901
sg63
(lp2917
g56
(g57
g58
NtRp2918
(dp2919
g61
(dp2920
g69
I3
ssg70
g2914
sg63
(lp2921
g1338
asbasbasbag56
(g72
g58
NtRp2922
(dp2923
g61
(dp2924
sg70
g2414
sg63
(lp2925
g56
(g77
g58
NtRp2926
(dp2927
g61
(dp2928
g81
g82
ssg70
g2922
sg63
(lp2929
S'SERVER_PROTOCOL'
p2930
asbag56
(g77
g58
NtRp2931
(dp2932
g61
(dp2933
g88
g89
ssg70
g2922
sg63
(lp2934
S':'
asbag56
(g77
g58
NtRp2935
(dp2936
g61
(dp2937
sg70
g2922
sg63
(lp2938
g56
(g57
g58
NtRp2939
(dp2940
g61
(dp2941
g69
I3
ssg70
g2935
sg63
(lp2942
g1360
asbasbasbag56
(g72
g58
NtRp2943
(dp2944
g61
(dp2945
sg70
g2414
sg63
(lp2946
g56
(g77
g58
NtRp2947
(dp2948
g61
(dp2949
g81
g82
ssg70
g2943
sg63
(lp2950
S'SERVER_SOFTWARE'
p2951
asbag56
(g77
g58
NtRp2952
(dp2953
g61
(dp2954
g88
g89
ssg70
g2943
sg63
(lp2955
S':'
asbag56
(g77
g58
NtRp2956
(dp2957
g61
(dp2958
sg70
g2943
sg63
(lp2959
g56
(g57
g58
NtRp2960
(dp2961
g61
(dp2962
g69
I3
ssg70
g2956
sg63
(lp2963
g1382
asbasbasbag56
(g72
g58
NtRp2964
(dp2965
g61
(dp2966
sg70
g2414
sg63
(lp2967
g56
(g77
g58
NtRp2968
(dp2969
g61
(dp2970
g81
g82
ssg70
g2964
sg63
(lp2971
S'WEB2PY_ORIGINAL_URI'
p2972
asbag56
(g77
g58
NtRp2973
(dp2974
g61
(dp2975
g88
g89
ssg70
g2964
sg63
(lp2976
S':'
asbag56
(g77
g58
NtRp2977
(dp2978
g61
(dp2979
sg70
g2964
sg63
(lp2980
g56
(g57
g58
NtRp2981
(dp2982
g61
(dp2983
g69
I3
ssg70
g2977
sg63
(lp2984
g1166
asbasbasbag56
(g72
g58
NtRp2985
(dp2986
g61
(dp2987
sg70
g2414
sg63
(lp2988
g56
(g77
g58
NtRp2989
(dp2990
g61
(dp2991
g81
g82
ssg70
g2985
sg63
(lp2992
S'wsgi.errors'
p2993
asbag56
(g77
g58
NtRp2994
(dp2995
g61
(dp2996
g88
g89
ssg70
g2985
sg63
(lp2997
S':'
asbag56
(g77
g58
NtRp2998
(dp2999
g61
(dp3000
sg70
g2985
sg63
(lp3001
g56
(g57
g58
NtRp3002
(dp3003
g61
(dp3004
g69
I3
ssg70
g2998
sg63
(lp3005
S"<open file '<stderr>', mode 'w' at 0x7fa4afe891e0>"
p3006
asbasbasbag56
(g72
g58
NtRp3007
(dp3008
g61
(dp3009
sg70
g2414
sg63
(lp3010
g56
(g77
g58
NtRp3011
(dp3012
g61
(dp3013
g81
g82
ssg70
g3007
sg63
(lp3014
S'wsgi.file_wrapper'
p3015
asbag56
(g77
g58
NtRp3016
(dp3017
g61
(dp3018
g88
g89
ssg70
g3007
sg63
(lp3019
S':'
asbag56
(g77
g58
NtRp3020
(dp3021
g61
(dp3022
sg70
g3007
sg63
(lp3023
g56
(g57
g58
NtRp3024
(dp3025
g61
(dp3026
g69
I3
ssg70
g3020
sg63
(lp3027
S'<class wsgiref.util.FileWrapper at 0x1bbf590>'
p3028
asbasbasbag56
(g72
g58
NtRp3029
(dp3030
g61
(dp3031
sg70
g2414
sg63
(lp3032
g56
(g77
g58
NtRp3033
(dp3034
g61
(dp3035
g81
g82
ssg70
g3029
sg63
(lp3036
S'wsgi.input'
p3037
asbag56
(g77
g58
NtRp3038
(dp3039
g61
(dp3040
g88
g89
ssg70
g3029
sg63
(lp3041
S':'
asbag56
(g77
g58
NtRp3042
(dp3043
g61
(dp3044
sg70
g3029
sg63
(lp3045
g56
(g57
g58
NtRp3046
(dp3047
g61
(dp3048
g69
I3
ssg70
g3042
sg63
(lp3049
S"<open file '<fdopen>', mode 'w+b' at 0x1d19f60>"
p3050
asbasbasbag56
(g72
g58
NtRp3051
(dp3052
g61
(dp3053
sg70
g2414
sg63
(lp3054
g56
(g77
g58
NtRp3055
(dp3056
g61
(dp3057
g81
g82
ssg70
g3051
sg63
(lp3058
S'wsgi.multiprocess'
p3059
asbag56
(g77
g58
NtRp3060
(dp3061
g61
(dp3062
g88
g89
ssg70
g3051
sg63
(lp3063
S':'
asbag56
(g77
g58
NtRp3064
(dp3065
g61
(dp3066
sg70
g3051
sg63
(lp3067
g56
(g57
g58
NtRp3068
(dp3069
g61
(dp3070
g69
I3
ssg70
g3064
sg63
(lp3071
g99
asbasbasbag56
(g72
g58
NtRp3072
(dp3073
g61
(dp3074
sg70
g2414
sg63
(lp3075
g56
(g77
g58
NtRp3076
(dp3077
g61
(dp3078
g81
g82
ssg70
g3072
sg63
(lp3079
S'wsgi.multithread'
p3080
asbag56
(g77
g58
NtRp3081
(dp3082
g61
(dp3083
g88
g89
ssg70
g3072
sg63
(lp3084
S':'
asbag56
(g77
g58
NtRp3085
(dp3086
g61
(dp3087
sg70
g3072
sg63
(lp3088
g56
(g57
g58
NtRp3089
(dp3090
g61
(dp3091
g69
I3
ssg70
g3085
sg63
(lp3092
g1643
asbasbasbag56
(g72
g58
NtRp3093
(dp3094
g61
(dp3095
sg70
g2414
sg63
(lp3096
g56
(g77
g58
NtRp3097
(dp3098
g61
(dp3099
g81
g82
ssg70
g3093
sg63
(lp3100
S'wsgi.run_once'
p3101
asbag56
(g77
g58
NtRp3102
(dp3103
g61
(dp3104
g88
g89
ssg70
g3093
sg63
(lp3105
S':'
asbag56
(g77
g58
NtRp3106
(dp3107
g61
(dp3108
sg70
g3093
sg63
(lp3109
g56
(g57
g58
NtRp3110
(dp3111
g61
(dp3112
g69
I3
ssg70
g3106
sg63
(lp3113
g99
asbasbasbag56
(g72
g58
NtRp3114
(dp3115
g61
(dp3116
sg70
g2414
sg63
(lp3117
g56
(g77
g58
NtRp3118
(dp3119
g61
(dp3120
g81
g82
ssg70
g3114
sg63
(lp3121
S'wsgi.url_scheme'
p3122
asbag56
(g77
g58
NtRp3123
(dp3124
g61
(dp3125
g88
g89
ssg70
g3114
sg63
(lp3126
S':'
asbag56
(g77
g58
NtRp3127
(dp3128
g61
(dp3129
sg70
g3114
sg63
(lp3130
g56
(g57
g58
NtRp3131
(dp3132
g61
(dp3133
g69
I3
ssg70
g3127
sg63
(lp3134
g1686
asbasbasbag56
(g72
g58
NtRp3135
(dp3136
g61
(dp3137
sg70
g2414
sg63
(lp3138
g56
(g77
g58
NtRp3139
(dp3140
g61
(dp3141
g81
g82
ssg70
g3135
sg63
(lp3142
S'wsgi.version'
p3143
asbag56
(g77
g58
NtRp3144
(dp3145
g61
(dp3146
g88
g89
ssg70
g3135
sg63
(lp3147
S':'
asbag56
(g77
g58
NtRp3148
(dp3149
g61
(dp3150
sg70
g3135
sg63
(lp3151
g56
(g57
g58
NtRp3152
(dp3153
g61
(dp3154
g69
I3
ssg70
g3148
sg63
(lp3155
S'1'
asbasbasbasbasbasbasbasbasbasbasbasbasbsS'frames'
p3156
(lp3157
(dp3158
S'file'
p3159
S'/windows/Users/Thomas/Dropbox/appz/2011/GAE/ddl-lagoon/gluon/restricted.py'
p3160
sS'dump'
p3161
(dp3162
S'environment'
p3163
S"{'A': <class 'gluon.html.A'>, 'Auth': <class 'gluon.tools.Auth'>, 'B': <class 'gluon.html.B'>, 'BEAUTIFY': <class 'gluon.html.BEAUTIFY'>, 'BODY': <class 'gluon.html.BODY'>, 'BR': <class 'gluon.html.BR'>, 'BUTTON': <class 'gluon.html.BUTTON'>, 'CAT': <class 'gluon.html.CAT'>, 'CENTER': <class 'gluon.html.CENTER'>, 'CLEANUP': <class 'gluon.validators.CLEANUP'>, ...}"
p3164
sS'ccode'
p3165
S'<code object <module> at 0x30d9af8, file "/windo...ations/ddlagoon/controllers/default.py", line 11>'
p3166
ssS'lnum'
p3167
I194
sS'lines'
p3168
(dp3169
I192
S'        else:'
p3170
sI193
S'            ccode = compile2(code,layer)'
p3171
sI194
S'        exec ccode in environment'
p3172
sI195
S'    except HTTP:'
p3173
sI196
S'        raise'
p3174
sI197
S'    except Exception, error:'
p3175
sI198
S'        # XXX Show exception in Wing IDE if running in debugger'
p3176
sI189
S'    try:'
p3177
sI190
S'        if type(code) == types.CodeType:'
p3178
sI191
S'            ccode = code'
p3179
ssS'call'
p3180
S"(code='# -*- coding: utf-8 -*-\\n# this file is released ...=linux64)\\nresponse._vars=response._caller(index)\\n', environment={'A': <class 'gluon.html.A'>, 'Auth': <class 'gluon.tools.Auth'>, 'B': <class 'gluon.html.B'>, 'BEAUTIFY': <class 'gluon.html.BEAUTIFY'>, 'BODY': <class 'gluon.html.BODY'>, 'BR': <class 'gluon.html.BR'>, 'BUTTON': <class 'gluon.html.BUTTON'>, 'CAT': <class 'gluon.html.CAT'>, 'CENTER': <class 'gluon.html.CENTER'>, 'CLEANUP': <class 'gluon.validators.CLEANUP'>, ...}, layer='/windows/Users/Thomas/Dropbox/appz/2011/GAE/ddl-lagoon/applications/ddlagoon/controllers/default.py')"
p3181
sS'func'
p3182
S'restricted'
p3183
sa(dp3184
g3159
S'/windows/Users/Thomas/Dropbox/appz/2011/GAE/ddl-lagoon/applications/ddlagoon/controllers/default.py'
p3185
sg3161
(dp3186
sg3167
I362
sg3168
(dp3187
I352
S'#        return response.download(request, ddlFile)'
p3188
sI353
S'        response.headers[\'Content-Type\'] = "application/octet-stream"'
p3189
sI354
S"        response.headers['Content-Disposition'] = 'attachment; filename=%s.ddl' % ddl.filename"
p3190
sI355
S'        return encryptedMsg'
p3191
sI356
S''
sI357
S'def howto():'
p3192
sI358
S'    win32= "http://www.mediafire.com/?hhbfzm4i3t2n99h"'
p3193
sI359
S'    win64= "http://www.mediafire.com/?54t5ehe72p0i41p"'
p3194
sI360
S'    linux64= "http://www.mediafire.com/?5dy9bakpk8333xr"'
p3195
sI361
S'    return dict(win32=win32, win64=win64, linux64=linux64)'
p3196
ssg3180
S'()'
p3197
sg3182
S'<module>'
p3198
sa(dp3199
g3159
S'/windows/Users/Thomas/Dropbox/appz/2011/GAE/ddl-lagoon/gluon/globals.py'
p3200
sg3161
(dp3201
S'self'
p3202
S'undefined'
p3203
sS'f'
S'<function index>'
p3204
ssg3167
I149
sg3168
(dp3205
I144
S'        self.meta = Storage()      # used by web2py_ajax.html'
p3206
sI145
S'        self.menu = []             # used by the default view layout'
p3207
sI146
S'        self.files = []            # used by web2py_ajax.html'
p3208
sI147
S'        self.generic_patterns = [] # patterns to allow generic views'
p3209
sI148
S'        self._vars = None'
p3210
sI149
S'        self._caller = lambda f: f()'
p3211
sI150
S'        self._view_environment = None'
p3212
sI151
S'        self._custom_commit = None'
p3213
sI152
S'        self._custom_rollback = None'
p3214
sI153
S''
ssg3180
S'(f=<function index>)'
p3215
sg3182
S'<lambda>'
p3216
sa(dp3217
g3159
S'/windows/Users/Thomas/Dropbox/appz/2011/GAE/ddl-lagoon/applications/ddlagoon/controllers/default.py'
p3218
sg3161
(dp3219
S'rows'
p3220
S'<gluon.dal.Query object>'
p3221
sS'row'
p3222
g3203
ssg3167
I77
sg3168
(dp3223
I72
S'        rows= db.ddl.filename.like(\'%\'+request.vars[\'filesearch\'].replace(" ","%")+\'%\')'
p3224
sI73
S'    else:'
p3225
sI74
S'        rows= db(db.ddl.id>0).select(orderby=~db.ddl.date_added, limitby=(0,10))'
p3226
sI75
S'    ddlz=[]'
p3227
sI76
S''
sI77
S'    for row in rows:'
p3228
sI78
S"        difference = datetime.now()-row['date_added']"
p3229
sI79
S'        weeks, days = divmod(difference.days, 7)'
p3230
sI80
S'        minutes, seconds = divmod(difference.seconds, 60)'
p3231
sI81
S'        hours, minutes = divmod(minutes, 60)'
p3232
ssg3180
S'()'
p3233
sg3182
S'index'
p3234
sasS'pyver'
p3235
S'Python 2.6.7: /usr/bin/python2.6'
p3236
sS'session'
p3237
g56
(g57
g58
NtRp3238
(dp3239
g61
(dp3240
sg63
(lp3241
g56
(g65
g58
NtRp3242
(dp3243
g61
(dp3244
g69
I5
ssg70
Nsg63
(lp3245
sbasbsS'etype'
p3246
S"<type 'exceptions.TypeError'>"
p3247
sS'date'
p3248
S'Fri Oct 28 20:11:56 2011'
p3249
sS'response'
p3250
g56
(g57
g58
NtRp3251
(dp3252
g61
(dp3253
sg63
(lp3254
g56
(g65
g58
NtRp3255
(dp3256
g61
(dp3257
g69
I5
ssg70
Nsg63
(lp3258
g56
(g72
g58
NtRp3259
(dp3260
g61
(dp3261
sg70
g3255
sg63
(lp3262
g56
(g77
g58
NtRp3263
(dp3264
g61
(dp3265
g81
g82
ssg70
g3259
sg63
(lp3266
g154
asbag56
(g77
g58
NtRp3267
(dp3268
g61
(dp3269
g88
g89
ssg70
g3259
sg63
(lp3270
S':'
asbag56
(g77
g58
NtRp3271
(dp3272
g61
(dp3273
sg70
g3259
sg63
(lp3274
g56
(g57
g58
NtRp3275
(dp3276
g61
(dp3277
g69
I5
ssg70
g3271
sg63
(lp3278
S'<cStringIO.StringO object at 0x30def10>'
p3279
asbasbasbag56
(g72
g58
NtRp3280
(dp3281
g61
(dp3282
sg70
g3255
sg63
(lp3283
g56
(g77
g58
NtRp3284
(dp3285
g61
(dp3286
g81
g82
ssg70
g3280
sg63
(lp3287
g220
asbag56
(g77
g58
NtRp3288
(dp3289
g61
(dp3290
g88
g89
ssg70
g3280
sg63
(lp3291
S':'
asbag56
(g77
g58
NtRp3292
(dp3293
g61
(dp3294
sg70
g3280
sg63
(lp3295
g56
(g57
g58
NtRp3296
(dp3297
g61
(dp3298
g69
I5
ssg70
g3292
sg63
(lp3299
g56
(g65
g58
NtRp3300
(dp3301
g61
(dp3302
g69
I4
ssg70
Nsg63
(lp3303
g56
(g72
g58
NtRp3304
(dp3305
g61
(dp3306
sg70
g3300
sg63
(lp3307
g56
(g77
g58
NtRp3308
(dp3309
g61
(dp3310
g81
g82
ssg70
g3304
sg63
(lp3311
S'session_id_ddlagoon'
p3312
asbag56
(g77
g58
NtRp3313
(dp3314
g61
(dp3315
g88
g89
ssg70
g3304
sg63
(lp3316
S':'
asbag56
(g77
g58
NtRp3317
(dp3318
g61
(dp3319
sg70
g3304
sg63
(lp3320
g56
(g57
g58
NtRp3321
(dp3322
g61
(dp3323
g69
I4
ssg70
g3317
sg63
(lp3324
g56
(g65
g58
NtRp3325
(dp3326
g61
(dp3327
g69
I3
ssg70
Nsg63
(lp3328
g56
(g72
g58
NtRp3329
(dp3330
g61
(dp3331
sg70
g3325
sg63
(lp3332
g56
(g77
g58
NtRp3333
(dp3334
g61
(dp3335
g81
g82
ssg70
g3329
sg63
(lp3336
g270
asbag56
(g77
g58
NtRp3337
(dp3338
g61
(dp3339
g88
g89
ssg70
g3329
sg63
(lp3340
S':'
asbag56
(g77
g58
NtRp3341
(dp3342
g61
(dp3343
sg70
g3329
sg63
(lp3344
g56
(g57
g58
NtRp3345
(dp3346
g61
(dp3347
g69
I3
ssg70
g3341
sg63
(lp3348
S''
asbasbasbag56
(g72
g58
NtRp3349
(dp3350
g61
(dp3351
sg70
g3325
sg63
(lp3352
g56
(g77
g58
NtRp3353
(dp3354
g61
(dp3355
g81
g82
ssg70
g3349
sg63
(lp3356
g291
asbag56
(g77
g58
NtRp3357
(dp3358
g61
(dp3359
g88
g89
ssg70
g3349
sg63
(lp3360
S':'
asbag56
(g77
g58
NtRp3361
(dp3362
g61
(dp3363
sg70
g3349
sg63
(lp3364
g56
(g57
g58
NtRp3365
(dp3366
g61
(dp3367
g69
I3
ssg70
g3361
sg63
(lp3368
S''
asbasbasbag56
(g72
g58
NtRp3369
(dp3370
g61
(dp3371
sg70
g3325
sg63
(lp3372
g56
(g77
g58
NtRp3373
(dp3374
g61
(dp3375
g81
g82
ssg70
g3369
sg63
(lp3376
g312
asbag56
(g77
g58
NtRp3377
(dp3378
g61
(dp3379
g88
g89
ssg70
g3369
sg63
(lp3380
S':'
asbag56
(g77
g58
NtRp3381
(dp3382
g61
(dp3383
sg70
g3369
sg63
(lp3384
g56
(g57
g58
NtRp3385
(dp3386
g61
(dp3387
g69
I3
ssg70
g3381
sg63
(lp3388
S''
asbasbasbag56
(g72
g58
NtRp3389
(dp3390
g61
(dp3391
sg70
g3325
sg63
(lp3392
g56
(g77
g58
NtRp3393
(dp3394
g61
(dp3395
g81
g82
ssg70
g3389
sg63
(lp3396
g333
asbag56
(g77
g58
NtRp3397
(dp3398
g61
(dp3399
g88
g89
ssg70
g3389
sg63
(lp3400
S':'
asbag56
(g77
g58
NtRp3401
(dp3402
g61
(dp3403
sg70
g3389
sg63
(lp3404
g56
(g57
g58
NtRp3405
(dp3406
g61
(dp3407
g69
I3
ssg70
g3401
sg63
(lp3408
S''
asbasbasbag56
(g72
g58
NtRp3409
(dp3410
g61
(dp3411
sg70
g3325
sg63
(lp3412
g56
(g77
g58
NtRp3413
(dp3414
g61
(dp3415
g81
g82
ssg70
g3409
sg63
(lp3416
g354
asbag56
(g77
g58
NtRp3417
(dp3418
g61
(dp3419
g88
g89
ssg70
g3409
sg63
(lp3420
S':'
asbag56
(g77
g58
NtRp3421
(dp3422
g61
(dp3423
sg70
g3409
sg63
(lp3424
g56
(g57
g58
NtRp3425
(dp3426
g61
(dp3427
g69
I3
ssg70
g3421
sg63
(lp3428
S''
asbasbasbag56
(g72
g58
NtRp3429
(dp3430
g61
(dp3431
sg70
g3325
sg63
(lp3432
g56
(g77
g58
NtRp3433
(dp3434
g61
(dp3435
g81
g82
ssg70
g3429
sg63
(lp3436
g375
asbag56
(g77
g58
NtRp3437
(dp3438
g61
(dp3439
g88
g89
ssg70
g3429
sg63
(lp3440
S':'
asbag56
(g77
g58
NtRp3441
(dp3442
g61
(dp3443
sg70
g3429
sg63
(lp3444
g56
(g57
g58
NtRp3445
(dp3446
g61
(dp3447
g69
I3
ssg70
g3441
sg63
(lp3448
S'/'
asbasbasbag56
(g72
g58
NtRp3449
(dp3450
g61
(dp3451
sg70
g3325
sg63
(lp3452
g56
(g77
g58
NtRp3453
(dp3454
g61
(dp3455
g81
g82
ssg70
g3449
sg63
(lp3456
g396
asbag56
(g77
g58
NtRp3457
(dp3458
g61
(dp3459
g88
g89
ssg70
g3449
sg63
(lp3460
S':'
asbag56
(g77
g58
NtRp3461
(dp3462
g61
(dp3463
sg70
g3449
sg63
(lp3464
g56
(g57
g58
NtRp3465
(dp3466
g61
(dp3467
g69
I3
ssg70
g3461
sg63
(lp3468
S''
asbasbasbag56
(g72
g58
NtRp3469
(dp3470
g61
(dp3471
sg70
g3325
sg63
(lp3472
g56
(g77
g58
NtRp3473
(dp3474
g61
(dp3475
g81
g82
ssg70
g3469
sg63
(lp3476
g417
asbag56
(g77
g58
NtRp3477
(dp3478
g61
(dp3479
g88
g89
ssg70
g3469
sg63
(lp3480
S':'
asbag56
(g77
g58
NtRp3481
(dp3482
g61
(dp3483
sg70
g3469
sg63
(lp3484
g56
(g57
g58
NtRp3485
(dp3486
g61
(dp3487
g69
I3
ssg70
g3481
sg63
(lp3488
S''
asbasbasbasbasbasbasbasbasbasbasbag56
(g72
g58
NtRp3489
(dp3490
g61
(dp3491
sg70
g3255
sg63
(lp3492
g56
(g77
g58
NtRp3493
(dp3494
g61
(dp3495
g81
g82
ssg70
g3489
sg63
(lp3496
S'files'
p3497
asbag56
(g77
g58
NtRp3498
(dp3499
g61
(dp3500
g88
g89
ssg70
g3489
sg63
(lp3501
S':'
asbag56
(g77
g58
NtRp3502
(dp3503
g61
(dp3504
sg70
g3489
sg63
(lp3505
g56
(g57
g58
NtRp3506
(dp3507
g61
(dp3508
g69
I5
ssg70
g3502
sg63
(lp3509
g56
(g65
g58
NtRp3510
(dp3511
g61
(dp3512
g69
I4
ssg70
Nsg63
(lp3513
sbasbasbasbag56
(g72
g58
NtRp3514
(dp3515
g61
(dp3516
sg70
g3255
sg63
(lp3517
g56
(g77
g58
NtRp3518
(dp3519
g61
(dp3520
g81
g82
ssg70
g3514
sg63
(lp3521
S'flash'
p3522
asbag56
(g77
g58
NtRp3523
(dp3524
g61
(dp3525
g88
g89
ssg70
g3514
sg63
(lp3526
S':'
asbag56
(g77
g58
NtRp3527
(dp3528
g61
(dp3529
sg70
g3514
sg63
(lp3530
g56
(g57
g58
NtRp3531
(dp3532
g61
(dp3533
g69
I5
ssg70
g3527
sg63
(lp3534
S''
asbasbasbag56
(g72
g58
NtRp3535
(dp3536
g61
(dp3537
sg70
g3255
sg63
(lp3538
g56
(g77
g58
NtRp3539
(dp3540
g61
(dp3541
g81
g82
ssg70
g3535
sg63
(lp3542
S'generic_patterns'
p3543
asbag56
(g77
g58
NtRp3544
(dp3545
g61
(dp3546
g88
g89
ssg70
g3535
sg63
(lp3547
S':'
asbag56
(g77
g58
NtRp3548
(dp3549
g61
(dp3550
sg70
g3535
sg63
(lp3551
g56
(g57
g58
NtRp3552
(dp3553
g61
(dp3554
g69
I5
ssg70
g3548
sg63
(lp3555
g56
(g65
g58
NtRp3556
(dp3557
g61
(dp3558
g69
I4
ssg70
Nsg63
(lp3559
g56
(g72
g58
NtRp3560
(dp3561
g61
(dp3562
sg70
g3556
sg63
(lp3563
g56
(g77
g58
NtRp3564
(dp3565
g61
(dp3566
sg70
g3560
sg63
(lp3567
g56
(g57
g58
NtRp3568
(dp3569
g61
(dp3570
g69
I4
ssg70
g3564
sg63
(lp3571
S'*'
asbasbasbasbasbasbasbag56
(g72
g58
NtRp3572
(dp3573
g61
(dp3574
sg70
g3255
sg63
(lp3575
g56
(g77
g58
NtRp3576
(dp3577
g61
(dp3578
g81
g82
ssg70
g3572
sg63
(lp3579
S'headers'
p3580
asbag56
(g77
g58
NtRp3581
(dp3582
g61
(dp3583
g88
g89
ssg70
g3572
sg63
(lp3584
S':'
asbag56
(g77
g58
NtRp3585
(dp3586
g61
(dp3587
sg70
g3572
sg63
(lp3588
g56
(g57
g58
NtRp3589
(dp3590
g61
(dp3591
g69
I5
ssg70
g3585
sg63
(lp3592
g56
(g65
g58
NtRp3593
(dp3594
g61
(dp3595
g69
I4
ssg70
Nsg63
(lp3596
g56
(g72
g58
NtRp3597
(dp3598
g61
(dp3599
sg70
g3593
sg63
(lp3600
g56
(g77
g58
NtRp3601
(dp3602
g61
(dp3603
g81
g82
ssg70
g3597
sg63
(lp3604
S'Cache-Control'
p3605
asbag56
(g77
g58
NtRp3606
(dp3607
g61
(dp3608
g88
g89
ssg70
g3597
sg63
(lp3609
S':'
asbag56
(g77
g58
NtRp3610
(dp3611
g61
(dp3612
sg70
g3597
sg63
(lp3613
g56
(g57
g58
NtRp3614
(dp3615
g61
(dp3616
g69
I4
ssg70
g3610
sg63
(lp3617
S'no-store, no-cache, must-revalidate, post-check=0, pre-check=0'
p3618
asbasbasbag56
(g72
g58
NtRp3619
(dp3620
g61
(dp3621
sg70
g3593
sg63
(lp3622
g56
(g77
g58
NtRp3623
(dp3624
g61
(dp3625
g81
g82
ssg70
g3619
sg63
(lp3626
S'Content-Type'
p3627
asbag56
(g77
g58
NtRp3628
(dp3629
g61
(dp3630
g88
g89
ssg70
g3619
sg63
(lp3631
S':'
asbag56
(g77
g58
NtRp3632
(dp3633
g61
(dp3634
sg70
g3619
sg63
(lp3635
g56
(g57
g58
NtRp3636
(dp3637
g61
(dp3638
g69
I4
ssg70
g3632
sg63
(lp3639
S'text/html; charset=utf-8'
p3640
asbasbasbag56
(g72
g58
NtRp3641
(dp3642
g61
(dp3643
sg70
g3593
sg63
(lp3644
g56
(g77
g58
NtRp3645
(dp3646
g61
(dp3647
g81
g82
ssg70
g3641
sg63
(lp3648
S'Expires'
p3649
asbag56
(g77
g58
NtRp3650
(dp3651
g61
(dp3652
g88
g89
ssg70
g3641
sg63
(lp3653
S':'
asbag56
(g77
g58
NtRp3654
(dp3655
g61
(dp3656
sg70
g3641
sg63
(lp3657
g56
(g57
g58
NtRp3658
(dp3659
g61
(dp3660
g69
I4
ssg70
g3654
sg63
(lp3661
S'Fri, 28 Oct 2011 19:11:56 GMT'
p3662
asbasbasbag56
(g72
g58
NtRp3663
(dp3664
g61
(dp3665
sg70
g3593
sg63
(lp3666
g56
(g77
g58
NtRp3667
(dp3668
g61
(dp3669
g81
g82
ssg70
g3663
sg63
(lp3670
S'Pragma'
p3671
asbag56
(g77
g58
NtRp3672
(dp3673
g61
(dp3674
g88
g89
ssg70
g3663
sg63
(lp3675
S':'
asbag56
(g77
g58
NtRp3676
(dp3677
g61
(dp3678
sg70
g3663
sg63
(lp3679
g56
(g57
g58
NtRp3680
(dp3681
g61
(dp3682
g69
I4
ssg70
g3676
sg63
(lp3683
S'no-cache'
p3684
asbasbasbag56
(g72
g58
NtRp3685
(dp3686
g61
(dp3687
sg70
g3593
sg63
(lp3688
g56
(g77
g58
NtRp3689
(dp3690
g61
(dp3691
g81
g82
ssg70
g3685
sg63
(lp3692
S'X-Powered-By'
p3693
asbag56
(g77
g58
NtRp3694
(dp3695
g61
(dp3696
g88
g89
ssg70
g3685
sg63
(lp3697
S':'
asbag56
(g77
g58
NtRp3698
(dp3699
g61
(dp3700
sg70
g3685
sg63
(lp3701
g56
(g57
g58
NtRp3702
(dp3703
g61
(dp3704
g69
I4
ssg70
g3698
sg63
(lp3705
S'web2py'
p3706
asbasbasbasbasbasbasbag56
(g72
g58
NtRp3707
(dp3708
g61
(dp3709
sg70
g3255
sg63
(lp3710
g56
(g77
g58
NtRp3711
(dp3712
g61
(dp3713
g81
g82
ssg70
g3707
sg63
(lp3714
S'menu'
p3715
asbag56
(g77
g58
NtRp3716
(dp3717
g61
(dp3718
g88
g89
ssg70
g3707
sg63
(lp3719
S':'
asbag56
(g77
g58
NtRp3720
(dp3721
g61
(dp3722
sg70
g3707
sg63
(lp3723
g56
(g57
g58
NtRp3724
(dp3725
g61
(dp3726
g69
I5
ssg70
g3720
sg63
(lp3727
g56
(g65
g58
NtRp3728
(dp3729
g61
(dp3730
g69
I4
ssg70
Nsg63
(lp3731
g56
(g72
g58
NtRp3732
(dp3733
g61
(dp3734
sg70
g3728
sg63
(lp3735
g56
(g77
g58
NtRp3736
(dp3737
g61
(dp3738
sg70
g3732
sg63
(lp3739
g56
(g57
g58
NtRp3740
(dp3741
g61
(dp3742
g69
I4
ssg70
g3736
sg63
(lp3743
g56
(g65
g58
NtRp3744
(dp3745
g61
(dp3746
g69
I3
ssg70
Nsg63
(lp3747
g56
(g72
g58
NtRp3748
(dp3749
g61
(dp3750
sg70
g3744
sg63
(lp3751
g56
(g77
g58
NtRp3752
(dp3753
g61
(dp3754
sg70
g3748
sg63
(lp3755
g56
(g57
g58
NtRp3756
(dp3757
g61
(dp3758
g69
I3
ssg70
g3752
sg63
(lp3759
cgluon.languages
lazyT_unpickle
p3760
(S's\x04\x00\x00\x00Home'
tRp3761
asbasbasbag56
(g72
g58
NtRp3762
(dp3763
g61
(dp3764
sg70
g3744
sg63
(lp3765
g56
(g77
g58
NtRp3766
(dp3767
g61
(dp3768
sg70
g3762
sg63
(lp3769
g56
(g57
g58
NtRp3770
(dp3771
g61
(dp3772
g69
I3
ssg70
g3766
sg63
(lp3773
g99
asbasbasbag56
(g72
g58
NtRp3774
(dp3775
g61
(dp3776
sg70
g3744
sg63
(lp3777
g56
(g77
g58
NtRp3778
(dp3779
g61
(dp3780
sg70
g3774
sg63
(lp3781
g56
(g57
g58
NtRp3782
(dp3783
g61
(dp3784
g69
I3
ssg70
g3778
sg63
(lp3785
S'/ddlagoon/default/index'
p3786
asbasbasbag56
(g72
g58
NtRp3787
(dp3788
g61
(dp3789
sg70
g3744
sg63
(lp3790
g56
(g77
g58
NtRp3791
(dp3792
g61
(dp3793
sg70
g3787
sg63
(lp3794
g56
(g57
g58
NtRp3795
(dp3796
g61
(dp3797
g69
I3
ssg70
g3791
sg63
(lp3798
g56
(g65
g58
NtRp3799
(dp3800
g61
(dp3801
g69
I2
ssg70
Nsg63
(lp3802
sbasbasbasbasbasbasbasbag56
(g72
g58
NtRp3803
(dp3804
g61
(dp3805
sg70
g3728
sg63
(lp3806
g56
(g77
g58
NtRp3807
(dp3808
g61
(dp3809
sg70
g3803
sg63
(lp3810
g56
(g57
g58
NtRp3811
(dp3812
g61
(dp3813
g69
I4
ssg70
g3807
sg63
(lp3814
g56
(g65
g58
NtRp3815
(dp3816
g61
(dp3817
g69
I3
ssg70
Nsg63
(lp3818
g56
(g72
g58
NtRp3819
(dp3820
g61
(dp3821
sg70
g3815
sg63
(lp3822
g56
(g77
g58
NtRp3823
(dp3824
g61
(dp3825
sg70
g3819
sg63
(lp3826
g56
(g57
g58
NtRp3827
(dp3828
g61
(dp3829
g69
I3
ssg70
g3823
sg63
(lp3830
g3760
(S's\x08\x00\x00\x00This App'
tRp3831
asbasbasbag56
(g72
g58
NtRp3832
(dp3833
g61
(dp3834
sg70
g3815
sg63
(lp3835
g56
(g77
g58
NtRp3836
(dp3837
g61
(dp3838
sg70
g3832
sg63
(lp3839
g56
(g57
g58
NtRp3840
(dp3841
g61
(dp3842
g69
I3
ssg70
g3836
sg63
(lp3843
g99
asbasbasbag56
(g72
g58
NtRp3844
(dp3845
g61
(dp3846
sg70
g3815
sg63
(lp3847
g56
(g77
g58
NtRp3848
(dp3849
g61
(dp3850
sg70
g3844
sg63
(lp3851
g56
(g57
g58
NtRp3852
(dp3853
g61
(dp3854
g69
I3
ssg70
g3848
sg63
(lp3855
S'/admin/default/design/ddlagoon'
p3856
asbasbasbag56
(g72
g58
NtRp3857
(dp3858
g61
(dp3859
sg70
g3815
sg63
(lp3860
g56
(g77
g58
NtRp3861
(dp3862
g61
(dp3863
sg70
g3857
sg63
(lp3864
g56
(g57
g58
NtRp3865
(dp3866
g61
(dp3867
g69
I3
ssg70
g3861
sg63
(lp3868
g56
(g65
g58
NtRp3869
(dp3870
g61
(dp3871
g69
I2
ssg70
Nsg63
(lp3872
g56
(g72
g58
NtRp3873
(dp3874
g61
(dp3875
sg70
g3869
sg63
(lp3876
g56
(g77
g58
NtRp3877
(dp3878
g61
(dp3879
sg70
g3873
sg63
(lp3880
g56
(g57
g58
NtRp3881
(dp3882
g61
(dp3883
g69
I2
ssg70
g3877
sg63
(lp3884
g56
(g65
g58
NtRp3885
(dp3886
g61
(dp3887
g69
I1
ssg70
Nsg63
(lp3888
g56
(g72
g58
NtRp3889
(dp3890
g61
(dp3891
sg70
g3885
sg63
(lp3892
g56
(g77
g58
NtRp3893
(dp3894
g61
(dp3895
sg70
g3889
sg63
(lp3896
g56
(g57
g58
NtRp3897
(dp3898
g61
(dp3899
g69
I1
ssg70
g3893
sg63
(lp3900
g3760
(S's\n\x00\x00\x00Controller'
tRp3901
asbasbasbag56
(g72
g58
NtRp3902
(dp3903
g61
(dp3904
sg70
g3885
sg63
(lp3905
g56
(g77
g58
NtRp3906
(dp3907
g61
(dp3908
sg70
g3902
sg63
(lp3909
g56
(g57
g58
NtRp3910
(dp3911
g61
(dp3912
g69
I1
ssg70
g3906
sg63
(lp3913
I00
asbasbasbag56
(g72
g58
NtRp3914
(dp3915
g61
(dp3916
sg70
g3885
sg63
(lp3917
g56
(g77
g58
NtRp3918
(dp3919
g61
(dp3920
sg70
g3914
sg63
(lp3921
g56
(g57
g58
NtRp3922
(dp3923
g61
(dp3924
g69
I1
ssg70
g3918
sg63
(lp3925
S'/admin/default/edit/ddlagoon/controllers/default.py'
p3926
asbasbasbasbasbasbasbag56
(g72
g58
NtRp3927
(dp3928
g61
(dp3929
sg70
g3869
sg63
(lp3930
g56
(g77
g58
NtRp3931
(dp3932
g61
(dp3933
sg70
g3927
sg63
(lp3934
g56
(g57
g58
NtRp3935
(dp3936
g61
(dp3937
g69
I2
ssg70
g3931
sg63
(lp3938
g56
(g65
g58
NtRp3939
(dp3940
g61
(dp3941
g69
I1
ssg70
Nsg63
(lp3942
g56
(g72
g58
NtRp3943
(dp3944
g61
(dp3945
sg70
g3939
sg63
(lp3946
g56
(g77
g58
NtRp3947
(dp3948
g61
(dp3949
sg70
g3943
sg63
(lp3950
g56
(g57
g58
NtRp3951
(dp3952
g61
(dp3953
g69
I1
ssg70
g3947
sg63
(lp3954
g3760
(S's\x04\x00\x00\x00View'
tRp3955
asbasbasbag56
(g72
g58
NtRp3956
(dp3957
g61
(dp3958
sg70
g3939
sg63
(lp3959
g56
(g77
g58
NtRp3960
(dp3961
g61
(dp3962
sg70
g3956
sg63
(lp3963
g56
(g57
g58
NtRp3964
(dp3965
g61
(dp3966
g69
I1
ssg70
g3960
sg63
(lp3967
I00
asbasbasbag56
(g72
g58
NtRp3968
(dp3969
g61
(dp3970
sg70
g3939
sg63
(lp3971
g56
(g77
g58
NtRp3972
(dp3973
g61
(dp3974
sg70
g3968
sg63
(lp3975
g56
(g57
g58
NtRp3976
(dp3977
g61
(dp3978
g69
I1
ssg70
g3972
sg63
(lp3979
S'/admin/default/edit/ddlagoon/views/default/index.html'
p3980
asbasbasbasbasbasbasbag56
(g72
g58
NtRp3981
(dp3982
g61
(dp3983
sg70
g3869
sg63
(lp3984
g56
(g77
g58
NtRp3985
(dp3986
g61
(dp3987
sg70
g3981
sg63
(lp3988
g56
(g57
g58
NtRp3989
(dp3990
g61
(dp3991
g69
I2
ssg70
g3985
sg63
(lp3992
g56
(g65
g58
NtRp3993
(dp3994
g61
(dp3995
g69
I1
ssg70
Nsg63
(lp3996
g56
(g72
g58
NtRp3997
(dp3998
g61
(dp3999
sg70
g3993
sg63
(lp4000
g56
(g77
g58
NtRp4001
(dp4002
g61
(dp4003
sg70
g3997
sg63
(lp4004
g56
(g57
g58
NtRp4005
(dp4006
g61
(dp4007
g69
I1
ssg70
g4001
sg63
(lp4008
g3760
(S's\x06\x00\x00\x00Layout'
tRp4009
asbasbasbag56
(g72
g58
NtRp4010
(dp4011
g61
(dp4012
sg70
g3993
sg63
(lp4013
g56
(g77
g58
NtRp4014
(dp4015
g61
(dp4016
sg70
g4010
sg63
(lp4017
g56
(g57
g58
NtRp4018
(dp4019
g61
(dp4020
g69
I1
ssg70
g4014
sg63
(lp4021
I00
asbasbasbag56
(g72
g58
NtRp4022
(dp4023
g61
(dp4024
sg70
g3993
sg63
(lp4025
g56
(g77
g58
NtRp4026
(dp4027
g61
(dp4028
sg70
g4022
sg63
(lp4029
g56
(g57
g58
NtRp4030
(dp4031
g61
(dp4032
g69
I1
ssg70
g4026
sg63
(lp4033
S'/admin/default/edit/ddlagoon/views/layout.html'
p4034
asbasbasbasbasbasbasbag56
(g72
g58
NtRp4035
(dp4036
g61
(dp4037
sg70
g3869
sg63
(lp4038
g56
(g77
g58
NtRp4039
(dp4040
g61
(dp4041
sg70
g4035
sg63
(lp4042
g56
(g57
g58
NtRp4043
(dp4044
g61
(dp4045
g69
I2
ssg70
g4039
sg63
(lp4046
g56
(g65
g58
NtRp4047
(dp4048
g61
(dp4049
g69
I1
ssg70
Nsg63
(lp4050
g56
(g72
g58
NtRp4051
(dp4052
g61
(dp4053
sg70
g4047
sg63
(lp4054
g56
(g77
g58
NtRp4055
(dp4056
g61
(dp4057
sg70
g4051
sg63
(lp4058
g56
(g57
g58
NtRp4059
(dp4060
g61
(dp4061
g69
I1
ssg70
g4055
sg63
(lp4062
g3760
(S's\n\x00\x00\x00Stylesheet'
tRp4063
asbasbasbag56
(g72
g58
NtRp4064
(dp4065
g61
(dp4066
sg70
g4047
sg63
(lp4067
g56
(g77
g58
NtRp4068
(dp4069
g61
(dp4070
sg70
g4064
sg63
(lp4071
g56
(g57
g58
NtRp4072
(dp4073
g61
(dp4074
g69
I1
ssg70
g4068
sg63
(lp4075
I00
asbasbasbag56
(g72
g58
NtRp4076
(dp4077
g61
(dp4078
sg70
g4047
sg63
(lp4079
g56
(g77
g58
NtRp4080
(dp4081
g61
(dp4082
sg70
g4076
sg63
(lp4083
g56
(g57
g58
NtRp4084
(dp4085
g61
(dp4086
g69
I1
ssg70
g4080
sg63
(lp4087
S'/admin/default/edit/ddlagoon/static/base.css'
p4088
asbasbasbasbasbasbasbag56
(g72
g58
NtRp4089
(dp4090
g61
(dp4091
sg70
g3869
sg63
(lp4092
g56
(g77
g58
NtRp4093
(dp4094
g61
(dp4095
sg70
g4089
sg63
(lp4096
g56
(g57
g58
NtRp4097
(dp4098
g61
(dp4099
g69
I2
ssg70
g4093
sg63
(lp4100
g56
(g65
g58
NtRp4101
(dp4102
g61
(dp4103
g69
I1
ssg70
Nsg63
(lp4104
g56
(g72
g58
NtRp4105
(dp4106
g61
(dp4107
sg70
g4101
sg63
(lp4108
g56
(g77
g58
NtRp4109
(dp4110
g61
(dp4111
sg70
g4105
sg63
(lp4112
g56
(g57
g58
NtRp4113
(dp4114
g61
(dp4115
g69
I1
ssg70
g4109
sg63
(lp4116
g3760
(S's\x08\x00\x00\x00DB Model'
tRp4117
asbasbasbag56
(g72
g58
NtRp4118
(dp4119
g61
(dp4120
sg70
g4101
sg63
(lp4121
g56
(g77
g58
NtRp4122
(dp4123
g61
(dp4124
sg70
g4118
sg63
(lp4125
g56
(g57
g58
NtRp4126
(dp4127
g61
(dp4128
g69
I1
ssg70
g4122
sg63
(lp4129
I00
asbasbasbag56
(g72
g58
NtRp4130
(dp4131
g61
(dp4132
sg70
g4101
sg63
(lp4133
g56
(g77
g58
NtRp4134
(dp4135
g61
(dp4136
sg70
g4130
sg63
(lp4137
g56
(g57
g58
NtRp4138
(dp4139
g61
(dp4140
g69
I1
ssg70
g4134
sg63
(lp4141
S'/admin/default/edit/ddlagoon/models/db.py'
p4142
asbasbasbasbasbasbasbag56
(g72
g58
NtRp4143
(dp4144
g61
(dp4145
sg70
g3869
sg63
(lp4146
g56
(g77
g58
NtRp4147
(dp4148
g61
(dp4149
sg70
g4143
sg63
(lp4150
g56
(g57
g58
NtRp4151
(dp4152
g61
(dp4153
g69
I2
ssg70
g4147
sg63
(lp4154
g56
(g65
g58
NtRp4155
(dp4156
g61
(dp4157
g69
I1
ssg70
Nsg63
(lp4158
g56
(g72
g58
NtRp4159
(dp4160
g61
(dp4161
sg70
g4155
sg63
(lp4162
g56
(g77
g58
NtRp4163
(dp4164
g61
(dp4165
sg70
g4159
sg63
(lp4166
g56
(g57
g58
NtRp4167
(dp4168
g61
(dp4169
g69
I1
ssg70
g4163
sg63
(lp4170
g3760
(S's\n\x00\x00\x00Menu Model'
tRp4171
asbasbasbag56
(g72
g58
NtRp4172
(dp4173
g61
(dp4174
sg70
g4155
sg63
(lp4175
g56
(g77
g58
NtRp4176
(dp4177
g61
(dp4178
sg70
g4172
sg63
(lp4179
g56
(g57
g58
NtRp4180
(dp4181
g61
(dp4182
g69
I1
ssg70
g4176
sg63
(lp4183
I00
asbasbasbag56
(g72
g58
NtRp4184
(dp4185
g61
(dp4186
sg70
g4155
sg63
(lp4187
g56
(g77
g58
NtRp4188
(dp4189
g61
(dp4190
sg70
g4184
sg63
(lp4191
g56
(g57
g58
NtRp4192
(dp4193
g61
(dp4194
g69
I1
ssg70
g4188
sg63
(lp4195
S'/admin/default/edit/ddlagoon/models/menu.py'
p4196
asbasbasbasbasbasbasbag56
(g72
g58
NtRp4197
(dp4198
g61
(dp4199
sg70
g3869
sg63
(lp4200
g56
(g77
g58
NtRp4201
(dp4202
g61
(dp4203
sg70
g4197
sg63
(lp4204
g56
(g57
g58
NtRp4205
(dp4206
g61
(dp4207
g69
I2
ssg70
g4201
sg63
(lp4208
g56
(g65
g58
NtRp4209
(dp4210
g61
(dp4211
g69
I1
ssg70
Nsg63
(lp4212
g56
(g72
g58
NtRp4213
(dp4214
g61
(dp4215
sg70
g4209
sg63
(lp4216
g56
(g77
g58
NtRp4217
(dp4218
g61
(dp4219
sg70
g4213
sg63
(lp4220
g56
(g57
g58
NtRp4221
(dp4222
g61
(dp4223
g69
I1
ssg70
g4217
sg63
(lp4224
g3760
(S's\x08\x00\x00\x00Database'
tRp4225
asbasbasbag56
(g72
g58
NtRp4226
(dp4227
g61
(dp4228
sg70
g4209
sg63
(lp4229
g56
(g77
g58
NtRp4230
(dp4231
g61
(dp4232
sg70
g4226
sg63
(lp4233
g56
(g57
g58
NtRp4234
(dp4235
g61
(dp4236
g69
I1
ssg70
g4230
sg63
(lp4237
I00
asbasbasbag56
(g72
g58
NtRp4238
(dp4239
g61
(dp4240
sg70
g4209
sg63
(lp4241
g56
(g77
g58
NtRp4242
(dp4243
g61
(dp4244
sg70
g4238
sg63
(lp4245
g56
(g57
g58
NtRp4246
(dp4247
g61
(dp4248
g69
I1
ssg70
g4242
sg63
(lp4249
S'/ddlagoon/appadmin/index'
p4250
asbasbasbasbasbasbasbag56
(g72
g58
NtRp4251
(dp4252
g61
(dp4253
sg70
g3869
sg63
(lp4254
g56
(g77
g58
NtRp4255
(dp4256
g61
(dp4257
sg70
g4251
sg63
(lp4258
g56
(g57
g58
NtRp4259
(dp4260
g61
(dp4261
g69
I2
ssg70
g4255
sg63
(lp4262
g56
(g65
g58
NtRp4263
(dp4264
g61
(dp4265
g69
I1
ssg70
Nsg63
(lp4266
g56
(g72
g58
NtRp4267
(dp4268
g61
(dp4269
sg70
g4263
sg63
(lp4270
g56
(g77
g58
NtRp4271
(dp4272
g61
(dp4273
sg70
g4267
sg63
(lp4274
g56
(g57
g58
NtRp4275
(dp4276
g61
(dp4277
g69
I1
ssg70
g4271
sg63
(lp4278
g3760
(S's\x06\x00\x00\x00Errors'
tRp4279
asbasbasbag56
(g72
g58
NtRp4280
(dp4281
g61
(dp4282
sg70
g4263
sg63
(lp4283
g56
(g77
g58
NtRp4284
(dp4285
g61
(dp4286
sg70
g4280
sg63
(lp4287
g56
(g57
g58
NtRp4288
(dp4289
g61
(dp4290
g69
I1
ssg70
g4284
sg63
(lp4291
I00
asbasbasbag56
(g72
g58
NtRp4292
(dp4293
g61
(dp4294
sg70
g4263
sg63
(lp4295
g56
(g77
g58
NtRp4296
(dp4297
g61
(dp4298
sg70
g4292
sg63
(lp4299
g56
(g57
g58
NtRp4300
(dp4301
g61
(dp4302
g69
I1
ssg70
g4296
sg63
(lp4303
S'/admin/default/errors/ddlagoon'
p4304
asbasbasbasbasbasbasbag56
(g72
g58
NtRp4305
(dp4306
g61
(dp4307
sg70
g3869
sg63
(lp4308
g56
(g77
g58
NtRp4309
(dp4310
g61
(dp4311
sg70
g4305
sg63
(lp4312
g56
(g57
g58
NtRp4313
(dp4314
g61
(dp4315
g69
I2
ssg70
g4309
sg63
(lp4316
g56
(g65
g58
NtRp4317
(dp4318
g61
(dp4319
g69
I1
ssg70
Nsg63
(lp4320
g56
(g72
g58
NtRp4321
(dp4322
g61
(dp4323
sg70
g4317
sg63
(lp4324
g56
(g77
g58
NtRp4325
(dp4326
g61
(dp4327
sg70
g4321
sg63
(lp4328
g56
(g57
g58
NtRp4329
(dp4330
g61
(dp4331
g69
I1
ssg70
g4325
sg63
(lp4332
g3760
(S's\x05\x00\x00\x00About'
tRp4333
asbasbasbag56
(g72
g58
NtRp4334
(dp4335
g61
(dp4336
sg70
g4317
sg63
(lp4337
g56
(g77
g58
NtRp4338
(dp4339
g61
(dp4340
sg70
g4334
sg63
(lp4341
g56
(g57
g58
NtRp4342
(dp4343
g61
(dp4344
g69
I1
ssg70
g4338
sg63
(lp4345
I00
asbasbasbag56
(g72
g58
NtRp4346
(dp4347
g61
(dp4348
sg70
g4317
sg63
(lp4349
g56
(g77
g58
NtRp4350
(dp4351
g61
(dp4352
sg70
g4346
sg63
(lp4353
g56
(g57
g58
NtRp4354
(dp4355
g61
(dp4356
g69
I1
ssg70
g4350
sg63
(lp4357
S'/admin/default/about/ddlagoon'
p4358
asbasbasbasbasbasbasbasbasbasbasbasbasbasbasbag56
(g72
g58
NtRp4359
(dp4360
g61
(dp4361
sg70
g3728
sg63
(lp4362
g56
(g77
g58
NtRp4363
(dp4364
g61
(dp4365
sg70
g4359
sg63
(lp4366
g56
(g57
g58
NtRp4367
(dp4368
g61
(dp4369
g69
I4
ssg70
g4363
sg63
(lp4370
g56
(g65
g58
NtRp4371
(dp4372
g61
(dp4373
g69
I3
ssg70
Nsg63
(lp4374
g56
(g72
g58
NtRp4375
(dp4376
g61
(dp4377
sg70
g4371
sg63
(lp4378
g56
(g77
g58
NtRp4379
(dp4380
g61
(dp4381
sg70
g4375
sg63
(lp4382
g56
(g57
g58
NtRp4383
(dp4384
g61
(dp4385
g69
I3
ssg70
g4379
sg63
(lp4386
g3760
(S's\t\x00\x00\x00Resources'
tRp4387
asbasbasbag56
(g72
g58
NtRp4388
(dp4389
g61
(dp4390
sg70
g4371
sg63
(lp4391
g56
(g77
g58
NtRp4392
(dp4393
g61
(dp4394
sg70
g4388
sg63
(lp4395
g56
(g57
g58
NtRp4396
(dp4397
g61
(dp4398
g69
I3
ssg70
g4392
sg63
(lp4399
g99
asbasbasbag56
(g72
g58
NtRp4400
(dp4401
g61
(dp4402
sg70
g4371
sg63
(lp4403
g56
(g77
g58
NtRp4404
(dp4405
g61
(dp4406
sg70
g4400
sg63
(lp4407
g56
(g57
g58
NtRp4408
(dp4409
g61
(dp4410
g69
I3
ssg70
g4404
sg63
(lp4411
S'None'
p4412
asbasbasbag56
(g72
g58
NtRp4413
(dp4414
g61
(dp4415
sg70
g4371
sg63
(lp4416
g56
(g77
g58
NtRp4417
(dp4418
g61
(dp4419
sg70
g4413
sg63
(lp4420
g56
(g57
g58
NtRp4421
(dp4422
g61
(dp4423
g69
I3
ssg70
g4417
sg63
(lp4424
g56
(g65
g58
NtRp4425
(dp4426
g61
(dp4427
g69
I2
ssg70
Nsg63
(lp4428
g56
(g72
g58
NtRp4429
(dp4430
g61
(dp4431
sg70
g4425
sg63
(lp4432
g56
(g77
g58
NtRp4433
(dp4434
g61
(dp4435
sg70
g4429
sg63
(lp4436
g56
(g57
g58
NtRp4437
(dp4438
g61
(dp4439
g69
I2
ssg70
g4433
sg63
(lp4440
g56
(g65
g58
NtRp4441
(dp4442
g61
(dp4443
g69
I1
ssg70
Nsg63
(lp4444
g56
(g72
g58
NtRp4445
(dp4446
g61
(dp4447
sg70
g4441
sg63
(lp4448
g56
(g77
g58
NtRp4449
(dp4450
g61
(dp4451
sg70
g4445
sg63
(lp4452
g56
(g57
g58
NtRp4453
(dp4454
g61
(dp4455
g69
I1
ssg70
g4449
sg63
(lp4456
g3760
(S's\r\x00\x00\x00Documentation'
tRp4457
asbasbasbag56
(g72
g58
NtRp4458
(dp4459
g61
(dp4460
sg70
g4441
sg63
(lp4461
g56
(g77
g58
NtRp4462
(dp4463
g61
(dp4464
sg70
g4458
sg63
(lp4465
g56
(g57
g58
NtRp4466
(dp4467
g61
(dp4468
g69
I1
ssg70
g4462
sg63
(lp4469
I00
asbasbasbag56
(g72
g58
NtRp4470
(dp4471
g61
(dp4472
sg70
g4441
sg63
(lp4473
g56
(g77
g58
NtRp4474
(dp4475
g61
(dp4476
sg70
g4470
sg63
(lp4477
g56
(g57
g58
NtRp4478
(dp4479
g61
(dp4480
g69
I1
ssg70
g4474
sg63
(lp4481
S'http://www.web2py.com/book'
p4482
asbasbasbag56
(g72
g58
NtRp4483
(dp4484
g61
(dp4485
sg70
g4441
sg63
(lp4486
g56
(g77
g58
NtRp4487
(dp4488
g61
(dp4489
sg70
g4483
sg63
(lp4490
g56
(g57
g58
NtRp4491
(dp4492
g61
(dp4493
g69
I1
ssg70
g4487
sg63
(lp4494
(lp4495
(g3760
(S's\x07\x00\x00\x00Preface'
tRp4496
I00
S'http://www.web2py.com/book/default/chapter/00'
p4497
tp4498
a(g3760
(S's\x0c\x00\x00\x00Introduction'
tRp4499
I00
S'http://www.web2py.com/book/default/chapter/01'
p4500
tp4501
a(g3760
(S's\x06\x00\x00\x00Python'
tRp4502
I00
S'http://www.web2py.com/book/default/chapter/02'
p4503
tp4504
a(g3760
(S's\x08\x00\x00\x00Overview'
tRp4505
I00
S'http://www.web2py.com/book/default/chapter/03'
p4506
tp4507
a(g3760
(S's\x08\x00\x00\x00The Core'
tRp4508
I00
S'http://www.web2py.com/book/default/chapter/04'
p4509
tp4510
a(g3760
(S's\t\x00\x00\x00The Views'
tRp4511
I00
S'http://www.web2py.com/book/default/chapter/05'
p4512
tp4513
a(g3760
(S's\x08\x00\x00\x00Database'
tRp4514
I00
S'http://www.web2py.com/book/default/chapter/06'
p4515
tp4516
a(g3760
(S's\x14\x00\x00\x00Forms and Validators'
tRp4517
I00
S'http://www.web2py.com/book/default/chapter/07'
p4518
tp4519
a(g3760
(S's\x0e\x00\x00\x00Access Control'
tRp4520
I00
S'http://www.web2py.com/book/default/chapter/08'
p4521
tp4522
a(g3760
(S's\x08\x00\x00\x00Services'
tRp4523
I00
S'http://www.web2py.com/book/default/chapter/09'
p4524
tp4525
a(g3760
(S's\x0c\x00\x00\x00Ajax Recipes'
tRp4526
I00
S'http://www.web2py.com/book/default/chapter/10'
p4527
tp4528
a(g3760
(S's\x12\x00\x00\x00Deployment Recipes'
tRp4529
I00
S'http://www.web2py.com/book/default/chapter/11'
p4530
tp4531
a(g3760
(S's\r\x00\x00\x00Other Recipes'
tRp4532
I00
S'http://www.web2py.com/book/default/chapter/12'
p4533
tp4534
a(g3760
(S's\r\x00\x00\x00Buy this book'
tRp4535
I00
S'http://stores.lulu.com/web2py'
p4536
tp4537
aasbasbasbasbasbasbasbag56
(g72
g58
NtRp4538
(dp4539
g61
(dp4540
sg70
g4425
sg63
(lp4541
g56
(g77
g58
NtRp4542
(dp4543
g61
(dp4544
sg70
g4538
sg63
(lp4545
g56
(g57
g58
NtRp4546
(dp4547
g61
(dp4548
g69
I2
ssg70
g4542
sg63
(lp4549
g56
(g65
g58
NtRp4550
(dp4551
g61
(dp4552
g69
I1
ssg70
Nsg63
(lp4553
g56
(g72
g58
NtRp4554
(dp4555
g61
(dp4556
sg70
g4550
sg63
(lp4557
g56
(g77
g58
NtRp4558
(dp4559
g61
(dp4560
sg70
g4554
sg63
(lp4561
g56
(g57
g58
NtRp4562
(dp4563
g61
(dp4564
g69
I1
ssg70
g4558
sg63
(lp4565
g3760
(S's\t\x00\x00\x00Community'
tRp4566
asbasbasbag56
(g72
g58
NtRp4567
(dp4568
g61
(dp4569
sg70
g4550
sg63
(lp4570
g56
(g77
g58
NtRp4571
(dp4572
g61
(dp4573
sg70
g4567
sg63
(lp4574
g56
(g57
g58
NtRp4575
(dp4576
g61
(dp4577
g69
I1
ssg70
g4571
sg63
(lp4578
I00
asbasbasbag56
(g72
g58
NtRp4579
(dp4580
g61
(dp4581
sg70
g4550
sg63
(lp4582
g56
(g77
g58
NtRp4583
(dp4584
g61
(dp4585
sg70
g4579
sg63
(lp4586
g56
(g57
g58
NtRp4587
(dp4588
g61
(dp4589
g69
I1
ssg70
g4583
sg63
(lp4590
Nasbasbasbag56
(g72
g58
NtRp4591
(dp4592
g61
(dp4593
sg70
g4550
sg63
(lp4594
g56
(g77
g58
NtRp4595
(dp4596
g61
(dp4597
sg70
g4591
sg63
(lp4598
g56
(g57
g58
NtRp4599
(dp4600
g61
(dp4601
g69
I1
ssg70
g4595
sg63
(lp4602
(lp4603
(g3760
(S's\x06\x00\x00\x00Groups'
tRp4604
I00
S'http://www.web2py.com/examples/default/usergroups'
p4605
tp4606
a(g3760
(S's\x07\x00\x00\x00Twitter'
tRp4607
I00
S'http://twitter.com/web2py'
p4608
tp4609
a(g3760
(S's\t\x00\x00\x00Live chat'
tRp4610
I00
S'http://mibbit.com/?channel=%23web2py&server=irc.mibbit.net'
p4611
tp4612
a(g3760
(S's\n\x00\x00\x00User Voice'
tRp4613
I00
S'http://web2py.uservoice.com/'
p4614
tp4615
aasbasbasbasbasbasbasbag56
(g72
g58
NtRp4616
(dp4617
g61
(dp4618
sg70
g4425
sg63
(lp4619
g56
(g77
g58
NtRp4620
(dp4621
g61
(dp4622
sg70
g4616
sg63
(lp4623
g56
(g57
g58
NtRp4624
(dp4625
g61
(dp4626
g69
I2
ssg70
g4620
sg63
(lp4627
g56
(g65
g58
NtRp4628
(dp4629
g61
(dp4630
g69
I1
ssg70
Nsg63
(lp4631
g56
(g72
g58
NtRp4632
(dp4633
g61
(dp4634
sg70
g4628
sg63
(lp4635
g56
(g77
g58
NtRp4636
(dp4637
g61
(dp4638
sg70
g4632
sg63
(lp4639
g56
(g57
g58
NtRp4640
(dp4641
g61
(dp4642
g69
I1
ssg70
g4636
sg63
(lp4643
g3760
(S's\x06\x00\x00\x00Web2py'
tRp4644
asbasbasbag56
(g72
g58
NtRp4645
(dp4646
g61
(dp4647
sg70
g4628
sg63
(lp4648
g56
(g77
g58
NtRp4649
(dp4650
g61
(dp4651
sg70
g4645
sg63
(lp4652
g56
(g57
g58
NtRp4653
(dp4654
g61
(dp4655
g69
I1
ssg70
g4649
sg63
(lp4656
I00
asbasbasbag56
(g72
g58
NtRp4657
(dp4658
g61
(dp4659
sg70
g4628
sg63
(lp4660
g56
(g77
g58
NtRp4661
(dp4662
g61
(dp4663
sg70
g4657
sg63
(lp4664
g56
(g57
g58
NtRp4665
(dp4666
g61
(dp4667
g69
I1
ssg70
g4661
sg63
(lp4668
S'http://www.web2py.com'
p4669
asbasbasbag56
(g72
g58
NtRp4670
(dp4671
g61
(dp4672
sg70
g4628
sg63
(lp4673
g56
(g77
g58
NtRp4674
(dp4675
g61
(dp4676
sg70
g4670
sg63
(lp4677
g56
(g57
g58
NtRp4678
(dp4679
g61
(dp4680
g69
I1
ssg70
g4674
sg63
(lp4681
(lp4682
(g3760
(S's\x08\x00\x00\x00Download'
tRp4683
I00
S'http://www.web2py.com/examples/default/download'
p4684
tp4685
a(g3760
(S's\x07\x00\x00\x00Support'
tRp4686
I00
S'http://www.web2py.com/examples/default/support'
p4687
tp4688
a(g3760
(S's\x0e\x00\x00\x00Quick Examples'
tRp4689
I00
S'http://web2py.com/examples/default/examples'
p4690
tp4691
a(g3760
(S's\x03\x00\x00\x00FAQ'
tRp4692
I00
S'http://web2py.com/AlterEgo'
p4693
tp4694
a(g3760
(S's\x11\x00\x00\x00Free Applications'
tRp4695
I00
S'http://web2py.com/appliances'
p4696
tp4697
a(g3760
(S's\x07\x00\x00\x00Plugins'
tRp4698
I00
S'http://web2py.com/plugins'
p4699
tp4700
a(g3760
(S's\x07\x00\x00\x00Recipes'
tRp4701
I00
S'http://web2pyslices.com/'
p4702
tp4703
a(g3760
(S's\x04\x00\x00\x00Demo'
tRp4704
I00
S'http://web2py.com/demo_admin'
p4705
tp4706
a(g3760
(S's\x08\x00\x00\x00Semantic'
tRp4707
I00
S'http://web2py.com/semantic'
p4708
tp4709
a(g3760
(S's\x07\x00\x00\x00Layouts'
tRp4710
I00
S'http://web2py.com/layouts'
p4711
tp4712
a(g3760
(S's\x06\x00\x00\x00Videos'
tRp4713
I00
S'http://www.web2py.com/examples/default/videos/'
p4714
tp4715
aasbasbasbasbasbasbasbasbasbasbasbasbasbasbasbasbasbasbasbag56
(g72
g58
NtRp4716
(dp4717
g61
(dp4718
sg70
g3255
sg63
(lp4719
g56
(g77
g58
NtRp4720
(dp4721
g61
(dp4722
g81
g82
ssg70
g4716
sg63
(lp4723
S'meta'
p4724
asbag56
(g77
g58
NtRp4725
(dp4726
g61
(dp4727
g88
g89
ssg70
g4716
sg63
(lp4728
S':'
asbag56
(g77
g58
NtRp4729
(dp4730
g61
(dp4731
sg70
g4716
sg63
(lp4732
g56
(g57
g58
NtRp4733
(dp4734
g61
(dp4735
g69
I5
ssg70
g4729
sg63
(lp4736
g56
(g65
g58
NtRp4737
(dp4738
g61
(dp4739
g69
I4
ssg70
Nsg63
(lp4740
g56
(g72
g58
NtRp4741
(dp4742
g61
(dp4743
sg70
g4737
sg63
(lp4744
g56
(g77
g58
NtRp4745
(dp4746
g61
(dp4747
g81
g82
ssg70
g4741
sg63
(lp4748
S'author'
p4749
asbag56
(g77
g58
NtRp4750
(dp4751
g61
(dp4752
g88
g89
ssg70
g4741
sg63
(lp4753
S':'
asbag56
(g77
g58
NtRp4754
(dp4755
g61
(dp4756
sg70
g4741
sg63
(lp4757
g56
(g57
g58
NtRp4758
(dp4759
g61
(dp4760
g69
I4
ssg70
g4754
sg63
(lp4761
S'Your Name <you@example.com>'
p4762
asbasbasbag56
(g72
g58
NtRp4763
(dp4764
g61
(dp4765
sg70
g4737
sg63
(lp4766
g56
(g77
g58
NtRp4767
(dp4768
g61
(dp4769
g81
g82
ssg70
g4763
sg63
(lp4770
S'copyright'
p4771
asbag56
(g77
g58
NtRp4772
(dp4773
g61
(dp4774
g88
g89
ssg70
g4763
sg63
(lp4775
S':'
asbag56
(g77
g58
NtRp4776
(dp4777
g61
(dp4778
sg70
g4763
sg63
(lp4779
g56
(g57
g58
NtRp4780
(dp4781
g61
(dp4782
g69
I4
ssg70
g4776
sg63
(lp4783
S'Copyright 2011'
p4784
asbasbasbag56
(g72
g58
NtRp4785
(dp4786
g61
(dp4787
sg70
g4737
sg63
(lp4788
g56
(g77
g58
NtRp4789
(dp4790
g61
(dp4791
g81
g82
ssg70
g4785
sg63
(lp4792
S'description'
p4793
asbag56
(g77
g58
NtRp4794
(dp4795
g61
(dp4796
g88
g89
ssg70
g4785
sg63
(lp4797
S':'
asbag56
(g77
g58
NtRp4798
(dp4799
g61
(dp4800
sg70
g4785
sg63
(lp4801
g56
(g57
g58
NtRp4802
(dp4803
g61
(dp4804
g69
I4
ssg70
g4798
sg63
(lp4805
S'a cool new app'
p4806
asbasbasbag56
(g72
g58
NtRp4807
(dp4808
g61
(dp4809
sg70
g4737
sg63
(lp4810
g56
(g77
g58
NtRp4811
(dp4812
g61
(dp4813
g81
g82
ssg70
g4807
sg63
(lp4814
S'generator'
p4815
asbag56
(g77
g58
NtRp4816
(dp4817
g61
(dp4818
g88
g89
ssg70
g4807
sg63
(lp4819
S':'
asbag56
(g77
g58
NtRp4820
(dp4821
g61
(dp4822
sg70
g4807
sg63
(lp4823
g56
(g57
g58
NtRp4824
(dp4825
g61
(dp4826
g69
I4
ssg70
g4820
sg63
(lp4827
S'Web2py Web Framework'
p4828
asbasbasbag56
(g72
g58
NtRp4829
(dp4830
g61
(dp4831
sg70
g4737
sg63
(lp4832
g56
(g77
g58
NtRp4833
(dp4834
g61
(dp4835
g81
g82
ssg70
g4829
sg63
(lp4836
S'keywords'
p4837
asbag56
(g77
g58
NtRp4838
(dp4839
g61
(dp4840
g88
g89
ssg70
g4829
sg63
(lp4841
S':'
asbag56
(g77
g58
NtRp4842
(dp4843
g61
(dp4844
sg70
g4829
sg63
(lp4845
g56
(g57
g58
NtRp4846
(dp4847
g61
(dp4848
g69
I4
ssg70
g4842
sg63
(lp4849
S'web2py, python, framework'
p4850
asbasbasbasbasbasbasbag56
(g72
g58
NtRp4851
(dp4852
g61
(dp4853
sg70
g3255
sg63
(lp4854
g56
(g77
g58
NtRp4855
(dp4856
g61
(dp4857
g81
g82
ssg70
g4851
sg63
(lp4858
S'postprocessing'
p4859
asbag56
(g77
g58
NtRp4860
(dp4861
g61
(dp4862
g88
g89
ssg70
g4851
sg63
(lp4863
S':'
asbag56
(g77
g58
NtRp4864
(dp4865
g61
(dp4866
sg70
g4851
sg63
(lp4867
g56
(g57
g58
NtRp4868
(dp4869
g61
(dp4870
g69
I5
ssg70
g4864
sg63
(lp4871
g56
(g65
g58
NtRp4872
(dp4873
g61
(dp4874
g69
I4
ssg70
Nsg63
(lp4875
sbasbasbasbag56
(g72
g58
NtRp4876
(dp4877
g61
(dp4878
sg70
g3255
sg63
(lp4879
g56
(g77
g58
NtRp4880
(dp4881
g61
(dp4882
g81
g82
ssg70
g4876
sg63
(lp4883
S'session_file'
p4884
asbag56
(g77
g58
NtRp4885
(dp4886
g61
(dp4887
g88
g89
ssg70
g4876
sg63
(lp4888
S':'
asbag56
(g77
g58
NtRp4889
(dp4890
g61
(dp4891
sg70
g4876
sg63
(lp4892
g56
(g57
g58
NtRp4893
(dp4894
g61
(dp4895
g69
I5
ssg70
g4889
sg63
(lp4896
S"<open file '/windows/Users/Thomas/Dropbox/appz/2011/GAE/ddl-lagoon/applications/ddlagoon/sessions/127.0.0.1-60102476-ed87-4511-b16b-e72b3489909e', mode 'rb+' at 0x2e560c0>"
p4897
asbasbasbag56
(g72
g58
NtRp4898
(dp4899
g61
(dp4900
sg70
g3255
sg63
(lp4901
g56
(g77
g58
NtRp4902
(dp4903
g61
(dp4904
g81
g82
ssg70
g4898
sg63
(lp4905
S'session_filename'
p4906
asbag56
(g77
g58
NtRp4907
(dp4908
g61
(dp4909
g88
g89
ssg70
g4898
sg63
(lp4910
S':'
asbag56
(g77
g58
NtRp4911
(dp4912
g61
(dp4913
sg70
g4898
sg63
(lp4914
g56
(g57
g58
NtRp4915
(dp4916
g61
(dp4917
g69
I5
ssg70
g4911
sg63
(lp4918
S'/windows/Users/Thomas/Dropbox/appz/2011/GAE/ddl-lagoon/applications/ddlagoon/sessions/127.0.0.1-60102476-ed87-4511-b16b-e72b3489909e'
p4919
asbasbasbag56
(g72
g58
NtRp4920
(dp4921
g61
(dp4922
sg70
g3255
sg63
(lp4923
g56
(g77
g58
NtRp4924
(dp4925
g61
(dp4926
g81
g82
ssg70
g4920
sg63
(lp4927
S'session_id'
p4928
asbag56
(g77
g58
NtRp4929
(dp4930
g61
(dp4931
g88
g89
ssg70
g4920
sg63
(lp4932
S':'
asbag56
(g77
g58
NtRp4933
(dp4934
g61
(dp4935
sg70
g4920
sg63
(lp4936
g56
(g57
g58
NtRp4937
(dp4938
g61
(dp4939
g69
I5
ssg70
g4933
sg63
(lp4940
S'127.0.0.1-60102476-ed87-4511-b16b-e72b3489909e'
p4941
asbasbasbag56
(g72
g58
NtRp4942
(dp4943
g61
(dp4944
sg70
g3255
sg63
(lp4945
g56
(g77
g58
NtRp4946
(dp4947
g61
(dp4948
g81
g82
ssg70
g4942
sg63
(lp4949
S'session_id_name'
p4950
asbag56
(g77
g58
NtRp4951
(dp4952
g61
(dp4953
g88
g89
ssg70
g4942
sg63
(lp4954
S':'
asbag56
(g77
g58
NtRp4955
(dp4956
g61
(dp4957
sg70
g4942
sg63
(lp4958
g56
(g57
g58
NtRp4959
(dp4960
g61
(dp4961
g69
I5
ssg70
g4955
sg63
(lp4962
g3312
asbasbasbag56
(g72
g58
NtRp4963
(dp4964
g61
(dp4965
sg70
g3255
sg63
(lp4966
g56
(g77
g58
NtRp4967
(dp4968
g61
(dp4969
g81
g82
ssg70
g4963
sg63
(lp4970
S'session_locked'
p4971
asbag56
(g77
g58
NtRp4972
(dp4973
g61
(dp4974
g88
g89
ssg70
g4963
sg63
(lp4975
S':'
asbag56
(g77
g58
NtRp4976
(dp4977
g61
(dp4978
sg70
g4963
sg63
(lp4979
g56
(g57
g58
NtRp4980
(dp4981
g61
(dp4982
g69
I5
ssg70
g4976
sg63
(lp4983
g1643
asbasbasbag56
(g72
g58
NtRp4984
(dp4985
g61
(dp4986
sg70
g3255
sg63
(lp4987
g56
(g77
g58
NtRp4988
(dp4989
g61
(dp4990
g81
g82
ssg70
g4984
sg63
(lp4991
S'session_new'
p4992
asbag56
(g77
g58
NtRp4993
(dp4994
g61
(dp4995
g88
g89
ssg70
g4984
sg63
(lp4996
S':'
asbag56
(g77
g58
NtRp4997
(dp4998
g61
(dp4999
sg70
g4984
sg63
(lp5000
g56
(g57
g58
NtRp5001
(dp5002
g61
(dp5003
g69
I5
ssg70
g4997
sg63
(lp5004
g99
asbasbasbag56
(g72
g58
NtRp5005
(dp5006
g61
(dp5007
sg70
g3255
sg63
(lp5008
g56
(g77
g58
NtRp5009
(dp5010
g61
(dp5011
g81
g82
ssg70
g5005
sg63
(lp5012
S'status'
p5013
asbag56
(g77
g58
NtRp5014
(dp5015
g61
(dp5016
g88
g89
ssg70
g5005
sg63
(lp5017
S':'
asbag56
(g77
g58
NtRp5018
(dp5019
g61
(dp5020
sg70
g5005
sg63
(lp5021
g56
(g57
g58
NtRp5022
(dp5023
g61
(dp5024
g69
I5
ssg70
g5018
sg63
(lp5025
S'200'
p5026
asbasbasbag56
(g72
g58
NtRp5027
(dp5028
g61
(dp5029
sg70
g3255
sg63
(lp5030
g56
(g77
g58
NtRp5031
(dp5032
g61
(dp5033
g81
g82
ssg70
g5027
sg63
(lp5034
S'subtitle'
p5035
asbag56
(g77
g58
NtRp5036
(dp5037
g61
(dp5038
g88
g89
ssg70
g5027
sg63
(lp5039
S':'
asbag56
(g77
g58
NtRp5040
(dp5041
g61
(dp5042
sg70
g5027
sg63
(lp5043
g56
(g57
g58
NtRp5044
(dp5045
g61
(dp5046
g69
I5
ssg70
g5040
sg63
(lp5047
g3760
(S's\r\x00\x00\x00customize me!'
tRp5048
asbasbasbag56
(g72
g58
NtRp5049
(dp5050
g61
(dp5051
sg70
g3255
sg63
(lp5052
g56
(g77
g58
NtRp5053
(dp5054
g61
(dp5055
g81
g82
ssg70
g5049
sg63
(lp5056
S'title'
p5057
asbag56
(g77
g58
NtRp5058
(dp5059
g61
(dp5060
g88
g89
ssg70
g5049
sg63
(lp5061
S':'
asbag56
(g77
g58
NtRp5062
(dp5063
g61
(dp5064
sg70
g5049
sg63
(lp5065
g56
(g57
g58
NtRp5066
(dp5067
g61
(dp5068
g69
I5
ssg70
g5062
sg63
(lp5069
g121
asbasbasbag56
(g72
g58
NtRp5070
(dp5071
g61
(dp5072
sg70
g3255
sg63
(lp5073
g56
(g77
g58
NtRp5074
(dp5075
g61
(dp5076
g81
g82
ssg70
g5070
sg63
(lp5077
g2309
asbag56
(g77
g58
NtRp5078
(dp5079
g61
(dp5080
g88
g89
ssg70
g5070
sg63
(lp5081
S':'
asbag56
(g77
g58
NtRp5082
(dp5083
g61
(dp5084
sg70
g5070
sg63
(lp5085
g56
(g57
g58
NtRp5086
(dp5087
g61
(dp5088
g69
I5
ssg70
g5082
sg63
(lp5089
g2322
asbasbasbag56
(g72
g58
NtRp5090
(dp5091
g61
(dp5092
sg70
g3255
sg63
(lp5093
g56
(g77
g58
NtRp5094
(dp5095
g61
(dp5096
g81
g82
ssg70
g5090
sg63
(lp5097
S'view'
p5098
asbag56
(g77
g58
NtRp5099
(dp5100
g61
(dp5101
g88
g89
ssg70
g5090
sg63
(lp5102
S':'
asbag56
(g77
g58
NtRp5103
(dp5104
g61
(dp5105
sg70
g5090
sg63
(lp5106
g56
(g57
g58
NtRp5107
(dp5108
g61
(dp5109
g69
I5
ssg70
g5103
sg63
(lp5110
S'default/index.html'
p5111
asbasbasbasbasbsS'locals'
p5112
(dp5113
S'ddlz'
p5114
S'[]'
p5115
sS'rows'
p5116
S'<gluon.dal.Query object>'
p5117
sS'form'
p5118
S'<gluon.html.FORM object>'
p5119
sssS'traceback'
p5120
S'Traceback (most recent call last):\n  File "/windows/Users/Thomas/Dropbox/appz/2011/GAE/ddl-lagoon/gluon/restricted.py", line 194, in restricted\n    exec ccode in environment\n  File "/windows/Users/Thomas/Dropbox/appz/2011/GAE/ddl-lagoon/applications/ddlagoon/controllers/default.py", line 362, in <module>\n  File "/windows/Users/Thomas/Dropbox/appz/2011/GAE/ddl-lagoon/gluon/globals.py", line 149, in <lambda>\n    self._caller = lambda f: f()\n  File "/windows/Users/Thomas/Dropbox/appz/2011/GAE/ddl-lagoon/applications/ddlagoon/controllers/default.py", line 77, in index\n    for row in rows:\nTypeError: \'Query\' object is not iterable\n'
p5121
s.