(dp1
S'output'
p2
S''
sS'layer'
p3
S'/windows/Users/Thomas/Dropbox/appz/2011/GAE/ddl-lagoon/applications/ddlagoon/controllers/ddl.py'
p4
sS'code'
p5
S"__author__ = 'thomas'\n\ndef get():\n    return service()\n\n@service.xml\ndef ddl(id, filename):\n    return id+filename\nresponse._vars=response._caller(get)\n"
p6
sS'snapshot'
p7
(dp8
S'exception'
p9
(dp10
S'__hash__'
p11
S"<method-wrapper '__hash__' of exceptions.TypeError object>"
p12
sS'__setattr__'
p13
S"<method-wrapper '__setattr__' of exceptions.TypeError object>"
p14
sS'__reduce_ex__'
p15
S'<built-in method __reduce_ex__ of exceptions.TypeError object>'
p16
sS'__getslice__'
p17
S"<method-wrapper '__getslice__' of exceptions.TypeError object>"
p18
sS'__getitem__'
p19
S"<method-wrapper '__getitem__' of exceptions.TypeError object>"
p20
sS'__setstate__'
p21
S'<built-in method __setstate__ of exceptions.TypeError object>'
p22
sS'args'
p23
S"('ddl() takes exactly 2 arguments (0 given)',)"
p24
sS'__reduce__'
p25
S'<built-in method __reduce__ of exceptions.TypeError object>'
p26
sS'__str__'
p27
S"<method-wrapper '__str__' of exceptions.TypeError object>"
p28
sS'__format__'
p29
S'<built-in method __format__ of exceptions.TypeError object>'
p30
sS'__getattribute__'
p31
S"<method-wrapper '__getattribute__' of exceptions.TypeError object>"
p32
sS'__class__'
p33
S"<type 'exceptions.TypeError'>"
p34
sS'__unicode__'
p35
S'<built-in method __unicode__ of exceptions.TypeError object>'
p36
sS'__delattr__'
p37
S"<method-wrapper '__delattr__' of exceptions.TypeError object>"
p38
sS'__subclasshook__'
p39
S'<built-in method __subclasshook__ of type object>'
p40
sS'__repr__'
p41
S"<method-wrapper '__repr__' of exceptions.TypeError object>"
p42
sS'__dict__'
p43
S'{}'
p44
sS'__sizeof__'
p45
S'<built-in method __sizeof__ of exceptions.TypeError object>'
p46
sS'__doc__'
p47
S"'Inappropriate argument type.'"
p48
sS'__init__'
p49
S"<method-wrapper '__init__' of exceptions.TypeError object>"
p50
sS'__new__'
p51
S'<built-in method __new__ of type object>'
p52
ssS'evalue'
p53
S'ddl() takes exactly 2 arguments (0 given)'
p54
sS'request'
p55
ccopy_reg
_reconstructor
p56
(cgluon.html
BEAUTIFY
p57
c__builtin__
object
p58
NtRp59
(dp60
S'attributes'
p61
(dp62
sS'components'
p63
(lp64
g56
(cgluon.html
TABLE
p65
g58
NtRp66
(dp67
g61
(dp68
S'level'
p69
I5
ssS'parent'
p70
Nsg63
(lp71
g56
(cgluon.html
TR
p72
g58
NtRp73
(dp74
g61
(dp75
sg70
g66
sg63
(lp76
g56
(cgluon.html
TD
p77
g58
NtRp78
(dp79
g61
(dp80
S'_style'
p81
S'font-weight:bold;'
p82
ssg70
g73
sg63
(lp83
S'ajax'
p84
asbag56
(g77
g58
NtRp85
(dp86
g61
(dp87
S'_valign'
p88
S'top'
p89
ssg70
g73
sg63
(lp90
S':'
asbag56
(g77
g58
NtRp91
(dp92
g61
(dp93
sg70
g73
sg63
(lp94
g56
(g57
g58
NtRp95
(dp96
g61
(dp97
g69
I5
ssg70
g91
sg63
(lp98
S'False'
p99
asbasbasbag56
(g72
g58
NtRp100
(dp101
g61
(dp102
sg70
g66
sg63
(lp103
g56
(g77
g58
NtRp104
(dp105
g61
(dp106
g81
g82
ssg70
g100
sg63
(lp107
S'application'
p108
asbag56
(g77
g58
NtRp109
(dp110
g61
(dp111
g88
g89
ssg70
g100
sg63
(lp112
S':'
asbag56
(g77
g58
NtRp113
(dp114
g61
(dp115
sg70
g100
sg63
(lp116
g56
(g57
g58
NtRp117
(dp118
g61
(dp119
g69
I5
ssg70
g113
sg63
(lp120
S'ddlagoon'
p121
asbasbasbag56
(g72
g58
NtRp122
(dp123
g61
(dp124
sg70
g66
sg63
(lp125
g56
(g77
g58
NtRp126
(dp127
g61
(dp128
g81
g82
ssg70
g122
sg63
(lp129
g23
asbag56
(g77
g58
NtRp130
(dp131
g61
(dp132
g88
g89
ssg70
g122
sg63
(lp133
S':'
asbag56
(g77
g58
NtRp134
(dp135
g61
(dp136
sg70
g122
sg63
(lp137
g56
(g57
g58
NtRp138
(dp139
g61
(dp140
g69
I5
ssg70
g134
sg63
(lp141
g56
(g65
g58
NtRp142
(dp143
g61
(dp144
g69
I4
ssg70
Nsg63
(lp145
g56
(g72
g58
NtRp146
(dp147
g61
(dp148
sg70
g142
sg63
(lp149
g56
(g77
g58
NtRp150
(dp151
g61
(dp152
sg70
g146
sg63
(lp153
g56
(g57
g58
NtRp154
(dp155
g61
(dp156
g69
I4
ssg70
g150
sg63
(lp157
S'run'
p158
asbasbasbag56
(g72
g58
NtRp159
(dp160
g61
(dp161
sg70
g142
sg63
(lp162
g56
(g77
g58
NtRp163
(dp164
g61
(dp165
sg70
g159
sg63
(lp166
g56
(g57
g58
NtRp167
(dp168
g61
(dp169
g69
I4
ssg70
g163
sg63
(lp170
S'ddl'
p171
asbasbasbasbasbasbasbag56
(g72
g58
NtRp172
(dp173
g61
(dp174
sg70
g66
sg63
(lp175
g56
(g77
g58
NtRp176
(dp177
g61
(dp178
g81
g82
ssg70
g172
sg63
(lp179
S'body'
p180
asbag56
(g77
g58
NtRp181
(dp182
g61
(dp183
g88
g89
ssg70
g172
sg63
(lp184
S':'
asbag56
(g77
g58
NtRp185
(dp186
g61
(dp187
sg70
g172
sg63
(lp188
g56
(g57
g58
NtRp189
(dp190
g61
(dp191
g69
I5
ssg70
g185
sg63
(lp192
S'<cStringIO.StringO object at 0x7f80bc231148>'
p193
asbasbasbag56
(g72
g58
NtRp194
(dp195
g61
(dp196
sg70
g66
sg63
(lp197
g56
(g77
g58
NtRp198
(dp199
g61
(dp200
g81
g82
ssg70
g194
sg63
(lp201
S'client'
p202
asbag56
(g77
g58
NtRp203
(dp204
g61
(dp205
g88
g89
ssg70
g194
sg63
(lp206
S':'
asbag56
(g77
g58
NtRp207
(dp208
g61
(dp209
sg70
g194
sg63
(lp210
g56
(g57
g58
NtRp211
(dp212
g61
(dp213
g69
I5
ssg70
g207
sg63
(lp214
S'127.0.0.1'
p215
asbasbasbag56
(g72
g58
NtRp216
(dp217
g61
(dp218
sg70
g66
sg63
(lp219
g56
(g77
g58
NtRp220
(dp221
g61
(dp222
g81
g82
ssg70
g216
sg63
(lp223
S'controller'
p224
asbag56
(g77
g58
NtRp225
(dp226
g61
(dp227
g88
g89
ssg70
g216
sg63
(lp228
S':'
asbag56
(g77
g58
NtRp229
(dp230
g61
(dp231
sg70
g216
sg63
(lp232
g56
(g57
g58
NtRp233
(dp234
g61
(dp235
g69
I5
ssg70
g229
sg63
(lp236
S'ddl'
p237
asbasbasbag56
(g72
g58
NtRp238
(dp239
g61
(dp240
sg70
g66
sg63
(lp241
g56
(g77
g58
NtRp242
(dp243
g61
(dp244
g81
g82
ssg70
g238
sg63
(lp245
S'cookies'
p246
asbag56
(g77
g58
NtRp247
(dp248
g61
(dp249
g88
g89
ssg70
g238
sg63
(lp250
S':'
asbag56
(g77
g58
NtRp251
(dp252
g61
(dp253
sg70
g238
sg63
(lp254
g56
(g57
g58
NtRp255
(dp256
g61
(dp257
g69
I5
ssg70
g251
sg63
(lp258
g56
(g65
g58
NtRp259
(dp260
g61
(dp261
g69
I4
ssg70
Nsg63
(lp262
g56
(g72
g58
NtRp263
(dp264
g61
(dp265
sg70
g259
sg63
(lp266
g56
(g77
g58
NtRp267
(dp268
g61
(dp269
g81
g82
ssg70
g263
sg63
(lp270
S'session_id_admin'
p271
asbag56
(g77
g58
NtRp272
(dp273
g61
(dp274
g88
g89
ssg70
g263
sg63
(lp275
S':'
asbag56
(g77
g58
NtRp276
(dp277
g61
(dp278
sg70
g263
sg63
(lp279
g56
(g57
g58
NtRp280
(dp281
g61
(dp282
g69
I4
ssg70
g276
sg63
(lp283
g56
(g65
g58
NtRp284
(dp285
g61
(dp286
g69
I3
ssg70
Nsg63
(lp287
g56
(g72
g58
NtRp288
(dp289
g61
(dp290
sg70
g284
sg63
(lp291
g56
(g77
g58
NtRp292
(dp293
g61
(dp294
g81
g82
ssg70
g288
sg63
(lp295
S'comment'
p296
asbag56
(g77
g58
NtRp297
(dp298
g61
(dp299
g88
g89
ssg70
g288
sg63
(lp300
S':'
asbag56
(g77
g58
NtRp301
(dp302
g61
(dp303
sg70
g288
sg63
(lp304
g56
(g57
g58
NtRp305
(dp306
g61
(dp307
g69
I3
ssg70
g301
sg63
(lp308
S''
asbasbasbag56
(g72
g58
NtRp309
(dp310
g61
(dp311
sg70
g284
sg63
(lp312
g56
(g77
g58
NtRp313
(dp314
g61
(dp315
g81
g82
ssg70
g309
sg63
(lp316
S'domain'
p317
asbag56
(g77
g58
NtRp318
(dp319
g61
(dp320
g88
g89
ssg70
g309
sg63
(lp321
S':'
asbag56
(g77
g58
NtRp322
(dp323
g61
(dp324
sg70
g309
sg63
(lp325
g56
(g57
g58
NtRp326
(dp327
g61
(dp328
g69
I3
ssg70
g322
sg63
(lp329
S''
asbasbasbag56
(g72
g58
NtRp330
(dp331
g61
(dp332
sg70
g284
sg63
(lp333
g56
(g77
g58
NtRp334
(dp335
g61
(dp336
g81
g82
ssg70
g330
sg63
(lp337
S'expires'
p338
asbag56
(g77
g58
NtRp339
(dp340
g61
(dp341
g88
g89
ssg70
g330
sg63
(lp342
S':'
asbag56
(g77
g58
NtRp343
(dp344
g61
(dp345
sg70
g330
sg63
(lp346
g56
(g57
g58
NtRp347
(dp348
g61
(dp349
g69
I3
ssg70
g343
sg63
(lp350
S''
asbasbasbag56
(g72
g58
NtRp351
(dp352
g61
(dp353
sg70
g284
sg63
(lp354
g56
(g77
g58
NtRp355
(dp356
g61
(dp357
g81
g82
ssg70
g351
sg63
(lp358
S'httponly'
p359
asbag56
(g77
g58
NtRp360
(dp361
g61
(dp362
g88
g89
ssg70
g351
sg63
(lp363
S':'
asbag56
(g77
g58
NtRp364
(dp365
g61
(dp366
sg70
g351
sg63
(lp367
g56
(g57
g58
NtRp368
(dp369
g61
(dp370
g69
I3
ssg70
g364
sg63
(lp371
S''
asbasbasbag56
(g72
g58
NtRp372
(dp373
g61
(dp374
sg70
g284
sg63
(lp375
g56
(g77
g58
NtRp376
(dp377
g61
(dp378
g81
g82
ssg70
g372
sg63
(lp379
S'max-age'
p380
asbag56
(g77
g58
NtRp381
(dp382
g61
(dp383
g88
g89
ssg70
g372
sg63
(lp384
S':'
asbag56
(g77
g58
NtRp385
(dp386
g61
(dp387
sg70
g372
sg63
(lp388
g56
(g57
g58
NtRp389
(dp390
g61
(dp391
g69
I3
ssg70
g385
sg63
(lp392
S''
asbasbasbag56
(g72
g58
NtRp393
(dp394
g61
(dp395
sg70
g284
sg63
(lp396
g56
(g77
g58
NtRp397
(dp398
g61
(dp399
g81
g82
ssg70
g393
sg63
(lp400
S'path'
p401
asbag56
(g77
g58
NtRp402
(dp403
g61
(dp404
g88
g89
ssg70
g393
sg63
(lp405
S':'
asbag56
(g77
g58
NtRp406
(dp407
g61
(dp408
sg70
g393
sg63
(lp409
g56
(g57
g58
NtRp410
(dp411
g61
(dp412
g69
I3
ssg70
g406
sg63
(lp413
S''
asbasbasbag56
(g72
g58
NtRp414
(dp415
g61
(dp416
sg70
g284
sg63
(lp417
g56
(g77
g58
NtRp418
(dp419
g61
(dp420
g81
g82
ssg70
g414
sg63
(lp421
S'secure'
p422
asbag56
(g77
g58
NtRp423
(dp424
g61
(dp425
g88
g89
ssg70
g414
sg63
(lp426
S':'
asbag56
(g77
g58
NtRp427
(dp428
g61
(dp429
sg70
g414
sg63
(lp430
g56
(g57
g58
NtRp431
(dp432
g61
(dp433
g69
I3
ssg70
g427
sg63
(lp434
S''
asbasbasbag56
(g72
g58
NtRp435
(dp436
g61
(dp437
sg70
g284
sg63
(lp438
g56
(g77
g58
NtRp439
(dp440
g61
(dp441
g81
g82
ssg70
g435
sg63
(lp442
S'version'
p443
asbag56
(g77
g58
NtRp444
(dp445
g61
(dp446
g88
g89
ssg70
g435
sg63
(lp447
S':'
asbag56
(g77
g58
NtRp448
(dp449
g61
(dp450
sg70
g435
sg63
(lp451
g56
(g57
g58
NtRp452
(dp453
g61
(dp454
g69
I3
ssg70
g448
sg63
(lp455
S''
asbasbasbasbasbasbasbag56
(g72
g58
NtRp456
(dp457
g61
(dp458
sg70
g259
sg63
(lp459
g56
(g77
g58
NtRp460
(dp461
g61
(dp462
g81
g82
ssg70
g456
sg63
(lp463
S'session_id_ddlagoon'
p464
asbag56
(g77
g58
NtRp465
(dp466
g61
(dp467
g88
g89
ssg70
g456
sg63
(lp468
S':'
asbag56
(g77
g58
NtRp469
(dp470
g61
(dp471
sg70
g456
sg63
(lp472
g56
(g57
g58
NtRp473
(dp474
g61
(dp475
g69
I4
ssg70
g469
sg63
(lp476
g56
(g65
g58
NtRp477
(dp478
g61
(dp479
g69
I3
ssg70
Nsg63
(lp480
g56
(g72
g58
NtRp481
(dp482
g61
(dp483
sg70
g477
sg63
(lp484
g56
(g77
g58
NtRp485
(dp486
g61
(dp487
g81
g82
ssg70
g481
sg63
(lp488
g296
asbag56
(g77
g58
NtRp489
(dp490
g61
(dp491
g88
g89
ssg70
g481
sg63
(lp492
S':'
asbag56
(g77
g58
NtRp493
(dp494
g61
(dp495
sg70
g481
sg63
(lp496
g56
(g57
g58
NtRp497
(dp498
g61
(dp499
g69
I3
ssg70
g493
sg63
(lp500
S''
asbasbasbag56
(g72
g58
NtRp501
(dp502
g61
(dp503
sg70
g477
sg63
(lp504
g56
(g77
g58
NtRp505
(dp506
g61
(dp507
g81
g82
ssg70
g501
sg63
(lp508
g317
asbag56
(g77
g58
NtRp509
(dp510
g61
(dp511
g88
g89
ssg70
g501
sg63
(lp512
S':'
asbag56
(g77
g58
NtRp513
(dp514
g61
(dp515
sg70
g501
sg63
(lp516
g56
(g57
g58
NtRp517
(dp518
g61
(dp519
g69
I3
ssg70
g513
sg63
(lp520
S''
asbasbasbag56
(g72
g58
NtRp521
(dp522
g61
(dp523
sg70
g477
sg63
(lp524
g56
(g77
g58
NtRp525
(dp526
g61
(dp527
g81
g82
ssg70
g521
sg63
(lp528
g338
asbag56
(g77
g58
NtRp529
(dp530
g61
(dp531
g88
g89
ssg70
g521
sg63
(lp532
S':'
asbag56
(g77
g58
NtRp533
(dp534
g61
(dp535
sg70
g521
sg63
(lp536
g56
(g57
g58
NtRp537
(dp538
g61
(dp539
g69
I3
ssg70
g533
sg63
(lp540
S''
asbasbasbag56
(g72
g58
NtRp541
(dp542
g61
(dp543
sg70
g477
sg63
(lp544
g56
(g77
g58
NtRp545
(dp546
g61
(dp547
g81
g82
ssg70
g541
sg63
(lp548
g359
asbag56
(g77
g58
NtRp549
(dp550
g61
(dp551
g88
g89
ssg70
g541
sg63
(lp552
S':'
asbag56
(g77
g58
NtRp553
(dp554
g61
(dp555
sg70
g541
sg63
(lp556
g56
(g57
g58
NtRp557
(dp558
g61
(dp559
g69
I3
ssg70
g553
sg63
(lp560
S''
asbasbasbag56
(g72
g58
NtRp561
(dp562
g61
(dp563
sg70
g477
sg63
(lp564
g56
(g77
g58
NtRp565
(dp566
g61
(dp567
g81
g82
ssg70
g561
sg63
(lp568
g380
asbag56
(g77
g58
NtRp569
(dp570
g61
(dp571
g88
g89
ssg70
g561
sg63
(lp572
S':'
asbag56
(g77
g58
NtRp573
(dp574
g61
(dp575
sg70
g561
sg63
(lp576
g56
(g57
g58
NtRp577
(dp578
g61
(dp579
g69
I3
ssg70
g573
sg63
(lp580
S''
asbasbasbag56
(g72
g58
NtRp581
(dp582
g61
(dp583
sg70
g477
sg63
(lp584
g56
(g77
g58
NtRp585
(dp586
g61
(dp587
g81
g82
ssg70
g581
sg63
(lp588
g401
asbag56
(g77
g58
NtRp589
(dp590
g61
(dp591
g88
g89
ssg70
g581
sg63
(lp592
S':'
asbag56
(g77
g58
NtRp593
(dp594
g61
(dp595
sg70
g581
sg63
(lp596
g56
(g57
g58
NtRp597
(dp598
g61
(dp599
g69
I3
ssg70
g593
sg63
(lp600
S''
asbasbasbag56
(g72
g58
NtRp601
(dp602
g61
(dp603
sg70
g477
sg63
(lp604
g56
(g77
g58
NtRp605
(dp606
g61
(dp607
g81
g82
ssg70
g601
sg63
(lp608
g422
asbag56
(g77
g58
NtRp609
(dp610
g61
(dp611
g88
g89
ssg70
g601
sg63
(lp612
S':'
asbag56
(g77
g58
NtRp613
(dp614
g61
(dp615
sg70
g601
sg63
(lp616
g56
(g57
g58
NtRp617
(dp618
g61
(dp619
g69
I3
ssg70
g613
sg63
(lp620
S''
asbasbasbag56
(g72
g58
NtRp621
(dp622
g61
(dp623
sg70
g477
sg63
(lp624
g56
(g77
g58
NtRp625
(dp626
g61
(dp627
g81
g82
ssg70
g621
sg63
(lp628
g443
asbag56
(g77
g58
NtRp629
(dp630
g61
(dp631
g88
g89
ssg70
g621
sg63
(lp632
S':'
asbag56
(g77
g58
NtRp633
(dp634
g61
(dp635
sg70
g621
sg63
(lp636
g56
(g57
g58
NtRp637
(dp638
g61
(dp639
g69
I3
ssg70
g633
sg63
(lp640
S''
asbasbasbasbasbasbasbag56
(g72
g58
NtRp641
(dp642
g61
(dp643
sg70
g259
sg63
(lp644
g56
(g77
g58
NtRp645
(dp646
g61
(dp647
g81
g82
ssg70
g641
sg63
(lp648
S'session_id_welcome'
p649
asbag56
(g77
g58
NtRp650
(dp651
g61
(dp652
g88
g89
ssg70
g641
sg63
(lp653
S':'
asbag56
(g77
g58
NtRp654
(dp655
g61
(dp656
sg70
g641
sg63
(lp657
g56
(g57
g58
NtRp658
(dp659
g61
(dp660
g69
I4
ssg70
g654
sg63
(lp661
g56
(g65
g58
NtRp662
(dp663
g61
(dp664
g69
I3
ssg70
Nsg63
(lp665
g56
(g72
g58
NtRp666
(dp667
g61
(dp668
sg70
g662
sg63
(lp669
g56
(g77
g58
NtRp670
(dp671
g61
(dp672
g81
g82
ssg70
g666
sg63
(lp673
g296
asbag56
(g77
g58
NtRp674
(dp675
g61
(dp676
g88
g89
ssg70
g666
sg63
(lp677
S':'
asbag56
(g77
g58
NtRp678
(dp679
g61
(dp680
sg70
g666
sg63
(lp681
g56
(g57
g58
NtRp682
(dp683
g61
(dp684
g69
I3
ssg70
g678
sg63
(lp685
S''
asbasbasbag56
(g72
g58
NtRp686
(dp687
g61
(dp688
sg70
g662
sg63
(lp689
g56
(g77
g58
NtRp690
(dp691
g61
(dp692
g81
g82
ssg70
g686
sg63
(lp693
g317
asbag56
(g77
g58
NtRp694
(dp695
g61
(dp696
g88
g89
ssg70
g686
sg63
(lp697
S':'
asbag56
(g77
g58
NtRp698
(dp699
g61
(dp700
sg70
g686
sg63
(lp701
g56
(g57
g58
NtRp702
(dp703
g61
(dp704
g69
I3
ssg70
g698
sg63
(lp705
S''
asbasbasbag56
(g72
g58
NtRp706
(dp707
g61
(dp708
sg70
g662
sg63
(lp709
g56
(g77
g58
NtRp710
(dp711
g61
(dp712
g81
g82
ssg70
g706
sg63
(lp713
g338
asbag56
(g77
g58
NtRp714
(dp715
g61
(dp716
g88
g89
ssg70
g706
sg63
(lp717
S':'
asbag56
(g77
g58
NtRp718
(dp719
g61
(dp720
sg70
g706
sg63
(lp721
g56
(g57
g58
NtRp722
(dp723
g61
(dp724
g69
I3
ssg70
g718
sg63
(lp725
S''
asbasbasbag56
(g72
g58
NtRp726
(dp727
g61
(dp728
sg70
g662
sg63
(lp729
g56
(g77
g58
NtRp730
(dp731
g61
(dp732
g81
g82
ssg70
g726
sg63
(lp733
g359
asbag56
(g77
g58
NtRp734
(dp735
g61
(dp736
g88
g89
ssg70
g726
sg63
(lp737
S':'
asbag56
(g77
g58
NtRp738
(dp739
g61
(dp740
sg70
g726
sg63
(lp741
g56
(g57
g58
NtRp742
(dp743
g61
(dp744
g69
I3
ssg70
g738
sg63
(lp745
S''
asbasbasbag56
(g72
g58
NtRp746
(dp747
g61
(dp748
sg70
g662
sg63
(lp749
g56
(g77
g58
NtRp750
(dp751
g61
(dp752
g81
g82
ssg70
g746
sg63
(lp753
g380
asbag56
(g77
g58
NtRp754
(dp755
g61
(dp756
g88
g89
ssg70
g746
sg63
(lp757
S':'
asbag56
(g77
g58
NtRp758
(dp759
g61
(dp760
sg70
g746
sg63
(lp761
g56
(g57
g58
NtRp762
(dp763
g61
(dp764
g69
I3
ssg70
g758
sg63
(lp765
S''
asbasbasbag56
(g72
g58
NtRp766
(dp767
g61
(dp768
sg70
g662
sg63
(lp769
g56
(g77
g58
NtRp770
(dp771
g61
(dp772
g81
g82
ssg70
g766
sg63
(lp773
g401
asbag56
(g77
g58
NtRp774
(dp775
g61
(dp776
g88
g89
ssg70
g766
sg63
(lp777
S':'
asbag56
(g77
g58
NtRp778
(dp779
g61
(dp780
sg70
g766
sg63
(lp781
g56
(g57
g58
NtRp782
(dp783
g61
(dp784
g69
I3
ssg70
g778
sg63
(lp785
S''
asbasbasbag56
(g72
g58
NtRp786
(dp787
g61
(dp788
sg70
g662
sg63
(lp789
g56
(g77
g58
NtRp790
(dp791
g61
(dp792
g81
g82
ssg70
g786
sg63
(lp793
g422
asbag56
(g77
g58
NtRp794
(dp795
g61
(dp796
g88
g89
ssg70
g786
sg63
(lp797
S':'
asbag56
(g77
g58
NtRp798
(dp799
g61
(dp800
sg70
g786
sg63
(lp801
g56
(g57
g58
NtRp802
(dp803
g61
(dp804
g69
I3
ssg70
g798
sg63
(lp805
S''
asbasbasbag56
(g72
g58
NtRp806
(dp807
g61
(dp808
sg70
g662
sg63
(lp809
g56
(g77
g58
NtRp810
(dp811
g61
(dp812
g81
g82
ssg70
g806
sg63
(lp813
g443
asbag56
(g77
g58
NtRp814
(dp815
g61
(dp816
g88
g89
ssg70
g806
sg63
(lp817
S':'
asbag56
(g77
g58
NtRp818
(dp819
g61
(dp820
sg70
g806
sg63
(lp821
g56
(g57
g58
NtRp822
(dp823
g61
(dp824
g69
I3
ssg70
g818
sg63
(lp825
S''
asbasbasbasbasbasbasbasbasbasbasbag56
(g72
g58
NtRp826
(dp827
g61
(dp828
sg70
g66
sg63
(lp829
g56
(g77
g58
NtRp830
(dp831
g61
(dp832
g81
g82
ssg70
g826
sg63
(lp833
S'env'
p834
asbag56
(g77
g58
NtRp835
(dp836
g61
(dp837
g88
g89
ssg70
g826
sg63
(lp838
S':'
asbag56
(g77
g58
NtRp839
(dp840
g61
(dp841
sg70
g826
sg63
(lp842
g56
(g57
g58
NtRp843
(dp844
g61
(dp845
g69
I5
ssg70
g839
sg63
(lp846
g56
(g65
g58
NtRp847
(dp848
g61
(dp849
g69
I4
ssg70
Nsg63
(lp850
g56
(g72
g58
NtRp851
(dp852
g61
(dp853
sg70
g847
sg63
(lp854
g56
(g77
g58
NtRp855
(dp856
g61
(dp857
g81
g82
ssg70
g851
sg63
(lp858
S'app_folders'
p859
asbag56
(g77
g58
NtRp860
(dp861
g61
(dp862
g88
g89
ssg70
g851
sg63
(lp863
S':'
asbag56
(g77
g58
NtRp864
(dp865
g61
(dp866
sg70
g851
sg63
(lp867
g56
(g57
g58
NtRp868
(dp869
g61
(dp870
g69
I4
ssg70
g864
sg63
(lp871
S"set(['/windows/Users/Thomas/Dropbox/appz/2011/GAE/ddl-lagoon/applications/ddlagoon/', '/windows/Users/Thomas/Dropbox/appz/2011/GAE/ddl-lagoon/applications/welcome/', '/windows/Users/Thomas/Dropbox/appz/2011/GAE/ddl-lagoon/applications/admin/'])"
p872
asbasbasbag56
(g72
g58
NtRp873
(dp874
g61
(dp875
sg70
g847
sg63
(lp876
g56
(g77
g58
NtRp877
(dp878
g61
(dp879
g81
g82
ssg70
g873
sg63
(lp880
S'applications_parent'
p881
asbag56
(g77
g58
NtRp882
(dp883
g61
(dp884
g88
g89
ssg70
g873
sg63
(lp885
S':'
asbag56
(g77
g58
NtRp886
(dp887
g61
(dp888
sg70
g873
sg63
(lp889
g56
(g57
g58
NtRp890
(dp891
g61
(dp892
g69
I4
ssg70
g886
sg63
(lp893
S'/windows/Users/Thomas/Dropbox/appz/2011/GAE/ddl-lagoon'
p894
asbasbasbag56
(g72
g58
NtRp895
(dp896
g61
(dp897
sg70
g847
sg63
(lp898
g56
(g77
g58
NtRp899
(dp900
g61
(dp901
g81
g82
ssg70
g895
sg63
(lp902
S'cmd_args'
p903
asbag56
(g77
g58
NtRp904
(dp905
g61
(dp906
g88
g89
ssg70
g895
sg63
(lp907
S':'
asbag56
(g77
g58
NtRp908
(dp909
g61
(dp910
sg70
g895
sg63
(lp911
g56
(g57
g58
NtRp912
(dp913
g61
(dp914
g69
I4
ssg70
g908
sg63
(lp915
g56
(g65
g58
NtRp916
(dp917
g61
(dp918
g69
I3
ssg70
Nsg63
(lp919
sbasbasbasbag56
(g72
g58
NtRp920
(dp921
g61
(dp922
sg70
g847
sg63
(lp923
g56
(g77
g58
NtRp924
(dp925
g61
(dp926
g81
g82
ssg70
g920
sg63
(lp927
S'cmd_options'
p928
asbag56
(g77
g58
NtRp929
(dp930
g61
(dp931
g88
g89
ssg70
g920
sg63
(lp932
S':'
asbag56
(g77
g58
NtRp933
(dp934
g61
(dp935
sg70
g920
sg63
(lp936
g56
(g57
g58
NtRp937
(dp938
g61
(dp939
g69
I4
ssg70
g933
sg63
(lp940
S"<Values at 0x2d4df38: {'verbose': False, 'ip': '127.0.0.1', 'shutdown_timeout': 5, 'taskbar': False, 'nocron': False, 'pid_filename': 'httpserver.pid', 'maxthreads': None, 'softcron': False, 'server_name': 'VPCF22AJ', 'bpython': False, 'nogui': False, 'port': 8000, 'extcron': False, 'debuglevel': 30, 'test': None, 'folder': '/windows/Users/Thomas/Dropbox/appz/2011/GAE/ddl-lagoon', 'config': '', 'import_models': False, 'winservice': '', 'shell': None, 'run': '', 'log_filename': 'httpserver.log', 'args': [''], 'ssl_ca_certificate': None, 'scheduler': None, 'profiler_filename': None, 'ssl_private_key': '', 'password': 'admin', 'request_queue_size': 5, 'ssl_certificate': '', 'cronjob': False, 'plain': False, 'quiet': False, 'interfaces': None, 'minthreads': None, 'timeout': 10, 'numthreads': None, 'nobanner': False}>"
p941
asbasbasbag56
(g72
g58
NtRp942
(dp943
g61
(dp944
sg70
g847
sg63
(lp945
g56
(g77
g58
NtRp946
(dp947
g61
(dp948
g81
g82
ssg70
g942
sg63
(lp949
S'db_sessions'
p950
asbag56
(g77
g58
NtRp951
(dp952
g61
(dp953
g88
g89
ssg70
g942
sg63
(lp954
S':'
asbag56
(g77
g58
NtRp955
(dp956
g61
(dp957
sg70
g942
sg63
(lp958
g56
(g57
g58
NtRp959
(dp960
g61
(dp961
g69
I4
ssg70
g955
sg63
(lp962
S'set([])'
p963
asbasbasbag56
(g72
g58
NtRp964
(dp965
g61
(dp966
sg70
g847
sg63
(lp967
g56
(g77
g58
NtRp968
(dp969
g61
(dp970
g81
g82
ssg70
g964
sg63
(lp971
S'debugging'
p972
asbag56
(g77
g58
NtRp973
(dp974
g61
(dp975
g88
g89
ssg70
g964
sg63
(lp976
S':'
asbag56
(g77
g58
NtRp977
(dp978
g61
(dp979
sg70
g964
sg63
(lp980
g56
(g57
g58
NtRp981
(dp982
g61
(dp983
g69
I4
ssg70
g977
sg63
(lp984
g99
asbasbasbag56
(g72
g58
NtRp985
(dp986
g61
(dp987
sg70
g847
sg63
(lp988
g56
(g77
g58
NtRp989
(dp990
g61
(dp991
g81
g82
ssg70
g985
sg63
(lp992
S'gluon_parent'
p993
asbag56
(g77
g58
NtRp994
(dp995
g61
(dp996
g88
g89
ssg70
g985
sg63
(lp997
S':'
asbag56
(g77
g58
NtRp998
(dp999
g61
(dp1000
sg70
g985
sg63
(lp1001
g56
(g57
g58
NtRp1002
(dp1003
g61
(dp1004
g69
I4
ssg70
g998
sg63
(lp1005
S'/windows/Users/Thomas/Dropbox/appz/2011/GAE/ddl-lagoon'
p1006
asbasbasbag56
(g72
g58
NtRp1007
(dp1008
g61
(dp1009
sg70
g847
sg63
(lp1010
g56
(g77
g58
NtRp1011
(dp1012
g61
(dp1013
g81
g82
ssg70
g1007
sg63
(lp1014
S'http_accept'
p1015
asbag56
(g77
g58
NtRp1016
(dp1017
g61
(dp1018
g88
g89
ssg70
g1007
sg63
(lp1019
S':'
asbag56
(g77
g58
NtRp1020
(dp1021
g61
(dp1022
sg70
g1007
sg63
(lp1023
g56
(g57
g58
NtRp1024
(dp1025
g61
(dp1026
g69
I4
ssg70
g1020
sg63
(lp1027
S'text/html,application/xhtml+xml,application/xml;q=0.9,*/*;q=0.8'
p1028
asbasbasbag56
(g72
g58
NtRp1029
(dp1030
g61
(dp1031
sg70
g847
sg63
(lp1032
g56
(g77
g58
NtRp1033
(dp1034
g61
(dp1035
g81
g82
ssg70
g1029
sg63
(lp1036
S'http_accept_charset'
p1037
asbag56
(g77
g58
NtRp1038
(dp1039
g61
(dp1040
g88
g89
ssg70
g1029
sg63
(lp1041
S':'
asbag56
(g77
g58
NtRp1042
(dp1043
g61
(dp1044
sg70
g1029
sg63
(lp1045
g56
(g57
g58
NtRp1046
(dp1047
g61
(dp1048
g69
I4
ssg70
g1042
sg63
(lp1049
S'ISO-8859-1,utf-8;q=0.7,*;q=0.3'
p1050
asbasbasbag56
(g72
g58
NtRp1051
(dp1052
g61
(dp1053
sg70
g847
sg63
(lp1054
g56
(g77
g58
NtRp1055
(dp1056
g61
(dp1057
g81
g82
ssg70
g1051
sg63
(lp1058
S'http_accept_encoding'
p1059
asbag56
(g77
g58
NtRp1060
(dp1061
g61
(dp1062
g88
g89
ssg70
g1051
sg63
(lp1063
S':'
asbag56
(g77
g58
NtRp1064
(dp1065
g61
(dp1066
sg70
g1051
sg63
(lp1067
g56
(g57
g58
NtRp1068
(dp1069
g61
(dp1070
g69
I4
ssg70
g1064
sg63
(lp1071
S'gzip,deflate,sdch'
p1072
asbasbasbag56
(g72
g58
NtRp1073
(dp1074
g61
(dp1075
sg70
g847
sg63
(lp1076
g56
(g77
g58
NtRp1077
(dp1078
g61
(dp1079
g81
g82
ssg70
g1073
sg63
(lp1080
S'http_accept_language'
p1081
asbag56
(g77
g58
NtRp1082
(dp1083
g61
(dp1084
g88
g89
ssg70
g1073
sg63
(lp1085
S':'
asbag56
(g77
g58
NtRp1086
(dp1087
g61
(dp1088
sg70
g1073
sg63
(lp1089
g56
(g57
g58
NtRp1090
(dp1091
g61
(dp1092
g69
I4
ssg70
g1086
sg63
(lp1093
S'en-US,en;q=0.8,fr;q=0.6'
p1094
asbasbasbag56
(g72
g58
NtRp1095
(dp1096
g61
(dp1097
sg70
g847
sg63
(lp1098
g56
(g77
g58
NtRp1099
(dp1100
g61
(dp1101
g81
g82
ssg70
g1095
sg63
(lp1102
S'http_connection'
p1103
asbag56
(g77
g58
NtRp1104
(dp1105
g61
(dp1106
g88
g89
ssg70
g1095
sg63
(lp1107
S':'
asbag56
(g77
g58
NtRp1108
(dp1109
g61
(dp1110
sg70
g1095
sg63
(lp1111
g56
(g57
g58
NtRp1112
(dp1113
g61
(dp1114
g69
I4
ssg70
g1108
sg63
(lp1115
S'keep-alive'
p1116
asbasbasbag56
(g72
g58
NtRp1117
(dp1118
g61
(dp1119
sg70
g847
sg63
(lp1120
g56
(g77
g58
NtRp1121
(dp1122
g61
(dp1123
g81
g82
ssg70
g1117
sg63
(lp1124
S'http_cookie'
p1125
asbag56
(g77
g58
NtRp1126
(dp1127
g61
(dp1128
g88
g89
ssg70
g1117
sg63
(lp1129
S':'
asbag56
(g77
g58
NtRp1130
(dp1131
g61
(dp1132
sg70
g1117
sg63
(lp1133
g56
(g57
g58
NtRp1134
(dp1135
g61
(dp1136
g69
I4
ssg70
g1130
sg63
(lp1137
S'__utma_a2a=6830991484.1350583772.1319026846.1319052270.1319052278.11; session_id_welcome=127.0.0.1-47f0e8b4-66ae-4fd0-bb0a-8a2d7a2027c4; session_id_admin=127.0.0.1-c4c6f676-274b-4970-ab2f-4415e39a2b0f; session_id_ddlagoon=127.0.0.1-99bedcff-7b92-4e95-877d-caeffe2fe18e'
p1138
asbasbasbag56
(g72
g58
NtRp1139
(dp1140
g61
(dp1141
sg70
g847
sg63
(lp1142
g56
(g77
g58
NtRp1143
(dp1144
g61
(dp1145
g81
g82
ssg70
g1139
sg63
(lp1146
S'http_host'
p1147
asbag56
(g77
g58
NtRp1148
(dp1149
g61
(dp1150
g88
g89
ssg70
g1139
sg63
(lp1151
S':'
asbag56
(g77
g58
NtRp1152
(dp1153
g61
(dp1154
sg70
g1139
sg63
(lp1155
g56
(g57
g58
NtRp1156
(dp1157
g61
(dp1158
g69
I4
ssg70
g1152
sg63
(lp1159
S'localhost:8000'
p1160
asbasbasbag56
(g72
g58
NtRp1161
(dp1162
g61
(dp1163
sg70
g847
sg63
(lp1164
g56
(g77
g58
NtRp1165
(dp1166
g61
(dp1167
g81
g82
ssg70
g1161
sg63
(lp1168
S'http_user_agent'
p1169
asbag56
(g77
g58
NtRp1170
(dp1171
g61
(dp1172
g88
g89
ssg70
g1161
sg63
(lp1173
S':'
asbag56
(g77
g58
NtRp1174
(dp1175
g61
(dp1176
sg70
g1161
sg63
(lp1177
g56
(g57
g58
NtRp1178
(dp1179
g61
(dp1180
g69
I4
ssg70
g1174
sg63
(lp1181
S'Mozilla/5.0 (X11; Linux x86_64) AppleWebKit/535.1 (KHTML, like Gecko) Chrome/14.0.835.202 Safari/535.1'
p1182
asbasbasbag56
(g72
g58
NtRp1183
(dp1184
g61
(dp1185
sg70
g847
sg63
(lp1186
g56
(g77
g58
NtRp1187
(dp1188
g61
(dp1189
g81
g82
ssg70
g1183
sg63
(lp1190
S'is_jython'
p1191
asbag56
(g77
g58
NtRp1192
(dp1193
g61
(dp1194
g88
g89
ssg70
g1183
sg63
(lp1195
S':'
asbag56
(g77
g58
NtRp1196
(dp1197
g61
(dp1198
sg70
g1183
sg63
(lp1199
g56
(g57
g58
NtRp1200
(dp1201
g61
(dp1202
g69
I4
ssg70
g1196
sg63
(lp1203
g99
asbasbasbag56
(g72
g58
NtRp1204
(dp1205
g61
(dp1206
sg70
g847
sg63
(lp1207
g56
(g77
g58
NtRp1208
(dp1209
g61
(dp1210
g81
g82
ssg70
g1204
sg63
(lp1211
S'path_info'
p1212
asbag56
(g77
g58
NtRp1213
(dp1214
g61
(dp1215
g88
g89
ssg70
g1204
sg63
(lp1216
S':'
asbag56
(g77
g58
NtRp1217
(dp1218
g61
(dp1219
sg70
g1204
sg63
(lp1220
g56
(g57
g58
NtRp1221
(dp1222
g61
(dp1223
g69
I4
ssg70
g1217
sg63
(lp1224
S'/ddlagoon/ddl/get/run/ddl/'
p1225
asbasbasbag56
(g72
g58
NtRp1226
(dp1227
g61
(dp1228
sg70
g847
sg63
(lp1229
g56
(g77
g58
NtRp1230
(dp1231
g61
(dp1232
g81
g82
ssg70
g1226
sg63
(lp1233
S'query_string'
p1234
asbag56
(g77
g58
NtRp1235
(dp1236
g61
(dp1237
g88
g89
ssg70
g1226
sg63
(lp1238
S':'
asbag56
(g77
g58
NtRp1239
(dp1240
g61
(dp1241
sg70
g1226
sg63
(lp1242
g56
(g57
g58
NtRp1243
(dp1244
g61
(dp1245
g69
I4
ssg70
g1239
sg63
(lp1246
S''
asbasbasbag56
(g72
g58
NtRp1247
(dp1248
g61
(dp1249
sg70
g847
sg63
(lp1250
g56
(g77
g58
NtRp1251
(dp1252
g61
(dp1253
g81
g82
ssg70
g1247
sg63
(lp1254
S'remote_addr'
p1255
asbag56
(g77
g58
NtRp1256
(dp1257
g61
(dp1258
g88
g89
ssg70
g1247
sg63
(lp1259
S':'
asbag56
(g77
g58
NtRp1260
(dp1261
g61
(dp1262
sg70
g1247
sg63
(lp1263
g56
(g57
g58
NtRp1264
(dp1265
g61
(dp1266
g69
I4
ssg70
g1260
sg63
(lp1267
g215
asbasbasbag56
(g72
g58
NtRp1268
(dp1269
g61
(dp1270
sg70
g847
sg63
(lp1271
g56
(g77
g58
NtRp1272
(dp1273
g61
(dp1274
g81
g82
ssg70
g1268
sg63
(lp1275
S'remote_port'
p1276
asbag56
(g77
g58
NtRp1277
(dp1278
g61
(dp1279
g88
g89
ssg70
g1268
sg63
(lp1280
S':'
asbag56
(g77
g58
NtRp1281
(dp1282
g61
(dp1283
sg70
g1268
sg63
(lp1284
g56
(g57
g58
NtRp1285
(dp1286
g61
(dp1287
g69
I4
ssg70
g1281
sg63
(lp1288
S'35408'
p1289
asbasbasbag56
(g72
g58
NtRp1290
(dp1291
g61
(dp1292
sg70
g847
sg63
(lp1293
g56
(g77
g58
NtRp1294
(dp1295
g61
(dp1296
g81
g82
ssg70
g1290
sg63
(lp1297
S'request_method'
p1298
asbag56
(g77
g58
NtRp1299
(dp1300
g61
(dp1301
g88
g89
ssg70
g1290
sg63
(lp1302
S':'
asbag56
(g77
g58
NtRp1303
(dp1304
g61
(dp1305
sg70
g1290
sg63
(lp1306
g56
(g57
g58
NtRp1307
(dp1308
g61
(dp1309
g69
I4
ssg70
g1303
sg63
(lp1310
S'GET'
p1311
asbasbasbag56
(g72
g58
NtRp1312
(dp1313
g61
(dp1314
sg70
g847
sg63
(lp1315
g56
(g77
g58
NtRp1316
(dp1317
g61
(dp1318
g81
g82
ssg70
g1312
sg63
(lp1319
S'request_uri'
p1320
asbag56
(g77
g58
NtRp1321
(dp1322
g61
(dp1323
g88
g89
ssg70
g1312
sg63
(lp1324
S':'
asbag56
(g77
g58
NtRp1325
(dp1326
g61
(dp1327
sg70
g1312
sg63
(lp1328
g56
(g57
g58
NtRp1329
(dp1330
g61
(dp1331
g69
I4
ssg70
g1325
sg63
(lp1332
g1225
asbasbasbag56
(g72
g58
NtRp1333
(dp1334
g61
(dp1335
sg70
g847
sg63
(lp1336
g56
(g77
g58
NtRp1337
(dp1338
g61
(dp1339
g81
g82
ssg70
g1333
sg63
(lp1340
S'script_name'
p1341
asbag56
(g77
g58
NtRp1342
(dp1343
g61
(dp1344
g88
g89
ssg70
g1333
sg63
(lp1345
S':'
asbag56
(g77
g58
NtRp1346
(dp1347
g61
(dp1348
sg70
g1333
sg63
(lp1349
g56
(g57
g58
NtRp1350
(dp1351
g61
(dp1352
g69
I4
ssg70
g1346
sg63
(lp1353
S''
asbasbasbag56
(g72
g58
NtRp1354
(dp1355
g61
(dp1356
sg70
g847
sg63
(lp1357
g56
(g77
g58
NtRp1358
(dp1359
g61
(dp1360
g81
g82
ssg70
g1354
sg63
(lp1361
S'server_name'
p1362
asbag56
(g77
g58
NtRp1363
(dp1364
g61
(dp1365
g88
g89
ssg70
g1354
sg63
(lp1366
S':'
asbag56
(g77
g58
NtRp1367
(dp1368
g61
(dp1369
sg70
g1354
sg63
(lp1370
g56
(g57
g58
NtRp1371
(dp1372
g61
(dp1373
g69
I4
ssg70
g1367
sg63
(lp1374
S'VPCF22AJ'
p1375
asbasbasbag56
(g72
g58
NtRp1376
(dp1377
g61
(dp1378
sg70
g847
sg63
(lp1379
g56
(g77
g58
NtRp1380
(dp1381
g61
(dp1382
g81
g82
ssg70
g1376
sg63
(lp1383
S'server_port'
p1384
asbag56
(g77
g58
NtRp1385
(dp1386
g61
(dp1387
g88
g89
ssg70
g1376
sg63
(lp1388
S':'
asbag56
(g77
g58
NtRp1389
(dp1390
g61
(dp1391
sg70
g1376
sg63
(lp1392
g56
(g57
g58
NtRp1393
(dp1394
g61
(dp1395
g69
I4
ssg70
g1389
sg63
(lp1396
S'8000'
p1397
asbasbasbag56
(g72
g58
NtRp1398
(dp1399
g61
(dp1400
sg70
g847
sg63
(lp1401
g56
(g77
g58
NtRp1402
(dp1403
g61
(dp1404
g81
g82
ssg70
g1398
sg63
(lp1405
S'server_protocol'
p1406
asbag56
(g77
g58
NtRp1407
(dp1408
g61
(dp1409
g88
g89
ssg70
g1398
sg63
(lp1410
S':'
asbag56
(g77
g58
NtRp1411
(dp1412
g61
(dp1413
sg70
g1398
sg63
(lp1414
g56
(g57
g58
NtRp1415
(dp1416
g61
(dp1417
g69
I4
ssg70
g1411
sg63
(lp1418
S'HTTP/1.1'
p1419
asbasbasbag56
(g72
g58
NtRp1420
(dp1421
g61
(dp1422
sg70
g847
sg63
(lp1423
g56
(g77
g58
NtRp1424
(dp1425
g61
(dp1426
g81
g82
ssg70
g1420
sg63
(lp1427
S'server_software'
p1428
asbag56
(g77
g58
NtRp1429
(dp1430
g61
(dp1431
g88
g89
ssg70
g1420
sg63
(lp1432
S':'
asbag56
(g77
g58
NtRp1433
(dp1434
g61
(dp1435
sg70
g1420
sg63
(lp1436
g56
(g57
g58
NtRp1437
(dp1438
g61
(dp1439
g69
I4
ssg70
g1433
sg63
(lp1440
S'Rocket 1.2.4'
p1441
asbasbasbag56
(g72
g58
NtRp1442
(dp1443
g61
(dp1444
sg70
g847
sg63
(lp1445
g56
(g77
g58
NtRp1446
(dp1447
g61
(dp1448
g81
g82
ssg70
g1442
sg63
(lp1449
S'web2py_crontype'
p1450
asbag56
(g77
g58
NtRp1451
(dp1452
g61
(dp1453
g88
g89
ssg70
g1442
sg63
(lp1454
S':'
asbag56
(g77
g58
NtRp1455
(dp1456
g61
(dp1457
sg70
g1442
sg63
(lp1458
g56
(g57
g58
NtRp1459
(dp1460
g61
(dp1461
g69
I4
ssg70
g1455
sg63
(lp1462
S'hard'
p1463
asbasbasbag56
(g72
g58
NtRp1464
(dp1465
g61
(dp1466
sg70
g847
sg63
(lp1467
g56
(g77
g58
NtRp1468
(dp1469
g61
(dp1470
g81
g82
ssg70
g1464
sg63
(lp1471
S'web2py_original_uri'
p1472
asbag56
(g77
g58
NtRp1473
(dp1474
g61
(dp1475
g88
g89
ssg70
g1464
sg63
(lp1476
S':'
asbag56
(g77
g58
NtRp1477
(dp1478
g61
(dp1479
sg70
g1464
sg63
(lp1480
g56
(g57
g58
NtRp1481
(dp1482
g61
(dp1483
g69
I4
ssg70
g1477
sg63
(lp1484
g1225
asbasbasbag56
(g72
g58
NtRp1485
(dp1486
g61
(dp1487
sg70
g847
sg63
(lp1488
g56
(g77
g58
NtRp1489
(dp1490
g61
(dp1491
g81
g82
ssg70
g1485
sg63
(lp1492
S'web2py_path'
p1493
asbag56
(g77
g58
NtRp1494
(dp1495
g61
(dp1496
g88
g89
ssg70
g1485
sg63
(lp1497
S':'
asbag56
(g77
g58
NtRp1498
(dp1499
g61
(dp1500
sg70
g1485
sg63
(lp1501
g56
(g57
g58
NtRp1502
(dp1503
g61
(dp1504
g69
I4
ssg70
g1498
sg63
(lp1505
g894
asbasbasbag56
(g72
g58
NtRp1506
(dp1507
g61
(dp1508
sg70
g847
sg63
(lp1509
g56
(g77
g58
NtRp1510
(dp1511
g61
(dp1512
g81
g82
ssg70
g1506
sg63
(lp1513
S'web2py_version'
p1514
asbag56
(g77
g58
NtRp1515
(dp1516
g61
(dp1517
g88
g89
ssg70
g1506
sg63
(lp1518
S':'
asbag56
(g77
g58
NtRp1519
(dp1520
g61
(dp1521
sg70
g1506
sg63
(lp1522
g56
(g57
g58
NtRp1523
(dp1524
g61
(dp1525
g69
I4
ssg70
g1519
sg63
(lp1526
g56
(g65
g58
NtRp1527
(dp1528
g61
(dp1529
g69
I3
ssg70
Nsg63
(lp1530
g56
(g72
g58
NtRp1531
(dp1532
g61
(dp1533
sg70
g1527
sg63
(lp1534
g56
(g77
g58
NtRp1535
(dp1536
g61
(dp1537
sg70
g1531
sg63
(lp1538
g56
(g57
g58
NtRp1539
(dp1540
g61
(dp1541
g69
I3
ssg70
g1535
sg63
(lp1542
S'1'
asbasbasbag56
(g72
g58
NtRp1543
(dp1544
g61
(dp1545
sg70
g1527
sg63
(lp1546
g56
(g77
g58
NtRp1547
(dp1548
g61
(dp1549
sg70
g1543
sg63
(lp1550
g56
(g57
g58
NtRp1551
(dp1552
g61
(dp1553
g69
I3
ssg70
g1547
sg63
(lp1554
S'99'
p1555
asbasbasbag56
(g72
g58
NtRp1556
(dp1557
g61
(dp1558
sg70
g1527
sg63
(lp1559
g56
(g77
g58
NtRp1560
(dp1561
g61
(dp1562
sg70
g1556
sg63
(lp1563
g56
(g57
g58
NtRp1564
(dp1565
g61
(dp1566
g69
I3
ssg70
g1560
sg63
(lp1567
S'2'
asbasbasbag56
(g72
g58
NtRp1568
(dp1569
g61
(dp1570
sg70
g1527
sg63
(lp1571
g56
(g77
g58
NtRp1572
(dp1573
g61
(dp1574
sg70
g1568
sg63
(lp1575
g56
(g57
g58
NtRp1576
(dp1577
g61
(dp1578
g69
I3
ssg70
g1572
sg63
(lp1579
S'datetime.datetime(2011, 9, 26, 6, 55, 33)'
p1580
asbasbasbag56
(g72
g58
NtRp1581
(dp1582
g61
(dp1583
sg70
g1527
sg63
(lp1584
g56
(g77
g58
NtRp1585
(dp1586
g61
(dp1587
sg70
g1581
sg63
(lp1588
g56
(g57
g58
NtRp1589
(dp1590
g61
(dp1591
g69
I3
ssg70
g1585
sg63
(lp1592
S'stable'
p1593
asbasbasbasbasbasbasbag56
(g72
g58
NtRp1594
(dp1595
g61
(dp1596
sg70
g847
sg63
(lp1597
g56
(g77
g58
NtRp1598
(dp1599
g61
(dp1600
g81
g82
ssg70
g1594
sg63
(lp1601
S'wsgi_errors'
p1602
asbag56
(g77
g58
NtRp1603
(dp1604
g61
(dp1605
g88
g89
ssg70
g1594
sg63
(lp1606
S':'
asbag56
(g77
g58
NtRp1607
(dp1608
g61
(dp1609
sg70
g1594
sg63
(lp1610
g56
(g57
g58
NtRp1611
(dp1612
g61
(dp1613
g69
I4
ssg70
g1607
sg63
(lp1614
S"<open file '<stderr>', mode 'w' at 0x7f80c77741e0>"
p1615
asbasbasbag56
(g72
g58
NtRp1616
(dp1617
g61
(dp1618
sg70
g847
sg63
(lp1619
g56
(g77
g58
NtRp1620
(dp1621
g61
(dp1622
g81
g82
ssg70
g1616
sg63
(lp1623
S'wsgi_file_wrapper'
p1624
asbag56
(g77
g58
NtRp1625
(dp1626
g61
(dp1627
g88
g89
ssg70
g1616
sg63
(lp1628
S':'
asbag56
(g77
g58
NtRp1629
(dp1630
g61
(dp1631
sg70
g1616
sg63
(lp1632
g56
(g57
g58
NtRp1633
(dp1634
g61
(dp1635
g69
I4
ssg70
g1629
sg63
(lp1636
S'<class wsgiref.util.FileWrapper at 0x2789590>'
p1637
asbasbasbag56
(g72
g58
NtRp1638
(dp1639
g61
(dp1640
sg70
g847
sg63
(lp1641
g56
(g77
g58
NtRp1642
(dp1643
g61
(dp1644
g81
g82
ssg70
g1638
sg63
(lp1645
S'wsgi_input'
p1646
asbag56
(g77
g58
NtRp1647
(dp1648
g61
(dp1649
g88
g89
ssg70
g1638
sg63
(lp1650
S':'
asbag56
(g77
g58
NtRp1651
(dp1652
g61
(dp1653
sg70
g1638
sg63
(lp1654
g56
(g57
g58
NtRp1655
(dp1656
g61
(dp1657
g69
I4
ssg70
g1651
sg63
(lp1658
S'<socket._fileobject object at 0x7f80bc2829d0>'
p1659
asbasbasbag56
(g72
g58
NtRp1660
(dp1661
g61
(dp1662
sg70
g847
sg63
(lp1663
g56
(g77
g58
NtRp1664
(dp1665
g61
(dp1666
g81
g82
ssg70
g1660
sg63
(lp1667
S'wsgi_multiprocess'
p1668
asbag56
(g77
g58
NtRp1669
(dp1670
g61
(dp1671
g88
g89
ssg70
g1660
sg63
(lp1672
S':'
asbag56
(g77
g58
NtRp1673
(dp1674
g61
(dp1675
sg70
g1660
sg63
(lp1676
g56
(g57
g58
NtRp1677
(dp1678
g61
(dp1679
g69
I4
ssg70
g1673
sg63
(lp1680
g99
asbasbasbag56
(g72
g58
NtRp1681
(dp1682
g61
(dp1683
sg70
g847
sg63
(lp1684
g56
(g77
g58
NtRp1685
(dp1686
g61
(dp1687
g81
g82
ssg70
g1681
sg63
(lp1688
S'wsgi_multithread'
p1689
asbag56
(g77
g58
NtRp1690
(dp1691
g61
(dp1692
g88
g89
ssg70
g1681
sg63
(lp1693
S':'
asbag56
(g77
g58
NtRp1694
(dp1695
g61
(dp1696
sg70
g1681
sg63
(lp1697
g56
(g57
g58
NtRp1698
(dp1699
g61
(dp1700
g69
I4
ssg70
g1694
sg63
(lp1701
S'True'
p1702
asbasbasbag56
(g72
g58
NtRp1703
(dp1704
g61
(dp1705
sg70
g847
sg63
(lp1706
g56
(g77
g58
NtRp1707
(dp1708
g61
(dp1709
g81
g82
ssg70
g1703
sg63
(lp1710
S'wsgi_run_once'
p1711
asbag56
(g77
g58
NtRp1712
(dp1713
g61
(dp1714
g88
g89
ssg70
g1703
sg63
(lp1715
S':'
asbag56
(g77
g58
NtRp1716
(dp1717
g61
(dp1718
sg70
g1703
sg63
(lp1719
g56
(g57
g58
NtRp1720
(dp1721
g61
(dp1722
g69
I4
ssg70
g1716
sg63
(lp1723
g99
asbasbasbag56
(g72
g58
NtRp1724
(dp1725
g61
(dp1726
sg70
g847
sg63
(lp1727
g56
(g77
g58
NtRp1728
(dp1729
g61
(dp1730
g81
g82
ssg70
g1724
sg63
(lp1731
S'wsgi_url_scheme'
p1732
asbag56
(g77
g58
NtRp1733
(dp1734
g61
(dp1735
g88
g89
ssg70
g1724
sg63
(lp1736
S':'
asbag56
(g77
g58
NtRp1737
(dp1738
g61
(dp1739
sg70
g1724
sg63
(lp1740
g56
(g57
g58
NtRp1741
(dp1742
g61
(dp1743
g69
I4
ssg70
g1737
sg63
(lp1744
S'http'
p1745
asbasbasbag56
(g72
g58
NtRp1746
(dp1747
g61
(dp1748
sg70
g847
sg63
(lp1749
g56
(g77
g58
NtRp1750
(dp1751
g61
(dp1752
g81
g82
ssg70
g1746
sg63
(lp1753
S'wsgi_version'
p1754
asbag56
(g77
g58
NtRp1755
(dp1756
g61
(dp1757
g88
g89
ssg70
g1746
sg63
(lp1758
S':'
asbag56
(g77
g58
NtRp1759
(dp1760
g61
(dp1761
sg70
g1746
sg63
(lp1762
g56
(g57
g58
NtRp1763
(dp1764
g61
(dp1765
g69
I4
ssg70
g1759
sg63
(lp1766
g56
(g65
g58
NtRp1767
(dp1768
g61
(dp1769
g69
I3
ssg70
Nsg63
(lp1770
g56
(g72
g58
NtRp1771
(dp1772
g61
(dp1773
sg70
g1767
sg63
(lp1774
g56
(g77
g58
NtRp1775
(dp1776
g61
(dp1777
sg70
g1771
sg63
(lp1778
g56
(g57
g58
NtRp1779
(dp1780
g61
(dp1781
g69
I3
ssg70
g1775
sg63
(lp1782
S'1'
asbasbasbag56
(g72
g58
NtRp1783
(dp1784
g61
(dp1785
sg70
g1767
sg63
(lp1786
g56
(g77
g58
NtRp1787
(dp1788
g61
(dp1789
sg70
g1783
sg63
(lp1790
g56
(g57
g58
NtRp1791
(dp1792
g61
(dp1793
g69
I3
ssg70
g1787
sg63
(lp1794
S'0'
asbasbasbasbasbasbasbasbasbasbasbag56
(g72
g58
NtRp1795
(dp1796
g61
(dp1797
sg70
g66
sg63
(lp1798
g56
(g77
g58
NtRp1799
(dp1800
g61
(dp1801
g81
g82
ssg70
g1795
sg63
(lp1802
S'extension'
p1803
asbag56
(g77
g58
NtRp1804
(dp1805
g61
(dp1806
g88
g89
ssg70
g1795
sg63
(lp1807
S':'
asbag56
(g77
g58
NtRp1808
(dp1809
g61
(dp1810
sg70
g1795
sg63
(lp1811
g56
(g57
g58
NtRp1812
(dp1813
g61
(dp1814
g69
I5
ssg70
g1808
sg63
(lp1815
S'html'
p1816
asbasbasbag56
(g72
g58
NtRp1817
(dp1818
g61
(dp1819
sg70
g66
sg63
(lp1820
g56
(g77
g58
NtRp1821
(dp1822
g61
(dp1823
g81
g82
ssg70
g1817
sg63
(lp1824
S'folder'
p1825
asbag56
(g77
g58
NtRp1826
(dp1827
g61
(dp1828
g88
g89
ssg70
g1817
sg63
(lp1829
S':'
asbag56
(g77
g58
NtRp1830
(dp1831
g61
(dp1832
sg70
g1817
sg63
(lp1833
g56
(g57
g58
NtRp1834
(dp1835
g61
(dp1836
g69
I5
ssg70
g1830
sg63
(lp1837
S'/windows/Users/Thomas/Dropbox/appz/2011/GAE/ddl-lagoon/applications/ddlagoon/'
p1838
asbasbasbag56
(g72
g58
NtRp1839
(dp1840
g61
(dp1841
sg70
g66
sg63
(lp1842
g56
(g77
g58
NtRp1843
(dp1844
g61
(dp1845
g81
g82
ssg70
g1839
sg63
(lp1846
S'function'
p1847
asbag56
(g77
g58
NtRp1848
(dp1849
g61
(dp1850
g88
g89
ssg70
g1839
sg63
(lp1851
S':'
asbag56
(g77
g58
NtRp1852
(dp1853
g61
(dp1854
sg70
g1839
sg63
(lp1855
g56
(g57
g58
NtRp1856
(dp1857
g61
(dp1858
g69
I5
ssg70
g1852
sg63
(lp1859
S'get'
p1860
asbasbasbag56
(g72
g58
NtRp1861
(dp1862
g61
(dp1863
sg70
g66
sg63
(lp1864
g56
(g77
g58
NtRp1865
(dp1866
g61
(dp1867
g81
g82
ssg70
g1861
sg63
(lp1868
S'get_vars'
p1869
asbag56
(g77
g58
NtRp1870
(dp1871
g61
(dp1872
g88
g89
ssg70
g1861
sg63
(lp1873
S':'
asbag56
(g77
g58
NtRp1874
(dp1875
g61
(dp1876
sg70
g1861
sg63
(lp1877
g56
(g57
g58
NtRp1878
(dp1879
g61
(dp1880
g69
I5
ssg70
g1874
sg63
(lp1881
g56
(g65
g58
NtRp1882
(dp1883
g61
(dp1884
g69
I4
ssg70
Nsg63
(lp1885
sbasbasbasbag56
(g72
g58
NtRp1886
(dp1887
g61
(dp1888
sg70
g66
sg63
(lp1889
g56
(g77
g58
NtRp1890
(dp1891
g61
(dp1892
g81
g82
ssg70
g1886
sg63
(lp1893
S'global_settings'
p1894
asbag56
(g77
g58
NtRp1895
(dp1896
g61
(dp1897
g88
g89
ssg70
g1886
sg63
(lp1898
S':'
asbag56
(g77
g58
NtRp1899
(dp1900
g61
(dp1901
sg70
g1886
sg63
(lp1902
g56
(g57
g58
NtRp1903
(dp1904
g61
(dp1905
g69
I5
ssg70
g1899
sg63
(lp1906
g56
(g65
g58
NtRp1907
(dp1908
g61
(dp1909
g69
I4
ssg70
Nsg63
(lp1910
g56
(g72
g58
NtRp1911
(dp1912
g61
(dp1913
sg70
g1907
sg63
(lp1914
g56
(g77
g58
NtRp1915
(dp1916
g61
(dp1917
g81
g82
ssg70
g1911
sg63
(lp1918
g859
asbag56
(g77
g58
NtRp1919
(dp1920
g61
(dp1921
g88
g89
ssg70
g1911
sg63
(lp1922
S':'
asbag56
(g77
g58
NtRp1923
(dp1924
g61
(dp1925
sg70
g1911
sg63
(lp1926
g56
(g57
g58
NtRp1927
(dp1928
g61
(dp1929
g69
I4
ssg70
g1923
sg63
(lp1930
S"set(['/windows/Users/Thomas/Dropbox/appz/2011/GAE/ddl-lagoon/applications/ddlagoon/', '/windows/Users/Thomas/Dropbox/appz/2011/GAE/ddl-lagoon/applications/welcome/', '/windows/Users/Thomas/Dropbox/appz/2011/GAE/ddl-lagoon/applications/admin/'])"
p1931
asbasbasbag56
(g72
g58
NtRp1932
(dp1933
g61
(dp1934
sg70
g1907
sg63
(lp1935
g56
(g77
g58
NtRp1936
(dp1937
g61
(dp1938
g81
g82
ssg70
g1932
sg63
(lp1939
g881
asbag56
(g77
g58
NtRp1940
(dp1941
g61
(dp1942
g88
g89
ssg70
g1932
sg63
(lp1943
S':'
asbag56
(g77
g58
NtRp1944
(dp1945
g61
(dp1946
sg70
g1932
sg63
(lp1947
g56
(g57
g58
NtRp1948
(dp1949
g61
(dp1950
g69
I4
ssg70
g1944
sg63
(lp1951
g894
asbasbasbag56
(g72
g58
NtRp1952
(dp1953
g61
(dp1954
sg70
g1907
sg63
(lp1955
g56
(g77
g58
NtRp1956
(dp1957
g61
(dp1958
g81
g82
ssg70
g1952
sg63
(lp1959
g903
asbag56
(g77
g58
NtRp1960
(dp1961
g61
(dp1962
g88
g89
ssg70
g1952
sg63
(lp1963
S':'
asbag56
(g77
g58
NtRp1964
(dp1965
g61
(dp1966
sg70
g1952
sg63
(lp1967
g56
(g57
g58
NtRp1968
(dp1969
g61
(dp1970
g69
I4
ssg70
g1964
sg63
(lp1971
g56
(g65
g58
NtRp1972
(dp1973
g61
(dp1974
g69
I3
ssg70
Nsg63
(lp1975
sbasbasbasbag56
(g72
g58
NtRp1976
(dp1977
g61
(dp1978
sg70
g1907
sg63
(lp1979
g56
(g77
g58
NtRp1980
(dp1981
g61
(dp1982
g81
g82
ssg70
g1976
sg63
(lp1983
g928
asbag56
(g77
g58
NtRp1984
(dp1985
g61
(dp1986
g88
g89
ssg70
g1976
sg63
(lp1987
S':'
asbag56
(g77
g58
NtRp1988
(dp1989
g61
(dp1990
sg70
g1976
sg63
(lp1991
g56
(g57
g58
NtRp1992
(dp1993
g61
(dp1994
g69
I4
ssg70
g1988
sg63
(lp1995
S"<Values at 0x2d4df38: {'verbose': False, 'ip': '127.0.0.1', 'shutdown_timeout': 5, 'taskbar': False, 'nocron': False, 'pid_filename': 'httpserver.pid', 'maxthreads': None, 'softcron': False, 'server_name': 'VPCF22AJ', 'bpython': False, 'nogui': False, 'port': 8000, 'extcron': False, 'debuglevel': 30, 'test': None, 'folder': '/windows/Users/Thomas/Dropbox/appz/2011/GAE/ddl-lagoon', 'config': '', 'import_models': False, 'winservice': '', 'shell': None, 'run': '', 'log_filename': 'httpserver.log', 'args': [''], 'ssl_ca_certificate': None, 'scheduler': None, 'profiler_filename': None, 'ssl_private_key': '', 'password': 'admin', 'request_queue_size': 5, 'ssl_certificate': '', 'cronjob': False, 'plain': False, 'quiet': False, 'interfaces': None, 'minthreads': None, 'timeout': 10, 'numthreads': None, 'nobanner': False}>"
p1996
asbasbasbag56
(g72
g58
NtRp1997
(dp1998
g61
(dp1999
sg70
g1907
sg63
(lp2000
g56
(g77
g58
NtRp2001
(dp2002
g61
(dp2003
g81
g82
ssg70
g1997
sg63
(lp2004
g950
asbag56
(g77
g58
NtRp2005
(dp2006
g61
(dp2007
g88
g89
ssg70
g1997
sg63
(lp2008
S':'
asbag56
(g77
g58
NtRp2009
(dp2010
g61
(dp2011
sg70
g1997
sg63
(lp2012
g56
(g57
g58
NtRp2013
(dp2014
g61
(dp2015
g69
I4
ssg70
g2009
sg63
(lp2016
S'set([])'
p2017
asbasbasbag56
(g72
g58
NtRp2018
(dp2019
g61
(dp2020
sg70
g1907
sg63
(lp2021
g56
(g77
g58
NtRp2022
(dp2023
g61
(dp2024
g81
g82
ssg70
g2018
sg63
(lp2025
g972
asbag56
(g77
g58
NtRp2026
(dp2027
g61
(dp2028
g88
g89
ssg70
g2018
sg63
(lp2029
S':'
asbag56
(g77
g58
NtRp2030
(dp2031
g61
(dp2032
sg70
g2018
sg63
(lp2033
g56
(g57
g58
NtRp2034
(dp2035
g61
(dp2036
g69
I4
ssg70
g2030
sg63
(lp2037
g99
asbasbasbag56
(g72
g58
NtRp2038
(dp2039
g61
(dp2040
sg70
g1907
sg63
(lp2041
g56
(g77
g58
NtRp2042
(dp2043
g61
(dp2044
g81
g82
ssg70
g2038
sg63
(lp2045
g993
asbag56
(g77
g58
NtRp2046
(dp2047
g61
(dp2048
g88
g89
ssg70
g2038
sg63
(lp2049
S':'
asbag56
(g77
g58
NtRp2050
(dp2051
g61
(dp2052
sg70
g2038
sg63
(lp2053
g56
(g57
g58
NtRp2054
(dp2055
g61
(dp2056
g69
I4
ssg70
g2050
sg63
(lp2057
g1006
asbasbasbag56
(g72
g58
NtRp2058
(dp2059
g61
(dp2060
sg70
g1907
sg63
(lp2061
g56
(g77
g58
NtRp2062
(dp2063
g61
(dp2064
g81
g82
ssg70
g2058
sg63
(lp2065
g1191
asbag56
(g77
g58
NtRp2066
(dp2067
g61
(dp2068
g88
g89
ssg70
g2058
sg63
(lp2069
S':'
asbag56
(g77
g58
NtRp2070
(dp2071
g61
(dp2072
sg70
g2058
sg63
(lp2073
g56
(g57
g58
NtRp2074
(dp2075
g61
(dp2076
g69
I4
ssg70
g2070
sg63
(lp2077
g99
asbasbasbag56
(g72
g58
NtRp2078
(dp2079
g61
(dp2080
sg70
g1907
sg63
(lp2081
g56
(g77
g58
NtRp2082
(dp2083
g61
(dp2084
g81
g82
ssg70
g2078
sg63
(lp2085
g1450
asbag56
(g77
g58
NtRp2086
(dp2087
g61
(dp2088
g88
g89
ssg70
g2078
sg63
(lp2089
S':'
asbag56
(g77
g58
NtRp2090
(dp2091
g61
(dp2092
sg70
g2078
sg63
(lp2093
g56
(g57
g58
NtRp2094
(dp2095
g61
(dp2096
g69
I4
ssg70
g2090
sg63
(lp2097
g1463
asbasbasbag56
(g72
g58
NtRp2098
(dp2099
g61
(dp2100
sg70
g1907
sg63
(lp2101
g56
(g77
g58
NtRp2102
(dp2103
g61
(dp2104
g81
g82
ssg70
g2098
sg63
(lp2105
g1514
asbag56
(g77
g58
NtRp2106
(dp2107
g61
(dp2108
g88
g89
ssg70
g2098
sg63
(lp2109
S':'
asbag56
(g77
g58
NtRp2110
(dp2111
g61
(dp2112
sg70
g2098
sg63
(lp2113
g56
(g57
g58
NtRp2114
(dp2115
g61
(dp2116
g69
I4
ssg70
g2110
sg63
(lp2117
g56
(g65
g58
NtRp2118
(dp2119
g61
(dp2120
g69
I3
ssg70
Nsg63
(lp2121
g56
(g72
g58
NtRp2122
(dp2123
g61
(dp2124
sg70
g2118
sg63
(lp2125
g56
(g77
g58
NtRp2126
(dp2127
g61
(dp2128
sg70
g2122
sg63
(lp2129
g56
(g57
g58
NtRp2130
(dp2131
g61
(dp2132
g69
I3
ssg70
g2126
sg63
(lp2133
S'1'
asbasbasbag56
(g72
g58
NtRp2134
(dp2135
g61
(dp2136
sg70
g2118
sg63
(lp2137
g56
(g77
g58
NtRp2138
(dp2139
g61
(dp2140
sg70
g2134
sg63
(lp2141
g56
(g57
g58
NtRp2142
(dp2143
g61
(dp2144
g69
I3
ssg70
g2138
sg63
(lp2145
S'99'
p2146
asbasbasbag56
(g72
g58
NtRp2147
(dp2148
g61
(dp2149
sg70
g2118
sg63
(lp2150
g56
(g77
g58
NtRp2151
(dp2152
g61
(dp2153
sg70
g2147
sg63
(lp2154
g56
(g57
g58
NtRp2155
(dp2156
g61
(dp2157
g69
I3
ssg70
g2151
sg63
(lp2158
S'2'
asbasbasbag56
(g72
g58
NtRp2159
(dp2160
g61
(dp2161
sg70
g2118
sg63
(lp2162
g56
(g77
g58
NtRp2163
(dp2164
g61
(dp2165
sg70
g2159
sg63
(lp2166
g56
(g57
g58
NtRp2167
(dp2168
g61
(dp2169
g69
I3
ssg70
g2163
sg63
(lp2170
S'datetime.datetime(2011, 9, 26, 6, 55, 33)'
p2171
asbasbasbag56
(g72
g58
NtRp2172
(dp2173
g61
(dp2174
sg70
g2118
sg63
(lp2175
g56
(g77
g58
NtRp2176
(dp2177
g61
(dp2178
sg70
g2172
sg63
(lp2179
g56
(g57
g58
NtRp2180
(dp2181
g61
(dp2182
g69
I3
ssg70
g2176
sg63
(lp2183
g1593
asbasbasbasbasbasbasbasbasbasbasbag56
(g72
g58
NtRp2184
(dp2185
g61
(dp2186
sg70
g66
sg63
(lp2187
g56
(g77
g58
NtRp2188
(dp2189
g61
(dp2190
g81
g82
ssg70
g2184
sg63
(lp2191
S'is_https'
p2192
asbag56
(g77
g58
NtRp2193
(dp2194
g61
(dp2195
g88
g89
ssg70
g2184
sg63
(lp2196
S':'
asbag56
(g77
g58
NtRp2197
(dp2198
g61
(dp2199
sg70
g2184
sg63
(lp2200
g56
(g57
g58
NtRp2201
(dp2202
g61
(dp2203
g69
I5
ssg70
g2197
sg63
(lp2204
g99
asbasbasbag56
(g72
g58
NtRp2205
(dp2206
g61
(dp2207
sg70
g66
sg63
(lp2208
g56
(g77
g58
NtRp2209
(dp2210
g61
(dp2211
g81
g82
ssg70
g2205
sg63
(lp2212
S'is_local'
p2213
asbag56
(g77
g58
NtRp2214
(dp2215
g61
(dp2216
g88
g89
ssg70
g2205
sg63
(lp2217
S':'
asbag56
(g77
g58
NtRp2218
(dp2219
g61
(dp2220
sg70
g2205
sg63
(lp2221
g56
(g57
g58
NtRp2222
(dp2223
g61
(dp2224
g69
I5
ssg70
g2218
sg63
(lp2225
g1702
asbasbasbag56
(g72
g58
NtRp2226
(dp2227
g61
(dp2228
sg70
g66
sg63
(lp2229
g56
(g77
g58
NtRp2230
(dp2231
g61
(dp2232
g81
g82
ssg70
g2226
sg63
(lp2233
S'is_restful'
p2234
asbag56
(g77
g58
NtRp2235
(dp2236
g61
(dp2237
g88
g89
ssg70
g2226
sg63
(lp2238
S':'
asbag56
(g77
g58
NtRp2239
(dp2240
g61
(dp2241
sg70
g2226
sg63
(lp2242
g56
(g57
g58
NtRp2243
(dp2244
g61
(dp2245
g69
I5
ssg70
g2239
sg63
(lp2246
g99
asbasbasbag56
(g72
g58
NtRp2247
(dp2248
g61
(dp2249
sg70
g66
sg63
(lp2250
g56
(g77
g58
NtRp2251
(dp2252
g61
(dp2253
g81
g82
ssg70
g2247
sg63
(lp2254
S'now'
p2255
asbag56
(g77
g58
NtRp2256
(dp2257
g61
(dp2258
g88
g89
ssg70
g2247
sg63
(lp2259
S':'
asbag56
(g77
g58
NtRp2260
(dp2261
g61
(dp2262
sg70
g2247
sg63
(lp2263
g56
(g57
g58
NtRp2264
(dp2265
g61
(dp2266
g69
I5
ssg70
g2260
sg63
(lp2267
S'datetime.datetime(2011, 10, 26, 22, 34, 43, 860467)'
p2268
asbasbasbag56
(g72
g58
NtRp2269
(dp2270
g61
(dp2271
sg70
g66
sg63
(lp2272
g56
(g77
g58
NtRp2273
(dp2274
g61
(dp2275
g81
g82
ssg70
g2269
sg63
(lp2276
S'post_vars'
p2277
asbag56
(g77
g58
NtRp2278
(dp2279
g61
(dp2280
g88
g89
ssg70
g2269
sg63
(lp2281
S':'
asbag56
(g77
g58
NtRp2282
(dp2283
g61
(dp2284
sg70
g2269
sg63
(lp2285
g56
(g57
g58
NtRp2286
(dp2287
g61
(dp2288
g69
I5
ssg70
g2282
sg63
(lp2289
g56
(g65
g58
NtRp2290
(dp2291
g61
(dp2292
g69
I4
ssg70
Nsg63
(lp2293
sbasbasbasbag56
(g72
g58
NtRp2294
(dp2295
g61
(dp2296
sg70
g66
sg63
(lp2297
g56
(g77
g58
NtRp2298
(dp2299
g61
(dp2300
g81
g82
ssg70
g2294
sg63
(lp2301
S'raw_args'
p2302
asbag56
(g77
g58
NtRp2303
(dp2304
g61
(dp2305
g88
g89
ssg70
g2294
sg63
(lp2306
S':'
asbag56
(g77
g58
NtRp2307
(dp2308
g61
(dp2309
sg70
g2294
sg63
(lp2310
g56
(g57
g58
NtRp2311
(dp2312
g61
(dp2313
g69
I5
ssg70
g2307
sg63
(lp2314
S'run/ddl/'
p2315
asbasbasbag56
(g72
g58
NtRp2316
(dp2317
g61
(dp2318
sg70
g66
sg63
(lp2319
g56
(g77
g58
NtRp2320
(dp2321
g61
(dp2322
g81
g82
ssg70
g2316
sg63
(lp2323
S'url'
p2324
asbag56
(g77
g58
NtRp2325
(dp2326
g61
(dp2327
g88
g89
ssg70
g2316
sg63
(lp2328
S':'
asbag56
(g77
g58
NtRp2329
(dp2330
g61
(dp2331
sg70
g2316
sg63
(lp2332
g56
(g57
g58
NtRp2333
(dp2334
g61
(dp2335
g69
I5
ssg70
g2329
sg63
(lp2336
S'/ddlagoon/ddl/get/run/ddl'
p2337
asbasbasbag56
(g72
g58
NtRp2338
(dp2339
g61
(dp2340
sg70
g66
sg63
(lp2341
g56
(g77
g58
NtRp2342
(dp2343
g61
(dp2344
g81
g82
ssg70
g2338
sg63
(lp2345
S'utcnow'
p2346
asbag56
(g77
g58
NtRp2347
(dp2348
g61
(dp2349
g88
g89
ssg70
g2338
sg63
(lp2350
S':'
asbag56
(g77
g58
NtRp2351
(dp2352
g61
(dp2353
sg70
g2338
sg63
(lp2354
g56
(g57
g58
NtRp2355
(dp2356
g61
(dp2357
g69
I5
ssg70
g2351
sg63
(lp2358
S'datetime.datetime(2011, 10, 26, 21, 34, 43, 860485)'
p2359
asbasbasbag56
(g72
g58
NtRp2360
(dp2361
g61
(dp2362
sg70
g66
sg63
(lp2363
g56
(g77
g58
NtRp2364
(dp2365
g61
(dp2366
g81
g82
ssg70
g2360
sg63
(lp2367
S'uuid'
p2368
asbag56
(g77
g58
NtRp2369
(dp2370
g61
(dp2371
g88
g89
ssg70
g2360
sg63
(lp2372
S':'
asbag56
(g77
g58
NtRp2373
(dp2374
g61
(dp2375
sg70
g2360
sg63
(lp2376
g56
(g57
g58
NtRp2377
(dp2378
g61
(dp2379
g69
I5
ssg70
g2373
sg63
(lp2380
S'ddlagoon/127.0.0.1.2011-10-26.22-34-43.ebcb58b2-e783-4cd1-82e8-e424d49fdb8b'
p2381
asbasbasbag56
(g72
g58
NtRp2382
(dp2383
g61
(dp2384
sg70
g66
sg63
(lp2385
g56
(g77
g58
NtRp2386
(dp2387
g61
(dp2388
g81
g82
ssg70
g2382
sg63
(lp2389
S'vars'
p2390
asbag56
(g77
g58
NtRp2391
(dp2392
g61
(dp2393
g88
g89
ssg70
g2382
sg63
(lp2394
S':'
asbag56
(g77
g58
NtRp2395
(dp2396
g61
(dp2397
sg70
g2382
sg63
(lp2398
g56
(g57
g58
NtRp2399
(dp2400
g61
(dp2401
g69
I5
ssg70
g2395
sg63
(lp2402
g56
(g65
g58
NtRp2403
(dp2404
g61
(dp2405
g69
I4
ssg70
Nsg63
(lp2406
sbasbasbasbag56
(g72
g58
NtRp2407
(dp2408
g61
(dp2409
sg70
g66
sg63
(lp2410
g56
(g77
g58
NtRp2411
(dp2412
g61
(dp2413
g81
g82
ssg70
g2407
sg63
(lp2414
S'wsgi'
p2415
asbag56
(g77
g58
NtRp2416
(dp2417
g61
(dp2418
g88
g89
ssg70
g2407
sg63
(lp2419
S':'
asbag56
(g77
g58
NtRp2420
(dp2421
g61
(dp2422
sg70
g2407
sg63
(lp2423
g56
(g57
g58
NtRp2424
(dp2425
g61
(dp2426
g69
I5
ssg70
g2420
sg63
(lp2427
g56
(g65
g58
NtRp2428
(dp2429
g61
(dp2430
g69
I4
ssg70
Nsg63
(lp2431
g56
(g72
g58
NtRp2432
(dp2433
g61
(dp2434
sg70
g2428
sg63
(lp2435
g56
(g77
g58
NtRp2436
(dp2437
g61
(dp2438
g81
g82
ssg70
g2432
sg63
(lp2439
S'environ'
p2440
asbag56
(g77
g58
NtRp2441
(dp2442
g61
(dp2443
g88
g89
ssg70
g2432
sg63
(lp2444
S':'
asbag56
(g77
g58
NtRp2445
(dp2446
g61
(dp2447
sg70
g2432
sg63
(lp2448
g56
(g57
g58
NtRp2449
(dp2450
g61
(dp2451
g69
I4
ssg70
g2445
sg63
(lp2452
g56
(g65
g58
NtRp2453
(dp2454
g61
(dp2455
g69
I3
ssg70
Nsg63
(lp2456
g56
(g72
g58
NtRp2457
(dp2458
g61
(dp2459
sg70
g2453
sg63
(lp2460
g56
(g77
g58
NtRp2461
(dp2462
g61
(dp2463
g81
g82
ssg70
g2457
sg63
(lp2464
S'HTTP_ACCEPT'
p2465
asbag56
(g77
g58
NtRp2466
(dp2467
g61
(dp2468
g88
g89
ssg70
g2457
sg63
(lp2469
S':'
asbag56
(g77
g58
NtRp2470
(dp2471
g61
(dp2472
sg70
g2457
sg63
(lp2473
g56
(g57
g58
NtRp2474
(dp2475
g61
(dp2476
g69
I3
ssg70
g2470
sg63
(lp2477
g1028
asbasbasbag56
(g72
g58
NtRp2478
(dp2479
g61
(dp2480
sg70
g2453
sg63
(lp2481
g56
(g77
g58
NtRp2482
(dp2483
g61
(dp2484
g81
g82
ssg70
g2478
sg63
(lp2485
S'HTTP_ACCEPT_CHARSET'
p2486
asbag56
(g77
g58
NtRp2487
(dp2488
g61
(dp2489
g88
g89
ssg70
g2478
sg63
(lp2490
S':'
asbag56
(g77
g58
NtRp2491
(dp2492
g61
(dp2493
sg70
g2478
sg63
(lp2494
g56
(g57
g58
NtRp2495
(dp2496
g61
(dp2497
g69
I3
ssg70
g2491
sg63
(lp2498
g1050
asbasbasbag56
(g72
g58
NtRp2499
(dp2500
g61
(dp2501
sg70
g2453
sg63
(lp2502
g56
(g77
g58
NtRp2503
(dp2504
g61
(dp2505
g81
g82
ssg70
g2499
sg63
(lp2506
S'HTTP_ACCEPT_ENCODING'
p2507
asbag56
(g77
g58
NtRp2508
(dp2509
g61
(dp2510
g88
g89
ssg70
g2499
sg63
(lp2511
S':'
asbag56
(g77
g58
NtRp2512
(dp2513
g61
(dp2514
sg70
g2499
sg63
(lp2515
g56
(g57
g58
NtRp2516
(dp2517
g61
(dp2518
g69
I3
ssg70
g2512
sg63
(lp2519
g1072
asbasbasbag56
(g72
g58
NtRp2520
(dp2521
g61
(dp2522
sg70
g2453
sg63
(lp2523
g56
(g77
g58
NtRp2524
(dp2525
g61
(dp2526
g81
g82
ssg70
g2520
sg63
(lp2527
S'HTTP_ACCEPT_LANGUAGE'
p2528
asbag56
(g77
g58
NtRp2529
(dp2530
g61
(dp2531
g88
g89
ssg70
g2520
sg63
(lp2532
S':'
asbag56
(g77
g58
NtRp2533
(dp2534
g61
(dp2535
sg70
g2520
sg63
(lp2536
g56
(g57
g58
NtRp2537
(dp2538
g61
(dp2539
g69
I3
ssg70
g2533
sg63
(lp2540
g1094
asbasbasbag56
(g72
g58
NtRp2541
(dp2542
g61
(dp2543
sg70
g2453
sg63
(lp2544
g56
(g77
g58
NtRp2545
(dp2546
g61
(dp2547
g81
g82
ssg70
g2541
sg63
(lp2548
S'HTTP_CONNECTION'
p2549
asbag56
(g77
g58
NtRp2550
(dp2551
g61
(dp2552
g88
g89
ssg70
g2541
sg63
(lp2553
S':'
asbag56
(g77
g58
NtRp2554
(dp2555
g61
(dp2556
sg70
g2541
sg63
(lp2557
g56
(g57
g58
NtRp2558
(dp2559
g61
(dp2560
g69
I3
ssg70
g2554
sg63
(lp2561
g1116
asbasbasbag56
(g72
g58
NtRp2562
(dp2563
g61
(dp2564
sg70
g2453
sg63
(lp2565
g56
(g77
g58
NtRp2566
(dp2567
g61
(dp2568
g81
g82
ssg70
g2562
sg63
(lp2569
S'HTTP_COOKIE'
p2570
asbag56
(g77
g58
NtRp2571
(dp2572
g61
(dp2573
g88
g89
ssg70
g2562
sg63
(lp2574
S':'
asbag56
(g77
g58
NtRp2575
(dp2576
g61
(dp2577
sg70
g2562
sg63
(lp2578
g56
(g57
g58
NtRp2579
(dp2580
g61
(dp2581
g69
I3
ssg70
g2575
sg63
(lp2582
g1138
asbasbasbag56
(g72
g58
NtRp2583
(dp2584
g61
(dp2585
sg70
g2453
sg63
(lp2586
g56
(g77
g58
NtRp2587
(dp2588
g61
(dp2589
g81
g82
ssg70
g2583
sg63
(lp2590
S'HTTP_HOST'
p2591
asbag56
(g77
g58
NtRp2592
(dp2593
g61
(dp2594
g88
g89
ssg70
g2583
sg63
(lp2595
S':'
asbag56
(g77
g58
NtRp2596
(dp2597
g61
(dp2598
sg70
g2583
sg63
(lp2599
g56
(g57
g58
NtRp2600
(dp2601
g61
(dp2602
g69
I3
ssg70
g2596
sg63
(lp2603
g1160
asbasbasbag56
(g72
g58
NtRp2604
(dp2605
g61
(dp2606
sg70
g2453
sg63
(lp2607
g56
(g77
g58
NtRp2608
(dp2609
g61
(dp2610
g81
g82
ssg70
g2604
sg63
(lp2611
S'HTTP_USER_AGENT'
p2612
asbag56
(g77
g58
NtRp2613
(dp2614
g61
(dp2615
g88
g89
ssg70
g2604
sg63
(lp2616
S':'
asbag56
(g77
g58
NtRp2617
(dp2618
g61
(dp2619
sg70
g2604
sg63
(lp2620
g56
(g57
g58
NtRp2621
(dp2622
g61
(dp2623
g69
I3
ssg70
g2617
sg63
(lp2624
g1182
asbasbasbag56
(g72
g58
NtRp2625
(dp2626
g61
(dp2627
sg70
g2453
sg63
(lp2628
g56
(g77
g58
NtRp2629
(dp2630
g61
(dp2631
g81
g82
ssg70
g2625
sg63
(lp2632
S'PATH_INFO'
p2633
asbag56
(g77
g58
NtRp2634
(dp2635
g61
(dp2636
g88
g89
ssg70
g2625
sg63
(lp2637
S':'
asbag56
(g77
g58
NtRp2638
(dp2639
g61
(dp2640
sg70
g2625
sg63
(lp2641
g56
(g57
g58
NtRp2642
(dp2643
g61
(dp2644
g69
I3
ssg70
g2638
sg63
(lp2645
g1225
asbasbasbag56
(g72
g58
NtRp2646
(dp2647
g61
(dp2648
sg70
g2453
sg63
(lp2649
g56
(g77
g58
NtRp2650
(dp2651
g61
(dp2652
g81
g82
ssg70
g2646
sg63
(lp2653
S'QUERY_STRING'
p2654
asbag56
(g77
g58
NtRp2655
(dp2656
g61
(dp2657
g88
g89
ssg70
g2646
sg63
(lp2658
S':'
asbag56
(g77
g58
NtRp2659
(dp2660
g61
(dp2661
sg70
g2646
sg63
(lp2662
g56
(g57
g58
NtRp2663
(dp2664
g61
(dp2665
g69
I3
ssg70
g2659
sg63
(lp2666
S''
asbasbasbag56
(g72
g58
NtRp2667
(dp2668
g61
(dp2669
sg70
g2453
sg63
(lp2670
g56
(g77
g58
NtRp2671
(dp2672
g61
(dp2673
g81
g82
ssg70
g2667
sg63
(lp2674
S'REMOTE_ADDR'
p2675
asbag56
(g77
g58
NtRp2676
(dp2677
g61
(dp2678
g88
g89
ssg70
g2667
sg63
(lp2679
S':'
asbag56
(g77
g58
NtRp2680
(dp2681
g61
(dp2682
sg70
g2667
sg63
(lp2683
g56
(g57
g58
NtRp2684
(dp2685
g61
(dp2686
g69
I3
ssg70
g2680
sg63
(lp2687
g215
asbasbasbag56
(g72
g58
NtRp2688
(dp2689
g61
(dp2690
sg70
g2453
sg63
(lp2691
g56
(g77
g58
NtRp2692
(dp2693
g61
(dp2694
g81
g82
ssg70
g2688
sg63
(lp2695
S'REMOTE_PORT'
p2696
asbag56
(g77
g58
NtRp2697
(dp2698
g61
(dp2699
g88
g89
ssg70
g2688
sg63
(lp2700
S':'
asbag56
(g77
g58
NtRp2701
(dp2702
g61
(dp2703
sg70
g2688
sg63
(lp2704
g56
(g57
g58
NtRp2705
(dp2706
g61
(dp2707
g69
I3
ssg70
g2701
sg63
(lp2708
g1289
asbasbasbag56
(g72
g58
NtRp2709
(dp2710
g61
(dp2711
sg70
g2453
sg63
(lp2712
g56
(g77
g58
NtRp2713
(dp2714
g61
(dp2715
g81
g82
ssg70
g2709
sg63
(lp2716
S'REQUEST_METHOD'
p2717
asbag56
(g77
g58
NtRp2718
(dp2719
g61
(dp2720
g88
g89
ssg70
g2709
sg63
(lp2721
S':'
asbag56
(g77
g58
NtRp2722
(dp2723
g61
(dp2724
sg70
g2709
sg63
(lp2725
g56
(g57
g58
NtRp2726
(dp2727
g61
(dp2728
g69
I3
ssg70
g2722
sg63
(lp2729
g1311
asbasbasbag56
(g72
g58
NtRp2730
(dp2731
g61
(dp2732
sg70
g2453
sg63
(lp2733
g56
(g77
g58
NtRp2734
(dp2735
g61
(dp2736
g81
g82
ssg70
g2730
sg63
(lp2737
S'REQUEST_URI'
p2738
asbag56
(g77
g58
NtRp2739
(dp2740
g61
(dp2741
g88
g89
ssg70
g2730
sg63
(lp2742
S':'
asbag56
(g77
g58
NtRp2743
(dp2744
g61
(dp2745
sg70
g2730
sg63
(lp2746
g56
(g57
g58
NtRp2747
(dp2748
g61
(dp2749
g69
I3
ssg70
g2743
sg63
(lp2750
g1225
asbasbasbag56
(g72
g58
NtRp2751
(dp2752
g61
(dp2753
sg70
g2453
sg63
(lp2754
g56
(g77
g58
NtRp2755
(dp2756
g61
(dp2757
g81
g82
ssg70
g2751
sg63
(lp2758
S'SCRIPT_NAME'
p2759
asbag56
(g77
g58
NtRp2760
(dp2761
g61
(dp2762
g88
g89
ssg70
g2751
sg63
(lp2763
S':'
asbag56
(g77
g58
NtRp2764
(dp2765
g61
(dp2766
sg70
g2751
sg63
(lp2767
g56
(g57
g58
NtRp2768
(dp2769
g61
(dp2770
g69
I3
ssg70
g2764
sg63
(lp2771
S''
asbasbasbag56
(g72
g58
NtRp2772
(dp2773
g61
(dp2774
sg70
g2453
sg63
(lp2775
g56
(g77
g58
NtRp2776
(dp2777
g61
(dp2778
g81
g82
ssg70
g2772
sg63
(lp2779
S'SERVER_NAME'
p2780
asbag56
(g77
g58
NtRp2781
(dp2782
g61
(dp2783
g88
g89
ssg70
g2772
sg63
(lp2784
S':'
asbag56
(g77
g58
NtRp2785
(dp2786
g61
(dp2787
sg70
g2772
sg63
(lp2788
g56
(g57
g58
NtRp2789
(dp2790
g61
(dp2791
g69
I3
ssg70
g2785
sg63
(lp2792
g1375
asbasbasbag56
(g72
g58
NtRp2793
(dp2794
g61
(dp2795
sg70
g2453
sg63
(lp2796
g56
(g77
g58
NtRp2797
(dp2798
g61
(dp2799
g81
g82
ssg70
g2793
sg63
(lp2800
S'SERVER_PORT'
p2801
asbag56
(g77
g58
NtRp2802
(dp2803
g61
(dp2804
g88
g89
ssg70
g2793
sg63
(lp2805
S':'
asbag56
(g77
g58
NtRp2806
(dp2807
g61
(dp2808
sg70
g2793
sg63
(lp2809
g56
(g57
g58
NtRp2810
(dp2811
g61
(dp2812
g69
I3
ssg70
g2806
sg63
(lp2813
g1397
asbasbasbag56
(g72
g58
NtRp2814
(dp2815
g61
(dp2816
sg70
g2453
sg63
(lp2817
g56
(g77
g58
NtRp2818
(dp2819
g61
(dp2820
g81
g82
ssg70
g2814
sg63
(lp2821
S'SERVER_PROTOCOL'
p2822
asbag56
(g77
g58
NtRp2823
(dp2824
g61
(dp2825
g88
g89
ssg70
g2814
sg63
(lp2826
S':'
asbag56
(g77
g58
NtRp2827
(dp2828
g61
(dp2829
sg70
g2814
sg63
(lp2830
g56
(g57
g58
NtRp2831
(dp2832
g61
(dp2833
g69
I3
ssg70
g2827
sg63
(lp2834
g1419
asbasbasbag56
(g72
g58
NtRp2835
(dp2836
g61
(dp2837
sg70
g2453
sg63
(lp2838
g56
(g77
g58
NtRp2839
(dp2840
g61
(dp2841
g81
g82
ssg70
g2835
sg63
(lp2842
S'SERVER_SOFTWARE'
p2843
asbag56
(g77
g58
NtRp2844
(dp2845
g61
(dp2846
g88
g89
ssg70
g2835
sg63
(lp2847
S':'
asbag56
(g77
g58
NtRp2848
(dp2849
g61
(dp2850
sg70
g2835
sg63
(lp2851
g56
(g57
g58
NtRp2852
(dp2853
g61
(dp2854
g69
I3
ssg70
g2848
sg63
(lp2855
g1441
asbasbasbag56
(g72
g58
NtRp2856
(dp2857
g61
(dp2858
sg70
g2453
sg63
(lp2859
g56
(g77
g58
NtRp2860
(dp2861
g61
(dp2862
g81
g82
ssg70
g2856
sg63
(lp2863
S'WEB2PY_ORIGINAL_URI'
p2864
asbag56
(g77
g58
NtRp2865
(dp2866
g61
(dp2867
g88
g89
ssg70
g2856
sg63
(lp2868
S':'
asbag56
(g77
g58
NtRp2869
(dp2870
g61
(dp2871
sg70
g2856
sg63
(lp2872
g56
(g57
g58
NtRp2873
(dp2874
g61
(dp2875
g69
I3
ssg70
g2869
sg63
(lp2876
g1225
asbasbasbag56
(g72
g58
NtRp2877
(dp2878
g61
(dp2879
sg70
g2453
sg63
(lp2880
g56
(g77
g58
NtRp2881
(dp2882
g61
(dp2883
g81
g82
ssg70
g2877
sg63
(lp2884
S'wsgi.errors'
p2885
asbag56
(g77
g58
NtRp2886
(dp2887
g61
(dp2888
g88
g89
ssg70
g2877
sg63
(lp2889
S':'
asbag56
(g77
g58
NtRp2890
(dp2891
g61
(dp2892
sg70
g2877
sg63
(lp2893
g56
(g57
g58
NtRp2894
(dp2895
g61
(dp2896
g69
I3
ssg70
g2890
sg63
(lp2897
S"<open file '<stderr>', mode 'w' at 0x7f80c77741e0>"
p2898
asbasbasbag56
(g72
g58
NtRp2899
(dp2900
g61
(dp2901
sg70
g2453
sg63
(lp2902
g56
(g77
g58
NtRp2903
(dp2904
g61
(dp2905
g81
g82
ssg70
g2899
sg63
(lp2906
S'wsgi.file_wrapper'
p2907
asbag56
(g77
g58
NtRp2908
(dp2909
g61
(dp2910
g88
g89
ssg70
g2899
sg63
(lp2911
S':'
asbag56
(g77
g58
NtRp2912
(dp2913
g61
(dp2914
sg70
g2899
sg63
(lp2915
g56
(g57
g58
NtRp2916
(dp2917
g61
(dp2918
g69
I3
ssg70
g2912
sg63
(lp2919
S'<class wsgiref.util.FileWrapper at 0x2789590>'
p2920
asbasbasbag56
(g72
g58
NtRp2921
(dp2922
g61
(dp2923
sg70
g2453
sg63
(lp2924
g56
(g77
g58
NtRp2925
(dp2926
g61
(dp2927
g81
g82
ssg70
g2921
sg63
(lp2928
S'wsgi.input'
p2929
asbag56
(g77
g58
NtRp2930
(dp2931
g61
(dp2932
g88
g89
ssg70
g2921
sg63
(lp2933
S':'
asbag56
(g77
g58
NtRp2934
(dp2935
g61
(dp2936
sg70
g2921
sg63
(lp2937
g56
(g57
g58
NtRp2938
(dp2939
g61
(dp2940
g69
I3
ssg70
g2934
sg63
(lp2941
S'<cStringIO.StringO object at 0x7f80bc231148>'
p2942
asbasbasbag56
(g72
g58
NtRp2943
(dp2944
g61
(dp2945
sg70
g2453
sg63
(lp2946
g56
(g77
g58
NtRp2947
(dp2948
g61
(dp2949
g81
g82
ssg70
g2943
sg63
(lp2950
S'wsgi.multiprocess'
p2951
asbag56
(g77
g58
NtRp2952
(dp2953
g61
(dp2954
g88
g89
ssg70
g2943
sg63
(lp2955
S':'
asbag56
(g77
g58
NtRp2956
(dp2957
g61
(dp2958
sg70
g2943
sg63
(lp2959
g56
(g57
g58
NtRp2960
(dp2961
g61
(dp2962
g69
I3
ssg70
g2956
sg63
(lp2963
g99
asbasbasbag56
(g72
g58
NtRp2964
(dp2965
g61
(dp2966
sg70
g2453
sg63
(lp2967
g56
(g77
g58
NtRp2968
(dp2969
g61
(dp2970
g81
g82
ssg70
g2964
sg63
(lp2971
S'wsgi.multithread'
p2972
asbag56
(g77
g58
NtRp2973
(dp2974
g61
(dp2975
g88
g89
ssg70
g2964
sg63
(lp2976
S':'
asbag56
(g77
g58
NtRp2977
(dp2978
g61
(dp2979
sg70
g2964
sg63
(lp2980
g56
(g57
g58
NtRp2981
(dp2982
g61
(dp2983
g69
I3
ssg70
g2977
sg63
(lp2984
g1702
asbasbasbag56
(g72
g58
NtRp2985
(dp2986
g61
(dp2987
sg70
g2453
sg63
(lp2988
g56
(g77
g58
NtRp2989
(dp2990
g61
(dp2991
g81
g82
ssg70
g2985
sg63
(lp2992
S'wsgi.run_once'
p2993
asbag56
(g77
g58
NtRp2994
(dp2995
g61
(dp2996
g88
g89
ssg70
g2985
sg63
(lp2997
S':'
asbag56
(g77
g58
NtRp2998
(dp2999
g61
(dp3000
sg70
g2985
sg63
(lp3001
g56
(g57
g58
NtRp3002
(dp3003
g61
(dp3004
g69
I3
ssg70
g2998
sg63
(lp3005
g99
asbasbasbag56
(g72
g58
NtRp3006
(dp3007
g61
(dp3008
sg70
g2453
sg63
(lp3009
g56
(g77
g58
NtRp3010
(dp3011
g61
(dp3012
g81
g82
ssg70
g3006
sg63
(lp3013
S'wsgi.url_scheme'
p3014
asbag56
(g77
g58
NtRp3015
(dp3016
g61
(dp3017
g88
g89
ssg70
g3006
sg63
(lp3018
S':'
asbag56
(g77
g58
NtRp3019
(dp3020
g61
(dp3021
sg70
g3006
sg63
(lp3022
g56
(g57
g58
NtRp3023
(dp3024
g61
(dp3025
g69
I3
ssg70
g3019
sg63
(lp3026
g1745
asbasbasbag56
(g72
g58
NtRp3027
(dp3028
g61
(dp3029
sg70
g2453
sg63
(lp3030
g56
(g77
g58
NtRp3031
(dp3032
g61
(dp3033
g81
g82
ssg70
g3027
sg63
(lp3034
S'wsgi.version'
p3035
asbag56
(g77
g58
NtRp3036
(dp3037
g61
(dp3038
g88
g89
ssg70
g3027
sg63
(lp3039
S':'
asbag56
(g77
g58
NtRp3040
(dp3041
g61
(dp3042
sg70
g3027
sg63
(lp3043
g56
(g57
g58
NtRp3044
(dp3045
g61
(dp3046
g69
I3
ssg70
g3040
sg63
(lp3047
S'1'
asbasbasbasbasbasbasbasbasbasbasbasbasbsS'frames'
p3048
(lp3049
(dp3050
S'file'
p3051
S'/windows/Users/Thomas/Dropbox/appz/2011/GAE/ddl-lagoon/gluon/restricted.py'
p3052
sS'dump'
p3053
(dp3054
S'environment'
p3055
S"{'A': <class 'gluon.html.A'>, 'Auth': <class 'gluon.tools.Auth'>, 'B': <class 'gluon.html.B'>, 'BEAUTIFY': <class 'gluon.html.BEAUTIFY'>, 'BODY': <class 'gluon.html.BODY'>, 'BR': <class 'gluon.html.BR'>, 'BUTTON': <class 'gluon.html.BUTTON'>, 'CAT': <class 'gluon.html.CAT'>, 'CENTER': <class 'gluon.html.CENTER'>, 'CLEANUP': <class 'gluon.validators.CLEANUP'>, ...}"
p3056
sS'ccode'
p3057
S'<code object <module> at 0x36d63f0, file "/windo...pplications/ddlagoon/controllers/ddl.py", line 1>'
p3058
ssS'lnum'
p3059
I194
sS'lines'
p3060
(dp3061
I192
S'        else:'
p3062
sI193
S'            ccode = compile2(code,layer)'
p3063
sI194
S'        exec ccode in environment'
p3064
sI195
S'    except HTTP:'
p3065
sI196
S'        raise'
p3066
sI197
S'    except Exception, error:'
p3067
sI198
S'        # XXX Show exception in Wing IDE if running in debugger'
p3068
sI189
S'    try:'
p3069
sI190
S'        if type(code) == types.CodeType:'
p3070
sI191
S'            ccode = code'
p3071
ssS'call'
p3072
S'(code="__author__ = \'thomas\'\\n\\ndef get():\\n    return ser...id+filename\\nresponse._vars=response._caller(get)\\n", environment={\'A\': <class \'gluon.html.A\'>, \'Auth\': <class \'gluon.tools.Auth\'>, \'B\': <class \'gluon.html.B\'>, \'BEAUTIFY\': <class \'gluon.html.BEAUTIFY\'>, \'BODY\': <class \'gluon.html.BODY\'>, \'BR\': <class \'gluon.html.BR\'>, \'BUTTON\': <class \'gluon.html.BUTTON\'>, \'CAT\': <class \'gluon.html.CAT\'>, \'CENTER\': <class \'gluon.html.CENTER\'>, \'CLEANUP\': <class \'gluon.validators.CLEANUP\'>, ...}, layer=\'/windows/Users/Thomas/Dropbox/appz/2011/GAE/ddl-lagoon/applications/ddlagoon/controllers/ddl.py\')'
p3073
sS'func'
p3074
S'restricted'
p3075
sa(dp3076
g3051
S'/windows/Users/Thomas/Dropbox/appz/2011/GAE/ddl-lagoon/applications/ddlagoon/controllers/ddl.py'
p3077
sg3053
(dp3078
sg3059
I9
sg3060
(dp3079
I1
S"__author__ = 'thomas'"
p3080
sI2
S''
sI3
S'def get():'
p3081
sI4
S'    return service()'
p3082
sI5
S''
sI6
S'@service.xml'
p3083
sI7
S'def ddl(id, filename):'
p3084
sI8
S'    return id+filename'
p3085
ssg3072
S'()'
p3086
sg3074
S'<module>'
p3087
sa(dp3088
g3051
S'/windows/Users/Thomas/Dropbox/appz/2011/GAE/ddl-lagoon/gluon/globals.py'
p3089
sg3053
(dp3090
S'self'
p3091
S'undefined'
p3092
sS'f'
S'<function get>'
p3093
ssg3059
I149
sg3060
(dp3094
I144
S'        self.meta = Storage()      # used by web2py_ajax.html'
p3095
sI145
S'        self.menu = []             # used by the default view layout'
p3096
sI146
S'        self.files = []            # used by web2py_ajax.html'
p3097
sI147
S'        self.generic_patterns = [] # patterns to allow generic views'
p3098
sI148
S'        self._vars = None'
p3099
sI149
S'        self._caller = lambda f: f()'
p3100
sI150
S'        self._view_environment = None'
p3101
sI151
S'        self._custom_commit = None'
p3102
sI152
S'        self._custom_rollback = None'
p3103
sI153
S''
ssg3072
S'(f=<function get>)'
p3104
sg3074
S'<lambda>'
p3105
sa(dp3106
g3051
S'/windows/Users/Thomas/Dropbox/appz/2011/GAE/ddl-lagoon/applications/ddlagoon/controllers/ddl.py'
p3107
sg3053
(dp3108
S'global service'
p3109
S'<gluon.tools.Service object>'
p3110
ssg3059
I4
sg3060
(dp3111
I1
S"__author__ = 'thomas'"
p3112
sI2
S''
sI3
S'def get():'
p3113
sI4
S'    return service()'
p3114
sI5
S''
sI6
S'@service.xml'
p3115
sI7
S'def ddl(id, filename):'
p3116
sI8
S'    return id+filename'
p3117
ssg3072
S'()'
p3118
sg3074
S'get'
p3119
sa(dp3120
g3051
S'/windows/Users/Thomas/Dropbox/appz/2011/GAE/ddl-lagoon/gluon/tools.py'
p3121
sg3053
(dp3122
S'request.args'
p3123
S"['run', 'ddl']"
p3124
sS'self.serve_run'
p3125
S'<bound method Service.serve_run of <gluon.tools.Service object>>'
p3126
sS'self'
p3127
S'<gluon.tools.Service object>'
p3128
sS'request'
p3129
S"<Storage {'body': <cStringIO.StringO object at 0..._vars': <Storage {}>, 'post_vars': <Storage {}>}>"
p3130
ssg3059
I3834
sg3060
(dp3131
I3829
S'        request = current.request'
p3132
sI3830
S'        if len(request.args) < 1:'
p3133
sI3831
S'            raise HTTP(404, "Not Found")'
p3134
sI3832
S'        arg0 = request.args(0)'
p3135
sI3833
S"        if arg0 == 'run':"
p3136
sI3834
S'            return self.serve_run(request.args[1:])'
p3137
sI3835
S"        elif arg0 == 'rss':"
p3138
sI3836
S'            return self.serve_rss(request.args[1:])'
p3139
sI3837
S"        elif arg0 == 'csv':"
p3140
sI3838
S'            return self.serve_csv(request.args[1:])'
p3141
ssg3072
S'(self=<gluon.tools.Service object>)'
p3142
sg3074
S'__call__'
p3143
sa(dp3144
g3051
S'/windows/Users/Thomas/Dropbox/appz/2011/GAE/ddl-lagoon/gluon/tools.py'
p3145
sg3053
(dp3146
S'request.vars'
p3147
S'<Storage {}>'
p3148
sS'args'
p3149
S"['ddl']"
p3150
sS'request'
p3151
S"<Storage {'body': <cStringIO.StringO object at 0..._vars': <Storage {}>, 'post_vars': <Storage {}>}>"
p3152
sS'builtindict'
p3153
S"<type 'dict'>"
p3154
ssg3059
I3585
sg3060
(dp3155
I3584
S'            return str(universal_caller(self.run_procedures[args[0]],'
p3156
sI3585
S'                                        *args[1:], **dict(request.vars)))'
p3157
sI3586
S'        self.error()'
p3158
sI3587
S''
sI3588
S'    def serve_csv(self, args=None):'
p3159
sI3589
S'        request = current.request'
p3160
sI3580
S'        request = current.request'
p3161
sI3581
S'        if not args:'
p3162
sI3582
S'            args = request.args'
p3163
sI3583
S'        if args and args[0] in self.run_procedures:'
p3164
ssg3072
S"(self=<gluon.tools.Service object>, args=['ddl'])"
p3165
sg3074
S'serve_run'
p3166
sa(dp3167
g3051
S'/windows/Users/Thomas/Dropbox/appz/2011/GAE/ddl-lagoon/gluon/tools.py'
p3168
sg3053
(dp3169
S'arg_dict'
p3170
g44
sS'f'
S'<function ddl>'
p3171
ssg3059
I3351
sg3060
(dp3172
I3346
S'        # However, we need to update the arg_dict with the values from the named arguments as well.'
p3173
sI3347
S'        for arg_name in named_args:'
p3174
sI3348
S'            if b.has_key(arg_name):'
p3175
sI3349
S'                arg_dict[arg_name] = b[arg_name]'
p3176
sI3350
S''
sI3351
S'        return f(**arg_dict)'
p3177
sI3352
S''
sI3353
S'    # Raise an error, the function cannot be called.'
p3178
sI3354
S'    raise HTTP(404, "Object does not exist")'
p3179
sI3355
S''
ssg3072
S'(f=<function ddl>, *a=(), **b={})'
p3180
sg3074
S'universal_caller'
p3181
sasS'pyver'
p3182
S'Python 2.6.7: /usr/bin/python2.6'
p3183
sS'session'
p3184
g56
(g57
g58
NtRp3185
(dp3186
g61
(dp3187
sg63
(lp3188
g56
(g65
g58
NtRp3189
(dp3190
g61
(dp3191
g69
I5
ssg70
Nsg63
(lp3192
sbasbsS'etype'
p3193
S"<type 'exceptions.TypeError'>"
p3194
sS'date'
p3195
S'Wed Oct 26 22:34:43 2011'
p3196
sS'response'
p3197
g56
(g57
g58
NtRp3198
(dp3199
g61
(dp3200
sg63
(lp3201
g56
(g65
g58
NtRp3202
(dp3203
g61
(dp3204
g69
I5
ssg70
Nsg63
(lp3205
g56
(g72
g58
NtRp3206
(dp3207
g61
(dp3208
sg70
g3202
sg63
(lp3209
g56
(g77
g58
NtRp3210
(dp3211
g61
(dp3212
g81
g82
ssg70
g3206
sg63
(lp3213
g180
asbag56
(g77
g58
NtRp3214
(dp3215
g61
(dp3216
g88
g89
ssg70
g3206
sg63
(lp3217
S':'
asbag56
(g77
g58
NtRp3218
(dp3219
g61
(dp3220
sg70
g3206
sg63
(lp3221
g56
(g57
g58
NtRp3222
(dp3223
g61
(dp3224
g69
I5
ssg70
g3218
sg63
(lp3225
S'<cStringIO.StringO object at 0x362ac38>'
p3226
asbasbasbag56
(g72
g58
NtRp3227
(dp3228
g61
(dp3229
sg70
g3202
sg63
(lp3230
g56
(g77
g58
NtRp3231
(dp3232
g61
(dp3233
g81
g82
ssg70
g3227
sg63
(lp3234
g246
asbag56
(g77
g58
NtRp3235
(dp3236
g61
(dp3237
g88
g89
ssg70
g3227
sg63
(lp3238
S':'
asbag56
(g77
g58
NtRp3239
(dp3240
g61
(dp3241
sg70
g3227
sg63
(lp3242
g56
(g57
g58
NtRp3243
(dp3244
g61
(dp3245
g69
I5
ssg70
g3239
sg63
(lp3246
g56
(g65
g58
NtRp3247
(dp3248
g61
(dp3249
g69
I4
ssg70
Nsg63
(lp3250
g56
(g72
g58
NtRp3251
(dp3252
g61
(dp3253
sg70
g3247
sg63
(lp3254
g56
(g77
g58
NtRp3255
(dp3256
g61
(dp3257
g81
g82
ssg70
g3251
sg63
(lp3258
S'session_id_ddlagoon'
p3259
asbag56
(g77
g58
NtRp3260
(dp3261
g61
(dp3262
g88
g89
ssg70
g3251
sg63
(lp3263
S':'
asbag56
(g77
g58
NtRp3264
(dp3265
g61
(dp3266
sg70
g3251
sg63
(lp3267
g56
(g57
g58
NtRp3268
(dp3269
g61
(dp3270
g69
I4
ssg70
g3264
sg63
(lp3271
g56
(g65
g58
NtRp3272
(dp3273
g61
(dp3274
g69
I3
ssg70
Nsg63
(lp3275
g56
(g72
g58
NtRp3276
(dp3277
g61
(dp3278
sg70
g3272
sg63
(lp3279
g56
(g77
g58
NtRp3280
(dp3281
g61
(dp3282
g81
g82
ssg70
g3276
sg63
(lp3283
g296
asbag56
(g77
g58
NtRp3284
(dp3285
g61
(dp3286
g88
g89
ssg70
g3276
sg63
(lp3287
S':'
asbag56
(g77
g58
NtRp3288
(dp3289
g61
(dp3290
sg70
g3276
sg63
(lp3291
g56
(g57
g58
NtRp3292
(dp3293
g61
(dp3294
g69
I3
ssg70
g3288
sg63
(lp3295
S''
asbasbasbag56
(g72
g58
NtRp3296
(dp3297
g61
(dp3298
sg70
g3272
sg63
(lp3299
g56
(g77
g58
NtRp3300
(dp3301
g61
(dp3302
g81
g82
ssg70
g3296
sg63
(lp3303
g317
asbag56
(g77
g58
NtRp3304
(dp3305
g61
(dp3306
g88
g89
ssg70
g3296
sg63
(lp3307
S':'
asbag56
(g77
g58
NtRp3308
(dp3309
g61
(dp3310
sg70
g3296
sg63
(lp3311
g56
(g57
g58
NtRp3312
(dp3313
g61
(dp3314
g69
I3
ssg70
g3308
sg63
(lp3315
S''
asbasbasbag56
(g72
g58
NtRp3316
(dp3317
g61
(dp3318
sg70
g3272
sg63
(lp3319
g56
(g77
g58
NtRp3320
(dp3321
g61
(dp3322
g81
g82
ssg70
g3316
sg63
(lp3323
g338
asbag56
(g77
g58
NtRp3324
(dp3325
g61
(dp3326
g88
g89
ssg70
g3316
sg63
(lp3327
S':'
asbag56
(g77
g58
NtRp3328
(dp3329
g61
(dp3330
sg70
g3316
sg63
(lp3331
g56
(g57
g58
NtRp3332
(dp3333
g61
(dp3334
g69
I3
ssg70
g3328
sg63
(lp3335
S''
asbasbasbag56
(g72
g58
NtRp3336
(dp3337
g61
(dp3338
sg70
g3272
sg63
(lp3339
g56
(g77
g58
NtRp3340
(dp3341
g61
(dp3342
g81
g82
ssg70
g3336
sg63
(lp3343
g359
asbag56
(g77
g58
NtRp3344
(dp3345
g61
(dp3346
g88
g89
ssg70
g3336
sg63
(lp3347
S':'
asbag56
(g77
g58
NtRp3348
(dp3349
g61
(dp3350
sg70
g3336
sg63
(lp3351
g56
(g57
g58
NtRp3352
(dp3353
g61
(dp3354
g69
I3
ssg70
g3348
sg63
(lp3355
S''
asbasbasbag56
(g72
g58
NtRp3356
(dp3357
g61
(dp3358
sg70
g3272
sg63
(lp3359
g56
(g77
g58
NtRp3360
(dp3361
g61
(dp3362
g81
g82
ssg70
g3356
sg63
(lp3363
g380
asbag56
(g77
g58
NtRp3364
(dp3365
g61
(dp3366
g88
g89
ssg70
g3356
sg63
(lp3367
S':'
asbag56
(g77
g58
NtRp3368
(dp3369
g61
(dp3370
sg70
g3356
sg63
(lp3371
g56
(g57
g58
NtRp3372
(dp3373
g61
(dp3374
g69
I3
ssg70
g3368
sg63
(lp3375
S''
asbasbasbag56
(g72
g58
NtRp3376
(dp3377
g61
(dp3378
sg70
g3272
sg63
(lp3379
g56
(g77
g58
NtRp3380
(dp3381
g61
(dp3382
g81
g82
ssg70
g3376
sg63
(lp3383
g401
asbag56
(g77
g58
NtRp3384
(dp3385
g61
(dp3386
g88
g89
ssg70
g3376
sg63
(lp3387
S':'
asbag56
(g77
g58
NtRp3388
(dp3389
g61
(dp3390
sg70
g3376
sg63
(lp3391
g56
(g57
g58
NtRp3392
(dp3393
g61
(dp3394
g69
I3
ssg70
g3388
sg63
(lp3395
S'/'
asbasbasbag56
(g72
g58
NtRp3396
(dp3397
g61
(dp3398
sg70
g3272
sg63
(lp3399
g56
(g77
g58
NtRp3400
(dp3401
g61
(dp3402
g81
g82
ssg70
g3396
sg63
(lp3403
g422
asbag56
(g77
g58
NtRp3404
(dp3405
g61
(dp3406
g88
g89
ssg70
g3396
sg63
(lp3407
S':'
asbag56
(g77
g58
NtRp3408
(dp3409
g61
(dp3410
sg70
g3396
sg63
(lp3411
g56
(g57
g58
NtRp3412
(dp3413
g61
(dp3414
g69
I3
ssg70
g3408
sg63
(lp3415
S''
asbasbasbag56
(g72
g58
NtRp3416
(dp3417
g61
(dp3418
sg70
g3272
sg63
(lp3419
g56
(g77
g58
NtRp3420
(dp3421
g61
(dp3422
g81
g82
ssg70
g3416
sg63
(lp3423
g443
asbag56
(g77
g58
NtRp3424
(dp3425
g61
(dp3426
g88
g89
ssg70
g3416
sg63
(lp3427
S':'
asbag56
(g77
g58
NtRp3428
(dp3429
g61
(dp3430
sg70
g3416
sg63
(lp3431
g56
(g57
g58
NtRp3432
(dp3433
g61
(dp3434
g69
I3
ssg70
g3428
sg63
(lp3435
S''
asbasbasbasbasbasbasbasbasbasbasbag56
(g72
g58
NtRp3436
(dp3437
g61
(dp3438
sg70
g3202
sg63
(lp3439
g56
(g77
g58
NtRp3440
(dp3441
g61
(dp3442
g81
g82
ssg70
g3436
sg63
(lp3443
S'files'
p3444
asbag56
(g77
g58
NtRp3445
(dp3446
g61
(dp3447
g88
g89
ssg70
g3436
sg63
(lp3448
S':'
asbag56
(g77
g58
NtRp3449
(dp3450
g61
(dp3451
sg70
g3436
sg63
(lp3452
g56
(g57
g58
NtRp3453
(dp3454
g61
(dp3455
g69
I5
ssg70
g3449
sg63
(lp3456
g56
(g65
g58
NtRp3457
(dp3458
g61
(dp3459
g69
I4
ssg70
Nsg63
(lp3460
sbasbasbasbag56
(g72
g58
NtRp3461
(dp3462
g61
(dp3463
sg70
g3202
sg63
(lp3464
g56
(g77
g58
NtRp3465
(dp3466
g61
(dp3467
g81
g82
ssg70
g3461
sg63
(lp3468
S'flash'
p3469
asbag56
(g77
g58
NtRp3470
(dp3471
g61
(dp3472
g88
g89
ssg70
g3461
sg63
(lp3473
S':'
asbag56
(g77
g58
NtRp3474
(dp3475
g61
(dp3476
sg70
g3461
sg63
(lp3477
g56
(g57
g58
NtRp3478
(dp3479
g61
(dp3480
g69
I5
ssg70
g3474
sg63
(lp3481
S''
asbasbasbag56
(g72
g58
NtRp3482
(dp3483
g61
(dp3484
sg70
g3202
sg63
(lp3485
g56
(g77
g58
NtRp3486
(dp3487
g61
(dp3488
g81
g82
ssg70
g3482
sg63
(lp3489
S'generic_patterns'
p3490
asbag56
(g77
g58
NtRp3491
(dp3492
g61
(dp3493
g88
g89
ssg70
g3482
sg63
(lp3494
S':'
asbag56
(g77
g58
NtRp3495
(dp3496
g61
(dp3497
sg70
g3482
sg63
(lp3498
g56
(g57
g58
NtRp3499
(dp3500
g61
(dp3501
g69
I5
ssg70
g3495
sg63
(lp3502
g56
(g65
g58
NtRp3503
(dp3504
g61
(dp3505
g69
I4
ssg70
Nsg63
(lp3506
g56
(g72
g58
NtRp3507
(dp3508
g61
(dp3509
sg70
g3503
sg63
(lp3510
g56
(g77
g58
NtRp3511
(dp3512
g61
(dp3513
sg70
g3507
sg63
(lp3514
g56
(g57
g58
NtRp3515
(dp3516
g61
(dp3517
g69
I4
ssg70
g3511
sg63
(lp3518
S'*'
asbasbasbasbasbasbasbag56
(g72
g58
NtRp3519
(dp3520
g61
(dp3521
sg70
g3202
sg63
(lp3522
g56
(g77
g58
NtRp3523
(dp3524
g61
(dp3525
g81
g82
ssg70
g3519
sg63
(lp3526
S'headers'
p3527
asbag56
(g77
g58
NtRp3528
(dp3529
g61
(dp3530
g88
g89
ssg70
g3519
sg63
(lp3531
S':'
asbag56
(g77
g58
NtRp3532
(dp3533
g61
(dp3534
sg70
g3519
sg63
(lp3535
g56
(g57
g58
NtRp3536
(dp3537
g61
(dp3538
g69
I5
ssg70
g3532
sg63
(lp3539
g56
(g65
g58
NtRp3540
(dp3541
g61
(dp3542
g69
I4
ssg70
Nsg63
(lp3543
g56
(g72
g58
NtRp3544
(dp3545
g61
(dp3546
sg70
g3540
sg63
(lp3547
g56
(g77
g58
NtRp3548
(dp3549
g61
(dp3550
g81
g82
ssg70
g3544
sg63
(lp3551
S'Cache-Control'
p3552
asbag56
(g77
g58
NtRp3553
(dp3554
g61
(dp3555
g88
g89
ssg70
g3544
sg63
(lp3556
S':'
asbag56
(g77
g58
NtRp3557
(dp3558
g61
(dp3559
sg70
g3544
sg63
(lp3560
g56
(g57
g58
NtRp3561
(dp3562
g61
(dp3563
g69
I4
ssg70
g3557
sg63
(lp3564
S'no-store, no-cache, must-revalidate, post-check=0, pre-check=0'
p3565
asbasbasbag56
(g72
g58
NtRp3566
(dp3567
g61
(dp3568
sg70
g3540
sg63
(lp3569
g56
(g77
g58
NtRp3570
(dp3571
g61
(dp3572
g81
g82
ssg70
g3566
sg63
(lp3573
S'Content-Type'
p3574
asbag56
(g77
g58
NtRp3575
(dp3576
g61
(dp3577
g88
g89
ssg70
g3566
sg63
(lp3578
S':'
asbag56
(g77
g58
NtRp3579
(dp3580
g61
(dp3581
sg70
g3566
sg63
(lp3582
g56
(g57
g58
NtRp3583
(dp3584
g61
(dp3585
g69
I4
ssg70
g3579
sg63
(lp3586
S'text/html; charset=utf-8'
p3587
asbasbasbag56
(g72
g58
NtRp3588
(dp3589
g61
(dp3590
sg70
g3540
sg63
(lp3591
g56
(g77
g58
NtRp3592
(dp3593
g61
(dp3594
g81
g82
ssg70
g3588
sg63
(lp3595
S'Expires'
p3596
asbag56
(g77
g58
NtRp3597
(dp3598
g61
(dp3599
g88
g89
ssg70
g3588
sg63
(lp3600
S':'
asbag56
(g77
g58
NtRp3601
(dp3602
g61
(dp3603
sg70
g3588
sg63
(lp3604
g56
(g57
g58
NtRp3605
(dp3606
g61
(dp3607
g69
I4
ssg70
g3601
sg63
(lp3608
S'Wed, 26 Oct 2011 21:34:43 GMT'
p3609
asbasbasbag56
(g72
g58
NtRp3610
(dp3611
g61
(dp3612
sg70
g3540
sg63
(lp3613
g56
(g77
g58
NtRp3614
(dp3615
g61
(dp3616
g81
g82
ssg70
g3610
sg63
(lp3617
S'Pragma'
p3618
asbag56
(g77
g58
NtRp3619
(dp3620
g61
(dp3621
g88
g89
ssg70
g3610
sg63
(lp3622
S':'
asbag56
(g77
g58
NtRp3623
(dp3624
g61
(dp3625
sg70
g3610
sg63
(lp3626
g56
(g57
g58
NtRp3627
(dp3628
g61
(dp3629
g69
I4
ssg70
g3623
sg63
(lp3630
S'no-cache'
p3631
asbasbasbag56
(g72
g58
NtRp3632
(dp3633
g61
(dp3634
sg70
g3540
sg63
(lp3635
g56
(g77
g58
NtRp3636
(dp3637
g61
(dp3638
g81
g82
ssg70
g3632
sg63
(lp3639
S'X-Powered-By'
p3640
asbag56
(g77
g58
NtRp3641
(dp3642
g61
(dp3643
g88
g89
ssg70
g3632
sg63
(lp3644
S':'
asbag56
(g77
g58
NtRp3645
(dp3646
g61
(dp3647
sg70
g3632
sg63
(lp3648
g56
(g57
g58
NtRp3649
(dp3650
g61
(dp3651
g69
I4
ssg70
g3645
sg63
(lp3652
S'web2py'
p3653
asbasbasbasbasbasbasbag56
(g72
g58
NtRp3654
(dp3655
g61
(dp3656
sg70
g3202
sg63
(lp3657
g56
(g77
g58
NtRp3658
(dp3659
g61
(dp3660
g81
g82
ssg70
g3654
sg63
(lp3661
S'menu'
p3662
asbag56
(g77
g58
NtRp3663
(dp3664
g61
(dp3665
g88
g89
ssg70
g3654
sg63
(lp3666
S':'
asbag56
(g77
g58
NtRp3667
(dp3668
g61
(dp3669
sg70
g3654
sg63
(lp3670
g56
(g57
g58
NtRp3671
(dp3672
g61
(dp3673
g69
I5
ssg70
g3667
sg63
(lp3674
g56
(g65
g58
NtRp3675
(dp3676
g61
(dp3677
g69
I4
ssg70
Nsg63
(lp3678
g56
(g72
g58
NtRp3679
(dp3680
g61
(dp3681
sg70
g3675
sg63
(lp3682
g56
(g77
g58
NtRp3683
(dp3684
g61
(dp3685
sg70
g3679
sg63
(lp3686
g56
(g57
g58
NtRp3687
(dp3688
g61
(dp3689
g69
I4
ssg70
g3683
sg63
(lp3690
g56
(g65
g58
NtRp3691
(dp3692
g61
(dp3693
g69
I3
ssg70
Nsg63
(lp3694
g56
(g72
g58
NtRp3695
(dp3696
g61
(dp3697
sg70
g3691
sg63
(lp3698
g56
(g77
g58
NtRp3699
(dp3700
g61
(dp3701
sg70
g3695
sg63
(lp3702
g56
(g57
g58
NtRp3703
(dp3704
g61
(dp3705
g69
I3
ssg70
g3699
sg63
(lp3706
cgluon.languages
lazyT_unpickle
p3707
(S's\x04\x00\x00\x00Home'
tRp3708
asbasbasbag56
(g72
g58
NtRp3709
(dp3710
g61
(dp3711
sg70
g3691
sg63
(lp3712
g56
(g77
g58
NtRp3713
(dp3714
g61
(dp3715
sg70
g3709
sg63
(lp3716
g56
(g57
g58
NtRp3717
(dp3718
g61
(dp3719
g69
I3
ssg70
g3713
sg63
(lp3720
g99
asbasbasbag56
(g72
g58
NtRp3721
(dp3722
g61
(dp3723
sg70
g3691
sg63
(lp3724
g56
(g77
g58
NtRp3725
(dp3726
g61
(dp3727
sg70
g3721
sg63
(lp3728
g56
(g57
g58
NtRp3729
(dp3730
g61
(dp3731
g69
I3
ssg70
g3725
sg63
(lp3732
S'/ddlagoon/default/index'
p3733
asbasbasbag56
(g72
g58
NtRp3734
(dp3735
g61
(dp3736
sg70
g3691
sg63
(lp3737
g56
(g77
g58
NtRp3738
(dp3739
g61
(dp3740
sg70
g3734
sg63
(lp3741
g56
(g57
g58
NtRp3742
(dp3743
g61
(dp3744
g69
I3
ssg70
g3738
sg63
(lp3745
g56
(g65
g58
NtRp3746
(dp3747
g61
(dp3748
g69
I2
ssg70
Nsg63
(lp3749
sbasbasbasbasbasbasbasbag56
(g72
g58
NtRp3750
(dp3751
g61
(dp3752
sg70
g3675
sg63
(lp3753
g56
(g77
g58
NtRp3754
(dp3755
g61
(dp3756
sg70
g3750
sg63
(lp3757
g56
(g57
g58
NtRp3758
(dp3759
g61
(dp3760
g69
I4
ssg70
g3754
sg63
(lp3761
g56
(g65
g58
NtRp3762
(dp3763
g61
(dp3764
g69
I3
ssg70
Nsg63
(lp3765
g56
(g72
g58
NtRp3766
(dp3767
g61
(dp3768
sg70
g3762
sg63
(lp3769
g56
(g77
g58
NtRp3770
(dp3771
g61
(dp3772
sg70
g3766
sg63
(lp3773
g56
(g57
g58
NtRp3774
(dp3775
g61
(dp3776
g69
I3
ssg70
g3770
sg63
(lp3777
g3707
(S's\x08\x00\x00\x00This App'
tRp3778
asbasbasbag56
(g72
g58
NtRp3779
(dp3780
g61
(dp3781
sg70
g3762
sg63
(lp3782
g56
(g77
g58
NtRp3783
(dp3784
g61
(dp3785
sg70
g3779
sg63
(lp3786
g56
(g57
g58
NtRp3787
(dp3788
g61
(dp3789
g69
I3
ssg70
g3783
sg63
(lp3790
g99
asbasbasbag56
(g72
g58
NtRp3791
(dp3792
g61
(dp3793
sg70
g3762
sg63
(lp3794
g56
(g77
g58
NtRp3795
(dp3796
g61
(dp3797
sg70
g3791
sg63
(lp3798
g56
(g57
g58
NtRp3799
(dp3800
g61
(dp3801
g69
I3
ssg70
g3795
sg63
(lp3802
S'/admin/default/design/ddlagoon'
p3803
asbasbasbag56
(g72
g58
NtRp3804
(dp3805
g61
(dp3806
sg70
g3762
sg63
(lp3807
g56
(g77
g58
NtRp3808
(dp3809
g61
(dp3810
sg70
g3804
sg63
(lp3811
g56
(g57
g58
NtRp3812
(dp3813
g61
(dp3814
g69
I3
ssg70
g3808
sg63
(lp3815
g56
(g65
g58
NtRp3816
(dp3817
g61
(dp3818
g69
I2
ssg70
Nsg63
(lp3819
g56
(g72
g58
NtRp3820
(dp3821
g61
(dp3822
sg70
g3816
sg63
(lp3823
g56
(g77
g58
NtRp3824
(dp3825
g61
(dp3826
sg70
g3820
sg63
(lp3827
g56
(g57
g58
NtRp3828
(dp3829
g61
(dp3830
g69
I2
ssg70
g3824
sg63
(lp3831
g56
(g65
g58
NtRp3832
(dp3833
g61
(dp3834
g69
I1
ssg70
Nsg63
(lp3835
g56
(g72
g58
NtRp3836
(dp3837
g61
(dp3838
sg70
g3832
sg63
(lp3839
g56
(g77
g58
NtRp3840
(dp3841
g61
(dp3842
sg70
g3836
sg63
(lp3843
g56
(g57
g58
NtRp3844
(dp3845
g61
(dp3846
g69
I1
ssg70
g3840
sg63
(lp3847
g3707
(S's\n\x00\x00\x00Controller'
tRp3848
asbasbasbag56
(g72
g58
NtRp3849
(dp3850
g61
(dp3851
sg70
g3832
sg63
(lp3852
g56
(g77
g58
NtRp3853
(dp3854
g61
(dp3855
sg70
g3849
sg63
(lp3856
g56
(g57
g58
NtRp3857
(dp3858
g61
(dp3859
g69
I1
ssg70
g3853
sg63
(lp3860
I00
asbasbasbag56
(g72
g58
NtRp3861
(dp3862
g61
(dp3863
sg70
g3832
sg63
(lp3864
g56
(g77
g58
NtRp3865
(dp3866
g61
(dp3867
sg70
g3861
sg63
(lp3868
g56
(g57
g58
NtRp3869
(dp3870
g61
(dp3871
g69
I1
ssg70
g3865
sg63
(lp3872
S'/admin/default/edit/ddlagoon/controllers/ddl.py'
p3873
asbasbasbasbasbasbasbag56
(g72
g58
NtRp3874
(dp3875
g61
(dp3876
sg70
g3816
sg63
(lp3877
g56
(g77
g58
NtRp3878
(dp3879
g61
(dp3880
sg70
g3874
sg63
(lp3881
g56
(g57
g58
NtRp3882
(dp3883
g61
(dp3884
g69
I2
ssg70
g3878
sg63
(lp3885
g56
(g65
g58
NtRp3886
(dp3887
g61
(dp3888
g69
I1
ssg70
Nsg63
(lp3889
g56
(g72
g58
NtRp3890
(dp3891
g61
(dp3892
sg70
g3886
sg63
(lp3893
g56
(g77
g58
NtRp3894
(dp3895
g61
(dp3896
sg70
g3890
sg63
(lp3897
g56
(g57
g58
NtRp3898
(dp3899
g61
(dp3900
g69
I1
ssg70
g3894
sg63
(lp3901
g3707
(S's\x04\x00\x00\x00View'
tRp3902
asbasbasbag56
(g72
g58
NtRp3903
(dp3904
g61
(dp3905
sg70
g3886
sg63
(lp3906
g56
(g77
g58
NtRp3907
(dp3908
g61
(dp3909
sg70
g3903
sg63
(lp3910
g56
(g57
g58
NtRp3911
(dp3912
g61
(dp3913
g69
I1
ssg70
g3907
sg63
(lp3914
I00
asbasbasbag56
(g72
g58
NtRp3915
(dp3916
g61
(dp3917
sg70
g3886
sg63
(lp3918
g56
(g77
g58
NtRp3919
(dp3920
g61
(dp3921
sg70
g3915
sg63
(lp3922
g56
(g57
g58
NtRp3923
(dp3924
g61
(dp3925
g69
I1
ssg70
g3919
sg63
(lp3926
S'/admin/default/edit/ddlagoon/views/ddl/get.html'
p3927
asbasbasbasbasbasbasbag56
(g72
g58
NtRp3928
(dp3929
g61
(dp3930
sg70
g3816
sg63
(lp3931
g56
(g77
g58
NtRp3932
(dp3933
g61
(dp3934
sg70
g3928
sg63
(lp3935
g56
(g57
g58
NtRp3936
(dp3937
g61
(dp3938
g69
I2
ssg70
g3932
sg63
(lp3939
g56
(g65
g58
NtRp3940
(dp3941
g61
(dp3942
g69
I1
ssg70
Nsg63
(lp3943
g56
(g72
g58
NtRp3944
(dp3945
g61
(dp3946
sg70
g3940
sg63
(lp3947
g56
(g77
g58
NtRp3948
(dp3949
g61
(dp3950
sg70
g3944
sg63
(lp3951
g56
(g57
g58
NtRp3952
(dp3953
g61
(dp3954
g69
I1
ssg70
g3948
sg63
(lp3955
g3707
(S's\x06\x00\x00\x00Layout'
tRp3956
asbasbasbag56
(g72
g58
NtRp3957
(dp3958
g61
(dp3959
sg70
g3940
sg63
(lp3960
g56
(g77
g58
NtRp3961
(dp3962
g61
(dp3963
sg70
g3957
sg63
(lp3964
g56
(g57
g58
NtRp3965
(dp3966
g61
(dp3967
g69
I1
ssg70
g3961
sg63
(lp3968
I00
asbasbasbag56
(g72
g58
NtRp3969
(dp3970
g61
(dp3971
sg70
g3940
sg63
(lp3972
g56
(g77
g58
NtRp3973
(dp3974
g61
(dp3975
sg70
g3969
sg63
(lp3976
g56
(g57
g58
NtRp3977
(dp3978
g61
(dp3979
g69
I1
ssg70
g3973
sg63
(lp3980
S'/admin/default/edit/ddlagoon/views/layout.html'
p3981
asbasbasbasbasbasbasbag56
(g72
g58
NtRp3982
(dp3983
g61
(dp3984
sg70
g3816
sg63
(lp3985
g56
(g77
g58
NtRp3986
(dp3987
g61
(dp3988
sg70
g3982
sg63
(lp3989
g56
(g57
g58
NtRp3990
(dp3991
g61
(dp3992
g69
I2
ssg70
g3986
sg63
(lp3993
g56
(g65
g58
NtRp3994
(dp3995
g61
(dp3996
g69
I1
ssg70
Nsg63
(lp3997
g56
(g72
g58
NtRp3998
(dp3999
g61
(dp4000
sg70
g3994
sg63
(lp4001
g56
(g77
g58
NtRp4002
(dp4003
g61
(dp4004
sg70
g3998
sg63
(lp4005
g56
(g57
g58
NtRp4006
(dp4007
g61
(dp4008
g69
I1
ssg70
g4002
sg63
(lp4009
g3707
(S's\n\x00\x00\x00Stylesheet'
tRp4010
asbasbasbag56
(g72
g58
NtRp4011
(dp4012
g61
(dp4013
sg70
g3994
sg63
(lp4014
g56
(g77
g58
NtRp4015
(dp4016
g61
(dp4017
sg70
g4011
sg63
(lp4018
g56
(g57
g58
NtRp4019
(dp4020
g61
(dp4021
g69
I1
ssg70
g4015
sg63
(lp4022
I00
asbasbasbag56
(g72
g58
NtRp4023
(dp4024
g61
(dp4025
sg70
g3994
sg63
(lp4026
g56
(g77
g58
NtRp4027
(dp4028
g61
(dp4029
sg70
g4023
sg63
(lp4030
g56
(g57
g58
NtRp4031
(dp4032
g61
(dp4033
g69
I1
ssg70
g4027
sg63
(lp4034
S'/admin/default/edit/ddlagoon/static/base.css'
p4035
asbasbasbasbasbasbasbag56
(g72
g58
NtRp4036
(dp4037
g61
(dp4038
sg70
g3816
sg63
(lp4039
g56
(g77
g58
NtRp4040
(dp4041
g61
(dp4042
sg70
g4036
sg63
(lp4043
g56
(g57
g58
NtRp4044
(dp4045
g61
(dp4046
g69
I2
ssg70
g4040
sg63
(lp4047
g56
(g65
g58
NtRp4048
(dp4049
g61
(dp4050
g69
I1
ssg70
Nsg63
(lp4051
g56
(g72
g58
NtRp4052
(dp4053
g61
(dp4054
sg70
g4048
sg63
(lp4055
g56
(g77
g58
NtRp4056
(dp4057
g61
(dp4058
sg70
g4052
sg63
(lp4059
g56
(g57
g58
NtRp4060
(dp4061
g61
(dp4062
g69
I1
ssg70
g4056
sg63
(lp4063
g3707
(S's\x08\x00\x00\x00DB Model'
tRp4064
asbasbasbag56
(g72
g58
NtRp4065
(dp4066
g61
(dp4067
sg70
g4048
sg63
(lp4068
g56
(g77
g58
NtRp4069
(dp4070
g61
(dp4071
sg70
g4065
sg63
(lp4072
g56
(g57
g58
NtRp4073
(dp4074
g61
(dp4075
g69
I1
ssg70
g4069
sg63
(lp4076
I00
asbasbasbag56
(g72
g58
NtRp4077
(dp4078
g61
(dp4079
sg70
g4048
sg63
(lp4080
g56
(g77
g58
NtRp4081
(dp4082
g61
(dp4083
sg70
g4077
sg63
(lp4084
g56
(g57
g58
NtRp4085
(dp4086
g61
(dp4087
g69
I1
ssg70
g4081
sg63
(lp4088
S'/admin/default/edit/ddlagoon/models/db.py'
p4089
asbasbasbasbasbasbasbag56
(g72
g58
NtRp4090
(dp4091
g61
(dp4092
sg70
g3816
sg63
(lp4093
g56
(g77
g58
NtRp4094
(dp4095
g61
(dp4096
sg70
g4090
sg63
(lp4097
g56
(g57
g58
NtRp4098
(dp4099
g61
(dp4100
g69
I2
ssg70
g4094
sg63
(lp4101
g56
(g65
g58
NtRp4102
(dp4103
g61
(dp4104
g69
I1
ssg70
Nsg63
(lp4105
g56
(g72
g58
NtRp4106
(dp4107
g61
(dp4108
sg70
g4102
sg63
(lp4109
g56
(g77
g58
NtRp4110
(dp4111
g61
(dp4112
sg70
g4106
sg63
(lp4113
g56
(g57
g58
NtRp4114
(dp4115
g61
(dp4116
g69
I1
ssg70
g4110
sg63
(lp4117
g3707
(S's\n\x00\x00\x00Menu Model'
tRp4118
asbasbasbag56
(g72
g58
NtRp4119
(dp4120
g61
(dp4121
sg70
g4102
sg63
(lp4122
g56
(g77
g58
NtRp4123
(dp4124
g61
(dp4125
sg70
g4119
sg63
(lp4126
g56
(g57
g58
NtRp4127
(dp4128
g61
(dp4129
g69
I1
ssg70
g4123
sg63
(lp4130
I00
asbasbasbag56
(g72
g58
NtRp4131
(dp4132
g61
(dp4133
sg70
g4102
sg63
(lp4134
g56
(g77
g58
NtRp4135
(dp4136
g61
(dp4137
sg70
g4131
sg63
(lp4138
g56
(g57
g58
NtRp4139
(dp4140
g61
(dp4141
g69
I1
ssg70
g4135
sg63
(lp4142
S'/admin/default/edit/ddlagoon/models/menu.py'
p4143
asbasbasbasbasbasbasbag56
(g72
g58
NtRp4144
(dp4145
g61
(dp4146
sg70
g3816
sg63
(lp4147
g56
(g77
g58
NtRp4148
(dp4149
g61
(dp4150
sg70
g4144
sg63
(lp4151
g56
(g57
g58
NtRp4152
(dp4153
g61
(dp4154
g69
I2
ssg70
g4148
sg63
(lp4155
g56
(g65
g58
NtRp4156
(dp4157
g61
(dp4158
g69
I1
ssg70
Nsg63
(lp4159
g56
(g72
g58
NtRp4160
(dp4161
g61
(dp4162
sg70
g4156
sg63
(lp4163
g56
(g77
g58
NtRp4164
(dp4165
g61
(dp4166
sg70
g4160
sg63
(lp4167
g56
(g57
g58
NtRp4168
(dp4169
g61
(dp4170
g69
I1
ssg70
g4164
sg63
(lp4171
g3707
(S's\x08\x00\x00\x00Database'
tRp4172
asbasbasbag56
(g72
g58
NtRp4173
(dp4174
g61
(dp4175
sg70
g4156
sg63
(lp4176
g56
(g77
g58
NtRp4177
(dp4178
g61
(dp4179
sg70
g4173
sg63
(lp4180
g56
(g57
g58
NtRp4181
(dp4182
g61
(dp4183
g69
I1
ssg70
g4177
sg63
(lp4184
I00
asbasbasbag56
(g72
g58
NtRp4185
(dp4186
g61
(dp4187
sg70
g4156
sg63
(lp4188
g56
(g77
g58
NtRp4189
(dp4190
g61
(dp4191
sg70
g4185
sg63
(lp4192
g56
(g57
g58
NtRp4193
(dp4194
g61
(dp4195
g69
I1
ssg70
g4189
sg63
(lp4196
S'/ddlagoon/appadmin/index'
p4197
asbasbasbasbasbasbasbag56
(g72
g58
NtRp4198
(dp4199
g61
(dp4200
sg70
g3816
sg63
(lp4201
g56
(g77
g58
NtRp4202
(dp4203
g61
(dp4204
sg70
g4198
sg63
(lp4205
g56
(g57
g58
NtRp4206
(dp4207
g61
(dp4208
g69
I2
ssg70
g4202
sg63
(lp4209
g56
(g65
g58
NtRp4210
(dp4211
g61
(dp4212
g69
I1
ssg70
Nsg63
(lp4213
g56
(g72
g58
NtRp4214
(dp4215
g61
(dp4216
sg70
g4210
sg63
(lp4217
g56
(g77
g58
NtRp4218
(dp4219
g61
(dp4220
sg70
g4214
sg63
(lp4221
g56
(g57
g58
NtRp4222
(dp4223
g61
(dp4224
g69
I1
ssg70
g4218
sg63
(lp4225
g3707
(S's\x06\x00\x00\x00Errors'
tRp4226
asbasbasbag56
(g72
g58
NtRp4227
(dp4228
g61
(dp4229
sg70
g4210
sg63
(lp4230
g56
(g77
g58
NtRp4231
(dp4232
g61
(dp4233
sg70
g4227
sg63
(lp4234
g56
(g57
g58
NtRp4235
(dp4236
g61
(dp4237
g69
I1
ssg70
g4231
sg63
(lp4238
I00
asbasbasbag56
(g72
g58
NtRp4239
(dp4240
g61
(dp4241
sg70
g4210
sg63
(lp4242
g56
(g77
g58
NtRp4243
(dp4244
g61
(dp4245
sg70
g4239
sg63
(lp4246
g56
(g57
g58
NtRp4247
(dp4248
g61
(dp4249
g69
I1
ssg70
g4243
sg63
(lp4250
S'/admin/default/errors/ddlagoon'
p4251
asbasbasbasbasbasbasbag56
(g72
g58
NtRp4252
(dp4253
g61
(dp4254
sg70
g3816
sg63
(lp4255
g56
(g77
g58
NtRp4256
(dp4257
g61
(dp4258
sg70
g4252
sg63
(lp4259
g56
(g57
g58
NtRp4260
(dp4261
g61
(dp4262
g69
I2
ssg70
g4256
sg63
(lp4263
g56
(g65
g58
NtRp4264
(dp4265
g61
(dp4266
g69
I1
ssg70
Nsg63
(lp4267
g56
(g72
g58
NtRp4268
(dp4269
g61
(dp4270
sg70
g4264
sg63
(lp4271
g56
(g77
g58
NtRp4272
(dp4273
g61
(dp4274
sg70
g4268
sg63
(lp4275
g56
(g57
g58
NtRp4276
(dp4277
g61
(dp4278
g69
I1
ssg70
g4272
sg63
(lp4279
g3707
(S's\x05\x00\x00\x00About'
tRp4280
asbasbasbag56
(g72
g58
NtRp4281
(dp4282
g61
(dp4283
sg70
g4264
sg63
(lp4284
g56
(g77
g58
NtRp4285
(dp4286
g61
(dp4287
sg70
g4281
sg63
(lp4288
g56
(g57
g58
NtRp4289
(dp4290
g61
(dp4291
g69
I1
ssg70
g4285
sg63
(lp4292
I00
asbasbasbag56
(g72
g58
NtRp4293
(dp4294
g61
(dp4295
sg70
g4264
sg63
(lp4296
g56
(g77
g58
NtRp4297
(dp4298
g61
(dp4299
sg70
g4293
sg63
(lp4300
g56
(g57
g58
NtRp4301
(dp4302
g61
(dp4303
g69
I1
ssg70
g4297
sg63
(lp4304
S'/admin/default/about/ddlagoon'
p4305
asbasbasbasbasbasbasbasbasbasbasbasbasbasbasbag56
(g72
g58
NtRp4306
(dp4307
g61
(dp4308
sg70
g3675
sg63
(lp4309
g56
(g77
g58
NtRp4310
(dp4311
g61
(dp4312
sg70
g4306
sg63
(lp4313
g56
(g57
g58
NtRp4314
(dp4315
g61
(dp4316
g69
I4
ssg70
g4310
sg63
(lp4317
g56
(g65
g58
NtRp4318
(dp4319
g61
(dp4320
g69
I3
ssg70
Nsg63
(lp4321
g56
(g72
g58
NtRp4322
(dp4323
g61
(dp4324
sg70
g4318
sg63
(lp4325
g56
(g77
g58
NtRp4326
(dp4327
g61
(dp4328
sg70
g4322
sg63
(lp4329
g56
(g57
g58
NtRp4330
(dp4331
g61
(dp4332
g69
I3
ssg70
g4326
sg63
(lp4333
g3707
(S's\t\x00\x00\x00Resources'
tRp4334
asbasbasbag56
(g72
g58
NtRp4335
(dp4336
g61
(dp4337
sg70
g4318
sg63
(lp4338
g56
(g77
g58
NtRp4339
(dp4340
g61
(dp4341
sg70
g4335
sg63
(lp4342
g56
(g57
g58
NtRp4343
(dp4344
g61
(dp4345
g69
I3
ssg70
g4339
sg63
(lp4346
g99
asbasbasbag56
(g72
g58
NtRp4347
(dp4348
g61
(dp4349
sg70
g4318
sg63
(lp4350
g56
(g77
g58
NtRp4351
(dp4352
g61
(dp4353
sg70
g4347
sg63
(lp4354
g56
(g57
g58
NtRp4355
(dp4356
g61
(dp4357
g69
I3
ssg70
g4351
sg63
(lp4358
S'None'
p4359
asbasbasbag56
(g72
g58
NtRp4360
(dp4361
g61
(dp4362
sg70
g4318
sg63
(lp4363
g56
(g77
g58
NtRp4364
(dp4365
g61
(dp4366
sg70
g4360
sg63
(lp4367
g56
(g57
g58
NtRp4368
(dp4369
g61
(dp4370
g69
I3
ssg70
g4364
sg63
(lp4371
g56
(g65
g58
NtRp4372
(dp4373
g61
(dp4374
g69
I2
ssg70
Nsg63
(lp4375
g56
(g72
g58
NtRp4376
(dp4377
g61
(dp4378
sg70
g4372
sg63
(lp4379
g56
(g77
g58
NtRp4380
(dp4381
g61
(dp4382
sg70
g4376
sg63
(lp4383
g56
(g57
g58
NtRp4384
(dp4385
g61
(dp4386
g69
I2
ssg70
g4380
sg63
(lp4387
g56
(g65
g58
NtRp4388
(dp4389
g61
(dp4390
g69
I1
ssg70
Nsg63
(lp4391
g56
(g72
g58
NtRp4392
(dp4393
g61
(dp4394
sg70
g4388
sg63
(lp4395
g56
(g77
g58
NtRp4396
(dp4397
g61
(dp4398
sg70
g4392
sg63
(lp4399
g56
(g57
g58
NtRp4400
(dp4401
g61
(dp4402
g69
I1
ssg70
g4396
sg63
(lp4403
g3707
(S's\r\x00\x00\x00Documentation'
tRp4404
asbasbasbag56
(g72
g58
NtRp4405
(dp4406
g61
(dp4407
sg70
g4388
sg63
(lp4408
g56
(g77
g58
NtRp4409
(dp4410
g61
(dp4411
sg70
g4405
sg63
(lp4412
g56
(g57
g58
NtRp4413
(dp4414
g61
(dp4415
g69
I1
ssg70
g4409
sg63
(lp4416
I00
asbasbasbag56
(g72
g58
NtRp4417
(dp4418
g61
(dp4419
sg70
g4388
sg63
(lp4420
g56
(g77
g58
NtRp4421
(dp4422
g61
(dp4423
sg70
g4417
sg63
(lp4424
g56
(g57
g58
NtRp4425
(dp4426
g61
(dp4427
g69
I1
ssg70
g4421
sg63
(lp4428
S'http://www.web2py.com/book'
p4429
asbasbasbag56
(g72
g58
NtRp4430
(dp4431
g61
(dp4432
sg70
g4388
sg63
(lp4433
g56
(g77
g58
NtRp4434
(dp4435
g61
(dp4436
sg70
g4430
sg63
(lp4437
g56
(g57
g58
NtRp4438
(dp4439
g61
(dp4440
g69
I1
ssg70
g4434
sg63
(lp4441
(lp4442
(g3707
(S's\x07\x00\x00\x00Preface'
tRp4443
I00
S'http://www.web2py.com/book/default/chapter/00'
p4444
tp4445
a(g3707
(S's\x0c\x00\x00\x00Introduction'
tRp4446
I00
S'http://www.web2py.com/book/default/chapter/01'
p4447
tp4448
a(g3707
(S's\x06\x00\x00\x00Python'
tRp4449
I00
S'http://www.web2py.com/book/default/chapter/02'
p4450
tp4451
a(g3707
(S's\x08\x00\x00\x00Overview'
tRp4452
I00
S'http://www.web2py.com/book/default/chapter/03'
p4453
tp4454
a(g3707
(S's\x08\x00\x00\x00The Core'
tRp4455
I00
S'http://www.web2py.com/book/default/chapter/04'
p4456
tp4457
a(g3707
(S's\t\x00\x00\x00The Views'
tRp4458
I00
S'http://www.web2py.com/book/default/chapter/05'
p4459
tp4460
a(g3707
(S's\x08\x00\x00\x00Database'
tRp4461
I00
S'http://www.web2py.com/book/default/chapter/06'
p4462
tp4463
a(g3707
(S's\x14\x00\x00\x00Forms and Validators'
tRp4464
I00
S'http://www.web2py.com/book/default/chapter/07'
p4465
tp4466
a(g3707
(S's\x0e\x00\x00\x00Access Control'
tRp4467
I00
S'http://www.web2py.com/book/default/chapter/08'
p4468
tp4469
a(g3707
(S's\x08\x00\x00\x00Services'
tRp4470
I00
S'http://www.web2py.com/book/default/chapter/09'
p4471
tp4472
a(g3707
(S's\x0c\x00\x00\x00Ajax Recipes'
tRp4473
I00
S'http://www.web2py.com/book/default/chapter/10'
p4474
tp4475
a(g3707
(S's\x12\x00\x00\x00Deployment Recipes'
tRp4476
I00
S'http://www.web2py.com/book/default/chapter/11'
p4477
tp4478
a(g3707
(S's\r\x00\x00\x00Other Recipes'
tRp4479
I00
S'http://www.web2py.com/book/default/chapter/12'
p4480
tp4481
a(g3707
(S's\r\x00\x00\x00Buy this book'
tRp4482
I00
S'http://stores.lulu.com/web2py'
p4483
tp4484
aasbasbasbasbasbasbasbag56
(g72
g58
NtRp4485
(dp4486
g61
(dp4487
sg70
g4372
sg63
(lp4488
g56
(g77
g58
NtRp4489
(dp4490
g61
(dp4491
sg70
g4485
sg63
(lp4492
g56
(g57
g58
NtRp4493
(dp4494
g61
(dp4495
g69
I2
ssg70
g4489
sg63
(lp4496
g56
(g65
g58
NtRp4497
(dp4498
g61
(dp4499
g69
I1
ssg70
Nsg63
(lp4500
g56
(g72
g58
NtRp4501
(dp4502
g61
(dp4503
sg70
g4497
sg63
(lp4504
g56
(g77
g58
NtRp4505
(dp4506
g61
(dp4507
sg70
g4501
sg63
(lp4508
g56
(g57
g58
NtRp4509
(dp4510
g61
(dp4511
g69
I1
ssg70
g4505
sg63
(lp4512
g3707
(S's\t\x00\x00\x00Community'
tRp4513
asbasbasbag56
(g72
g58
NtRp4514
(dp4515
g61
(dp4516
sg70
g4497
sg63
(lp4517
g56
(g77
g58
NtRp4518
(dp4519
g61
(dp4520
sg70
g4514
sg63
(lp4521
g56
(g57
g58
NtRp4522
(dp4523
g61
(dp4524
g69
I1
ssg70
g4518
sg63
(lp4525
I00
asbasbasbag56
(g72
g58
NtRp4526
(dp4527
g61
(dp4528
sg70
g4497
sg63
(lp4529
g56
(g77
g58
NtRp4530
(dp4531
g61
(dp4532
sg70
g4526
sg63
(lp4533
g56
(g57
g58
NtRp4534
(dp4535
g61
(dp4536
g69
I1
ssg70
g4530
sg63
(lp4537
Nasbasbasbag56
(g72
g58
NtRp4538
(dp4539
g61
(dp4540
sg70
g4497
sg63
(lp4541
g56
(g77
g58
NtRp4542
(dp4543
g61
(dp4544
sg70
g4538
sg63
(lp4545
g56
(g57
g58
NtRp4546
(dp4547
g61
(dp4548
g69
I1
ssg70
g4542
sg63
(lp4549
(lp4550
(g3707
(S's\x06\x00\x00\x00Groups'
tRp4551
I00
S'http://www.web2py.com/examples/default/usergroups'
p4552
tp4553
a(g3707
(S's\x07\x00\x00\x00Twitter'
tRp4554
I00
S'http://twitter.com/web2py'
p4555
tp4556
a(g3707
(S's\t\x00\x00\x00Live chat'
tRp4557
I00
S'http://mibbit.com/?channel=%23web2py&server=irc.mibbit.net'
p4558
tp4559
a(g3707
(S's\n\x00\x00\x00User Voice'
tRp4560
I00
S'http://web2py.uservoice.com/'
p4561
tp4562
aasbasbasbasbasbasbasbag56
(g72
g58
NtRp4563
(dp4564
g61
(dp4565
sg70
g4372
sg63
(lp4566
g56
(g77
g58
NtRp4567
(dp4568
g61
(dp4569
sg70
g4563
sg63
(lp4570
g56
(g57
g58
NtRp4571
(dp4572
g61
(dp4573
g69
I2
ssg70
g4567
sg63
(lp4574
g56
(g65
g58
NtRp4575
(dp4576
g61
(dp4577
g69
I1
ssg70
Nsg63
(lp4578
g56
(g72
g58
NtRp4579
(dp4580
g61
(dp4581
sg70
g4575
sg63
(lp4582
g56
(g77
g58
NtRp4583
(dp4584
g61
(dp4585
sg70
g4579
sg63
(lp4586
g56
(g57
g58
NtRp4587
(dp4588
g61
(dp4589
g69
I1
ssg70
g4583
sg63
(lp4590
g3707
(S's\x06\x00\x00\x00Web2py'
tRp4591
asbasbasbag56
(g72
g58
NtRp4592
(dp4593
g61
(dp4594
sg70
g4575
sg63
(lp4595
g56
(g77
g58
NtRp4596
(dp4597
g61
(dp4598
sg70
g4592
sg63
(lp4599
g56
(g57
g58
NtRp4600
(dp4601
g61
(dp4602
g69
I1
ssg70
g4596
sg63
(lp4603
I00
asbasbasbag56
(g72
g58
NtRp4604
(dp4605
g61
(dp4606
sg70
g4575
sg63
(lp4607
g56
(g77
g58
NtRp4608
(dp4609
g61
(dp4610
sg70
g4604
sg63
(lp4611
g56
(g57
g58
NtRp4612
(dp4613
g61
(dp4614
g69
I1
ssg70
g4608
sg63
(lp4615
S'http://www.web2py.com'
p4616
asbasbasbag56
(g72
g58
NtRp4617
(dp4618
g61
(dp4619
sg70
g4575
sg63
(lp4620
g56
(g77
g58
NtRp4621
(dp4622
g61
(dp4623
sg70
g4617
sg63
(lp4624
g56
(g57
g58
NtRp4625
(dp4626
g61
(dp4627
g69
I1
ssg70
g4621
sg63
(lp4628
(lp4629
(g3707
(S's\x08\x00\x00\x00Download'
tRp4630
I00
S'http://www.web2py.com/examples/default/download'
p4631
tp4632
a(g3707
(S's\x07\x00\x00\x00Support'
tRp4633
I00
S'http://www.web2py.com/examples/default/support'
p4634
tp4635
a(g3707
(S's\x0e\x00\x00\x00Quick Examples'
tRp4636
I00
S'http://web2py.com/examples/default/examples'
p4637
tp4638
a(g3707
(S's\x03\x00\x00\x00FAQ'
tRp4639
I00
S'http://web2py.com/AlterEgo'
p4640
tp4641
a(g3707
(S's\x11\x00\x00\x00Free Applications'
tRp4642
I00
S'http://web2py.com/appliances'
p4643
tp4644
a(g3707
(S's\x07\x00\x00\x00Plugins'
tRp4645
I00
S'http://web2py.com/plugins'
p4646
tp4647
a(g3707
(S's\x07\x00\x00\x00Recipes'
tRp4648
I00
S'http://web2pyslices.com/'
p4649
tp4650
a(g3707
(S's\x04\x00\x00\x00Demo'
tRp4651
I00
S'http://web2py.com/demo_admin'
p4652
tp4653
a(g3707
(S's\x08\x00\x00\x00Semantic'
tRp4654
I00
S'http://web2py.com/semantic'
p4655
tp4656
a(g3707
(S's\x07\x00\x00\x00Layouts'
tRp4657
I00
S'http://web2py.com/layouts'
p4658
tp4659
a(g3707
(S's\x06\x00\x00\x00Videos'
tRp4660
I00
S'http://www.web2py.com/examples/default/videos/'
p4661
tp4662
aasbasbasbasbasbasbasbasbasbasbasbasbasbasbasbasbasbasbasbag56
(g72
g58
NtRp4663
(dp4664
g61
(dp4665
sg70
g3202
sg63
(lp4666
g56
(g77
g58
NtRp4667
(dp4668
g61
(dp4669
g81
g82
ssg70
g4663
sg63
(lp4670
S'meta'
p4671
asbag56
(g77
g58
NtRp4672
(dp4673
g61
(dp4674
g88
g89
ssg70
g4663
sg63
(lp4675
S':'
asbag56
(g77
g58
NtRp4676
(dp4677
g61
(dp4678
sg70
g4663
sg63
(lp4679
g56
(g57
g58
NtRp4680
(dp4681
g61
(dp4682
g69
I5
ssg70
g4676
sg63
(lp4683
g56
(g65
g58
NtRp4684
(dp4685
g61
(dp4686
g69
I4
ssg70
Nsg63
(lp4687
g56
(g72
g58
NtRp4688
(dp4689
g61
(dp4690
sg70
g4684
sg63
(lp4691
g56
(g77
g58
NtRp4692
(dp4693
g61
(dp4694
g81
g82
ssg70
g4688
sg63
(lp4695
S'author'
p4696
asbag56
(g77
g58
NtRp4697
(dp4698
g61
(dp4699
g88
g89
ssg70
g4688
sg63
(lp4700
S':'
asbag56
(g77
g58
NtRp4701
(dp4702
g61
(dp4703
sg70
g4688
sg63
(lp4704
g56
(g57
g58
NtRp4705
(dp4706
g61
(dp4707
g69
I4
ssg70
g4701
sg63
(lp4708
S'Your Name <you@example.com>'
p4709
asbasbasbag56
(g72
g58
NtRp4710
(dp4711
g61
(dp4712
sg70
g4684
sg63
(lp4713
g56
(g77
g58
NtRp4714
(dp4715
g61
(dp4716
g81
g82
ssg70
g4710
sg63
(lp4717
S'copyright'
p4718
asbag56
(g77
g58
NtRp4719
(dp4720
g61
(dp4721
g88
g89
ssg70
g4710
sg63
(lp4722
S':'
asbag56
(g77
g58
NtRp4723
(dp4724
g61
(dp4725
sg70
g4710
sg63
(lp4726
g56
(g57
g58
NtRp4727
(dp4728
g61
(dp4729
g69
I4
ssg70
g4723
sg63
(lp4730
S'Copyright 2011'
p4731
asbasbasbag56
(g72
g58
NtRp4732
(dp4733
g61
(dp4734
sg70
g4684
sg63
(lp4735
g56
(g77
g58
NtRp4736
(dp4737
g61
(dp4738
g81
g82
ssg70
g4732
sg63
(lp4739
S'description'
p4740
asbag56
(g77
g58
NtRp4741
(dp4742
g61
(dp4743
g88
g89
ssg70
g4732
sg63
(lp4744
S':'
asbag56
(g77
g58
NtRp4745
(dp4746
g61
(dp4747
sg70
g4732
sg63
(lp4748
g56
(g57
g58
NtRp4749
(dp4750
g61
(dp4751
g69
I4
ssg70
g4745
sg63
(lp4752
S'a cool new app'
p4753
asbasbasbag56
(g72
g58
NtRp4754
(dp4755
g61
(dp4756
sg70
g4684
sg63
(lp4757
g56
(g77
g58
NtRp4758
(dp4759
g61
(dp4760
g81
g82
ssg70
g4754
sg63
(lp4761
S'generator'
p4762
asbag56
(g77
g58
NtRp4763
(dp4764
g61
(dp4765
g88
g89
ssg70
g4754
sg63
(lp4766
S':'
asbag56
(g77
g58
NtRp4767
(dp4768
g61
(dp4769
sg70
g4754
sg63
(lp4770
g56
(g57
g58
NtRp4771
(dp4772
g61
(dp4773
g69
I4
ssg70
g4767
sg63
(lp4774
S'Web2py Web Framework'
p4775
asbasbasbag56
(g72
g58
NtRp4776
(dp4777
g61
(dp4778
sg70
g4684
sg63
(lp4779
g56
(g77
g58
NtRp4780
(dp4781
g61
(dp4782
g81
g82
ssg70
g4776
sg63
(lp4783
S'keywords'
p4784
asbag56
(g77
g58
NtRp4785
(dp4786
g61
(dp4787
g88
g89
ssg70
g4776
sg63
(lp4788
S':'
asbag56
(g77
g58
NtRp4789
(dp4790
g61
(dp4791
sg70
g4776
sg63
(lp4792
g56
(g57
g58
NtRp4793
(dp4794
g61
(dp4795
g69
I4
ssg70
g4789
sg63
(lp4796
S'web2py, python, framework'
p4797
asbasbasbasbasbasbasbag56
(g72
g58
NtRp4798
(dp4799
g61
(dp4800
sg70
g3202
sg63
(lp4801
g56
(g77
g58
NtRp4802
(dp4803
g61
(dp4804
g81
g82
ssg70
g4798
sg63
(lp4805
S'postprocessing'
p4806
asbag56
(g77
g58
NtRp4807
(dp4808
g61
(dp4809
g88
g89
ssg70
g4798
sg63
(lp4810
S':'
asbag56
(g77
g58
NtRp4811
(dp4812
g61
(dp4813
sg70
g4798
sg63
(lp4814
g56
(g57
g58
NtRp4815
(dp4816
g61
(dp4817
g69
I5
ssg70
g4811
sg63
(lp4818
g56
(g65
g58
NtRp4819
(dp4820
g61
(dp4821
g69
I4
ssg70
Nsg63
(lp4822
sbasbasbasbag56
(g72
g58
NtRp4823
(dp4824
g61
(dp4825
sg70
g3202
sg63
(lp4826
g56
(g77
g58
NtRp4827
(dp4828
g61
(dp4829
g81
g82
ssg70
g4823
sg63
(lp4830
S'session_filename'
p4831
asbag56
(g77
g58
NtRp4832
(dp4833
g61
(dp4834
g88
g89
ssg70
g4823
sg63
(lp4835
S':'
asbag56
(g77
g58
NtRp4836
(dp4837
g61
(dp4838
sg70
g4823
sg63
(lp4839
g56
(g57
g58
NtRp4840
(dp4841
g61
(dp4842
g69
I5
ssg70
g4836
sg63
(lp4843
S'/windows/Users/Thomas/Dropbox/appz/2011/GAE/ddl-lagoon/applications/ddlagoon/sessions/127.0.0.1-02a317c8-68f8-4b45-be71-9fe2e261583a'
p4844
asbasbasbag56
(g72
g58
NtRp4845
(dp4846
g61
(dp4847
sg70
g3202
sg63
(lp4848
g56
(g77
g58
NtRp4849
(dp4850
g61
(dp4851
g81
g82
ssg70
g4845
sg63
(lp4852
S'session_id'
p4853
asbag56
(g77
g58
NtRp4854
(dp4855
g61
(dp4856
g88
g89
ssg70
g4845
sg63
(lp4857
S':'
asbag56
(g77
g58
NtRp4858
(dp4859
g61
(dp4860
sg70
g4845
sg63
(lp4861
g56
(g57
g58
NtRp4862
(dp4863
g61
(dp4864
g69
I5
ssg70
g4858
sg63
(lp4865
S'127.0.0.1-02a317c8-68f8-4b45-be71-9fe2e261583a'
p4866
asbasbasbag56
(g72
g58
NtRp4867
(dp4868
g61
(dp4869
sg70
g3202
sg63
(lp4870
g56
(g77
g58
NtRp4871
(dp4872
g61
(dp4873
g81
g82
ssg70
g4867
sg63
(lp4874
S'session_id_name'
p4875
asbag56
(g77
g58
NtRp4876
(dp4877
g61
(dp4878
g88
g89
ssg70
g4867
sg63
(lp4879
S':'
asbag56
(g77
g58
NtRp4880
(dp4881
g61
(dp4882
sg70
g4867
sg63
(lp4883
g56
(g57
g58
NtRp4884
(dp4885
g61
(dp4886
g69
I5
ssg70
g4880
sg63
(lp4887
g3259
asbasbasbag56
(g72
g58
NtRp4888
(dp4889
g61
(dp4890
sg70
g3202
sg63
(lp4891
g56
(g77
g58
NtRp4892
(dp4893
g61
(dp4894
g81
g82
ssg70
g4888
sg63
(lp4895
S'session_new'
p4896
asbag56
(g77
g58
NtRp4897
(dp4898
g61
(dp4899
g88
g89
ssg70
g4888
sg63
(lp4900
S':'
asbag56
(g77
g58
NtRp4901
(dp4902
g61
(dp4903
sg70
g4888
sg63
(lp4904
g56
(g57
g58
NtRp4905
(dp4906
g61
(dp4907
g69
I5
ssg70
g4901
sg63
(lp4908
g1702
asbasbasbag56
(g72
g58
NtRp4909
(dp4910
g61
(dp4911
sg70
g3202
sg63
(lp4912
g56
(g77
g58
NtRp4913
(dp4914
g61
(dp4915
g81
g82
ssg70
g4909
sg63
(lp4916
S'status'
p4917
asbag56
(g77
g58
NtRp4918
(dp4919
g61
(dp4920
g88
g89
ssg70
g4909
sg63
(lp4921
S':'
asbag56
(g77
g58
NtRp4922
(dp4923
g61
(dp4924
sg70
g4909
sg63
(lp4925
g56
(g57
g58
NtRp4926
(dp4927
g61
(dp4928
g69
I5
ssg70
g4922
sg63
(lp4929
S'200'
p4930
asbasbasbag56
(g72
g58
NtRp4931
(dp4932
g61
(dp4933
sg70
g3202
sg63
(lp4934
g56
(g77
g58
NtRp4935
(dp4936
g61
(dp4937
g81
g82
ssg70
g4931
sg63
(lp4938
S'subtitle'
p4939
asbag56
(g77
g58
NtRp4940
(dp4941
g61
(dp4942
g88
g89
ssg70
g4931
sg63
(lp4943
S':'
asbag56
(g77
g58
NtRp4944
(dp4945
g61
(dp4946
sg70
g4931
sg63
(lp4947
g56
(g57
g58
NtRp4948
(dp4949
g61
(dp4950
g69
I5
ssg70
g4944
sg63
(lp4951
g3707
(S's\r\x00\x00\x00customize me!'
tRp4952
asbasbasbag56
(g72
g58
NtRp4953
(dp4954
g61
(dp4955
sg70
g3202
sg63
(lp4956
g56
(g77
g58
NtRp4957
(dp4958
g61
(dp4959
g81
g82
ssg70
g4953
sg63
(lp4960
S'title'
p4961
asbag56
(g77
g58
NtRp4962
(dp4963
g61
(dp4964
g88
g89
ssg70
g4953
sg63
(lp4965
S':'
asbag56
(g77
g58
NtRp4966
(dp4967
g61
(dp4968
sg70
g4953
sg63
(lp4969
g56
(g57
g58
NtRp4970
(dp4971
g61
(dp4972
g69
I5
ssg70
g4966
sg63
(lp4973
g121
asbasbasbag56
(g72
g58
NtRp4974
(dp4975
g61
(dp4976
sg70
g3202
sg63
(lp4977
g56
(g77
g58
NtRp4978
(dp4979
g61
(dp4980
g81
g82
ssg70
g4974
sg63
(lp4981
g2368
asbag56
(g77
g58
NtRp4982
(dp4983
g61
(dp4984
g88
g89
ssg70
g4974
sg63
(lp4985
S':'
asbag56
(g77
g58
NtRp4986
(dp4987
g61
(dp4988
sg70
g4974
sg63
(lp4989
g56
(g57
g58
NtRp4990
(dp4991
g61
(dp4992
g69
I5
ssg70
g4986
sg63
(lp4993
g2381
asbasbasbag56
(g72
g58
NtRp4994
(dp4995
g61
(dp4996
sg70
g3202
sg63
(lp4997
g56
(g77
g58
NtRp4998
(dp4999
g61
(dp5000
g81
g82
ssg70
g4994
sg63
(lp5001
S'view'
p5002
asbag56
(g77
g58
NtRp5003
(dp5004
g61
(dp5005
g88
g89
ssg70
g4994
sg63
(lp5006
S':'
asbag56
(g77
g58
NtRp5007
(dp5008
g61
(dp5009
sg70
g4994
sg63
(lp5010
g56
(g57
g58
NtRp5011
(dp5012
g61
(dp5013
g69
I5
ssg70
g5007
sg63
(lp5014
S'ddl/get.html'
p5015
asbasbasbasbasbsS'locals'
p5016
(dp5017
S'a'
S'()'
p5018
sS'c'
S'2'
sS'b'
g44
sS'pos_args'
p5019
S'()'
p5020
sS'named_args'
p5021
S"('id', 'filename')"
p5022
sS'f'
S'<function ddl>'
p5023
sS'n'
S"('id', 'filename')"
p5024
sS'defaults'
p5025
S'[]'
p5026
sS'arg_dict'
p5027
g44
sS'arg_name'
p5028
S"'filename'"
p5029
sssS'traceback'
p5030
S'Traceback (most recent call last):\n  File "/windows/Users/Thomas/Dropbox/appz/2011/GAE/ddl-lagoon/gluon/restricted.py", line 194, in restricted\n    exec ccode in environment\n  File "/windows/Users/Thomas/Dropbox/appz/2011/GAE/ddl-lagoon/applications/ddlagoon/controllers/ddl.py", line 9, in <module>\n  File "/windows/Users/Thomas/Dropbox/appz/2011/GAE/ddl-lagoon/gluon/globals.py", line 149, in <lambda>\n    self._caller = lambda f: f()\n  File "/windows/Users/Thomas/Dropbox/appz/2011/GAE/ddl-lagoon/applications/ddlagoon/controllers/ddl.py", line 4, in get\n    return service()\n  File "/windows/Users/Thomas/Dropbox/appz/2011/GAE/ddl-lagoon/gluon/tools.py", line 3834, in __call__\n    return self.serve_run(request.args[1:])\n  File "/windows/Users/Thomas/Dropbox/appz/2011/GAE/ddl-lagoon/gluon/tools.py", line 3585, in serve_run\n    *args[1:], **dict(request.vars)))\n  File "/windows/Users/Thomas/Dropbox/appz/2011/GAE/ddl-lagoon/gluon/tools.py", line 3351, in universal_caller\n    return f(**arg_dict)\nTypeError: ddl() takes exactly 2 arguments (0 given)\n'
p5031
s.