(dp1
S'output'
p2
S''
sS'layer'
p3
S'/windows/Users/Thomas/Dropbox/appz/2011/GAE/ddl-lagoon/applications/ddlagoon/views/default/index.html'
p4
sS'code'
p5
S'left_sidebar_enabled=right_sidebar_enabled=True\nresponse.write(\'\\n\', escape=False)\nresponse.write(\'<!DOCTYPE html>\\n<html lang="\', escape=False)\nresponse.write(T.accepted_language or \'en\')\nresponse.write(\'" class="no-js"><!-- no-js need it for modernzr -->\\n  <head>\\n    \\n    <meta charset="utf-8" />        \\n    <!-- www.phpied.com/conditional-comments-block-downloads/ -->\\n    <!--[if IE]>\\n      <!-- Always force latest IE rendering engine \\n       (even in intranet) & Chrome Frame \\n       Remove this if you use the .htaccess -->\\n      <meta http-equiv="X-UA-Compatible" content="IE=edge,chrome=1">\\n    <![endif]-->    \\n\\n    <title>DDLagoon</title>\\n    \\n    <!-- http://dev.w3.org/html5/markup/meta.name.html -->\\n    <meta name="application-name" content="\', escape=False)\nresponse.write(request.application)\nresponse.write(\'" /> \\n    \\n    <!-- Speaking of Google, don\\\'t forget to set your site up: \\n     http://google.com/webmasters -->\\n    <meta name="google-site-verification" content="" />\\n    \\n    <!--  Mobile Viewport Fix\\n      j.mp/mobileviewport & davidbcalhoun.com/2010/viewport-metatag \\n      device-width: Occupy full width of the screen in its current orientation\\n      initial-scale = 1.0 retains dimensions instead of zooming out if page height > device height\\n      maximum-scale = 1.0 retains dimensions instead of zooming in if page width < device width\\n      -->\\n    <meta name="viewport" content="width=device-width, initial-scale=1.0, maximum-scale=1.0">\\n    \\n    <!-- Place favicon.ico and apple-touch-icon.png in the root of your domain and delete these references -->\\n    <link rel="shortcut icon" href="\', escape=False)\nresponse.write(URL(\'static\',\'favicon.ico\'))\nresponse.write(\'" type="image/x-icon">\\n    <link rel="apple-touch-icon" href="\', escape=False)\nresponse.write(URL(\'static\',\'favicon.png\'))\nresponse.write(\'">\\n\\n    <!-- For the less-enabled mobile browsers like Opera Mini -->\\n    <link rel="stylesheet" media="handheld" href="\', escape=False)\nresponse.write(URL(\'static\',\'css/handheld.css\'))\nresponse.write(\'">\\n    \\n    <!-- All JavaScript at the bottom, except for Modernizr which enables HTML5 elements & feature detects -->\\n    <script src="\', escape=False)\nresponse.write(URL(\'static\',\'js/modernizr-1.7.min.js\'))\nresponse.write(\'"></script>\\n    \\n    \', escape=False)\n#------  require CSS and JS files for this page (read info in base.css) ------\nresponse.write(\'\\n    \', escape=False)\nresponse.files.append(URL(\'static\',\'css/base.css\'))\nresponse.write(\'\\n    \', escape=False)\nresponse.files.append(URL(\'static\',\'css/superfish.css\'))\nresponse.write(\'\\n    \', escape=False)\nresponse.files.append(URL(\'static\',\'js/superfish.js\'))\nresponse.write(\'\\n    \', escape=False)\n#------ include web2py specific js code (jquery, calendar, form stuff) ------\nresponse.write(\'\\n    \', escape=False)\nresponse.files.insert(0,URL(\'static\',\'js/jquery.js\'))\nresponse.files.insert(1,URL(\'static\',\'css/anytime.css\'))\nresponse.files.insert(2,URL(\'static\',\'js/anytime.js\'))\nresponse.include_meta()\nresponse.include_files()\nresponse.write(\'\\n<script type="text/javascript"><!--\\n    // These variables are used by the web2py_ajax_init function in web2py_ajax.js (which is loaded below).\\n    var w2p_ajax_confirm_message = "\', escape=False)\nresponse.write(T(\'Are you sure you want to delete this object?\'))\nresponse.write(\'";\\n    var w2p_ajax_date_format = "\', escape=False)\nresponse.write(T(\'%Y-%m-%d\'))\nresponse.write(\'";\\n    var w2p_ajax_datetime_format = "\', escape=False)\nresponse.write(T(\'%Y-%m-%d %H:%M:%S\'))\nresponse.write(\'";\\n    //--></script>\\n    <script src="\', escape=False)\nresponse.write(URL(\'static\',\'js/web2py_ajax.js\'))\nresponse.write(\'" type="text/javascript"></script>\\n\', escape=False)\nresponse.write(\'\\n\\n    \', escape=False)\n#using sidebars need to know what sidebar you want to use\n#prior of using it, because of static width size of content, you can use\n#left_sidebar, right_sidebar, both or none (False left and right)\nleft_sidebar_enabled = globals().get(\'left_sidebar_enabled\',False)\nright_sidebar_enabled = globals().get(\'right_sidebar_enabled\',False)\nif left_sidebar_enabled and right_sidebar_enabled: width_content=\'63%\'\nelif left_sidebar_enabled != right_sidebar_enabled: width_content=\'740px\'\nelse: width_content=\'100%\'\nif left_sidebar_enabled: left_sidebar_style = \'style="display: block;"\'\nelse: left_sidebar_style = \'style="display: none;"\'\nif right_sidebar_enabled: right_sidebar_style = \'style="display: block;"\'\nelse: right_sidebar_style = \'style="display: none;"\'\nstyle_content = \'style="width: %s"\' % width_content\nresponse.write(\'\\n    \\n    <!-- uncomment here to load jquery-ui -->\\n    \\n    <link rel="stylesheet" href="http://ajax.googleapis.com/ajax/libs/jqueryui/1.8.16/themes/base/jquery-ui.css" type="text/css" media="all" />\\n    <script src="http://ajax.googleapis.com/ajax/libs/jqueryui/1.8.16/jquery-ui.min.js" type="text/javascript"></script>\\n    \\n   <!-- uncomment to load jquery-ui -->\\n    \\n    \\n  </head>\\n  \\n  <!-- paulirish.com/2008/conditional-stylesheets-vs-css-hacks-answer-neither/ -->  \\n  <!--[if lt IE 7 ]> <body class="ie6"> <![endif]-->\\n  <!--[if IE 7 ]>    <body class="ie7"> <![endif]-->\\n  <!--[if IE 8 ]>    <body class="ie8"> <![endif]-->\\n  <!--[if IE 9 ]>    <body class="ie9"> <![endif]-->\\n  <!--[if (gt IE 9)|!(IE)]><!--> <body> <!--<![endif]-->\\n    \\n    <div class="flash">\', escape=False)\nresponse.write(response.flash or \'\')\nresponse.write(\'</div> <!-- notification div -->\\n\\n        \\n\\n    <div id="container">                        \\n      \\n      <div id="wrapper">        \\n      \', escape=False)\ntry:\n    response.write(auth.navbar(action=URL(\'default\',\'user\')))\nexcept:pass\nresponse.write(\'\\n    \\n    <div id="header"> <!-- header and login nav -->\\n      \', escape=False)\nresponse.write(\' <!-- this is default header -->\\n      \\n      <h1>\\n        DDLagoon <span id="appname"> The lagoon of DDL</span>\\n      </h1>\\n      <div style="clear: both;"></div><!-- Clear the divs -->\\n      \', escape=False)\nresponse.write(\'\\n    </div><!-- header  -->\\n    \\n\\n    \\n    <div id="page"> <!-- Here my central body -->     \\n\\n      \', escape=False)\nif left_sidebar_enabled:\n    response.write(\'\\n          <div id="left_sidebar" \', escape=False)\n    response.write(XML(left_sidebar_style))\n    response.write(\' >\\n            <div style="padding: 4px;">\\n          \', escape=False)\n    response.write(\'Link 1<br />Link 2\', escape=False)\n    response.write(\'       \\n            </div>\\n          </div><!-- left_sidebar -->\\n      \', escape=False)\n    pass\nresponse.write(\'\\n\\n      <!-- content -->\\n      <div id="content" \', escape=False)\nresponse.write(XML(style_content))\nresponse.write(\' >\\n        \', escape=False)\nresponse.write(\'\\n\\n\', escape=False)\nif \'ddlz\' in globals():\n    response.write(\'\\n    <table>\\n        <thead><td>Filename</td><td>size</td><td>date</td><td>Uploader</td></thead>\\n    \', escape=False)\n    for ddl in ddlz:\n        response.write(\'\\n        <tr><td><a href="/ddlagoon/ddl/get/run/ddl/\', escape=False)\n        response.write(ddl.id)\n        response.write(\'/\', escape=False)\n        response.write(ddl.filename_url)\n        response.write(\'">\', escape=False)\n        response.write(ddl.filename)\n        response.write(\'</a></td><td>\', escape=False)\n        response.write(ddl.size_readable)\n        response.write(\'</td><td>\', escape=False)\n        response.write(ddl.date_added.split(" ")[0])\n        response.write(\'</td><td>\', escape=False)\n        response.write(ddl.uploader.nickname)\n        response.write(\'</td></tr>\\n    \', escape=False)\n        pass\n    response.write(\'\\n    </table>\\n\', escape=False)\nelse:\n    response.write(\'\\n    No DDL, snif!\\n\', escape=False)\n    pass\nresponse.write(\'\\n\\n\', escape=False)\nresponse.write(\'\\n\', escape=False)\nresponse.write(\'\\n\', escape=False)\nresponse.write(\' \\n      </div>\\n      <!-- content -->\\n\\n      \', escape=False)\nif right_sidebar_enabled:\n    response.write(\'\\n          <div id="right_sidebar" \', escape=False)\n    response.write(XML(right_sidebar_style))\n    response.write(\' >\\n            <div style="padding: 4px;">\\n              \', escape=False)\n    response.write(\'\\n            </div>\\n      </div><!-- right_sidebar -->\\n          \', escape=False)\n    pass\nresponse.write(\'\\n\\n\\n      <div style="clear: both;"></div><!-- Clear the divs -->\\n      \\n    </div><!-- page -->                         \\n    \\n    <div id="footer">\\n      \', escape=False)\nresponse.write(\' <!-- this is default footer -->\\n      <span style="float: left; padding-right: 6px;">\\n        DDLagoon\\n      </span>\\n\\n        <span style="float: right; padding-right: 6px;">\', escape=False)\nresponse.write(T(\'Copyright\'))\nresponse.write(\' &#169; 2011</span>\\n      <div style="clear: both;"></div><!-- Clear the divs -->\\n      \', escape=False)\nresponse.write(\'\\n\\n    </div><!-- footer -->           \\n      </div><!-- wrapper -->\\n    </div><!-- container -->        \\n    \\n    <!--[if lt IE 7 ]>\\n    <script src="\', escape=False)\nresponse.write(URL(\'static\',\'js/dd_belatedpng.js\'))\nresponse.write(\'"></script>\\n    <script> DD_belatedPNG.fix(\\\'img, .png_bg\\\'); //fix any <img> or .png_bg background-images </script>\\n    <![endif]-->\\n    \', escape=False)\nif response.google_analytics_id:\n    response.write("<script>/* http://mathiasbynens.be/notes/async-analytics-snippet */ var _gaq=[[\'_setAccount\',\'", escape=False)\n    response.write(response.google_analyitics_id)\n    response.write("\'],[\'_trackPageview\']];(function(d,t){var g=d.createElement(t),s=d.getElementsByTagName(t)[0];g.src=\'//www.google-analytics.com/ga.js\';s.parentNode.insertBefore(g,s)}(document,\'script\')) </script>", escape=False)\n    pass\nresponse.write(\'\\n  </body>\\n</html>\\n\', escape=False)'
p6
sS'snapshot'
p7
(dp8
S'exception'
p9
(dp10
S'__hash__'
p11
S"<method-wrapper '__hash__' of exceptions.AttributeError object>"
p12
sS'__setattr__'
p13
S"<method-wrapper '__setattr__' of exceptions.AttributeError object>"
p14
sS'__reduce_ex__'
p15
S'<built-in method __reduce_ex__ of exceptions.AttributeError object>'
p16
sS'__getslice__'
p17
S"<method-wrapper '__getslice__' of exceptions.AttributeError object>"
p18
sS'__getitem__'
p19
S"<method-wrapper '__getitem__' of exceptions.AttributeError object>"
p20
sS'__setstate__'
p21
S'<built-in method __setstate__ of exceptions.AttributeError object>'
p22
sS'args'
p23
S'("\'datetime.datetime\' object has no attribute \'split\'",)'
p24
sS'__reduce__'
p25
S'<built-in method __reduce__ of exceptions.AttributeError object>'
p26
sS'__str__'
p27
S"<method-wrapper '__str__' of exceptions.AttributeError object>"
p28
sS'__format__'
p29
S'<built-in method __format__ of exceptions.AttributeError object>'
p30
sS'__getattribute__'
p31
S"<method-wrapper '__getattribute__' of exceptions.AttributeError object>"
p32
sS'__class__'
p33
S"<type 'exceptions.AttributeError'>"
p34
sS'__unicode__'
p35
S'<built-in method __unicode__ of exceptions.AttributeError object>'
p36
sS'__delattr__'
p37
S"<method-wrapper '__delattr__' of exceptions.AttributeError object>"
p38
sS'__subclasshook__'
p39
S'<built-in method __subclasshook__ of type object>'
p40
sS'__repr__'
p41
S"<method-wrapper '__repr__' of exceptions.AttributeError object>"
p42
sS'__dict__'
p43
S'{}'
p44
sS'__sizeof__'
p45
S'<built-in method __sizeof__ of exceptions.AttributeError object>'
p46
sS'__doc__'
p47
S"'Attribute not found.'"
p48
sS'__init__'
p49
S"<method-wrapper '__init__' of exceptions.AttributeError object>"
p50
sS'__new__'
p51
S'<built-in method __new__ of type object>'
p52
ssS'evalue'
p53
S"'datetime.datetime' object has no attribute 'split'"
p54
sS'request'
p55
ccopy_reg
_reconstructor
p56
(cgluon.html
BEAUTIFY
p57
c__builtin__
object
p58
NtRp59
(dp60
S'attributes'
p61
(dp62
sS'components'
p63
(lp64
g56
(cgluon.html
TABLE
p65
g58
NtRp66
(dp67
g61
(dp68
S'level'
p69
I5
ssS'parent'
p70
Nsg63
(lp71
g56
(cgluon.html
TR
p72
g58
NtRp73
(dp74
g61
(dp75
sg70
g66
sg63
(lp76
g56
(cgluon.html
TD
p77
g58
NtRp78
(dp79
g61
(dp80
S'_style'
p81
S'font-weight:bold;'
p82
ssg70
g73
sg63
(lp83
S'ajax'
p84
asbag56
(g77
g58
NtRp85
(dp86
g61
(dp87
S'_valign'
p88
S'top'
p89
ssg70
g73
sg63
(lp90
S':'
asbag56
(g77
g58
NtRp91
(dp92
g61
(dp93
sg70
g73
sg63
(lp94
g56
(g57
g58
NtRp95
(dp96
g61
(dp97
g69
I5
ssg70
g91
sg63
(lp98
S'False'
p99
asbasbasbag56
(g72
g58
NtRp100
(dp101
g61
(dp102
sg70
g66
sg63
(lp103
g56
(g77
g58
NtRp104
(dp105
g61
(dp106
g81
g82
ssg70
g100
sg63
(lp107
S'application'
p108
asbag56
(g77
g58
NtRp109
(dp110
g61
(dp111
g88
g89
ssg70
g100
sg63
(lp112
S':'
asbag56
(g77
g58
NtRp113
(dp114
g61
(dp115
sg70
g100
sg63
(lp116
g56
(g57
g58
NtRp117
(dp118
g61
(dp119
g69
I5
ssg70
g113
sg63
(lp120
S'ddlagoon'
p121
asbasbasbag56
(g72
g58
NtRp122
(dp123
g61
(dp124
sg70
g66
sg63
(lp125
g56
(g77
g58
NtRp126
(dp127
g61
(dp128
g81
g82
ssg70
g122
sg63
(lp129
g23
asbag56
(g77
g58
NtRp130
(dp131
g61
(dp132
g88
g89
ssg70
g122
sg63
(lp133
S':'
asbag56
(g77
g58
NtRp134
(dp135
g61
(dp136
sg70
g122
sg63
(lp137
g56
(g57
g58
NtRp138
(dp139
g61
(dp140
g69
I5
ssg70
g134
sg63
(lp141
g56
(g65
g58
NtRp142
(dp143
g61
(dp144
g69
I4
ssg70
Nsg63
(lp145
sbasbasbasbag56
(g72
g58
NtRp146
(dp147
g61
(dp148
sg70
g66
sg63
(lp149
g56
(g77
g58
NtRp150
(dp151
g61
(dp152
g81
g82
ssg70
g146
sg63
(lp153
S'body'
p154
asbag56
(g77
g58
NtRp155
(dp156
g61
(dp157
g88
g89
ssg70
g146
sg63
(lp158
S':'
asbag56
(g77
g58
NtRp159
(dp160
g61
(dp161
sg70
g146
sg63
(lp162
g56
(g57
g58
NtRp163
(dp164
g61
(dp165
g69
I5
ssg70
g159
sg63
(lp166
S'<cStringIO.StringO object at 0x33b7d50>'
p167
asbasbasbag56
(g72
g58
NtRp168
(dp169
g61
(dp170
sg70
g66
sg63
(lp171
g56
(g77
g58
NtRp172
(dp173
g61
(dp174
g81
g82
ssg70
g168
sg63
(lp175
S'client'
p176
asbag56
(g77
g58
NtRp177
(dp178
g61
(dp179
g88
g89
ssg70
g168
sg63
(lp180
S':'
asbag56
(g77
g58
NtRp181
(dp182
g61
(dp183
sg70
g168
sg63
(lp184
g56
(g57
g58
NtRp185
(dp186
g61
(dp187
g69
I5
ssg70
g181
sg63
(lp188
S'127.0.0.1'
p189
asbasbasbag56
(g72
g58
NtRp190
(dp191
g61
(dp192
sg70
g66
sg63
(lp193
g56
(g77
g58
NtRp194
(dp195
g61
(dp196
g81
g82
ssg70
g190
sg63
(lp197
S'controller'
p198
asbag56
(g77
g58
NtRp199
(dp200
g61
(dp201
g88
g89
ssg70
g190
sg63
(lp202
S':'
asbag56
(g77
g58
NtRp203
(dp204
g61
(dp205
sg70
g190
sg63
(lp206
g56
(g57
g58
NtRp207
(dp208
g61
(dp209
g69
I5
ssg70
g203
sg63
(lp210
S'default'
p211
asbasbasbag56
(g72
g58
NtRp212
(dp213
g61
(dp214
sg70
g66
sg63
(lp215
g56
(g77
g58
NtRp216
(dp217
g61
(dp218
g81
g82
ssg70
g212
sg63
(lp219
S'cookies'
p220
asbag56
(g77
g58
NtRp221
(dp222
g61
(dp223
g88
g89
ssg70
g212
sg63
(lp224
S':'
asbag56
(g77
g58
NtRp225
(dp226
g61
(dp227
sg70
g212
sg63
(lp228
g56
(g57
g58
NtRp229
(dp230
g61
(dp231
g69
I5
ssg70
g225
sg63
(lp232
g56
(g65
g58
NtRp233
(dp234
g61
(dp235
g69
I4
ssg70
Nsg63
(lp236
g56
(g72
g58
NtRp237
(dp238
g61
(dp239
sg70
g233
sg63
(lp240
g56
(g77
g58
NtRp241
(dp242
g61
(dp243
g81
g82
ssg70
g237
sg63
(lp244
S'session_id_admin'
p245
asbag56
(g77
g58
NtRp246
(dp247
g61
(dp248
g88
g89
ssg70
g237
sg63
(lp249
S':'
asbag56
(g77
g58
NtRp250
(dp251
g61
(dp252
sg70
g237
sg63
(lp253
g56
(g57
g58
NtRp254
(dp255
g61
(dp256
g69
I4
ssg70
g250
sg63
(lp257
g56
(g65
g58
NtRp258
(dp259
g61
(dp260
g69
I3
ssg70
Nsg63
(lp261
g56
(g72
g58
NtRp262
(dp263
g61
(dp264
sg70
g258
sg63
(lp265
g56
(g77
g58
NtRp266
(dp267
g61
(dp268
g81
g82
ssg70
g262
sg63
(lp269
S'comment'
p270
asbag56
(g77
g58
NtRp271
(dp272
g61
(dp273
g88
g89
ssg70
g262
sg63
(lp274
S':'
asbag56
(g77
g58
NtRp275
(dp276
g61
(dp277
sg70
g262
sg63
(lp278
g56
(g57
g58
NtRp279
(dp280
g61
(dp281
g69
I3
ssg70
g275
sg63
(lp282
S''
asbasbasbag56
(g72
g58
NtRp283
(dp284
g61
(dp285
sg70
g258
sg63
(lp286
g56
(g77
g58
NtRp287
(dp288
g61
(dp289
g81
g82
ssg70
g283
sg63
(lp290
S'domain'
p291
asbag56
(g77
g58
NtRp292
(dp293
g61
(dp294
g88
g89
ssg70
g283
sg63
(lp295
S':'
asbag56
(g77
g58
NtRp296
(dp297
g61
(dp298
sg70
g283
sg63
(lp299
g56
(g57
g58
NtRp300
(dp301
g61
(dp302
g69
I3
ssg70
g296
sg63
(lp303
S''
asbasbasbag56
(g72
g58
NtRp304
(dp305
g61
(dp306
sg70
g258
sg63
(lp307
g56
(g77
g58
NtRp308
(dp309
g61
(dp310
g81
g82
ssg70
g304
sg63
(lp311
S'expires'
p312
asbag56
(g77
g58
NtRp313
(dp314
g61
(dp315
g88
g89
ssg70
g304
sg63
(lp316
S':'
asbag56
(g77
g58
NtRp317
(dp318
g61
(dp319
sg70
g304
sg63
(lp320
g56
(g57
g58
NtRp321
(dp322
g61
(dp323
g69
I3
ssg70
g317
sg63
(lp324
S''
asbasbasbag56
(g72
g58
NtRp325
(dp326
g61
(dp327
sg70
g258
sg63
(lp328
g56
(g77
g58
NtRp329
(dp330
g61
(dp331
g81
g82
ssg70
g325
sg63
(lp332
S'httponly'
p333
asbag56
(g77
g58
NtRp334
(dp335
g61
(dp336
g88
g89
ssg70
g325
sg63
(lp337
S':'
asbag56
(g77
g58
NtRp338
(dp339
g61
(dp340
sg70
g325
sg63
(lp341
g56
(g57
g58
NtRp342
(dp343
g61
(dp344
g69
I3
ssg70
g338
sg63
(lp345
S''
asbasbasbag56
(g72
g58
NtRp346
(dp347
g61
(dp348
sg70
g258
sg63
(lp349
g56
(g77
g58
NtRp350
(dp351
g61
(dp352
g81
g82
ssg70
g346
sg63
(lp353
S'max-age'
p354
asbag56
(g77
g58
NtRp355
(dp356
g61
(dp357
g88
g89
ssg70
g346
sg63
(lp358
S':'
asbag56
(g77
g58
NtRp359
(dp360
g61
(dp361
sg70
g346
sg63
(lp362
g56
(g57
g58
NtRp363
(dp364
g61
(dp365
g69
I3
ssg70
g359
sg63
(lp366
S''
asbasbasbag56
(g72
g58
NtRp367
(dp368
g61
(dp369
sg70
g258
sg63
(lp370
g56
(g77
g58
NtRp371
(dp372
g61
(dp373
g81
g82
ssg70
g367
sg63
(lp374
S'path'
p375
asbag56
(g77
g58
NtRp376
(dp377
g61
(dp378
g88
g89
ssg70
g367
sg63
(lp379
S':'
asbag56
(g77
g58
NtRp380
(dp381
g61
(dp382
sg70
g367
sg63
(lp383
g56
(g57
g58
NtRp384
(dp385
g61
(dp386
g69
I3
ssg70
g380
sg63
(lp387
S''
asbasbasbag56
(g72
g58
NtRp388
(dp389
g61
(dp390
sg70
g258
sg63
(lp391
g56
(g77
g58
NtRp392
(dp393
g61
(dp394
g81
g82
ssg70
g388
sg63
(lp395
S'secure'
p396
asbag56
(g77
g58
NtRp397
(dp398
g61
(dp399
g88
g89
ssg70
g388
sg63
(lp400
S':'
asbag56
(g77
g58
NtRp401
(dp402
g61
(dp403
sg70
g388
sg63
(lp404
g56
(g57
g58
NtRp405
(dp406
g61
(dp407
g69
I3
ssg70
g401
sg63
(lp408
S''
asbasbasbag56
(g72
g58
NtRp409
(dp410
g61
(dp411
sg70
g258
sg63
(lp412
g56
(g77
g58
NtRp413
(dp414
g61
(dp415
g81
g82
ssg70
g409
sg63
(lp416
S'version'
p417
asbag56
(g77
g58
NtRp418
(dp419
g61
(dp420
g88
g89
ssg70
g409
sg63
(lp421
S':'
asbag56
(g77
g58
NtRp422
(dp423
g61
(dp424
sg70
g409
sg63
(lp425
g56
(g57
g58
NtRp426
(dp427
g61
(dp428
g69
I3
ssg70
g422
sg63
(lp429
S''
asbasbasbasbasbasbasbag56
(g72
g58
NtRp430
(dp431
g61
(dp432
sg70
g233
sg63
(lp433
g56
(g77
g58
NtRp434
(dp435
g61
(dp436
g81
g82
ssg70
g430
sg63
(lp437
S'session_id_ddlagoon'
p438
asbag56
(g77
g58
NtRp439
(dp440
g61
(dp441
g88
g89
ssg70
g430
sg63
(lp442
S':'
asbag56
(g77
g58
NtRp443
(dp444
g61
(dp445
sg70
g430
sg63
(lp446
g56
(g57
g58
NtRp447
(dp448
g61
(dp449
g69
I4
ssg70
g443
sg63
(lp450
g56
(g65
g58
NtRp451
(dp452
g61
(dp453
g69
I3
ssg70
Nsg63
(lp454
g56
(g72
g58
NtRp455
(dp456
g61
(dp457
sg70
g451
sg63
(lp458
g56
(g77
g58
NtRp459
(dp460
g61
(dp461
g81
g82
ssg70
g455
sg63
(lp462
g270
asbag56
(g77
g58
NtRp463
(dp464
g61
(dp465
g88
g89
ssg70
g455
sg63
(lp466
S':'
asbag56
(g77
g58
NtRp467
(dp468
g61
(dp469
sg70
g455
sg63
(lp470
g56
(g57
g58
NtRp471
(dp472
g61
(dp473
g69
I3
ssg70
g467
sg63
(lp474
S''
asbasbasbag56
(g72
g58
NtRp475
(dp476
g61
(dp477
sg70
g451
sg63
(lp478
g56
(g77
g58
NtRp479
(dp480
g61
(dp481
g81
g82
ssg70
g475
sg63
(lp482
g291
asbag56
(g77
g58
NtRp483
(dp484
g61
(dp485
g88
g89
ssg70
g475
sg63
(lp486
S':'
asbag56
(g77
g58
NtRp487
(dp488
g61
(dp489
sg70
g475
sg63
(lp490
g56
(g57
g58
NtRp491
(dp492
g61
(dp493
g69
I3
ssg70
g487
sg63
(lp494
S''
asbasbasbag56
(g72
g58
NtRp495
(dp496
g61
(dp497
sg70
g451
sg63
(lp498
g56
(g77
g58
NtRp499
(dp500
g61
(dp501
g81
g82
ssg70
g495
sg63
(lp502
g312
asbag56
(g77
g58
NtRp503
(dp504
g61
(dp505
g88
g89
ssg70
g495
sg63
(lp506
S':'
asbag56
(g77
g58
NtRp507
(dp508
g61
(dp509
sg70
g495
sg63
(lp510
g56
(g57
g58
NtRp511
(dp512
g61
(dp513
g69
I3
ssg70
g507
sg63
(lp514
S''
asbasbasbag56
(g72
g58
NtRp515
(dp516
g61
(dp517
sg70
g451
sg63
(lp518
g56
(g77
g58
NtRp519
(dp520
g61
(dp521
g81
g82
ssg70
g515
sg63
(lp522
g333
asbag56
(g77
g58
NtRp523
(dp524
g61
(dp525
g88
g89
ssg70
g515
sg63
(lp526
S':'
asbag56
(g77
g58
NtRp527
(dp528
g61
(dp529
sg70
g515
sg63
(lp530
g56
(g57
g58
NtRp531
(dp532
g61
(dp533
g69
I3
ssg70
g527
sg63
(lp534
S''
asbasbasbag56
(g72
g58
NtRp535
(dp536
g61
(dp537
sg70
g451
sg63
(lp538
g56
(g77
g58
NtRp539
(dp540
g61
(dp541
g81
g82
ssg70
g535
sg63
(lp542
g354
asbag56
(g77
g58
NtRp543
(dp544
g61
(dp545
g88
g89
ssg70
g535
sg63
(lp546
S':'
asbag56
(g77
g58
NtRp547
(dp548
g61
(dp549
sg70
g535
sg63
(lp550
g56
(g57
g58
NtRp551
(dp552
g61
(dp553
g69
I3
ssg70
g547
sg63
(lp554
S''
asbasbasbag56
(g72
g58
NtRp555
(dp556
g61
(dp557
sg70
g451
sg63
(lp558
g56
(g77
g58
NtRp559
(dp560
g61
(dp561
g81
g82
ssg70
g555
sg63
(lp562
g375
asbag56
(g77
g58
NtRp563
(dp564
g61
(dp565
g88
g89
ssg70
g555
sg63
(lp566
S':'
asbag56
(g77
g58
NtRp567
(dp568
g61
(dp569
sg70
g555
sg63
(lp570
g56
(g57
g58
NtRp571
(dp572
g61
(dp573
g69
I3
ssg70
g567
sg63
(lp574
S''
asbasbasbag56
(g72
g58
NtRp575
(dp576
g61
(dp577
sg70
g451
sg63
(lp578
g56
(g77
g58
NtRp579
(dp580
g61
(dp581
g81
g82
ssg70
g575
sg63
(lp582
g396
asbag56
(g77
g58
NtRp583
(dp584
g61
(dp585
g88
g89
ssg70
g575
sg63
(lp586
S':'
asbag56
(g77
g58
NtRp587
(dp588
g61
(dp589
sg70
g575
sg63
(lp590
g56
(g57
g58
NtRp591
(dp592
g61
(dp593
g69
I3
ssg70
g587
sg63
(lp594
S''
asbasbasbag56
(g72
g58
NtRp595
(dp596
g61
(dp597
sg70
g451
sg63
(lp598
g56
(g77
g58
NtRp599
(dp600
g61
(dp601
g81
g82
ssg70
g595
sg63
(lp602
g417
asbag56
(g77
g58
NtRp603
(dp604
g61
(dp605
g88
g89
ssg70
g595
sg63
(lp606
S':'
asbag56
(g77
g58
NtRp607
(dp608
g61
(dp609
sg70
g595
sg63
(lp610
g56
(g57
g58
NtRp611
(dp612
g61
(dp613
g69
I3
ssg70
g607
sg63
(lp614
S''
asbasbasbasbasbasbasbag56
(g72
g58
NtRp615
(dp616
g61
(dp617
sg70
g233
sg63
(lp618
g56
(g77
g58
NtRp619
(dp620
g61
(dp621
g81
g82
ssg70
g615
sg63
(lp622
S'session_id_welcome'
p623
asbag56
(g77
g58
NtRp624
(dp625
g61
(dp626
g88
g89
ssg70
g615
sg63
(lp627
S':'
asbag56
(g77
g58
NtRp628
(dp629
g61
(dp630
sg70
g615
sg63
(lp631
g56
(g57
g58
NtRp632
(dp633
g61
(dp634
g69
I4
ssg70
g628
sg63
(lp635
g56
(g65
g58
NtRp636
(dp637
g61
(dp638
g69
I3
ssg70
Nsg63
(lp639
g56
(g72
g58
NtRp640
(dp641
g61
(dp642
sg70
g636
sg63
(lp643
g56
(g77
g58
NtRp644
(dp645
g61
(dp646
g81
g82
ssg70
g640
sg63
(lp647
g270
asbag56
(g77
g58
NtRp648
(dp649
g61
(dp650
g88
g89
ssg70
g640
sg63
(lp651
S':'
asbag56
(g77
g58
NtRp652
(dp653
g61
(dp654
sg70
g640
sg63
(lp655
g56
(g57
g58
NtRp656
(dp657
g61
(dp658
g69
I3
ssg70
g652
sg63
(lp659
S''
asbasbasbag56
(g72
g58
NtRp660
(dp661
g61
(dp662
sg70
g636
sg63
(lp663
g56
(g77
g58
NtRp664
(dp665
g61
(dp666
g81
g82
ssg70
g660
sg63
(lp667
g291
asbag56
(g77
g58
NtRp668
(dp669
g61
(dp670
g88
g89
ssg70
g660
sg63
(lp671
S':'
asbag56
(g77
g58
NtRp672
(dp673
g61
(dp674
sg70
g660
sg63
(lp675
g56
(g57
g58
NtRp676
(dp677
g61
(dp678
g69
I3
ssg70
g672
sg63
(lp679
S''
asbasbasbag56
(g72
g58
NtRp680
(dp681
g61
(dp682
sg70
g636
sg63
(lp683
g56
(g77
g58
NtRp684
(dp685
g61
(dp686
g81
g82
ssg70
g680
sg63
(lp687
g312
asbag56
(g77
g58
NtRp688
(dp689
g61
(dp690
g88
g89
ssg70
g680
sg63
(lp691
S':'
asbag56
(g77
g58
NtRp692
(dp693
g61
(dp694
sg70
g680
sg63
(lp695
g56
(g57
g58
NtRp696
(dp697
g61
(dp698
g69
I3
ssg70
g692
sg63
(lp699
S''
asbasbasbag56
(g72
g58
NtRp700
(dp701
g61
(dp702
sg70
g636
sg63
(lp703
g56
(g77
g58
NtRp704
(dp705
g61
(dp706
g81
g82
ssg70
g700
sg63
(lp707
g333
asbag56
(g77
g58
NtRp708
(dp709
g61
(dp710
g88
g89
ssg70
g700
sg63
(lp711
S':'
asbag56
(g77
g58
NtRp712
(dp713
g61
(dp714
sg70
g700
sg63
(lp715
g56
(g57
g58
NtRp716
(dp717
g61
(dp718
g69
I3
ssg70
g712
sg63
(lp719
S''
asbasbasbag56
(g72
g58
NtRp720
(dp721
g61
(dp722
sg70
g636
sg63
(lp723
g56
(g77
g58
NtRp724
(dp725
g61
(dp726
g81
g82
ssg70
g720
sg63
(lp727
g354
asbag56
(g77
g58
NtRp728
(dp729
g61
(dp730
g88
g89
ssg70
g720
sg63
(lp731
S':'
asbag56
(g77
g58
NtRp732
(dp733
g61
(dp734
sg70
g720
sg63
(lp735
g56
(g57
g58
NtRp736
(dp737
g61
(dp738
g69
I3
ssg70
g732
sg63
(lp739
S''
asbasbasbag56
(g72
g58
NtRp740
(dp741
g61
(dp742
sg70
g636
sg63
(lp743
g56
(g77
g58
NtRp744
(dp745
g61
(dp746
g81
g82
ssg70
g740
sg63
(lp747
g375
asbag56
(g77
g58
NtRp748
(dp749
g61
(dp750
g88
g89
ssg70
g740
sg63
(lp751
S':'
asbag56
(g77
g58
NtRp752
(dp753
g61
(dp754
sg70
g740
sg63
(lp755
g56
(g57
g58
NtRp756
(dp757
g61
(dp758
g69
I3
ssg70
g752
sg63
(lp759
S''
asbasbasbag56
(g72
g58
NtRp760
(dp761
g61
(dp762
sg70
g636
sg63
(lp763
g56
(g77
g58
NtRp764
(dp765
g61
(dp766
g81
g82
ssg70
g760
sg63
(lp767
g396
asbag56
(g77
g58
NtRp768
(dp769
g61
(dp770
g88
g89
ssg70
g760
sg63
(lp771
S':'
asbag56
(g77
g58
NtRp772
(dp773
g61
(dp774
sg70
g760
sg63
(lp775
g56
(g57
g58
NtRp776
(dp777
g61
(dp778
g69
I3
ssg70
g772
sg63
(lp779
S''
asbasbasbag56
(g72
g58
NtRp780
(dp781
g61
(dp782
sg70
g636
sg63
(lp783
g56
(g77
g58
NtRp784
(dp785
g61
(dp786
g81
g82
ssg70
g780
sg63
(lp787
g417
asbag56
(g77
g58
NtRp788
(dp789
g61
(dp790
g88
g89
ssg70
g780
sg63
(lp791
S':'
asbag56
(g77
g58
NtRp792
(dp793
g61
(dp794
sg70
g780
sg63
(lp795
g56
(g57
g58
NtRp796
(dp797
g61
(dp798
g69
I3
ssg70
g792
sg63
(lp799
S''
asbasbasbasbasbasbasbasbasbasbasbag56
(g72
g58
NtRp800
(dp801
g61
(dp802
sg70
g66
sg63
(lp803
g56
(g77
g58
NtRp804
(dp805
g61
(dp806
g81
g82
ssg70
g800
sg63
(lp807
S'env'
p808
asbag56
(g77
g58
NtRp809
(dp810
g61
(dp811
g88
g89
ssg70
g800
sg63
(lp812
S':'
asbag56
(g77
g58
NtRp813
(dp814
g61
(dp815
sg70
g800
sg63
(lp816
g56
(g57
g58
NtRp817
(dp818
g61
(dp819
g69
I5
ssg70
g813
sg63
(lp820
g56
(g65
g58
NtRp821
(dp822
g61
(dp823
g69
I4
ssg70
Nsg63
(lp824
g56
(g72
g58
NtRp825
(dp826
g61
(dp827
sg70
g821
sg63
(lp828
g56
(g77
g58
NtRp829
(dp830
g61
(dp831
g81
g82
ssg70
g825
sg63
(lp832
S'app_folders'
p833
asbag56
(g77
g58
NtRp834
(dp835
g61
(dp836
g88
g89
ssg70
g825
sg63
(lp837
S':'
asbag56
(g77
g58
NtRp838
(dp839
g61
(dp840
sg70
g825
sg63
(lp841
g56
(g57
g58
NtRp842
(dp843
g61
(dp844
g69
I4
ssg70
g838
sg63
(lp845
S"set(['/windows/Users/Thomas/Dropbox/appz/2011/GAE/ddl-lagoon/applications/ddlagoon/', '/windows/Users/Thomas/Dropbox/appz/2011/GAE/ddl-lagoon/applications/welcome/', '/windows/Users/Thomas/Dropbox/appz/2011/GAE/ddl-lagoon/applications/admin/'])"
p846
asbasbasbag56
(g72
g58
NtRp847
(dp848
g61
(dp849
sg70
g821
sg63
(lp850
g56
(g77
g58
NtRp851
(dp852
g61
(dp853
g81
g82
ssg70
g847
sg63
(lp854
S'applications_parent'
p855
asbag56
(g77
g58
NtRp856
(dp857
g61
(dp858
g88
g89
ssg70
g847
sg63
(lp859
S':'
asbag56
(g77
g58
NtRp860
(dp861
g61
(dp862
sg70
g847
sg63
(lp863
g56
(g57
g58
NtRp864
(dp865
g61
(dp866
g69
I4
ssg70
g860
sg63
(lp867
S'/windows/Users/Thomas/Dropbox/appz/2011/GAE/ddl-lagoon'
p868
asbasbasbag56
(g72
g58
NtRp869
(dp870
g61
(dp871
sg70
g821
sg63
(lp872
g56
(g77
g58
NtRp873
(dp874
g61
(dp875
g81
g82
ssg70
g869
sg63
(lp876
S'cmd_args'
p877
asbag56
(g77
g58
NtRp878
(dp879
g61
(dp880
g88
g89
ssg70
g869
sg63
(lp881
S':'
asbag56
(g77
g58
NtRp882
(dp883
g61
(dp884
sg70
g869
sg63
(lp885
g56
(g57
g58
NtRp886
(dp887
g61
(dp888
g69
I4
ssg70
g882
sg63
(lp889
g56
(g65
g58
NtRp890
(dp891
g61
(dp892
g69
I3
ssg70
Nsg63
(lp893
sbasbasbasbag56
(g72
g58
NtRp894
(dp895
g61
(dp896
sg70
g821
sg63
(lp897
g56
(g77
g58
NtRp898
(dp899
g61
(dp900
g81
g82
ssg70
g894
sg63
(lp901
S'cmd_options'
p902
asbag56
(g77
g58
NtRp903
(dp904
g61
(dp905
g88
g89
ssg70
g894
sg63
(lp906
S':'
asbag56
(g77
g58
NtRp907
(dp908
g61
(dp909
sg70
g894
sg63
(lp910
g56
(g57
g58
NtRp911
(dp912
g61
(dp913
g69
I4
ssg70
g907
sg63
(lp914
S"<Values at 0x2569cf8: {'verbose': False, 'ip': '127.0.0.1', 'shutdown_timeout': 5, 'taskbar': False, 'nocron': False, 'pid_filename': 'httpserver.pid', 'maxthreads': None, 'softcron': False, 'server_name': 'VPCF22AJ', 'bpython': False, 'nogui': False, 'port': 8000, 'extcron': False, 'debuglevel': 30, 'test': None, 'folder': '/windows/Users/Thomas/Dropbox/appz/2011/GAE/ddl-lagoon', 'config': '', 'import_models': False, 'winservice': '', 'shell': None, 'run': '', 'log_filename': 'httpserver.log', 'args': [''], 'ssl_ca_certificate': None, 'scheduler': None, 'profiler_filename': None, 'ssl_private_key': '', 'password': 'admin', 'request_queue_size': 5, 'ssl_certificate': '', 'cronjob': False, 'plain': False, 'quiet': False, 'interfaces': None, 'minthreads': None, 'timeout': 10, 'numthreads': None, 'nobanner': False}>"
p915
asbasbasbag56
(g72
g58
NtRp916
(dp917
g61
(dp918
sg70
g821
sg63
(lp919
g56
(g77
g58
NtRp920
(dp921
g61
(dp922
g81
g82
ssg70
g916
sg63
(lp923
S'db_sessions'
p924
asbag56
(g77
g58
NtRp925
(dp926
g61
(dp927
g88
g89
ssg70
g916
sg63
(lp928
S':'
asbag56
(g77
g58
NtRp929
(dp930
g61
(dp931
sg70
g916
sg63
(lp932
g56
(g57
g58
NtRp933
(dp934
g61
(dp935
g69
I4
ssg70
g929
sg63
(lp936
S'set([])'
p937
asbasbasbag56
(g72
g58
NtRp938
(dp939
g61
(dp940
sg70
g821
sg63
(lp941
g56
(g77
g58
NtRp942
(dp943
g61
(dp944
g81
g82
ssg70
g938
sg63
(lp945
S'debugging'
p946
asbag56
(g77
g58
NtRp947
(dp948
g61
(dp949
g88
g89
ssg70
g938
sg63
(lp950
S':'
asbag56
(g77
g58
NtRp951
(dp952
g61
(dp953
sg70
g938
sg63
(lp954
g56
(g57
g58
NtRp955
(dp956
g61
(dp957
g69
I4
ssg70
g951
sg63
(lp958
g99
asbasbasbag56
(g72
g58
NtRp959
(dp960
g61
(dp961
sg70
g821
sg63
(lp962
g56
(g77
g58
NtRp963
(dp964
g61
(dp965
g81
g82
ssg70
g959
sg63
(lp966
S'gluon_parent'
p967
asbag56
(g77
g58
NtRp968
(dp969
g61
(dp970
g88
g89
ssg70
g959
sg63
(lp971
S':'
asbag56
(g77
g58
NtRp972
(dp973
g61
(dp974
sg70
g959
sg63
(lp975
g56
(g57
g58
NtRp976
(dp977
g61
(dp978
g69
I4
ssg70
g972
sg63
(lp979
S'/windows/Users/Thomas/Dropbox/appz/2011/GAE/ddl-lagoon'
p980
asbasbasbag56
(g72
g58
NtRp981
(dp982
g61
(dp983
sg70
g821
sg63
(lp984
g56
(g77
g58
NtRp985
(dp986
g61
(dp987
g81
g82
ssg70
g981
sg63
(lp988
S'http_accept'
p989
asbag56
(g77
g58
NtRp990
(dp991
g61
(dp992
g88
g89
ssg70
g981
sg63
(lp993
S':'
asbag56
(g77
g58
NtRp994
(dp995
g61
(dp996
sg70
g981
sg63
(lp997
g56
(g57
g58
NtRp998
(dp999
g61
(dp1000
g69
I4
ssg70
g994
sg63
(lp1001
S'text/html,application/xhtml+xml,application/xml;q=0.9,*/*;q=0.8'
p1002
asbasbasbag56
(g72
g58
NtRp1003
(dp1004
g61
(dp1005
sg70
g821
sg63
(lp1006
g56
(g77
g58
NtRp1007
(dp1008
g61
(dp1009
g81
g82
ssg70
g1003
sg63
(lp1010
S'http_accept_charset'
p1011
asbag56
(g77
g58
NtRp1012
(dp1013
g61
(dp1014
g88
g89
ssg70
g1003
sg63
(lp1015
S':'
asbag56
(g77
g58
NtRp1016
(dp1017
g61
(dp1018
sg70
g1003
sg63
(lp1019
g56
(g57
g58
NtRp1020
(dp1021
g61
(dp1022
g69
I4
ssg70
g1016
sg63
(lp1023
S'ISO-8859-1,utf-8;q=0.7,*;q=0.3'
p1024
asbasbasbag56
(g72
g58
NtRp1025
(dp1026
g61
(dp1027
sg70
g821
sg63
(lp1028
g56
(g77
g58
NtRp1029
(dp1030
g61
(dp1031
g81
g82
ssg70
g1025
sg63
(lp1032
S'http_accept_encoding'
p1033
asbag56
(g77
g58
NtRp1034
(dp1035
g61
(dp1036
g88
g89
ssg70
g1025
sg63
(lp1037
S':'
asbag56
(g77
g58
NtRp1038
(dp1039
g61
(dp1040
sg70
g1025
sg63
(lp1041
g56
(g57
g58
NtRp1042
(dp1043
g61
(dp1044
g69
I4
ssg70
g1038
sg63
(lp1045
S'gzip,deflate,sdch'
p1046
asbasbasbag56
(g72
g58
NtRp1047
(dp1048
g61
(dp1049
sg70
g821
sg63
(lp1050
g56
(g77
g58
NtRp1051
(dp1052
g61
(dp1053
g81
g82
ssg70
g1047
sg63
(lp1054
S'http_accept_language'
p1055
asbag56
(g77
g58
NtRp1056
(dp1057
g61
(dp1058
g88
g89
ssg70
g1047
sg63
(lp1059
S':'
asbag56
(g77
g58
NtRp1060
(dp1061
g61
(dp1062
sg70
g1047
sg63
(lp1063
g56
(g57
g58
NtRp1064
(dp1065
g61
(dp1066
g69
I4
ssg70
g1060
sg63
(lp1067
S'en-US,en;q=0.8,fr;q=0.6'
p1068
asbasbasbag56
(g72
g58
NtRp1069
(dp1070
g61
(dp1071
sg70
g821
sg63
(lp1072
g56
(g77
g58
NtRp1073
(dp1074
g61
(dp1075
g81
g82
ssg70
g1069
sg63
(lp1076
S'http_cache_control'
p1077
asbag56
(g77
g58
NtRp1078
(dp1079
g61
(dp1080
g88
g89
ssg70
g1069
sg63
(lp1081
S':'
asbag56
(g77
g58
NtRp1082
(dp1083
g61
(dp1084
sg70
g1069
sg63
(lp1085
g56
(g57
g58
NtRp1086
(dp1087
g61
(dp1088
g69
I4
ssg70
g1082
sg63
(lp1089
S'max-age=0'
p1090
asbasbasbag56
(g72
g58
NtRp1091
(dp1092
g61
(dp1093
sg70
g821
sg63
(lp1094
g56
(g77
g58
NtRp1095
(dp1096
g61
(dp1097
g81
g82
ssg70
g1091
sg63
(lp1098
S'http_connection'
p1099
asbag56
(g77
g58
NtRp1100
(dp1101
g61
(dp1102
g88
g89
ssg70
g1091
sg63
(lp1103
S':'
asbag56
(g77
g58
NtRp1104
(dp1105
g61
(dp1106
sg70
g1091
sg63
(lp1107
g56
(g57
g58
NtRp1108
(dp1109
g61
(dp1110
g69
I4
ssg70
g1104
sg63
(lp1111
S'keep-alive'
p1112
asbasbasbag56
(g72
g58
NtRp1113
(dp1114
g61
(dp1115
sg70
g821
sg63
(lp1116
g56
(g77
g58
NtRp1117
(dp1118
g61
(dp1119
g81
g82
ssg70
g1113
sg63
(lp1120
S'http_cookie'
p1121
asbag56
(g77
g58
NtRp1122
(dp1123
g61
(dp1124
g88
g89
ssg70
g1113
sg63
(lp1125
S':'
asbag56
(g77
g58
NtRp1126
(dp1127
g61
(dp1128
sg70
g1113
sg63
(lp1129
g56
(g57
g58
NtRp1130
(dp1131
g61
(dp1132
g69
I4
ssg70
g1126
sg63
(lp1133
S'__utma_a2a=5510587673.1349489975.1317933049.1319659660.1319659660.47; session_id_welcome=127.0.0.1-f7fb4a09-ce09-4815-abcc-fca1d9093faf; session_id_admin=127.0.0.1-975d2e86-8c26-4bdc-8b21-2f846f38d507; session_id_ddlagoon=127.0.0.1-79ca68a8-6221-4a7c-92e7-622e605c3bdf'
p1134
asbasbasbag56
(g72
g58
NtRp1135
(dp1136
g61
(dp1137
sg70
g821
sg63
(lp1138
g56
(g77
g58
NtRp1139
(dp1140
g61
(dp1141
g81
g82
ssg70
g1135
sg63
(lp1142
S'http_host'
p1143
asbag56
(g77
g58
NtRp1144
(dp1145
g61
(dp1146
g88
g89
ssg70
g1135
sg63
(lp1147
S':'
asbag56
(g77
g58
NtRp1148
(dp1149
g61
(dp1150
sg70
g1135
sg63
(lp1151
g56
(g57
g58
NtRp1152
(dp1153
g61
(dp1154
g69
I4
ssg70
g1148
sg63
(lp1155
S'127.0.0.1:8000'
p1156
asbasbasbag56
(g72
g58
NtRp1157
(dp1158
g61
(dp1159
sg70
g821
sg63
(lp1160
g56
(g77
g58
NtRp1161
(dp1162
g61
(dp1163
g81
g82
ssg70
g1157
sg63
(lp1164
S'http_user_agent'
p1165
asbag56
(g77
g58
NtRp1166
(dp1167
g61
(dp1168
g88
g89
ssg70
g1157
sg63
(lp1169
S':'
asbag56
(g77
g58
NtRp1170
(dp1171
g61
(dp1172
sg70
g1157
sg63
(lp1173
g56
(g57
g58
NtRp1174
(dp1175
g61
(dp1176
g69
I4
ssg70
g1170
sg63
(lp1177
S'Mozilla/5.0 (X11; Linux x86_64) AppleWebKit/535.2 (KHTML, like Gecko) Chrome/15.0.874.106 Safari/535.2'
p1178
asbasbasbag56
(g72
g58
NtRp1179
(dp1180
g61
(dp1181
sg70
g821
sg63
(lp1182
g56
(g77
g58
NtRp1183
(dp1184
g61
(dp1185
g81
g82
ssg70
g1179
sg63
(lp1186
S'is_jython'
p1187
asbag56
(g77
g58
NtRp1188
(dp1189
g61
(dp1190
g88
g89
ssg70
g1179
sg63
(lp1191
S':'
asbag56
(g77
g58
NtRp1192
(dp1193
g61
(dp1194
sg70
g1179
sg63
(lp1195
g56
(g57
g58
NtRp1196
(dp1197
g61
(dp1198
g69
I4
ssg70
g1192
sg63
(lp1199
g99
asbasbasbag56
(g72
g58
NtRp1200
(dp1201
g61
(dp1202
sg70
g821
sg63
(lp1203
g56
(g77
g58
NtRp1204
(dp1205
g61
(dp1206
g81
g82
ssg70
g1200
sg63
(lp1207
S'path_info'
p1208
asbag56
(g77
g58
NtRp1209
(dp1210
g61
(dp1211
g88
g89
ssg70
g1200
sg63
(lp1212
S':'
asbag56
(g77
g58
NtRp1213
(dp1214
g61
(dp1215
sg70
g1200
sg63
(lp1216
g56
(g57
g58
NtRp1217
(dp1218
g61
(dp1219
g69
I4
ssg70
g1213
sg63
(lp1220
S'/ddlagoon/default'
p1221
asbasbasbag56
(g72
g58
NtRp1222
(dp1223
g61
(dp1224
sg70
g821
sg63
(lp1225
g56
(g77
g58
NtRp1226
(dp1227
g61
(dp1228
g81
g82
ssg70
g1222
sg63
(lp1229
S'query_string'
p1230
asbag56
(g77
g58
NtRp1231
(dp1232
g61
(dp1233
g88
g89
ssg70
g1222
sg63
(lp1234
S':'
asbag56
(g77
g58
NtRp1235
(dp1236
g61
(dp1237
sg70
g1222
sg63
(lp1238
g56
(g57
g58
NtRp1239
(dp1240
g61
(dp1241
g69
I4
ssg70
g1235
sg63
(lp1242
S''
asbasbasbag56
(g72
g58
NtRp1243
(dp1244
g61
(dp1245
sg70
g821
sg63
(lp1246
g56
(g77
g58
NtRp1247
(dp1248
g61
(dp1249
g81
g82
ssg70
g1243
sg63
(lp1250
S'remote_addr'
p1251
asbag56
(g77
g58
NtRp1252
(dp1253
g61
(dp1254
g88
g89
ssg70
g1243
sg63
(lp1255
S':'
asbag56
(g77
g58
NtRp1256
(dp1257
g61
(dp1258
sg70
g1243
sg63
(lp1259
g56
(g57
g58
NtRp1260
(dp1261
g61
(dp1262
g69
I4
ssg70
g1256
sg63
(lp1263
g189
asbasbasbag56
(g72
g58
NtRp1264
(dp1265
g61
(dp1266
sg70
g821
sg63
(lp1267
g56
(g77
g58
NtRp1268
(dp1269
g61
(dp1270
g81
g82
ssg70
g1264
sg63
(lp1271
S'remote_port'
p1272
asbag56
(g77
g58
NtRp1273
(dp1274
g61
(dp1275
g88
g89
ssg70
g1264
sg63
(lp1276
S':'
asbag56
(g77
g58
NtRp1277
(dp1278
g61
(dp1279
sg70
g1264
sg63
(lp1280
g56
(g57
g58
NtRp1281
(dp1282
g61
(dp1283
g69
I4
ssg70
g1277
sg63
(lp1284
S'44546'
p1285
asbasbasbag56
(g72
g58
NtRp1286
(dp1287
g61
(dp1288
sg70
g821
sg63
(lp1289
g56
(g77
g58
NtRp1290
(dp1291
g61
(dp1292
g81
g82
ssg70
g1286
sg63
(lp1293
S'request_method'
p1294
asbag56
(g77
g58
NtRp1295
(dp1296
g61
(dp1297
g88
g89
ssg70
g1286
sg63
(lp1298
S':'
asbag56
(g77
g58
NtRp1299
(dp1300
g61
(dp1301
sg70
g1286
sg63
(lp1302
g56
(g57
g58
NtRp1303
(dp1304
g61
(dp1305
g69
I4
ssg70
g1299
sg63
(lp1306
S'GET'
p1307
asbasbasbag56
(g72
g58
NtRp1308
(dp1309
g61
(dp1310
sg70
g821
sg63
(lp1311
g56
(g77
g58
NtRp1312
(dp1313
g61
(dp1314
g81
g82
ssg70
g1308
sg63
(lp1315
S'request_uri'
p1316
asbag56
(g77
g58
NtRp1317
(dp1318
g61
(dp1319
g88
g89
ssg70
g1308
sg63
(lp1320
S':'
asbag56
(g77
g58
NtRp1321
(dp1322
g61
(dp1323
sg70
g1308
sg63
(lp1324
g56
(g57
g58
NtRp1325
(dp1326
g61
(dp1327
g69
I4
ssg70
g1321
sg63
(lp1328
g1221
asbasbasbag56
(g72
g58
NtRp1329
(dp1330
g61
(dp1331
sg70
g821
sg63
(lp1332
g56
(g77
g58
NtRp1333
(dp1334
g61
(dp1335
g81
g82
ssg70
g1329
sg63
(lp1336
S'script_name'
p1337
asbag56
(g77
g58
NtRp1338
(dp1339
g61
(dp1340
g88
g89
ssg70
g1329
sg63
(lp1341
S':'
asbag56
(g77
g58
NtRp1342
(dp1343
g61
(dp1344
sg70
g1329
sg63
(lp1345
g56
(g57
g58
NtRp1346
(dp1347
g61
(dp1348
g69
I4
ssg70
g1342
sg63
(lp1349
S''
asbasbasbag56
(g72
g58
NtRp1350
(dp1351
g61
(dp1352
sg70
g821
sg63
(lp1353
g56
(g77
g58
NtRp1354
(dp1355
g61
(dp1356
g81
g82
ssg70
g1350
sg63
(lp1357
S'server_name'
p1358
asbag56
(g77
g58
NtRp1359
(dp1360
g61
(dp1361
g88
g89
ssg70
g1350
sg63
(lp1362
S':'
asbag56
(g77
g58
NtRp1363
(dp1364
g61
(dp1365
sg70
g1350
sg63
(lp1366
g56
(g57
g58
NtRp1367
(dp1368
g61
(dp1369
g69
I4
ssg70
g1363
sg63
(lp1370
S'VPCF22AJ'
p1371
asbasbasbag56
(g72
g58
NtRp1372
(dp1373
g61
(dp1374
sg70
g821
sg63
(lp1375
g56
(g77
g58
NtRp1376
(dp1377
g61
(dp1378
g81
g82
ssg70
g1372
sg63
(lp1379
S'server_port'
p1380
asbag56
(g77
g58
NtRp1381
(dp1382
g61
(dp1383
g88
g89
ssg70
g1372
sg63
(lp1384
S':'
asbag56
(g77
g58
NtRp1385
(dp1386
g61
(dp1387
sg70
g1372
sg63
(lp1388
g56
(g57
g58
NtRp1389
(dp1390
g61
(dp1391
g69
I4
ssg70
g1385
sg63
(lp1392
S'8000'
p1393
asbasbasbag56
(g72
g58
NtRp1394
(dp1395
g61
(dp1396
sg70
g821
sg63
(lp1397
g56
(g77
g58
NtRp1398
(dp1399
g61
(dp1400
g81
g82
ssg70
g1394
sg63
(lp1401
S'server_protocol'
p1402
asbag56
(g77
g58
NtRp1403
(dp1404
g61
(dp1405
g88
g89
ssg70
g1394
sg63
(lp1406
S':'
asbag56
(g77
g58
NtRp1407
(dp1408
g61
(dp1409
sg70
g1394
sg63
(lp1410
g56
(g57
g58
NtRp1411
(dp1412
g61
(dp1413
g69
I4
ssg70
g1407
sg63
(lp1414
S'HTTP/1.1'
p1415
asbasbasbag56
(g72
g58
NtRp1416
(dp1417
g61
(dp1418
sg70
g821
sg63
(lp1419
g56
(g77
g58
NtRp1420
(dp1421
g61
(dp1422
g81
g82
ssg70
g1416
sg63
(lp1423
S'server_software'
p1424
asbag56
(g77
g58
NtRp1425
(dp1426
g61
(dp1427
g88
g89
ssg70
g1416
sg63
(lp1428
S':'
asbag56
(g77
g58
NtRp1429
(dp1430
g61
(dp1431
sg70
g1416
sg63
(lp1432
g56
(g57
g58
NtRp1433
(dp1434
g61
(dp1435
g69
I4
ssg70
g1429
sg63
(lp1436
S'Rocket 1.2.4'
p1437
asbasbasbag56
(g72
g58
NtRp1438
(dp1439
g61
(dp1440
sg70
g821
sg63
(lp1441
g56
(g77
g58
NtRp1442
(dp1443
g61
(dp1444
g81
g82
ssg70
g1438
sg63
(lp1445
S'web2py_crontype'
p1446
asbag56
(g77
g58
NtRp1447
(dp1448
g61
(dp1449
g88
g89
ssg70
g1438
sg63
(lp1450
S':'
asbag56
(g77
g58
NtRp1451
(dp1452
g61
(dp1453
sg70
g1438
sg63
(lp1454
g56
(g57
g58
NtRp1455
(dp1456
g61
(dp1457
g69
I4
ssg70
g1451
sg63
(lp1458
S'hard'
p1459
asbasbasbag56
(g72
g58
NtRp1460
(dp1461
g61
(dp1462
sg70
g821
sg63
(lp1463
g56
(g77
g58
NtRp1464
(dp1465
g61
(dp1466
g81
g82
ssg70
g1460
sg63
(lp1467
S'web2py_original_uri'
p1468
asbag56
(g77
g58
NtRp1469
(dp1470
g61
(dp1471
g88
g89
ssg70
g1460
sg63
(lp1472
S':'
asbag56
(g77
g58
NtRp1473
(dp1474
g61
(dp1475
sg70
g1460
sg63
(lp1476
g56
(g57
g58
NtRp1477
(dp1478
g61
(dp1479
g69
I4
ssg70
g1473
sg63
(lp1480
g1221
asbasbasbag56
(g72
g58
NtRp1481
(dp1482
g61
(dp1483
sg70
g821
sg63
(lp1484
g56
(g77
g58
NtRp1485
(dp1486
g61
(dp1487
g81
g82
ssg70
g1481
sg63
(lp1488
S'web2py_path'
p1489
asbag56
(g77
g58
NtRp1490
(dp1491
g61
(dp1492
g88
g89
ssg70
g1481
sg63
(lp1493
S':'
asbag56
(g77
g58
NtRp1494
(dp1495
g61
(dp1496
sg70
g1481
sg63
(lp1497
g56
(g57
g58
NtRp1498
(dp1499
g61
(dp1500
g69
I4
ssg70
g1494
sg63
(lp1501
g868
asbasbasbag56
(g72
g58
NtRp1502
(dp1503
g61
(dp1504
sg70
g821
sg63
(lp1505
g56
(g77
g58
NtRp1506
(dp1507
g61
(dp1508
g81
g82
ssg70
g1502
sg63
(lp1509
S'web2py_version'
p1510
asbag56
(g77
g58
NtRp1511
(dp1512
g61
(dp1513
g88
g89
ssg70
g1502
sg63
(lp1514
S':'
asbag56
(g77
g58
NtRp1515
(dp1516
g61
(dp1517
sg70
g1502
sg63
(lp1518
g56
(g57
g58
NtRp1519
(dp1520
g61
(dp1521
g69
I4
ssg70
g1515
sg63
(lp1522
g56
(g65
g58
NtRp1523
(dp1524
g61
(dp1525
g69
I3
ssg70
Nsg63
(lp1526
g56
(g72
g58
NtRp1527
(dp1528
g61
(dp1529
sg70
g1523
sg63
(lp1530
g56
(g77
g58
NtRp1531
(dp1532
g61
(dp1533
sg70
g1527
sg63
(lp1534
g56
(g57
g58
NtRp1535
(dp1536
g61
(dp1537
g69
I3
ssg70
g1531
sg63
(lp1538
S'1'
asbasbasbag56
(g72
g58
NtRp1539
(dp1540
g61
(dp1541
sg70
g1523
sg63
(lp1542
g56
(g77
g58
NtRp1543
(dp1544
g61
(dp1545
sg70
g1539
sg63
(lp1546
g56
(g57
g58
NtRp1547
(dp1548
g61
(dp1549
g69
I3
ssg70
g1543
sg63
(lp1550
S'99'
p1551
asbasbasbag56
(g72
g58
NtRp1552
(dp1553
g61
(dp1554
sg70
g1523
sg63
(lp1555
g56
(g77
g58
NtRp1556
(dp1557
g61
(dp1558
sg70
g1552
sg63
(lp1559
g56
(g57
g58
NtRp1560
(dp1561
g61
(dp1562
g69
I3
ssg70
g1556
sg63
(lp1563
S'2'
asbasbasbag56
(g72
g58
NtRp1564
(dp1565
g61
(dp1566
sg70
g1523
sg63
(lp1567
g56
(g77
g58
NtRp1568
(dp1569
g61
(dp1570
sg70
g1564
sg63
(lp1571
g56
(g57
g58
NtRp1572
(dp1573
g61
(dp1574
g69
I3
ssg70
g1568
sg63
(lp1575
S'datetime.datetime(2011, 9, 26, 6, 55, 33)'
p1576
asbasbasbag56
(g72
g58
NtRp1577
(dp1578
g61
(dp1579
sg70
g1523
sg63
(lp1580
g56
(g77
g58
NtRp1581
(dp1582
g61
(dp1583
sg70
g1577
sg63
(lp1584
g56
(g57
g58
NtRp1585
(dp1586
g61
(dp1587
g69
I3
ssg70
g1581
sg63
(lp1588
S'stable'
p1589
asbasbasbasbasbasbasbag56
(g72
g58
NtRp1590
(dp1591
g61
(dp1592
sg70
g821
sg63
(lp1593
g56
(g77
g58
NtRp1594
(dp1595
g61
(dp1596
g81
g82
ssg70
g1590
sg63
(lp1597
S'wsgi_errors'
p1598
asbag56
(g77
g58
NtRp1599
(dp1600
g61
(dp1601
g88
g89
ssg70
g1590
sg63
(lp1602
S':'
asbag56
(g77
g58
NtRp1603
(dp1604
g61
(dp1605
sg70
g1590
sg63
(lp1606
g56
(g57
g58
NtRp1607
(dp1608
g61
(dp1609
g69
I4
ssg70
g1603
sg63
(lp1610
S"<open file '<stderr>', mode 'w' at 0x7f0d1464c1e0>"
p1611
asbasbasbag56
(g72
g58
NtRp1612
(dp1613
g61
(dp1614
sg70
g821
sg63
(lp1615
g56
(g77
g58
NtRp1616
(dp1617
g61
(dp1618
g81
g82
ssg70
g1612
sg63
(lp1619
S'wsgi_file_wrapper'
p1620
asbag56
(g77
g58
NtRp1621
(dp1622
g61
(dp1623
g88
g89
ssg70
g1612
sg63
(lp1624
S':'
asbag56
(g77
g58
NtRp1625
(dp1626
g61
(dp1627
sg70
g1612
sg63
(lp1628
g56
(g57
g58
NtRp1629
(dp1630
g61
(dp1631
g69
I4
ssg70
g1625
sg63
(lp1632
S'<class wsgiref.util.FileWrapper at 0x24c5110>'
p1633
asbasbasbag56
(g72
g58
NtRp1634
(dp1635
g61
(dp1636
sg70
g821
sg63
(lp1637
g56
(g77
g58
NtRp1638
(dp1639
g61
(dp1640
g81
g82
ssg70
g1634
sg63
(lp1641
S'wsgi_input'
p1642
asbag56
(g77
g58
NtRp1643
(dp1644
g61
(dp1645
g88
g89
ssg70
g1634
sg63
(lp1646
S':'
asbag56
(g77
g58
NtRp1647
(dp1648
g61
(dp1649
sg70
g1634
sg63
(lp1650
g56
(g57
g58
NtRp1651
(dp1652
g61
(dp1653
g69
I4
ssg70
g1647
sg63
(lp1654
S'<socket._fileobject object at 0x3083550>'
p1655
asbasbasbag56
(g72
g58
NtRp1656
(dp1657
g61
(dp1658
sg70
g821
sg63
(lp1659
g56
(g77
g58
NtRp1660
(dp1661
g61
(dp1662
g81
g82
ssg70
g1656
sg63
(lp1663
S'wsgi_multiprocess'
p1664
asbag56
(g77
g58
NtRp1665
(dp1666
g61
(dp1667
g88
g89
ssg70
g1656
sg63
(lp1668
S':'
asbag56
(g77
g58
NtRp1669
(dp1670
g61
(dp1671
sg70
g1656
sg63
(lp1672
g56
(g57
g58
NtRp1673
(dp1674
g61
(dp1675
g69
I4
ssg70
g1669
sg63
(lp1676
g99
asbasbasbag56
(g72
g58
NtRp1677
(dp1678
g61
(dp1679
sg70
g821
sg63
(lp1680
g56
(g77
g58
NtRp1681
(dp1682
g61
(dp1683
g81
g82
ssg70
g1677
sg63
(lp1684
S'wsgi_multithread'
p1685
asbag56
(g77
g58
NtRp1686
(dp1687
g61
(dp1688
g88
g89
ssg70
g1677
sg63
(lp1689
S':'
asbag56
(g77
g58
NtRp1690
(dp1691
g61
(dp1692
sg70
g1677
sg63
(lp1693
g56
(g57
g58
NtRp1694
(dp1695
g61
(dp1696
g69
I4
ssg70
g1690
sg63
(lp1697
S'True'
p1698
asbasbasbag56
(g72
g58
NtRp1699
(dp1700
g61
(dp1701
sg70
g821
sg63
(lp1702
g56
(g77
g58
NtRp1703
(dp1704
g61
(dp1705
g81
g82
ssg70
g1699
sg63
(lp1706
S'wsgi_run_once'
p1707
asbag56
(g77
g58
NtRp1708
(dp1709
g61
(dp1710
g88
g89
ssg70
g1699
sg63
(lp1711
S':'
asbag56
(g77
g58
NtRp1712
(dp1713
g61
(dp1714
sg70
g1699
sg63
(lp1715
g56
(g57
g58
NtRp1716
(dp1717
g61
(dp1718
g69
I4
ssg70
g1712
sg63
(lp1719
g99
asbasbasbag56
(g72
g58
NtRp1720
(dp1721
g61
(dp1722
sg70
g821
sg63
(lp1723
g56
(g77
g58
NtRp1724
(dp1725
g61
(dp1726
g81
g82
ssg70
g1720
sg63
(lp1727
S'wsgi_url_scheme'
p1728
asbag56
(g77
g58
NtRp1729
(dp1730
g61
(dp1731
g88
g89
ssg70
g1720
sg63
(lp1732
S':'
asbag56
(g77
g58
NtRp1733
(dp1734
g61
(dp1735
sg70
g1720
sg63
(lp1736
g56
(g57
g58
NtRp1737
(dp1738
g61
(dp1739
g69
I4
ssg70
g1733
sg63
(lp1740
S'http'
p1741
asbasbasbag56
(g72
g58
NtRp1742
(dp1743
g61
(dp1744
sg70
g821
sg63
(lp1745
g56
(g77
g58
NtRp1746
(dp1747
g61
(dp1748
g81
g82
ssg70
g1742
sg63
(lp1749
S'wsgi_version'
p1750
asbag56
(g77
g58
NtRp1751
(dp1752
g61
(dp1753
g88
g89
ssg70
g1742
sg63
(lp1754
S':'
asbag56
(g77
g58
NtRp1755
(dp1756
g61
(dp1757
sg70
g1742
sg63
(lp1758
g56
(g57
g58
NtRp1759
(dp1760
g61
(dp1761
g69
I4
ssg70
g1755
sg63
(lp1762
g56
(g65
g58
NtRp1763
(dp1764
g61
(dp1765
g69
I3
ssg70
Nsg63
(lp1766
g56
(g72
g58
NtRp1767
(dp1768
g61
(dp1769
sg70
g1763
sg63
(lp1770
g56
(g77
g58
NtRp1771
(dp1772
g61
(dp1773
sg70
g1767
sg63
(lp1774
g56
(g57
g58
NtRp1775
(dp1776
g61
(dp1777
g69
I3
ssg70
g1771
sg63
(lp1778
S'1'
asbasbasbag56
(g72
g58
NtRp1779
(dp1780
g61
(dp1781
sg70
g1763
sg63
(lp1782
g56
(g77
g58
NtRp1783
(dp1784
g61
(dp1785
sg70
g1779
sg63
(lp1786
g56
(g57
g58
NtRp1787
(dp1788
g61
(dp1789
g69
I3
ssg70
g1783
sg63
(lp1790
S'0'
asbasbasbasbasbasbasbasbasbasbasbag56
(g72
g58
NtRp1791
(dp1792
g61
(dp1793
sg70
g66
sg63
(lp1794
g56
(g77
g58
NtRp1795
(dp1796
g61
(dp1797
g81
g82
ssg70
g1791
sg63
(lp1798
S'extension'
p1799
asbag56
(g77
g58
NtRp1800
(dp1801
g61
(dp1802
g88
g89
ssg70
g1791
sg63
(lp1803
S':'
asbag56
(g77
g58
NtRp1804
(dp1805
g61
(dp1806
sg70
g1791
sg63
(lp1807
g56
(g57
g58
NtRp1808
(dp1809
g61
(dp1810
g69
I5
ssg70
g1804
sg63
(lp1811
S'html'
p1812
asbasbasbag56
(g72
g58
NtRp1813
(dp1814
g61
(dp1815
sg70
g66
sg63
(lp1816
g56
(g77
g58
NtRp1817
(dp1818
g61
(dp1819
g81
g82
ssg70
g1813
sg63
(lp1820
S'folder'
p1821
asbag56
(g77
g58
NtRp1822
(dp1823
g61
(dp1824
g88
g89
ssg70
g1813
sg63
(lp1825
S':'
asbag56
(g77
g58
NtRp1826
(dp1827
g61
(dp1828
sg70
g1813
sg63
(lp1829
g56
(g57
g58
NtRp1830
(dp1831
g61
(dp1832
g69
I5
ssg70
g1826
sg63
(lp1833
S'/windows/Users/Thomas/Dropbox/appz/2011/GAE/ddl-lagoon/applications/ddlagoon/'
p1834
asbasbasbag56
(g72
g58
NtRp1835
(dp1836
g61
(dp1837
sg70
g66
sg63
(lp1838
g56
(g77
g58
NtRp1839
(dp1840
g61
(dp1841
g81
g82
ssg70
g1835
sg63
(lp1842
S'function'
p1843
asbag56
(g77
g58
NtRp1844
(dp1845
g61
(dp1846
g88
g89
ssg70
g1835
sg63
(lp1847
S':'
asbag56
(g77
g58
NtRp1848
(dp1849
g61
(dp1850
sg70
g1835
sg63
(lp1851
g56
(g57
g58
NtRp1852
(dp1853
g61
(dp1854
g69
I5
ssg70
g1848
sg63
(lp1855
S'index'
p1856
asbasbasbag56
(g72
g58
NtRp1857
(dp1858
g61
(dp1859
sg70
g66
sg63
(lp1860
g56
(g77
g58
NtRp1861
(dp1862
g61
(dp1863
g81
g82
ssg70
g1857
sg63
(lp1864
S'get_vars'
p1865
asbag56
(g77
g58
NtRp1866
(dp1867
g61
(dp1868
g88
g89
ssg70
g1857
sg63
(lp1869
S':'
asbag56
(g77
g58
NtRp1870
(dp1871
g61
(dp1872
sg70
g1857
sg63
(lp1873
g56
(g57
g58
NtRp1874
(dp1875
g61
(dp1876
g69
I5
ssg70
g1870
sg63
(lp1877
g56
(g65
g58
NtRp1878
(dp1879
g61
(dp1880
g69
I4
ssg70
Nsg63
(lp1881
sbasbasbasbag56
(g72
g58
NtRp1882
(dp1883
g61
(dp1884
sg70
g66
sg63
(lp1885
g56
(g77
g58
NtRp1886
(dp1887
g61
(dp1888
g81
g82
ssg70
g1882
sg63
(lp1889
S'global_settings'
p1890
asbag56
(g77
g58
NtRp1891
(dp1892
g61
(dp1893
g88
g89
ssg70
g1882
sg63
(lp1894
S':'
asbag56
(g77
g58
NtRp1895
(dp1896
g61
(dp1897
sg70
g1882
sg63
(lp1898
g56
(g57
g58
NtRp1899
(dp1900
g61
(dp1901
g69
I5
ssg70
g1895
sg63
(lp1902
g56
(g65
g58
NtRp1903
(dp1904
g61
(dp1905
g69
I4
ssg70
Nsg63
(lp1906
g56
(g72
g58
NtRp1907
(dp1908
g61
(dp1909
sg70
g1903
sg63
(lp1910
g56
(g77
g58
NtRp1911
(dp1912
g61
(dp1913
g81
g82
ssg70
g1907
sg63
(lp1914
g833
asbag56
(g77
g58
NtRp1915
(dp1916
g61
(dp1917
g88
g89
ssg70
g1907
sg63
(lp1918
S':'
asbag56
(g77
g58
NtRp1919
(dp1920
g61
(dp1921
sg70
g1907
sg63
(lp1922
g56
(g57
g58
NtRp1923
(dp1924
g61
(dp1925
g69
I4
ssg70
g1919
sg63
(lp1926
S"set(['/windows/Users/Thomas/Dropbox/appz/2011/GAE/ddl-lagoon/applications/ddlagoon/', '/windows/Users/Thomas/Dropbox/appz/2011/GAE/ddl-lagoon/applications/welcome/', '/windows/Users/Thomas/Dropbox/appz/2011/GAE/ddl-lagoon/applications/admin/'])"
p1927
asbasbasbag56
(g72
g58
NtRp1928
(dp1929
g61
(dp1930
sg70
g1903
sg63
(lp1931
g56
(g77
g58
NtRp1932
(dp1933
g61
(dp1934
g81
g82
ssg70
g1928
sg63
(lp1935
g855
asbag56
(g77
g58
NtRp1936
(dp1937
g61
(dp1938
g88
g89
ssg70
g1928
sg63
(lp1939
S':'
asbag56
(g77
g58
NtRp1940
(dp1941
g61
(dp1942
sg70
g1928
sg63
(lp1943
g56
(g57
g58
NtRp1944
(dp1945
g61
(dp1946
g69
I4
ssg70
g1940
sg63
(lp1947
g868
asbasbasbag56
(g72
g58
NtRp1948
(dp1949
g61
(dp1950
sg70
g1903
sg63
(lp1951
g56
(g77
g58
NtRp1952
(dp1953
g61
(dp1954
g81
g82
ssg70
g1948
sg63
(lp1955
g877
asbag56
(g77
g58
NtRp1956
(dp1957
g61
(dp1958
g88
g89
ssg70
g1948
sg63
(lp1959
S':'
asbag56
(g77
g58
NtRp1960
(dp1961
g61
(dp1962
sg70
g1948
sg63
(lp1963
g56
(g57
g58
NtRp1964
(dp1965
g61
(dp1966
g69
I4
ssg70
g1960
sg63
(lp1967
g56
(g65
g58
NtRp1968
(dp1969
g61
(dp1970
g69
I3
ssg70
Nsg63
(lp1971
sbasbasbasbag56
(g72
g58
NtRp1972
(dp1973
g61
(dp1974
sg70
g1903
sg63
(lp1975
g56
(g77
g58
NtRp1976
(dp1977
g61
(dp1978
g81
g82
ssg70
g1972
sg63
(lp1979
g902
asbag56
(g77
g58
NtRp1980
(dp1981
g61
(dp1982
g88
g89
ssg70
g1972
sg63
(lp1983
S':'
asbag56
(g77
g58
NtRp1984
(dp1985
g61
(dp1986
sg70
g1972
sg63
(lp1987
g56
(g57
g58
NtRp1988
(dp1989
g61
(dp1990
g69
I4
ssg70
g1984
sg63
(lp1991
S"<Values at 0x2569cf8: {'verbose': False, 'ip': '127.0.0.1', 'shutdown_timeout': 5, 'taskbar': False, 'nocron': False, 'pid_filename': 'httpserver.pid', 'maxthreads': None, 'softcron': False, 'server_name': 'VPCF22AJ', 'bpython': False, 'nogui': False, 'port': 8000, 'extcron': False, 'debuglevel': 30, 'test': None, 'folder': '/windows/Users/Thomas/Dropbox/appz/2011/GAE/ddl-lagoon', 'config': '', 'import_models': False, 'winservice': '', 'shell': None, 'run': '', 'log_filename': 'httpserver.log', 'args': [''], 'ssl_ca_certificate': None, 'scheduler': None, 'profiler_filename': None, 'ssl_private_key': '', 'password': 'admin', 'request_queue_size': 5, 'ssl_certificate': '', 'cronjob': False, 'plain': False, 'quiet': False, 'interfaces': None, 'minthreads': None, 'timeout': 10, 'numthreads': None, 'nobanner': False}>"
p1992
asbasbasbag56
(g72
g58
NtRp1993
(dp1994
g61
(dp1995
sg70
g1903
sg63
(lp1996
g56
(g77
g58
NtRp1997
(dp1998
g61
(dp1999
g81
g82
ssg70
g1993
sg63
(lp2000
g924
asbag56
(g77
g58
NtRp2001
(dp2002
g61
(dp2003
g88
g89
ssg70
g1993
sg63
(lp2004
S':'
asbag56
(g77
g58
NtRp2005
(dp2006
g61
(dp2007
sg70
g1993
sg63
(lp2008
g56
(g57
g58
NtRp2009
(dp2010
g61
(dp2011
g69
I4
ssg70
g2005
sg63
(lp2012
S'set([])'
p2013
asbasbasbag56
(g72
g58
NtRp2014
(dp2015
g61
(dp2016
sg70
g1903
sg63
(lp2017
g56
(g77
g58
NtRp2018
(dp2019
g61
(dp2020
g81
g82
ssg70
g2014
sg63
(lp2021
g946
asbag56
(g77
g58
NtRp2022
(dp2023
g61
(dp2024
g88
g89
ssg70
g2014
sg63
(lp2025
S':'
asbag56
(g77
g58
NtRp2026
(dp2027
g61
(dp2028
sg70
g2014
sg63
(lp2029
g56
(g57
g58
NtRp2030
(dp2031
g61
(dp2032
g69
I4
ssg70
g2026
sg63
(lp2033
g99
asbasbasbag56
(g72
g58
NtRp2034
(dp2035
g61
(dp2036
sg70
g1903
sg63
(lp2037
g56
(g77
g58
NtRp2038
(dp2039
g61
(dp2040
g81
g82
ssg70
g2034
sg63
(lp2041
g967
asbag56
(g77
g58
NtRp2042
(dp2043
g61
(dp2044
g88
g89
ssg70
g2034
sg63
(lp2045
S':'
asbag56
(g77
g58
NtRp2046
(dp2047
g61
(dp2048
sg70
g2034
sg63
(lp2049
g56
(g57
g58
NtRp2050
(dp2051
g61
(dp2052
g69
I4
ssg70
g2046
sg63
(lp2053
g980
asbasbasbag56
(g72
g58
NtRp2054
(dp2055
g61
(dp2056
sg70
g1903
sg63
(lp2057
g56
(g77
g58
NtRp2058
(dp2059
g61
(dp2060
g81
g82
ssg70
g2054
sg63
(lp2061
g1187
asbag56
(g77
g58
NtRp2062
(dp2063
g61
(dp2064
g88
g89
ssg70
g2054
sg63
(lp2065
S':'
asbag56
(g77
g58
NtRp2066
(dp2067
g61
(dp2068
sg70
g2054
sg63
(lp2069
g56
(g57
g58
NtRp2070
(dp2071
g61
(dp2072
g69
I4
ssg70
g2066
sg63
(lp2073
g99
asbasbasbag56
(g72
g58
NtRp2074
(dp2075
g61
(dp2076
sg70
g1903
sg63
(lp2077
g56
(g77
g58
NtRp2078
(dp2079
g61
(dp2080
g81
g82
ssg70
g2074
sg63
(lp2081
g1446
asbag56
(g77
g58
NtRp2082
(dp2083
g61
(dp2084
g88
g89
ssg70
g2074
sg63
(lp2085
S':'
asbag56
(g77
g58
NtRp2086
(dp2087
g61
(dp2088
sg70
g2074
sg63
(lp2089
g56
(g57
g58
NtRp2090
(dp2091
g61
(dp2092
g69
I4
ssg70
g2086
sg63
(lp2093
g1459
asbasbasbag56
(g72
g58
NtRp2094
(dp2095
g61
(dp2096
sg70
g1903
sg63
(lp2097
g56
(g77
g58
NtRp2098
(dp2099
g61
(dp2100
g81
g82
ssg70
g2094
sg63
(lp2101
g1510
asbag56
(g77
g58
NtRp2102
(dp2103
g61
(dp2104
g88
g89
ssg70
g2094
sg63
(lp2105
S':'
asbag56
(g77
g58
NtRp2106
(dp2107
g61
(dp2108
sg70
g2094
sg63
(lp2109
g56
(g57
g58
NtRp2110
(dp2111
g61
(dp2112
g69
I4
ssg70
g2106
sg63
(lp2113
g56
(g65
g58
NtRp2114
(dp2115
g61
(dp2116
g69
I3
ssg70
Nsg63
(lp2117
g56
(g72
g58
NtRp2118
(dp2119
g61
(dp2120
sg70
g2114
sg63
(lp2121
g56
(g77
g58
NtRp2122
(dp2123
g61
(dp2124
sg70
g2118
sg63
(lp2125
g56
(g57
g58
NtRp2126
(dp2127
g61
(dp2128
g69
I3
ssg70
g2122
sg63
(lp2129
S'1'
asbasbasbag56
(g72
g58
NtRp2130
(dp2131
g61
(dp2132
sg70
g2114
sg63
(lp2133
g56
(g77
g58
NtRp2134
(dp2135
g61
(dp2136
sg70
g2130
sg63
(lp2137
g56
(g57
g58
NtRp2138
(dp2139
g61
(dp2140
g69
I3
ssg70
g2134
sg63
(lp2141
S'99'
p2142
asbasbasbag56
(g72
g58
NtRp2143
(dp2144
g61
(dp2145
sg70
g2114
sg63
(lp2146
g56
(g77
g58
NtRp2147
(dp2148
g61
(dp2149
sg70
g2143
sg63
(lp2150
g56
(g57
g58
NtRp2151
(dp2152
g61
(dp2153
g69
I3
ssg70
g2147
sg63
(lp2154
S'2'
asbasbasbag56
(g72
g58
NtRp2155
(dp2156
g61
(dp2157
sg70
g2114
sg63
(lp2158
g56
(g77
g58
NtRp2159
(dp2160
g61
(dp2161
sg70
g2155
sg63
(lp2162
g56
(g57
g58
NtRp2163
(dp2164
g61
(dp2165
g69
I3
ssg70
g2159
sg63
(lp2166
S'datetime.datetime(2011, 9, 26, 6, 55, 33)'
p2167
asbasbasbag56
(g72
g58
NtRp2168
(dp2169
g61
(dp2170
sg70
g2114
sg63
(lp2171
g56
(g77
g58
NtRp2172
(dp2173
g61
(dp2174
sg70
g2168
sg63
(lp2175
g56
(g57
g58
NtRp2176
(dp2177
g61
(dp2178
g69
I3
ssg70
g2172
sg63
(lp2179
g1589
asbasbasbasbasbasbasbasbasbasbasbag56
(g72
g58
NtRp2180
(dp2181
g61
(dp2182
sg70
g66
sg63
(lp2183
g56
(g77
g58
NtRp2184
(dp2185
g61
(dp2186
g81
g82
ssg70
g2180
sg63
(lp2187
S'is_https'
p2188
asbag56
(g77
g58
NtRp2189
(dp2190
g61
(dp2191
g88
g89
ssg70
g2180
sg63
(lp2192
S':'
asbag56
(g77
g58
NtRp2193
(dp2194
g61
(dp2195
sg70
g2180
sg63
(lp2196
g56
(g57
g58
NtRp2197
(dp2198
g61
(dp2199
g69
I5
ssg70
g2193
sg63
(lp2200
g99
asbasbasbag56
(g72
g58
NtRp2201
(dp2202
g61
(dp2203
sg70
g66
sg63
(lp2204
g56
(g77
g58
NtRp2205
(dp2206
g61
(dp2207
g81
g82
ssg70
g2201
sg63
(lp2208
S'is_local'
p2209
asbag56
(g77
g58
NtRp2210
(dp2211
g61
(dp2212
g88
g89
ssg70
g2201
sg63
(lp2213
S':'
asbag56
(g77
g58
NtRp2214
(dp2215
g61
(dp2216
sg70
g2201
sg63
(lp2217
g56
(g57
g58
NtRp2218
(dp2219
g61
(dp2220
g69
I5
ssg70
g2214
sg63
(lp2221
g1698
asbasbasbag56
(g72
g58
NtRp2222
(dp2223
g61
(dp2224
sg70
g66
sg63
(lp2225
g56
(g77
g58
NtRp2226
(dp2227
g61
(dp2228
g81
g82
ssg70
g2222
sg63
(lp2229
S'is_restful'
p2230
asbag56
(g77
g58
NtRp2231
(dp2232
g61
(dp2233
g88
g89
ssg70
g2222
sg63
(lp2234
S':'
asbag56
(g77
g58
NtRp2235
(dp2236
g61
(dp2237
sg70
g2222
sg63
(lp2238
g56
(g57
g58
NtRp2239
(dp2240
g61
(dp2241
g69
I5
ssg70
g2235
sg63
(lp2242
g99
asbasbasbag56
(g72
g58
NtRp2243
(dp2244
g61
(dp2245
sg70
g66
sg63
(lp2246
g56
(g77
g58
NtRp2247
(dp2248
g61
(dp2249
g81
g82
ssg70
g2243
sg63
(lp2250
S'now'
p2251
asbag56
(g77
g58
NtRp2252
(dp2253
g61
(dp2254
g88
g89
ssg70
g2243
sg63
(lp2255
S':'
asbag56
(g77
g58
NtRp2256
(dp2257
g61
(dp2258
sg70
g2243
sg63
(lp2259
g56
(g57
g58
NtRp2260
(dp2261
g61
(dp2262
g69
I5
ssg70
g2256
sg63
(lp2263
S'datetime.datetime(2011, 10, 27, 9, 15, 33, 654552)'
p2264
asbasbasbag56
(g72
g58
NtRp2265
(dp2266
g61
(dp2267
sg70
g66
sg63
(lp2268
g56
(g77
g58
NtRp2269
(dp2270
g61
(dp2271
g81
g82
ssg70
g2265
sg63
(lp2272
S'post_vars'
p2273
asbag56
(g77
g58
NtRp2274
(dp2275
g61
(dp2276
g88
g89
ssg70
g2265
sg63
(lp2277
S':'
asbag56
(g77
g58
NtRp2278
(dp2279
g61
(dp2280
sg70
g2265
sg63
(lp2281
g56
(g57
g58
NtRp2282
(dp2283
g61
(dp2284
g69
I5
ssg70
g2278
sg63
(lp2285
g56
(g65
g58
NtRp2286
(dp2287
g61
(dp2288
g69
I4
ssg70
Nsg63
(lp2289
sbasbasbasbag56
(g72
g58
NtRp2290
(dp2291
g61
(dp2292
sg70
g66
sg63
(lp2293
g56
(g77
g58
NtRp2294
(dp2295
g61
(dp2296
g81
g82
ssg70
g2290
sg63
(lp2297
S'url'
p2298
asbag56
(g77
g58
NtRp2299
(dp2300
g61
(dp2301
g88
g89
ssg70
g2290
sg63
(lp2302
S':'
asbag56
(g77
g58
NtRp2303
(dp2304
g61
(dp2305
sg70
g2290
sg63
(lp2306
g56
(g57
g58
NtRp2307
(dp2308
g61
(dp2309
g69
I5
ssg70
g2303
sg63
(lp2310
S'/ddlagoon/default/index'
p2311
asbasbasbag56
(g72
g58
NtRp2312
(dp2313
g61
(dp2314
sg70
g66
sg63
(lp2315
g56
(g77
g58
NtRp2316
(dp2317
g61
(dp2318
g81
g82
ssg70
g2312
sg63
(lp2319
S'utcnow'
p2320
asbag56
(g77
g58
NtRp2321
(dp2322
g61
(dp2323
g88
g89
ssg70
g2312
sg63
(lp2324
S':'
asbag56
(g77
g58
NtRp2325
(dp2326
g61
(dp2327
sg70
g2312
sg63
(lp2328
g56
(g57
g58
NtRp2329
(dp2330
g61
(dp2331
g69
I5
ssg70
g2325
sg63
(lp2332
S'datetime.datetime(2011, 10, 27, 8, 15, 33, 654569)'
p2333
asbasbasbag56
(g72
g58
NtRp2334
(dp2335
g61
(dp2336
sg70
g66
sg63
(lp2337
g56
(g77
g58
NtRp2338
(dp2339
g61
(dp2340
g81
g82
ssg70
g2334
sg63
(lp2341
S'uuid'
p2342
asbag56
(g77
g58
NtRp2343
(dp2344
g61
(dp2345
g88
g89
ssg70
g2334
sg63
(lp2346
S':'
asbag56
(g77
g58
NtRp2347
(dp2348
g61
(dp2349
sg70
g2334
sg63
(lp2350
g56
(g57
g58
NtRp2351
(dp2352
g61
(dp2353
g69
I5
ssg70
g2347
sg63
(lp2354
S'ddlagoon/127.0.0.1.2011-10-27.09-15-33.2e578451-eadd-407c-9907-80274335f99c'
p2355
asbasbasbag56
(g72
g58
NtRp2356
(dp2357
g61
(dp2358
sg70
g66
sg63
(lp2359
g56
(g77
g58
NtRp2360
(dp2361
g61
(dp2362
g81
g82
ssg70
g2356
sg63
(lp2363
S'vars'
p2364
asbag56
(g77
g58
NtRp2365
(dp2366
g61
(dp2367
g88
g89
ssg70
g2356
sg63
(lp2368
S':'
asbag56
(g77
g58
NtRp2369
(dp2370
g61
(dp2371
sg70
g2356
sg63
(lp2372
g56
(g57
g58
NtRp2373
(dp2374
g61
(dp2375
g69
I5
ssg70
g2369
sg63
(lp2376
g56
(g65
g58
NtRp2377
(dp2378
g61
(dp2379
g69
I4
ssg70
Nsg63
(lp2380
sbasbasbasbag56
(g72
g58
NtRp2381
(dp2382
g61
(dp2383
sg70
g66
sg63
(lp2384
g56
(g77
g58
NtRp2385
(dp2386
g61
(dp2387
g81
g82
ssg70
g2381
sg63
(lp2388
S'wsgi'
p2389
asbag56
(g77
g58
NtRp2390
(dp2391
g61
(dp2392
g88
g89
ssg70
g2381
sg63
(lp2393
S':'
asbag56
(g77
g58
NtRp2394
(dp2395
g61
(dp2396
sg70
g2381
sg63
(lp2397
g56
(g57
g58
NtRp2398
(dp2399
g61
(dp2400
g69
I5
ssg70
g2394
sg63
(lp2401
g56
(g65
g58
NtRp2402
(dp2403
g61
(dp2404
g69
I4
ssg70
Nsg63
(lp2405
g56
(g72
g58
NtRp2406
(dp2407
g61
(dp2408
sg70
g2402
sg63
(lp2409
g56
(g77
g58
NtRp2410
(dp2411
g61
(dp2412
g81
g82
ssg70
g2406
sg63
(lp2413
S'environ'
p2414
asbag56
(g77
g58
NtRp2415
(dp2416
g61
(dp2417
g88
g89
ssg70
g2406
sg63
(lp2418
S':'
asbag56
(g77
g58
NtRp2419
(dp2420
g61
(dp2421
sg70
g2406
sg63
(lp2422
g56
(g57
g58
NtRp2423
(dp2424
g61
(dp2425
g69
I4
ssg70
g2419
sg63
(lp2426
g56
(g65
g58
NtRp2427
(dp2428
g61
(dp2429
g69
I3
ssg70
Nsg63
(lp2430
g56
(g72
g58
NtRp2431
(dp2432
g61
(dp2433
sg70
g2427
sg63
(lp2434
g56
(g77
g58
NtRp2435
(dp2436
g61
(dp2437
g81
g82
ssg70
g2431
sg63
(lp2438
S'HTTP_ACCEPT'
p2439
asbag56
(g77
g58
NtRp2440
(dp2441
g61
(dp2442
g88
g89
ssg70
g2431
sg63
(lp2443
S':'
asbag56
(g77
g58
NtRp2444
(dp2445
g61
(dp2446
sg70
g2431
sg63
(lp2447
g56
(g57
g58
NtRp2448
(dp2449
g61
(dp2450
g69
I3
ssg70
g2444
sg63
(lp2451
g1002
asbasbasbag56
(g72
g58
NtRp2452
(dp2453
g61
(dp2454
sg70
g2427
sg63
(lp2455
g56
(g77
g58
NtRp2456
(dp2457
g61
(dp2458
g81
g82
ssg70
g2452
sg63
(lp2459
S'HTTP_ACCEPT_CHARSET'
p2460
asbag56
(g77
g58
NtRp2461
(dp2462
g61
(dp2463
g88
g89
ssg70
g2452
sg63
(lp2464
S':'
asbag56
(g77
g58
NtRp2465
(dp2466
g61
(dp2467
sg70
g2452
sg63
(lp2468
g56
(g57
g58
NtRp2469
(dp2470
g61
(dp2471
g69
I3
ssg70
g2465
sg63
(lp2472
g1024
asbasbasbag56
(g72
g58
NtRp2473
(dp2474
g61
(dp2475
sg70
g2427
sg63
(lp2476
g56
(g77
g58
NtRp2477
(dp2478
g61
(dp2479
g81
g82
ssg70
g2473
sg63
(lp2480
S'HTTP_ACCEPT_ENCODING'
p2481
asbag56
(g77
g58
NtRp2482
(dp2483
g61
(dp2484
g88
g89
ssg70
g2473
sg63
(lp2485
S':'
asbag56
(g77
g58
NtRp2486
(dp2487
g61
(dp2488
sg70
g2473
sg63
(lp2489
g56
(g57
g58
NtRp2490
(dp2491
g61
(dp2492
g69
I3
ssg70
g2486
sg63
(lp2493
g1046
asbasbasbag56
(g72
g58
NtRp2494
(dp2495
g61
(dp2496
sg70
g2427
sg63
(lp2497
g56
(g77
g58
NtRp2498
(dp2499
g61
(dp2500
g81
g82
ssg70
g2494
sg63
(lp2501
S'HTTP_ACCEPT_LANGUAGE'
p2502
asbag56
(g77
g58
NtRp2503
(dp2504
g61
(dp2505
g88
g89
ssg70
g2494
sg63
(lp2506
S':'
asbag56
(g77
g58
NtRp2507
(dp2508
g61
(dp2509
sg70
g2494
sg63
(lp2510
g56
(g57
g58
NtRp2511
(dp2512
g61
(dp2513
g69
I3
ssg70
g2507
sg63
(lp2514
g1068
asbasbasbag56
(g72
g58
NtRp2515
(dp2516
g61
(dp2517
sg70
g2427
sg63
(lp2518
g56
(g77
g58
NtRp2519
(dp2520
g61
(dp2521
g81
g82
ssg70
g2515
sg63
(lp2522
S'HTTP_CACHE_CONTROL'
p2523
asbag56
(g77
g58
NtRp2524
(dp2525
g61
(dp2526
g88
g89
ssg70
g2515
sg63
(lp2527
S':'
asbag56
(g77
g58
NtRp2528
(dp2529
g61
(dp2530
sg70
g2515
sg63
(lp2531
g56
(g57
g58
NtRp2532
(dp2533
g61
(dp2534
g69
I3
ssg70
g2528
sg63
(lp2535
g1090
asbasbasbag56
(g72
g58
NtRp2536
(dp2537
g61
(dp2538
sg70
g2427
sg63
(lp2539
g56
(g77
g58
NtRp2540
(dp2541
g61
(dp2542
g81
g82
ssg70
g2536
sg63
(lp2543
S'HTTP_CONNECTION'
p2544
asbag56
(g77
g58
NtRp2545
(dp2546
g61
(dp2547
g88
g89
ssg70
g2536
sg63
(lp2548
S':'
asbag56
(g77
g58
NtRp2549
(dp2550
g61
(dp2551
sg70
g2536
sg63
(lp2552
g56
(g57
g58
NtRp2553
(dp2554
g61
(dp2555
g69
I3
ssg70
g2549
sg63
(lp2556
g1112
asbasbasbag56
(g72
g58
NtRp2557
(dp2558
g61
(dp2559
sg70
g2427
sg63
(lp2560
g56
(g77
g58
NtRp2561
(dp2562
g61
(dp2563
g81
g82
ssg70
g2557
sg63
(lp2564
S'HTTP_COOKIE'
p2565
asbag56
(g77
g58
NtRp2566
(dp2567
g61
(dp2568
g88
g89
ssg70
g2557
sg63
(lp2569
S':'
asbag56
(g77
g58
NtRp2570
(dp2571
g61
(dp2572
sg70
g2557
sg63
(lp2573
g56
(g57
g58
NtRp2574
(dp2575
g61
(dp2576
g69
I3
ssg70
g2570
sg63
(lp2577
g1134
asbasbasbag56
(g72
g58
NtRp2578
(dp2579
g61
(dp2580
sg70
g2427
sg63
(lp2581
g56
(g77
g58
NtRp2582
(dp2583
g61
(dp2584
g81
g82
ssg70
g2578
sg63
(lp2585
S'HTTP_HOST'
p2586
asbag56
(g77
g58
NtRp2587
(dp2588
g61
(dp2589
g88
g89
ssg70
g2578
sg63
(lp2590
S':'
asbag56
(g77
g58
NtRp2591
(dp2592
g61
(dp2593
sg70
g2578
sg63
(lp2594
g56
(g57
g58
NtRp2595
(dp2596
g61
(dp2597
g69
I3
ssg70
g2591
sg63
(lp2598
g1156
asbasbasbag56
(g72
g58
NtRp2599
(dp2600
g61
(dp2601
sg70
g2427
sg63
(lp2602
g56
(g77
g58
NtRp2603
(dp2604
g61
(dp2605
g81
g82
ssg70
g2599
sg63
(lp2606
S'HTTP_USER_AGENT'
p2607
asbag56
(g77
g58
NtRp2608
(dp2609
g61
(dp2610
g88
g89
ssg70
g2599
sg63
(lp2611
S':'
asbag56
(g77
g58
NtRp2612
(dp2613
g61
(dp2614
sg70
g2599
sg63
(lp2615
g56
(g57
g58
NtRp2616
(dp2617
g61
(dp2618
g69
I3
ssg70
g2612
sg63
(lp2619
g1178
asbasbasbag56
(g72
g58
NtRp2620
(dp2621
g61
(dp2622
sg70
g2427
sg63
(lp2623
g56
(g77
g58
NtRp2624
(dp2625
g61
(dp2626
g81
g82
ssg70
g2620
sg63
(lp2627
S'PATH_INFO'
p2628
asbag56
(g77
g58
NtRp2629
(dp2630
g61
(dp2631
g88
g89
ssg70
g2620
sg63
(lp2632
S':'
asbag56
(g77
g58
NtRp2633
(dp2634
g61
(dp2635
sg70
g2620
sg63
(lp2636
g56
(g57
g58
NtRp2637
(dp2638
g61
(dp2639
g69
I3
ssg70
g2633
sg63
(lp2640
g1221
asbasbasbag56
(g72
g58
NtRp2641
(dp2642
g61
(dp2643
sg70
g2427
sg63
(lp2644
g56
(g77
g58
NtRp2645
(dp2646
g61
(dp2647
g81
g82
ssg70
g2641
sg63
(lp2648
S'QUERY_STRING'
p2649
asbag56
(g77
g58
NtRp2650
(dp2651
g61
(dp2652
g88
g89
ssg70
g2641
sg63
(lp2653
S':'
asbag56
(g77
g58
NtRp2654
(dp2655
g61
(dp2656
sg70
g2641
sg63
(lp2657
g56
(g57
g58
NtRp2658
(dp2659
g61
(dp2660
g69
I3
ssg70
g2654
sg63
(lp2661
S''
asbasbasbag56
(g72
g58
NtRp2662
(dp2663
g61
(dp2664
sg70
g2427
sg63
(lp2665
g56
(g77
g58
NtRp2666
(dp2667
g61
(dp2668
g81
g82
ssg70
g2662
sg63
(lp2669
S'REMOTE_ADDR'
p2670
asbag56
(g77
g58
NtRp2671
(dp2672
g61
(dp2673
g88
g89
ssg70
g2662
sg63
(lp2674
S':'
asbag56
(g77
g58
NtRp2675
(dp2676
g61
(dp2677
sg70
g2662
sg63
(lp2678
g56
(g57
g58
NtRp2679
(dp2680
g61
(dp2681
g69
I3
ssg70
g2675
sg63
(lp2682
g189
asbasbasbag56
(g72
g58
NtRp2683
(dp2684
g61
(dp2685
sg70
g2427
sg63
(lp2686
g56
(g77
g58
NtRp2687
(dp2688
g61
(dp2689
g81
g82
ssg70
g2683
sg63
(lp2690
S'REMOTE_PORT'
p2691
asbag56
(g77
g58
NtRp2692
(dp2693
g61
(dp2694
g88
g89
ssg70
g2683
sg63
(lp2695
S':'
asbag56
(g77
g58
NtRp2696
(dp2697
g61
(dp2698
sg70
g2683
sg63
(lp2699
g56
(g57
g58
NtRp2700
(dp2701
g61
(dp2702
g69
I3
ssg70
g2696
sg63
(lp2703
g1285
asbasbasbag56
(g72
g58
NtRp2704
(dp2705
g61
(dp2706
sg70
g2427
sg63
(lp2707
g56
(g77
g58
NtRp2708
(dp2709
g61
(dp2710
g81
g82
ssg70
g2704
sg63
(lp2711
S'REQUEST_METHOD'
p2712
asbag56
(g77
g58
NtRp2713
(dp2714
g61
(dp2715
g88
g89
ssg70
g2704
sg63
(lp2716
S':'
asbag56
(g77
g58
NtRp2717
(dp2718
g61
(dp2719
sg70
g2704
sg63
(lp2720
g56
(g57
g58
NtRp2721
(dp2722
g61
(dp2723
g69
I3
ssg70
g2717
sg63
(lp2724
g1307
asbasbasbag56
(g72
g58
NtRp2725
(dp2726
g61
(dp2727
sg70
g2427
sg63
(lp2728
g56
(g77
g58
NtRp2729
(dp2730
g61
(dp2731
g81
g82
ssg70
g2725
sg63
(lp2732
S'REQUEST_URI'
p2733
asbag56
(g77
g58
NtRp2734
(dp2735
g61
(dp2736
g88
g89
ssg70
g2725
sg63
(lp2737
S':'
asbag56
(g77
g58
NtRp2738
(dp2739
g61
(dp2740
sg70
g2725
sg63
(lp2741
g56
(g57
g58
NtRp2742
(dp2743
g61
(dp2744
g69
I3
ssg70
g2738
sg63
(lp2745
g1221
asbasbasbag56
(g72
g58
NtRp2746
(dp2747
g61
(dp2748
sg70
g2427
sg63
(lp2749
g56
(g77
g58
NtRp2750
(dp2751
g61
(dp2752
g81
g82
ssg70
g2746
sg63
(lp2753
S'SCRIPT_NAME'
p2754
asbag56
(g77
g58
NtRp2755
(dp2756
g61
(dp2757
g88
g89
ssg70
g2746
sg63
(lp2758
S':'
asbag56
(g77
g58
NtRp2759
(dp2760
g61
(dp2761
sg70
g2746
sg63
(lp2762
g56
(g57
g58
NtRp2763
(dp2764
g61
(dp2765
g69
I3
ssg70
g2759
sg63
(lp2766
S''
asbasbasbag56
(g72
g58
NtRp2767
(dp2768
g61
(dp2769
sg70
g2427
sg63
(lp2770
g56
(g77
g58
NtRp2771
(dp2772
g61
(dp2773
g81
g82
ssg70
g2767
sg63
(lp2774
S'SERVER_NAME'
p2775
asbag56
(g77
g58
NtRp2776
(dp2777
g61
(dp2778
g88
g89
ssg70
g2767
sg63
(lp2779
S':'
asbag56
(g77
g58
NtRp2780
(dp2781
g61
(dp2782
sg70
g2767
sg63
(lp2783
g56
(g57
g58
NtRp2784
(dp2785
g61
(dp2786
g69
I3
ssg70
g2780
sg63
(lp2787
g1371
asbasbasbag56
(g72
g58
NtRp2788
(dp2789
g61
(dp2790
sg70
g2427
sg63
(lp2791
g56
(g77
g58
NtRp2792
(dp2793
g61
(dp2794
g81
g82
ssg70
g2788
sg63
(lp2795
S'SERVER_PORT'
p2796
asbag56
(g77
g58
NtRp2797
(dp2798
g61
(dp2799
g88
g89
ssg70
g2788
sg63
(lp2800
S':'
asbag56
(g77
g58
NtRp2801
(dp2802
g61
(dp2803
sg70
g2788
sg63
(lp2804
g56
(g57
g58
NtRp2805
(dp2806
g61
(dp2807
g69
I3
ssg70
g2801
sg63
(lp2808
g1393
asbasbasbag56
(g72
g58
NtRp2809
(dp2810
g61
(dp2811
sg70
g2427
sg63
(lp2812
g56
(g77
g58
NtRp2813
(dp2814
g61
(dp2815
g81
g82
ssg70
g2809
sg63
(lp2816
S'SERVER_PROTOCOL'
p2817
asbag56
(g77
g58
NtRp2818
(dp2819
g61
(dp2820
g88
g89
ssg70
g2809
sg63
(lp2821
S':'
asbag56
(g77
g58
NtRp2822
(dp2823
g61
(dp2824
sg70
g2809
sg63
(lp2825
g56
(g57
g58
NtRp2826
(dp2827
g61
(dp2828
g69
I3
ssg70
g2822
sg63
(lp2829
g1415
asbasbasbag56
(g72
g58
NtRp2830
(dp2831
g61
(dp2832
sg70
g2427
sg63
(lp2833
g56
(g77
g58
NtRp2834
(dp2835
g61
(dp2836
g81
g82
ssg70
g2830
sg63
(lp2837
S'SERVER_SOFTWARE'
p2838
asbag56
(g77
g58
NtRp2839
(dp2840
g61
(dp2841
g88
g89
ssg70
g2830
sg63
(lp2842
S':'
asbag56
(g77
g58
NtRp2843
(dp2844
g61
(dp2845
sg70
g2830
sg63
(lp2846
g56
(g57
g58
NtRp2847
(dp2848
g61
(dp2849
g69
I3
ssg70
g2843
sg63
(lp2850
g1437
asbasbasbag56
(g72
g58
NtRp2851
(dp2852
g61
(dp2853
sg70
g2427
sg63
(lp2854
g56
(g77
g58
NtRp2855
(dp2856
g61
(dp2857
g81
g82
ssg70
g2851
sg63
(lp2858
S'WEB2PY_ORIGINAL_URI'
p2859
asbag56
(g77
g58
NtRp2860
(dp2861
g61
(dp2862
g88
g89
ssg70
g2851
sg63
(lp2863
S':'
asbag56
(g77
g58
NtRp2864
(dp2865
g61
(dp2866
sg70
g2851
sg63
(lp2867
g56
(g57
g58
NtRp2868
(dp2869
g61
(dp2870
g69
I3
ssg70
g2864
sg63
(lp2871
g1221
asbasbasbag56
(g72
g58
NtRp2872
(dp2873
g61
(dp2874
sg70
g2427
sg63
(lp2875
g56
(g77
g58
NtRp2876
(dp2877
g61
(dp2878
g81
g82
ssg70
g2872
sg63
(lp2879
S'wsgi.errors'
p2880
asbag56
(g77
g58
NtRp2881
(dp2882
g61
(dp2883
g88
g89
ssg70
g2872
sg63
(lp2884
S':'
asbag56
(g77
g58
NtRp2885
(dp2886
g61
(dp2887
sg70
g2872
sg63
(lp2888
g56
(g57
g58
NtRp2889
(dp2890
g61
(dp2891
g69
I3
ssg70
g2885
sg63
(lp2892
S"<open file '<stderr>', mode 'w' at 0x7f0d1464c1e0>"
p2893
asbasbasbag56
(g72
g58
NtRp2894
(dp2895
g61
(dp2896
sg70
g2427
sg63
(lp2897
g56
(g77
g58
NtRp2898
(dp2899
g61
(dp2900
g81
g82
ssg70
g2894
sg63
(lp2901
S'wsgi.file_wrapper'
p2902
asbag56
(g77
g58
NtRp2903
(dp2904
g61
(dp2905
g88
g89
ssg70
g2894
sg63
(lp2906
S':'
asbag56
(g77
g58
NtRp2907
(dp2908
g61
(dp2909
sg70
g2894
sg63
(lp2910
g56
(g57
g58
NtRp2911
(dp2912
g61
(dp2913
g69
I3
ssg70
g2907
sg63
(lp2914
S'<class wsgiref.util.FileWrapper at 0x24c5110>'
p2915
asbasbasbag56
(g72
g58
NtRp2916
(dp2917
g61
(dp2918
sg70
g2427
sg63
(lp2919
g56
(g77
g58
NtRp2920
(dp2921
g61
(dp2922
g81
g82
ssg70
g2916
sg63
(lp2923
S'wsgi.input'
p2924
asbag56
(g77
g58
NtRp2925
(dp2926
g61
(dp2927
g88
g89
ssg70
g2916
sg63
(lp2928
S':'
asbag56
(g77
g58
NtRp2929
(dp2930
g61
(dp2931
sg70
g2916
sg63
(lp2932
g56
(g57
g58
NtRp2933
(dp2934
g61
(dp2935
g69
I3
ssg70
g2929
sg63
(lp2936
S'<cStringIO.StringO object at 0x33b7d50>'
p2937
asbasbasbag56
(g72
g58
NtRp2938
(dp2939
g61
(dp2940
sg70
g2427
sg63
(lp2941
g56
(g77
g58
NtRp2942
(dp2943
g61
(dp2944
g81
g82
ssg70
g2938
sg63
(lp2945
S'wsgi.multiprocess'
p2946
asbag56
(g77
g58
NtRp2947
(dp2948
g61
(dp2949
g88
g89
ssg70
g2938
sg63
(lp2950
S':'
asbag56
(g77
g58
NtRp2951
(dp2952
g61
(dp2953
sg70
g2938
sg63
(lp2954
g56
(g57
g58
NtRp2955
(dp2956
g61
(dp2957
g69
I3
ssg70
g2951
sg63
(lp2958
g99
asbasbasbag56
(g72
g58
NtRp2959
(dp2960
g61
(dp2961
sg70
g2427
sg63
(lp2962
g56
(g77
g58
NtRp2963
(dp2964
g61
(dp2965
g81
g82
ssg70
g2959
sg63
(lp2966
S'wsgi.multithread'
p2967
asbag56
(g77
g58
NtRp2968
(dp2969
g61
(dp2970
g88
g89
ssg70
g2959
sg63
(lp2971
S':'
asbag56
(g77
g58
NtRp2972
(dp2973
g61
(dp2974
sg70
g2959
sg63
(lp2975
g56
(g57
g58
NtRp2976
(dp2977
g61
(dp2978
g69
I3
ssg70
g2972
sg63
(lp2979
g1698
asbasbasbag56
(g72
g58
NtRp2980
(dp2981
g61
(dp2982
sg70
g2427
sg63
(lp2983
g56
(g77
g58
NtRp2984
(dp2985
g61
(dp2986
g81
g82
ssg70
g2980
sg63
(lp2987
S'wsgi.run_once'
p2988
asbag56
(g77
g58
NtRp2989
(dp2990
g61
(dp2991
g88
g89
ssg70
g2980
sg63
(lp2992
S':'
asbag56
(g77
g58
NtRp2993
(dp2994
g61
(dp2995
sg70
g2980
sg63
(lp2996
g56
(g57
g58
NtRp2997
(dp2998
g61
(dp2999
g69
I3
ssg70
g2993
sg63
(lp3000
g99
asbasbasbag56
(g72
g58
NtRp3001
(dp3002
g61
(dp3003
sg70
g2427
sg63
(lp3004
g56
(g77
g58
NtRp3005
(dp3006
g61
(dp3007
g81
g82
ssg70
g3001
sg63
(lp3008
S'wsgi.url_scheme'
p3009
asbag56
(g77
g58
NtRp3010
(dp3011
g61
(dp3012
g88
g89
ssg70
g3001
sg63
(lp3013
S':'
asbag56
(g77
g58
NtRp3014
(dp3015
g61
(dp3016
sg70
g3001
sg63
(lp3017
g56
(g57
g58
NtRp3018
(dp3019
g61
(dp3020
g69
I3
ssg70
g3014
sg63
(lp3021
g1741
asbasbasbag56
(g72
g58
NtRp3022
(dp3023
g61
(dp3024
sg70
g2427
sg63
(lp3025
g56
(g77
g58
NtRp3026
(dp3027
g61
(dp3028
g81
g82
ssg70
g3022
sg63
(lp3029
S'wsgi.version'
p3030
asbag56
(g77
g58
NtRp3031
(dp3032
g61
(dp3033
g88
g89
ssg70
g3022
sg63
(lp3034
S':'
asbag56
(g77
g58
NtRp3035
(dp3036
g61
(dp3037
sg70
g3022
sg63
(lp3038
g56
(g57
g58
NtRp3039
(dp3040
g61
(dp3041
g69
I3
ssg70
g3035
sg63
(lp3042
S'1'
asbasbasbasbasbasbasbasbasbasbasbasbasbsS'frames'
p3043
(lp3044
(dp3045
S'file'
p3046
S'/windows/Users/Thomas/Dropbox/appz/2011/GAE/ddl-lagoon/gluon/restricted.py'
p3047
sS'dump'
p3048
(dp3049
S'environment'
p3050
S"{'A': <class 'gluon.html.A'>, 'Auth': <class 'gluon.tools.Auth'>, 'B': <class 'gluon.html.B'>, 'BEAUTIFY': <class 'gluon.html.BEAUTIFY'>, 'BODY': <class 'gluon.html.BODY'>, 'BR': <class 'gluon.html.BR'>, 'BUTTON': <class 'gluon.html.BUTTON'>, 'CAT': <class 'gluon.html.CAT'>, 'CENTER': <class 'gluon.html.CENTER'>, 'CLEANUP': <class 'gluon.validators.CLEANUP'>, ...}"
p3051
sS'ccode'
p3052
S'<code object <module> at 0x33cb210, file "/windo...tions/ddlagoon/views/default/index.html", line 1>'
p3053
ssS'lnum'
p3054
I194
sS'lines'
p3055
(dp3056
I192
S'        else:'
p3057
sI193
S'            ccode = compile2(code,layer)'
p3058
sI194
S'        exec ccode in environment'
p3059
sI195
S'    except HTTP:'
p3060
sI196
S'        raise'
p3061
sI197
S'    except Exception, error:'
p3062
sI198
S'        # XXX Show exception in Wing IDE if running in debugger'
p3063
sI189
S'    try:'
p3064
sI190
S'        if type(code) == types.CodeType:'
p3065
sI191
S'            ccode = code'
p3066
ssS'call'
p3067
S'(code="left_sidebar_enabled=right_sidebar_enabled=True\\n...nse.write(\'\\\\n  </body>\\\\n</html>\\\\n\', escape=False)", environment={\'A\': <class \'gluon.html.A\'>, \'Auth\': <class \'gluon.tools.Auth\'>, \'B\': <class \'gluon.html.B\'>, \'BEAUTIFY\': <class \'gluon.html.BEAUTIFY\'>, \'BODY\': <class \'gluon.html.BODY\'>, \'BR\': <class \'gluon.html.BR\'>, \'BUTTON\': <class \'gluon.html.BUTTON\'>, \'CAT\': <class \'gluon.html.CAT\'>, \'CENTER\': <class \'gluon.html.CENTER\'>, \'CLEANUP\': <class \'gluon.validators.CLEANUP\'>, ...}, layer=\'/windows/Users/Thomas/Dropbox/appz/2011/GAE/ddl-...on/applications/ddlagoon/views/default/index.html\')'
p3068
sS'func'
p3069
S'restricted'
p3070
sa(dp3071
g3046
S'/windows/Users/Thomas/Dropbox/appz/2011/GAE/ddl-lagoon/applications/ddlagoon/views/default/index.html'
p3072
sg3048
(dp3073
sg3054
I86
sg3055
(dp3074
I96
S"response.write('\\n', escape=False)"
p3075
sI77
S'        response.write(\'\\n        <tr><td><a href="/ddlagoon/ddl/get/run/ddl/\', escape=False)'
p3076
sI78
S'        response.write(ddl.id)'
p3077
sI79
S"        response.write('/', escape=False)"
p3078
sI80
S'        response.write(ddl.filename_url)'
p3079
sI81
S'        response.write(\'">\', escape=False)'
p3080
sI82
S'        response.write(ddl.filename)'
p3081
sI83
S"        response.write('</a></td><td>', escape=False)"
p3082
sI84
S'        response.write(ddl.size_readable)'
p3083
sI85
S"        response.write('</td><td>', escape=False)"
p3084
sI86
S'        response.write(ddl.date_added.split(" ")[0])'
p3085
sI87
S"        response.write('</td><td>', escape=False)"
p3086
sI88
S'        response.write(ddl.uploader.nickname)'
p3087
sI89
S"        response.write('</td></tr>\\n    ', escape=False)"
p3088
sI90
S'        pass'
p3089
sI91
S"    response.write('\\n    </table>\\n', escape=False)"
p3090
sI92
S'else:'
p3091
sI93
S"    response.write('\\n    No DDL, snif!\\n', escape=False)"
p3092
sI94
S'    pass'
p3093
sI95
S"response.write('\\n\\n', escape=False)"
p3094
ssg3067
S'()'
p3095
sg3069
S'<module>'
p3096
sasS'pyver'
p3097
S'Python 2.6.7: /usr/bin/python2.6'
p3098
sS'session'
p3099
g56
(g57
g58
NtRp3100
(dp3101
g61
(dp3102
sg63
(lp3103
g56
(g65
g58
NtRp3104
(dp3105
g61
(dp3106
g69
I5
ssg70
Nsg63
(lp3107
sbasbsS'etype'
p3108
S"<type 'exceptions.AttributeError'>"
p3109
sS'date'
p3110
S'Thu Oct 27 09:15:33 2011'
p3111
sS'response'
p3112
g56
(g57
g58
NtRp3113
(dp3114
g61
(dp3115
sg63
(lp3116
g56
(g65
g58
NtRp3117
(dp3118
g61
(dp3119
g69
I5
ssg70
Nsg63
(lp3120
g56
(g72
g58
NtRp3121
(dp3122
g61
(dp3123
sg70
g3117
sg63
(lp3124
g56
(g77
g58
NtRp3125
(dp3126
g61
(dp3127
g81
g82
ssg70
g3121
sg63
(lp3128
g154
asbag56
(g77
g58
NtRp3129
(dp3130
g61
(dp3131
g88
g89
ssg70
g3121
sg63
(lp3132
S':'
asbag56
(g77
g58
NtRp3133
(dp3134
g61
(dp3135
sg70
g3121
sg63
(lp3136
g56
(g57
g58
NtRp3137
(dp3138
g61
(dp3139
g69
I5
ssg70
g3133
sg63
(lp3140
S'<cStringIO.StringO object at 0x307ff10>'
p3141
asbasbasbag56
(g72
g58
NtRp3142
(dp3143
g61
(dp3144
sg70
g3117
sg63
(lp3145
g56
(g77
g58
NtRp3146
(dp3147
g61
(dp3148
g81
g82
ssg70
g3142
sg63
(lp3149
g220
asbag56
(g77
g58
NtRp3150
(dp3151
g61
(dp3152
g88
g89
ssg70
g3142
sg63
(lp3153
S':'
asbag56
(g77
g58
NtRp3154
(dp3155
g61
(dp3156
sg70
g3142
sg63
(lp3157
g56
(g57
g58
NtRp3158
(dp3159
g61
(dp3160
g69
I5
ssg70
g3154
sg63
(lp3161
g56
(g65
g58
NtRp3162
(dp3163
g61
(dp3164
g69
I4
ssg70
Nsg63
(lp3165
g56
(g72
g58
NtRp3166
(dp3167
g61
(dp3168
sg70
g3162
sg63
(lp3169
g56
(g77
g58
NtRp3170
(dp3171
g61
(dp3172
g81
g82
ssg70
g3166
sg63
(lp3173
S'session_id_ddlagoon'
p3174
asbag56
(g77
g58
NtRp3175
(dp3176
g61
(dp3177
g88
g89
ssg70
g3166
sg63
(lp3178
S':'
asbag56
(g77
g58
NtRp3179
(dp3180
g61
(dp3181
sg70
g3166
sg63
(lp3182
g56
(g57
g58
NtRp3183
(dp3184
g61
(dp3185
g69
I4
ssg70
g3179
sg63
(lp3186
g56
(g65
g58
NtRp3187
(dp3188
g61
(dp3189
g69
I3
ssg70
Nsg63
(lp3190
g56
(g72
g58
NtRp3191
(dp3192
g61
(dp3193
sg70
g3187
sg63
(lp3194
g56
(g77
g58
NtRp3195
(dp3196
g61
(dp3197
g81
g82
ssg70
g3191
sg63
(lp3198
g270
asbag56
(g77
g58
NtRp3199
(dp3200
g61
(dp3201
g88
g89
ssg70
g3191
sg63
(lp3202
S':'
asbag56
(g77
g58
NtRp3203
(dp3204
g61
(dp3205
sg70
g3191
sg63
(lp3206
g56
(g57
g58
NtRp3207
(dp3208
g61
(dp3209
g69
I3
ssg70
g3203
sg63
(lp3210
S''
asbasbasbag56
(g72
g58
NtRp3211
(dp3212
g61
(dp3213
sg70
g3187
sg63
(lp3214
g56
(g77
g58
NtRp3215
(dp3216
g61
(dp3217
g81
g82
ssg70
g3211
sg63
(lp3218
g291
asbag56
(g77
g58
NtRp3219
(dp3220
g61
(dp3221
g88
g89
ssg70
g3211
sg63
(lp3222
S':'
asbag56
(g77
g58
NtRp3223
(dp3224
g61
(dp3225
sg70
g3211
sg63
(lp3226
g56
(g57
g58
NtRp3227
(dp3228
g61
(dp3229
g69
I3
ssg70
g3223
sg63
(lp3230
S''
asbasbasbag56
(g72
g58
NtRp3231
(dp3232
g61
(dp3233
sg70
g3187
sg63
(lp3234
g56
(g77
g58
NtRp3235
(dp3236
g61
(dp3237
g81
g82
ssg70
g3231
sg63
(lp3238
g312
asbag56
(g77
g58
NtRp3239
(dp3240
g61
(dp3241
g88
g89
ssg70
g3231
sg63
(lp3242
S':'
asbag56
(g77
g58
NtRp3243
(dp3244
g61
(dp3245
sg70
g3231
sg63
(lp3246
g56
(g57
g58
NtRp3247
(dp3248
g61
(dp3249
g69
I3
ssg70
g3243
sg63
(lp3250
S''
asbasbasbag56
(g72
g58
NtRp3251
(dp3252
g61
(dp3253
sg70
g3187
sg63
(lp3254
g56
(g77
g58
NtRp3255
(dp3256
g61
(dp3257
g81
g82
ssg70
g3251
sg63
(lp3258
g333
asbag56
(g77
g58
NtRp3259
(dp3260
g61
(dp3261
g88
g89
ssg70
g3251
sg63
(lp3262
S':'
asbag56
(g77
g58
NtRp3263
(dp3264
g61
(dp3265
sg70
g3251
sg63
(lp3266
g56
(g57
g58
NtRp3267
(dp3268
g61
(dp3269
g69
I3
ssg70
g3263
sg63
(lp3270
S''
asbasbasbag56
(g72
g58
NtRp3271
(dp3272
g61
(dp3273
sg70
g3187
sg63
(lp3274
g56
(g77
g58
NtRp3275
(dp3276
g61
(dp3277
g81
g82
ssg70
g3271
sg63
(lp3278
g354
asbag56
(g77
g58
NtRp3279
(dp3280
g61
(dp3281
g88
g89
ssg70
g3271
sg63
(lp3282
S':'
asbag56
(g77
g58
NtRp3283
(dp3284
g61
(dp3285
sg70
g3271
sg63
(lp3286
g56
(g57
g58
NtRp3287
(dp3288
g61
(dp3289
g69
I3
ssg70
g3283
sg63
(lp3290
S''
asbasbasbag56
(g72
g58
NtRp3291
(dp3292
g61
(dp3293
sg70
g3187
sg63
(lp3294
g56
(g77
g58
NtRp3295
(dp3296
g61
(dp3297
g81
g82
ssg70
g3291
sg63
(lp3298
g375
asbag56
(g77
g58
NtRp3299
(dp3300
g61
(dp3301
g88
g89
ssg70
g3291
sg63
(lp3302
S':'
asbag56
(g77
g58
NtRp3303
(dp3304
g61
(dp3305
sg70
g3291
sg63
(lp3306
g56
(g57
g58
NtRp3307
(dp3308
g61
(dp3309
g69
I3
ssg70
g3303
sg63
(lp3310
S'/'
asbasbasbag56
(g72
g58
NtRp3311
(dp3312
g61
(dp3313
sg70
g3187
sg63
(lp3314
g56
(g77
g58
NtRp3315
(dp3316
g61
(dp3317
g81
g82
ssg70
g3311
sg63
(lp3318
g396
asbag56
(g77
g58
NtRp3319
(dp3320
g61
(dp3321
g88
g89
ssg70
g3311
sg63
(lp3322
S':'
asbag56
(g77
g58
NtRp3323
(dp3324
g61
(dp3325
sg70
g3311
sg63
(lp3326
g56
(g57
g58
NtRp3327
(dp3328
g61
(dp3329
g69
I3
ssg70
g3323
sg63
(lp3330
S''
asbasbasbag56
(g72
g58
NtRp3331
(dp3332
g61
(dp3333
sg70
g3187
sg63
(lp3334
g56
(g77
g58
NtRp3335
(dp3336
g61
(dp3337
g81
g82
ssg70
g3331
sg63
(lp3338
g417
asbag56
(g77
g58
NtRp3339
(dp3340
g61
(dp3341
g88
g89
ssg70
g3331
sg63
(lp3342
S':'
asbag56
(g77
g58
NtRp3343
(dp3344
g61
(dp3345
sg70
g3331
sg63
(lp3346
g56
(g57
g58
NtRp3347
(dp3348
g61
(dp3349
g69
I3
ssg70
g3343
sg63
(lp3350
S''
asbasbasbasbasbasbasbasbasbasbasbag56
(g72
g58
NtRp3351
(dp3352
g61
(dp3353
sg70
g3117
sg63
(lp3354
g56
(g77
g58
NtRp3355
(dp3356
g61
(dp3357
g81
g82
ssg70
g3351
sg63
(lp3358
S'files'
p3359
asbag56
(g77
g58
NtRp3360
(dp3361
g61
(dp3362
g88
g89
ssg70
g3351
sg63
(lp3363
S':'
asbag56
(g77
g58
NtRp3364
(dp3365
g61
(dp3366
sg70
g3351
sg63
(lp3367
g56
(g57
g58
NtRp3368
(dp3369
g61
(dp3370
g69
I5
ssg70
g3364
sg63
(lp3371
g56
(g65
g58
NtRp3372
(dp3373
g61
(dp3374
g69
I4
ssg70
Nsg63
(lp3375
g56
(g72
g58
NtRp3376
(dp3377
g61
(dp3378
sg70
g3372
sg63
(lp3379
g56
(g77
g58
NtRp3380
(dp3381
g61
(dp3382
sg70
g3376
sg63
(lp3383
g56
(g57
g58
NtRp3384
(dp3385
g61
(dp3386
g69
I4
ssg70
g3380
sg63
(lp3387
S'/ddlagoon/static/js/jquery.js'
p3388
asbasbasbag56
(g72
g58
NtRp3389
(dp3390
g61
(dp3391
sg70
g3372
sg63
(lp3392
g56
(g77
g58
NtRp3393
(dp3394
g61
(dp3395
sg70
g3389
sg63
(lp3396
g56
(g57
g58
NtRp3397
(dp3398
g61
(dp3399
g69
I4
ssg70
g3393
sg63
(lp3400
S'/ddlagoon/static/css/anytime.css'
p3401
asbasbasbag56
(g72
g58
NtRp3402
(dp3403
g61
(dp3404
sg70
g3372
sg63
(lp3405
g56
(g77
g58
NtRp3406
(dp3407
g61
(dp3408
sg70
g3402
sg63
(lp3409
g56
(g57
g58
NtRp3410
(dp3411
g61
(dp3412
g69
I4
ssg70
g3406
sg63
(lp3413
S'/ddlagoon/static/js/anytime.js'
p3414
asbasbasbag56
(g72
g58
NtRp3415
(dp3416
g61
(dp3417
sg70
g3372
sg63
(lp3418
g56
(g77
g58
NtRp3419
(dp3420
g61
(dp3421
sg70
g3415
sg63
(lp3422
g56
(g57
g58
NtRp3423
(dp3424
g61
(dp3425
g69
I4
ssg70
g3419
sg63
(lp3426
S'/ddlagoon/static/css/base.css'
p3427
asbasbasbag56
(g72
g58
NtRp3428
(dp3429
g61
(dp3430
sg70
g3372
sg63
(lp3431
g56
(g77
g58
NtRp3432
(dp3433
g61
(dp3434
sg70
g3428
sg63
(lp3435
g56
(g57
g58
NtRp3436
(dp3437
g61
(dp3438
g69
I4
ssg70
g3432
sg63
(lp3439
S'/ddlagoon/static/css/superfish.css'
p3440
asbasbasbag56
(g72
g58
NtRp3441
(dp3442
g61
(dp3443
sg70
g3372
sg63
(lp3444
g56
(g77
g58
NtRp3445
(dp3446
g61
(dp3447
sg70
g3441
sg63
(lp3448
g56
(g57
g58
NtRp3449
(dp3450
g61
(dp3451
g69
I4
ssg70
g3445
sg63
(lp3452
S'/ddlagoon/static/js/superfish.js'
p3453
asbasbasbasbasbasbasbag56
(g72
g58
NtRp3454
(dp3455
g61
(dp3456
sg70
g3117
sg63
(lp3457
g56
(g77
g58
NtRp3458
(dp3459
g61
(dp3460
g81
g82
ssg70
g3454
sg63
(lp3461
S'flash'
p3462
asbag56
(g77
g58
NtRp3463
(dp3464
g61
(dp3465
g88
g89
ssg70
g3454
sg63
(lp3466
S':'
asbag56
(g77
g58
NtRp3467
(dp3468
g61
(dp3469
sg70
g3454
sg63
(lp3470
g56
(g57
g58
NtRp3471
(dp3472
g61
(dp3473
g69
I5
ssg70
g3467
sg63
(lp3474
S''
asbasbasbag56
(g72
g58
NtRp3475
(dp3476
g61
(dp3477
sg70
g3117
sg63
(lp3478
g56
(g77
g58
NtRp3479
(dp3480
g61
(dp3481
g81
g82
ssg70
g3475
sg63
(lp3482
S'generic_patterns'
p3483
asbag56
(g77
g58
NtRp3484
(dp3485
g61
(dp3486
g88
g89
ssg70
g3475
sg63
(lp3487
S':'
asbag56
(g77
g58
NtRp3488
(dp3489
g61
(dp3490
sg70
g3475
sg63
(lp3491
g56
(g57
g58
NtRp3492
(dp3493
g61
(dp3494
g69
I5
ssg70
g3488
sg63
(lp3495
g56
(g65
g58
NtRp3496
(dp3497
g61
(dp3498
g69
I4
ssg70
Nsg63
(lp3499
g56
(g72
g58
NtRp3500
(dp3501
g61
(dp3502
sg70
g3496
sg63
(lp3503
g56
(g77
g58
NtRp3504
(dp3505
g61
(dp3506
sg70
g3500
sg63
(lp3507
g56
(g57
g58
NtRp3508
(dp3509
g61
(dp3510
g69
I4
ssg70
g3504
sg63
(lp3511
S'*'
asbasbasbasbasbasbasbag56
(g72
g58
NtRp3512
(dp3513
g61
(dp3514
sg70
g3117
sg63
(lp3515
g56
(g77
g58
NtRp3516
(dp3517
g61
(dp3518
g81
g82
ssg70
g3512
sg63
(lp3519
S'headers'
p3520
asbag56
(g77
g58
NtRp3521
(dp3522
g61
(dp3523
g88
g89
ssg70
g3512
sg63
(lp3524
S':'
asbag56
(g77
g58
NtRp3525
(dp3526
g61
(dp3527
sg70
g3512
sg63
(lp3528
g56
(g57
g58
NtRp3529
(dp3530
g61
(dp3531
g69
I5
ssg70
g3525
sg63
(lp3532
g56
(g65
g58
NtRp3533
(dp3534
g61
(dp3535
g69
I4
ssg70
Nsg63
(lp3536
g56
(g72
g58
NtRp3537
(dp3538
g61
(dp3539
sg70
g3533
sg63
(lp3540
g56
(g77
g58
NtRp3541
(dp3542
g61
(dp3543
g81
g82
ssg70
g3537
sg63
(lp3544
S'Cache-Control'
p3545
asbag56
(g77
g58
NtRp3546
(dp3547
g61
(dp3548
g88
g89
ssg70
g3537
sg63
(lp3549
S':'
asbag56
(g77
g58
NtRp3550
(dp3551
g61
(dp3552
sg70
g3537
sg63
(lp3553
g56
(g57
g58
NtRp3554
(dp3555
g61
(dp3556
g69
I4
ssg70
g3550
sg63
(lp3557
S'no-store, no-cache, must-revalidate, post-check=0, pre-check=0'
p3558
asbasbasbag56
(g72
g58
NtRp3559
(dp3560
g61
(dp3561
sg70
g3533
sg63
(lp3562
g56
(g77
g58
NtRp3563
(dp3564
g61
(dp3565
g81
g82
ssg70
g3559
sg63
(lp3566
S'Content-Type'
p3567
asbag56
(g77
g58
NtRp3568
(dp3569
g61
(dp3570
g88
g89
ssg70
g3559
sg63
(lp3571
S':'
asbag56
(g77
g58
NtRp3572
(dp3573
g61
(dp3574
sg70
g3559
sg63
(lp3575
g56
(g57
g58
NtRp3576
(dp3577
g61
(dp3578
g69
I4
ssg70
g3572
sg63
(lp3579
S'text/html; charset=utf-8'
p3580
asbasbasbag56
(g72
g58
NtRp3581
(dp3582
g61
(dp3583
sg70
g3533
sg63
(lp3584
g56
(g77
g58
NtRp3585
(dp3586
g61
(dp3587
g81
g82
ssg70
g3581
sg63
(lp3588
S'Expires'
p3589
asbag56
(g77
g58
NtRp3590
(dp3591
g61
(dp3592
g88
g89
ssg70
g3581
sg63
(lp3593
S':'
asbag56
(g77
g58
NtRp3594
(dp3595
g61
(dp3596
sg70
g3581
sg63
(lp3597
g56
(g57
g58
NtRp3598
(dp3599
g61
(dp3600
g69
I4
ssg70
g3594
sg63
(lp3601
S'Thu, 27 Oct 2011 08:15:33 GMT'
p3602
asbasbasbag56
(g72
g58
NtRp3603
(dp3604
g61
(dp3605
sg70
g3533
sg63
(lp3606
g56
(g77
g58
NtRp3607
(dp3608
g61
(dp3609
g81
g82
ssg70
g3603
sg63
(lp3610
S'Pragma'
p3611
asbag56
(g77
g58
NtRp3612
(dp3613
g61
(dp3614
g88
g89
ssg70
g3603
sg63
(lp3615
S':'
asbag56
(g77
g58
NtRp3616
(dp3617
g61
(dp3618
sg70
g3603
sg63
(lp3619
g56
(g57
g58
NtRp3620
(dp3621
g61
(dp3622
g69
I4
ssg70
g3616
sg63
(lp3623
S'no-cache'
p3624
asbasbasbag56
(g72
g58
NtRp3625
(dp3626
g61
(dp3627
sg70
g3533
sg63
(lp3628
g56
(g77
g58
NtRp3629
(dp3630
g61
(dp3631
g81
g82
ssg70
g3625
sg63
(lp3632
S'X-Powered-By'
p3633
asbag56
(g77
g58
NtRp3634
(dp3635
g61
(dp3636
g88
g89
ssg70
g3625
sg63
(lp3637
S':'
asbag56
(g77
g58
NtRp3638
(dp3639
g61
(dp3640
sg70
g3625
sg63
(lp3641
g56
(g57
g58
NtRp3642
(dp3643
g61
(dp3644
g69
I4
ssg70
g3638
sg63
(lp3645
S'web2py'
p3646
asbasbasbasbasbasbasbag56
(g72
g58
NtRp3647
(dp3648
g61
(dp3649
sg70
g3117
sg63
(lp3650
g56
(g77
g58
NtRp3651
(dp3652
g61
(dp3653
g81
g82
ssg70
g3647
sg63
(lp3654
S'menu'
p3655
asbag56
(g77
g58
NtRp3656
(dp3657
g61
(dp3658
g88
g89
ssg70
g3647
sg63
(lp3659
S':'
asbag56
(g77
g58
NtRp3660
(dp3661
g61
(dp3662
sg70
g3647
sg63
(lp3663
g56
(g57
g58
NtRp3664
(dp3665
g61
(dp3666
g69
I5
ssg70
g3660
sg63
(lp3667
g56
(g65
g58
NtRp3668
(dp3669
g61
(dp3670
g69
I4
ssg70
Nsg63
(lp3671
g56
(g72
g58
NtRp3672
(dp3673
g61
(dp3674
sg70
g3668
sg63
(lp3675
g56
(g77
g58
NtRp3676
(dp3677
g61
(dp3678
sg70
g3672
sg63
(lp3679
g56
(g57
g58
NtRp3680
(dp3681
g61
(dp3682
g69
I4
ssg70
g3676
sg63
(lp3683
g56
(g65
g58
NtRp3684
(dp3685
g61
(dp3686
g69
I3
ssg70
Nsg63
(lp3687
g56
(g72
g58
NtRp3688
(dp3689
g61
(dp3690
sg70
g3684
sg63
(lp3691
g56
(g77
g58
NtRp3692
(dp3693
g61
(dp3694
sg70
g3688
sg63
(lp3695
g56
(g57
g58
NtRp3696
(dp3697
g61
(dp3698
g69
I3
ssg70
g3692
sg63
(lp3699
cgluon.languages
lazyT_unpickle
p3700
(S's\x04\x00\x00\x00Home'
tRp3701
asbasbasbag56
(g72
g58
NtRp3702
(dp3703
g61
(dp3704
sg70
g3684
sg63
(lp3705
g56
(g77
g58
NtRp3706
(dp3707
g61
(dp3708
sg70
g3702
sg63
(lp3709
g56
(g57
g58
NtRp3710
(dp3711
g61
(dp3712
g69
I3
ssg70
g3706
sg63
(lp3713
g99
asbasbasbag56
(g72
g58
NtRp3714
(dp3715
g61
(dp3716
sg70
g3684
sg63
(lp3717
g56
(g77
g58
NtRp3718
(dp3719
g61
(dp3720
sg70
g3714
sg63
(lp3721
g56
(g57
g58
NtRp3722
(dp3723
g61
(dp3724
g69
I3
ssg70
g3718
sg63
(lp3725
S'/ddlagoon/default/index'
p3726
asbasbasbag56
(g72
g58
NtRp3727
(dp3728
g61
(dp3729
sg70
g3684
sg63
(lp3730
g56
(g77
g58
NtRp3731
(dp3732
g61
(dp3733
sg70
g3727
sg63
(lp3734
g56
(g57
g58
NtRp3735
(dp3736
g61
(dp3737
g69
I3
ssg70
g3731
sg63
(lp3738
g56
(g65
g58
NtRp3739
(dp3740
g61
(dp3741
g69
I2
ssg70
Nsg63
(lp3742
sbasbasbasbasbasbasbasbag56
(g72
g58
NtRp3743
(dp3744
g61
(dp3745
sg70
g3668
sg63
(lp3746
g56
(g77
g58
NtRp3747
(dp3748
g61
(dp3749
sg70
g3743
sg63
(lp3750
g56
(g57
g58
NtRp3751
(dp3752
g61
(dp3753
g69
I4
ssg70
g3747
sg63
(lp3754
g56
(g65
g58
NtRp3755
(dp3756
g61
(dp3757
g69
I3
ssg70
Nsg63
(lp3758
g56
(g72
g58
NtRp3759
(dp3760
g61
(dp3761
sg70
g3755
sg63
(lp3762
g56
(g77
g58
NtRp3763
(dp3764
g61
(dp3765
sg70
g3759
sg63
(lp3766
g56
(g57
g58
NtRp3767
(dp3768
g61
(dp3769
g69
I3
ssg70
g3763
sg63
(lp3770
g3700
(S's\x08\x00\x00\x00This App'
tRp3771
asbasbasbag56
(g72
g58
NtRp3772
(dp3773
g61
(dp3774
sg70
g3755
sg63
(lp3775
g56
(g77
g58
NtRp3776
(dp3777
g61
(dp3778
sg70
g3772
sg63
(lp3779
g56
(g57
g58
NtRp3780
(dp3781
g61
(dp3782
g69
I3
ssg70
g3776
sg63
(lp3783
g99
asbasbasbag56
(g72
g58
NtRp3784
(dp3785
g61
(dp3786
sg70
g3755
sg63
(lp3787
g56
(g77
g58
NtRp3788
(dp3789
g61
(dp3790
sg70
g3784
sg63
(lp3791
g56
(g57
g58
NtRp3792
(dp3793
g61
(dp3794
g69
I3
ssg70
g3788
sg63
(lp3795
S'/admin/default/design/ddlagoon'
p3796
asbasbasbag56
(g72
g58
NtRp3797
(dp3798
g61
(dp3799
sg70
g3755
sg63
(lp3800
g56
(g77
g58
NtRp3801
(dp3802
g61
(dp3803
sg70
g3797
sg63
(lp3804
g56
(g57
g58
NtRp3805
(dp3806
g61
(dp3807
g69
I3
ssg70
g3801
sg63
(lp3808
g56
(g65
g58
NtRp3809
(dp3810
g61
(dp3811
g69
I2
ssg70
Nsg63
(lp3812
g56
(g72
g58
NtRp3813
(dp3814
g61
(dp3815
sg70
g3809
sg63
(lp3816
g56
(g77
g58
NtRp3817
(dp3818
g61
(dp3819
sg70
g3813
sg63
(lp3820
g56
(g57
g58
NtRp3821
(dp3822
g61
(dp3823
g69
I2
ssg70
g3817
sg63
(lp3824
g56
(g65
g58
NtRp3825
(dp3826
g61
(dp3827
g69
I1
ssg70
Nsg63
(lp3828
g56
(g72
g58
NtRp3829
(dp3830
g61
(dp3831
sg70
g3825
sg63
(lp3832
g56
(g77
g58
NtRp3833
(dp3834
g61
(dp3835
sg70
g3829
sg63
(lp3836
g56
(g57
g58
NtRp3837
(dp3838
g61
(dp3839
g69
I1
ssg70
g3833
sg63
(lp3840
g3700
(S's\n\x00\x00\x00Controller'
tRp3841
asbasbasbag56
(g72
g58
NtRp3842
(dp3843
g61
(dp3844
sg70
g3825
sg63
(lp3845
g56
(g77
g58
NtRp3846
(dp3847
g61
(dp3848
sg70
g3842
sg63
(lp3849
g56
(g57
g58
NtRp3850
(dp3851
g61
(dp3852
g69
I1
ssg70
g3846
sg63
(lp3853
I00
asbasbasbag56
(g72
g58
NtRp3854
(dp3855
g61
(dp3856
sg70
g3825
sg63
(lp3857
g56
(g77
g58
NtRp3858
(dp3859
g61
(dp3860
sg70
g3854
sg63
(lp3861
g56
(g57
g58
NtRp3862
(dp3863
g61
(dp3864
g69
I1
ssg70
g3858
sg63
(lp3865
S'/admin/default/edit/ddlagoon/controllers/default.py'
p3866
asbasbasbasbasbasbasbag56
(g72
g58
NtRp3867
(dp3868
g61
(dp3869
sg70
g3809
sg63
(lp3870
g56
(g77
g58
NtRp3871
(dp3872
g61
(dp3873
sg70
g3867
sg63
(lp3874
g56
(g57
g58
NtRp3875
(dp3876
g61
(dp3877
g69
I2
ssg70
g3871
sg63
(lp3878
g56
(g65
g58
NtRp3879
(dp3880
g61
(dp3881
g69
I1
ssg70
Nsg63
(lp3882
g56
(g72
g58
NtRp3883
(dp3884
g61
(dp3885
sg70
g3879
sg63
(lp3886
g56
(g77
g58
NtRp3887
(dp3888
g61
(dp3889
sg70
g3883
sg63
(lp3890
g56
(g57
g58
NtRp3891
(dp3892
g61
(dp3893
g69
I1
ssg70
g3887
sg63
(lp3894
g3700
(S's\x04\x00\x00\x00View'
tRp3895
asbasbasbag56
(g72
g58
NtRp3896
(dp3897
g61
(dp3898
sg70
g3879
sg63
(lp3899
g56
(g77
g58
NtRp3900
(dp3901
g61
(dp3902
sg70
g3896
sg63
(lp3903
g56
(g57
g58
NtRp3904
(dp3905
g61
(dp3906
g69
I1
ssg70
g3900
sg63
(lp3907
I00
asbasbasbag56
(g72
g58
NtRp3908
(dp3909
g61
(dp3910
sg70
g3879
sg63
(lp3911
g56
(g77
g58
NtRp3912
(dp3913
g61
(dp3914
sg70
g3908
sg63
(lp3915
g56
(g57
g58
NtRp3916
(dp3917
g61
(dp3918
g69
I1
ssg70
g3912
sg63
(lp3919
S'/admin/default/edit/ddlagoon/views/default/index.html'
p3920
asbasbasbasbasbasbasbag56
(g72
g58
NtRp3921
(dp3922
g61
(dp3923
sg70
g3809
sg63
(lp3924
g56
(g77
g58
NtRp3925
(dp3926
g61
(dp3927
sg70
g3921
sg63
(lp3928
g56
(g57
g58
NtRp3929
(dp3930
g61
(dp3931
g69
I2
ssg70
g3925
sg63
(lp3932
g56
(g65
g58
NtRp3933
(dp3934
g61
(dp3935
g69
I1
ssg70
Nsg63
(lp3936
g56
(g72
g58
NtRp3937
(dp3938
g61
(dp3939
sg70
g3933
sg63
(lp3940
g56
(g77
g58
NtRp3941
(dp3942
g61
(dp3943
sg70
g3937
sg63
(lp3944
g56
(g57
g58
NtRp3945
(dp3946
g61
(dp3947
g69
I1
ssg70
g3941
sg63
(lp3948
g3700
(S's\x06\x00\x00\x00Layout'
tRp3949
asbasbasbag56
(g72
g58
NtRp3950
(dp3951
g61
(dp3952
sg70
g3933
sg63
(lp3953
g56
(g77
g58
NtRp3954
(dp3955
g61
(dp3956
sg70
g3950
sg63
(lp3957
g56
(g57
g58
NtRp3958
(dp3959
g61
(dp3960
g69
I1
ssg70
g3954
sg63
(lp3961
I00
asbasbasbag56
(g72
g58
NtRp3962
(dp3963
g61
(dp3964
sg70
g3933
sg63
(lp3965
g56
(g77
g58
NtRp3966
(dp3967
g61
(dp3968
sg70
g3962
sg63
(lp3969
g56
(g57
g58
NtRp3970
(dp3971
g61
(dp3972
g69
I1
ssg70
g3966
sg63
(lp3973
S'/admin/default/edit/ddlagoon/views/layout.html'
p3974
asbasbasbasbasbasbasbag56
(g72
g58
NtRp3975
(dp3976
g61
(dp3977
sg70
g3809
sg63
(lp3978
g56
(g77
g58
NtRp3979
(dp3980
g61
(dp3981
sg70
g3975
sg63
(lp3982
g56
(g57
g58
NtRp3983
(dp3984
g61
(dp3985
g69
I2
ssg70
g3979
sg63
(lp3986
g56
(g65
g58
NtRp3987
(dp3988
g61
(dp3989
g69
I1
ssg70
Nsg63
(lp3990
g56
(g72
g58
NtRp3991
(dp3992
g61
(dp3993
sg70
g3987
sg63
(lp3994
g56
(g77
g58
NtRp3995
(dp3996
g61
(dp3997
sg70
g3991
sg63
(lp3998
g56
(g57
g58
NtRp3999
(dp4000
g61
(dp4001
g69
I1
ssg70
g3995
sg63
(lp4002
g3700
(S's\n\x00\x00\x00Stylesheet'
tRp4003
asbasbasbag56
(g72
g58
NtRp4004
(dp4005
g61
(dp4006
sg70
g3987
sg63
(lp4007
g56
(g77
g58
NtRp4008
(dp4009
g61
(dp4010
sg70
g4004
sg63
(lp4011
g56
(g57
g58
NtRp4012
(dp4013
g61
(dp4014
g69
I1
ssg70
g4008
sg63
(lp4015
I00
asbasbasbag56
(g72
g58
NtRp4016
(dp4017
g61
(dp4018
sg70
g3987
sg63
(lp4019
g56
(g77
g58
NtRp4020
(dp4021
g61
(dp4022
sg70
g4016
sg63
(lp4023
g56
(g57
g58
NtRp4024
(dp4025
g61
(dp4026
g69
I1
ssg70
g4020
sg63
(lp4027
S'/admin/default/edit/ddlagoon/static/base.css'
p4028
asbasbasbasbasbasbasbag56
(g72
g58
NtRp4029
(dp4030
g61
(dp4031
sg70
g3809
sg63
(lp4032
g56
(g77
g58
NtRp4033
(dp4034
g61
(dp4035
sg70
g4029
sg63
(lp4036
g56
(g57
g58
NtRp4037
(dp4038
g61
(dp4039
g69
I2
ssg70
g4033
sg63
(lp4040
g56
(g65
g58
NtRp4041
(dp4042
g61
(dp4043
g69
I1
ssg70
Nsg63
(lp4044
g56
(g72
g58
NtRp4045
(dp4046
g61
(dp4047
sg70
g4041
sg63
(lp4048
g56
(g77
g58
NtRp4049
(dp4050
g61
(dp4051
sg70
g4045
sg63
(lp4052
g56
(g57
g58
NtRp4053
(dp4054
g61
(dp4055
g69
I1
ssg70
g4049
sg63
(lp4056
g3700
(S's\x08\x00\x00\x00DB Model'
tRp4057
asbasbasbag56
(g72
g58
NtRp4058
(dp4059
g61
(dp4060
sg70
g4041
sg63
(lp4061
g56
(g77
g58
NtRp4062
(dp4063
g61
(dp4064
sg70
g4058
sg63
(lp4065
g56
(g57
g58
NtRp4066
(dp4067
g61
(dp4068
g69
I1
ssg70
g4062
sg63
(lp4069
I00
asbasbasbag56
(g72
g58
NtRp4070
(dp4071
g61
(dp4072
sg70
g4041
sg63
(lp4073
g56
(g77
g58
NtRp4074
(dp4075
g61
(dp4076
sg70
g4070
sg63
(lp4077
g56
(g57
g58
NtRp4078
(dp4079
g61
(dp4080
g69
I1
ssg70
g4074
sg63
(lp4081
S'/admin/default/edit/ddlagoon/models/db.py'
p4082
asbasbasbasbasbasbasbag56
(g72
g58
NtRp4083
(dp4084
g61
(dp4085
sg70
g3809
sg63
(lp4086
g56
(g77
g58
NtRp4087
(dp4088
g61
(dp4089
sg70
g4083
sg63
(lp4090
g56
(g57
g58
NtRp4091
(dp4092
g61
(dp4093
g69
I2
ssg70
g4087
sg63
(lp4094
g56
(g65
g58
NtRp4095
(dp4096
g61
(dp4097
g69
I1
ssg70
Nsg63
(lp4098
g56
(g72
g58
NtRp4099
(dp4100
g61
(dp4101
sg70
g4095
sg63
(lp4102
g56
(g77
g58
NtRp4103
(dp4104
g61
(dp4105
sg70
g4099
sg63
(lp4106
g56
(g57
g58
NtRp4107
(dp4108
g61
(dp4109
g69
I1
ssg70
g4103
sg63
(lp4110
g3700
(S's\n\x00\x00\x00Menu Model'
tRp4111
asbasbasbag56
(g72
g58
NtRp4112
(dp4113
g61
(dp4114
sg70
g4095
sg63
(lp4115
g56
(g77
g58
NtRp4116
(dp4117
g61
(dp4118
sg70
g4112
sg63
(lp4119
g56
(g57
g58
NtRp4120
(dp4121
g61
(dp4122
g69
I1
ssg70
g4116
sg63
(lp4123
I00
asbasbasbag56
(g72
g58
NtRp4124
(dp4125
g61
(dp4126
sg70
g4095
sg63
(lp4127
g56
(g77
g58
NtRp4128
(dp4129
g61
(dp4130
sg70
g4124
sg63
(lp4131
g56
(g57
g58
NtRp4132
(dp4133
g61
(dp4134
g69
I1
ssg70
g4128
sg63
(lp4135
S'/admin/default/edit/ddlagoon/models/menu.py'
p4136
asbasbasbasbasbasbasbag56
(g72
g58
NtRp4137
(dp4138
g61
(dp4139
sg70
g3809
sg63
(lp4140
g56
(g77
g58
NtRp4141
(dp4142
g61
(dp4143
sg70
g4137
sg63
(lp4144
g56
(g57
g58
NtRp4145
(dp4146
g61
(dp4147
g69
I2
ssg70
g4141
sg63
(lp4148
g56
(g65
g58
NtRp4149
(dp4150
g61
(dp4151
g69
I1
ssg70
Nsg63
(lp4152
g56
(g72
g58
NtRp4153
(dp4154
g61
(dp4155
sg70
g4149
sg63
(lp4156
g56
(g77
g58
NtRp4157
(dp4158
g61
(dp4159
sg70
g4153
sg63
(lp4160
g56
(g57
g58
NtRp4161
(dp4162
g61
(dp4163
g69
I1
ssg70
g4157
sg63
(lp4164
g3700
(S's\x08\x00\x00\x00Database'
tRp4165
asbasbasbag56
(g72
g58
NtRp4166
(dp4167
g61
(dp4168
sg70
g4149
sg63
(lp4169
g56
(g77
g58
NtRp4170
(dp4171
g61
(dp4172
sg70
g4166
sg63
(lp4173
g56
(g57
g58
NtRp4174
(dp4175
g61
(dp4176
g69
I1
ssg70
g4170
sg63
(lp4177
I00
asbasbasbag56
(g72
g58
NtRp4178
(dp4179
g61
(dp4180
sg70
g4149
sg63
(lp4181
g56
(g77
g58
NtRp4182
(dp4183
g61
(dp4184
sg70
g4178
sg63
(lp4185
g56
(g57
g58
NtRp4186
(dp4187
g61
(dp4188
g69
I1
ssg70
g4182
sg63
(lp4189
S'/ddlagoon/appadmin/index'
p4190
asbasbasbasbasbasbasbag56
(g72
g58
NtRp4191
(dp4192
g61
(dp4193
sg70
g3809
sg63
(lp4194
g56
(g77
g58
NtRp4195
(dp4196
g61
(dp4197
sg70
g4191
sg63
(lp4198
g56
(g57
g58
NtRp4199
(dp4200
g61
(dp4201
g69
I2
ssg70
g4195
sg63
(lp4202
g56
(g65
g58
NtRp4203
(dp4204
g61
(dp4205
g69
I1
ssg70
Nsg63
(lp4206
g56
(g72
g58
NtRp4207
(dp4208
g61
(dp4209
sg70
g4203
sg63
(lp4210
g56
(g77
g58
NtRp4211
(dp4212
g61
(dp4213
sg70
g4207
sg63
(lp4214
g56
(g57
g58
NtRp4215
(dp4216
g61
(dp4217
g69
I1
ssg70
g4211
sg63
(lp4218
g3700
(S's\x06\x00\x00\x00Errors'
tRp4219
asbasbasbag56
(g72
g58
NtRp4220
(dp4221
g61
(dp4222
sg70
g4203
sg63
(lp4223
g56
(g77
g58
NtRp4224
(dp4225
g61
(dp4226
sg70
g4220
sg63
(lp4227
g56
(g57
g58
NtRp4228
(dp4229
g61
(dp4230
g69
I1
ssg70
g4224
sg63
(lp4231
I00
asbasbasbag56
(g72
g58
NtRp4232
(dp4233
g61
(dp4234
sg70
g4203
sg63
(lp4235
g56
(g77
g58
NtRp4236
(dp4237
g61
(dp4238
sg70
g4232
sg63
(lp4239
g56
(g57
g58
NtRp4240
(dp4241
g61
(dp4242
g69
I1
ssg70
g4236
sg63
(lp4243
S'/admin/default/errors/ddlagoon'
p4244
asbasbasbasbasbasbasbag56
(g72
g58
NtRp4245
(dp4246
g61
(dp4247
sg70
g3809
sg63
(lp4248
g56
(g77
g58
NtRp4249
(dp4250
g61
(dp4251
sg70
g4245
sg63
(lp4252
g56
(g57
g58
NtRp4253
(dp4254
g61
(dp4255
g69
I2
ssg70
g4249
sg63
(lp4256
g56
(g65
g58
NtRp4257
(dp4258
g61
(dp4259
g69
I1
ssg70
Nsg63
(lp4260
g56
(g72
g58
NtRp4261
(dp4262
g61
(dp4263
sg70
g4257
sg63
(lp4264
g56
(g77
g58
NtRp4265
(dp4266
g61
(dp4267
sg70
g4261
sg63
(lp4268
g56
(g57
g58
NtRp4269
(dp4270
g61
(dp4271
g69
I1
ssg70
g4265
sg63
(lp4272
g3700
(S's\x05\x00\x00\x00About'
tRp4273
asbasbasbag56
(g72
g58
NtRp4274
(dp4275
g61
(dp4276
sg70
g4257
sg63
(lp4277
g56
(g77
g58
NtRp4278
(dp4279
g61
(dp4280
sg70
g4274
sg63
(lp4281
g56
(g57
g58
NtRp4282
(dp4283
g61
(dp4284
g69
I1
ssg70
g4278
sg63
(lp4285
I00
asbasbasbag56
(g72
g58
NtRp4286
(dp4287
g61
(dp4288
sg70
g4257
sg63
(lp4289
g56
(g77
g58
NtRp4290
(dp4291
g61
(dp4292
sg70
g4286
sg63
(lp4293
g56
(g57
g58
NtRp4294
(dp4295
g61
(dp4296
g69
I1
ssg70
g4290
sg63
(lp4297
S'/admin/default/about/ddlagoon'
p4298
asbasbasbasbasbasbasbasbasbasbasbasbasbasbasbag56
(g72
g58
NtRp4299
(dp4300
g61
(dp4301
sg70
g3668
sg63
(lp4302
g56
(g77
g58
NtRp4303
(dp4304
g61
(dp4305
sg70
g4299
sg63
(lp4306
g56
(g57
g58
NtRp4307
(dp4308
g61
(dp4309
g69
I4
ssg70
g4303
sg63
(lp4310
g56
(g65
g58
NtRp4311
(dp4312
g61
(dp4313
g69
I3
ssg70
Nsg63
(lp4314
g56
(g72
g58
NtRp4315
(dp4316
g61
(dp4317
sg70
g4311
sg63
(lp4318
g56
(g77
g58
NtRp4319
(dp4320
g61
(dp4321
sg70
g4315
sg63
(lp4322
g56
(g57
g58
NtRp4323
(dp4324
g61
(dp4325
g69
I3
ssg70
g4319
sg63
(lp4326
g3700
(S's\t\x00\x00\x00Resources'
tRp4327
asbasbasbag56
(g72
g58
NtRp4328
(dp4329
g61
(dp4330
sg70
g4311
sg63
(lp4331
g56
(g77
g58
NtRp4332
(dp4333
g61
(dp4334
sg70
g4328
sg63
(lp4335
g56
(g57
g58
NtRp4336
(dp4337
g61
(dp4338
g69
I3
ssg70
g4332
sg63
(lp4339
g99
asbasbasbag56
(g72
g58
NtRp4340
(dp4341
g61
(dp4342
sg70
g4311
sg63
(lp4343
g56
(g77
g58
NtRp4344
(dp4345
g61
(dp4346
sg70
g4340
sg63
(lp4347
g56
(g57
g58
NtRp4348
(dp4349
g61
(dp4350
g69
I3
ssg70
g4344
sg63
(lp4351
S'None'
p4352
asbasbasbag56
(g72
g58
NtRp4353
(dp4354
g61
(dp4355
sg70
g4311
sg63
(lp4356
g56
(g77
g58
NtRp4357
(dp4358
g61
(dp4359
sg70
g4353
sg63
(lp4360
g56
(g57
g58
NtRp4361
(dp4362
g61
(dp4363
g69
I3
ssg70
g4357
sg63
(lp4364
g56
(g65
g58
NtRp4365
(dp4366
g61
(dp4367
g69
I2
ssg70
Nsg63
(lp4368
g56
(g72
g58
NtRp4369
(dp4370
g61
(dp4371
sg70
g4365
sg63
(lp4372
g56
(g77
g58
NtRp4373
(dp4374
g61
(dp4375
sg70
g4369
sg63
(lp4376
g56
(g57
g58
NtRp4377
(dp4378
g61
(dp4379
g69
I2
ssg70
g4373
sg63
(lp4380
g56
(g65
g58
NtRp4381
(dp4382
g61
(dp4383
g69
I1
ssg70
Nsg63
(lp4384
g56
(g72
g58
NtRp4385
(dp4386
g61
(dp4387
sg70
g4381
sg63
(lp4388
g56
(g77
g58
NtRp4389
(dp4390
g61
(dp4391
sg70
g4385
sg63
(lp4392
g56
(g57
g58
NtRp4393
(dp4394
g61
(dp4395
g69
I1
ssg70
g4389
sg63
(lp4396
g3700
(S's\r\x00\x00\x00Documentation'
tRp4397
asbasbasbag56
(g72
g58
NtRp4398
(dp4399
g61
(dp4400
sg70
g4381
sg63
(lp4401
g56
(g77
g58
NtRp4402
(dp4403
g61
(dp4404
sg70
g4398
sg63
(lp4405
g56
(g57
g58
NtRp4406
(dp4407
g61
(dp4408
g69
I1
ssg70
g4402
sg63
(lp4409
I00
asbasbasbag56
(g72
g58
NtRp4410
(dp4411
g61
(dp4412
sg70
g4381
sg63
(lp4413
g56
(g77
g58
NtRp4414
(dp4415
g61
(dp4416
sg70
g4410
sg63
(lp4417
g56
(g57
g58
NtRp4418
(dp4419
g61
(dp4420
g69
I1
ssg70
g4414
sg63
(lp4421
S'http://www.web2py.com/book'
p4422
asbasbasbag56
(g72
g58
NtRp4423
(dp4424
g61
(dp4425
sg70
g4381
sg63
(lp4426
g56
(g77
g58
NtRp4427
(dp4428
g61
(dp4429
sg70
g4423
sg63
(lp4430
g56
(g57
g58
NtRp4431
(dp4432
g61
(dp4433
g69
I1
ssg70
g4427
sg63
(lp4434
(lp4435
(g3700
(S's\x07\x00\x00\x00Preface'
tRp4436
I00
S'http://www.web2py.com/book/default/chapter/00'
p4437
tp4438
a(g3700
(S's\x0c\x00\x00\x00Introduction'
tRp4439
I00
S'http://www.web2py.com/book/default/chapter/01'
p4440
tp4441
a(g3700
(S's\x06\x00\x00\x00Python'
tRp4442
I00
S'http://www.web2py.com/book/default/chapter/02'
p4443
tp4444
a(g3700
(S's\x08\x00\x00\x00Overview'
tRp4445
I00
S'http://www.web2py.com/book/default/chapter/03'
p4446
tp4447
a(g3700
(S's\x08\x00\x00\x00The Core'
tRp4448
I00
S'http://www.web2py.com/book/default/chapter/04'
p4449
tp4450
a(g3700
(S's\t\x00\x00\x00The Views'
tRp4451
I00
S'http://www.web2py.com/book/default/chapter/05'
p4452
tp4453
a(g3700
(S's\x08\x00\x00\x00Database'
tRp4454
I00
S'http://www.web2py.com/book/default/chapter/06'
p4455
tp4456
a(g3700
(S's\x14\x00\x00\x00Forms and Validators'
tRp4457
I00
S'http://www.web2py.com/book/default/chapter/07'
p4458
tp4459
a(g3700
(S's\x0e\x00\x00\x00Access Control'
tRp4460
I00
S'http://www.web2py.com/book/default/chapter/08'
p4461
tp4462
a(g3700
(S's\x08\x00\x00\x00Services'
tRp4463
I00
S'http://www.web2py.com/book/default/chapter/09'
p4464
tp4465
a(g3700
(S's\x0c\x00\x00\x00Ajax Recipes'
tRp4466
I00
S'http://www.web2py.com/book/default/chapter/10'
p4467
tp4468
a(g3700
(S's\x12\x00\x00\x00Deployment Recipes'
tRp4469
I00
S'http://www.web2py.com/book/default/chapter/11'
p4470
tp4471
a(g3700
(S's\r\x00\x00\x00Other Recipes'
tRp4472
I00
S'http://www.web2py.com/book/default/chapter/12'
p4473
tp4474
a(g3700
(S's\r\x00\x00\x00Buy this book'
tRp4475
I00
S'http://stores.lulu.com/web2py'
p4476
tp4477
aasbasbasbasbasbasbasbag56
(g72
g58
NtRp4478
(dp4479
g61
(dp4480
sg70
g4365
sg63
(lp4481
g56
(g77
g58
NtRp4482
(dp4483
g61
(dp4484
sg70
g4478
sg63
(lp4485
g56
(g57
g58
NtRp4486
(dp4487
g61
(dp4488
g69
I2
ssg70
g4482
sg63
(lp4489
g56
(g65
g58
NtRp4490
(dp4491
g61
(dp4492
g69
I1
ssg70
Nsg63
(lp4493
g56
(g72
g58
NtRp4494
(dp4495
g61
(dp4496
sg70
g4490
sg63
(lp4497
g56
(g77
g58
NtRp4498
(dp4499
g61
(dp4500
sg70
g4494
sg63
(lp4501
g56
(g57
g58
NtRp4502
(dp4503
g61
(dp4504
g69
I1
ssg70
g4498
sg63
(lp4505
g3700
(S's\t\x00\x00\x00Community'
tRp4506
asbasbasbag56
(g72
g58
NtRp4507
(dp4508
g61
(dp4509
sg70
g4490
sg63
(lp4510
g56
(g77
g58
NtRp4511
(dp4512
g61
(dp4513
sg70
g4507
sg63
(lp4514
g56
(g57
g58
NtRp4515
(dp4516
g61
(dp4517
g69
I1
ssg70
g4511
sg63
(lp4518
I00
asbasbasbag56
(g72
g58
NtRp4519
(dp4520
g61
(dp4521
sg70
g4490
sg63
(lp4522
g56
(g77
g58
NtRp4523
(dp4524
g61
(dp4525
sg70
g4519
sg63
(lp4526
g56
(g57
g58
NtRp4527
(dp4528
g61
(dp4529
g69
I1
ssg70
g4523
sg63
(lp4530
Nasbasbasbag56
(g72
g58
NtRp4531
(dp4532
g61
(dp4533
sg70
g4490
sg63
(lp4534
g56
(g77
g58
NtRp4535
(dp4536
g61
(dp4537
sg70
g4531
sg63
(lp4538
g56
(g57
g58
NtRp4539
(dp4540
g61
(dp4541
g69
I1
ssg70
g4535
sg63
(lp4542
(lp4543
(g3700
(S's\x06\x00\x00\x00Groups'
tRp4544
I00
S'http://www.web2py.com/examples/default/usergroups'
p4545
tp4546
a(g3700
(S's\x07\x00\x00\x00Twitter'
tRp4547
I00
S'http://twitter.com/web2py'
p4548
tp4549
a(g3700
(S's\t\x00\x00\x00Live chat'
tRp4550
I00
S'http://mibbit.com/?channel=%23web2py&server=irc.mibbit.net'
p4551
tp4552
a(g3700
(S's\n\x00\x00\x00User Voice'
tRp4553
I00
S'http://web2py.uservoice.com/'
p4554
tp4555
aasbasbasbasbasbasbasbag56
(g72
g58
NtRp4556
(dp4557
g61
(dp4558
sg70
g4365
sg63
(lp4559
g56
(g77
g58
NtRp4560
(dp4561
g61
(dp4562
sg70
g4556
sg63
(lp4563
g56
(g57
g58
NtRp4564
(dp4565
g61
(dp4566
g69
I2
ssg70
g4560
sg63
(lp4567
g56
(g65
g58
NtRp4568
(dp4569
g61
(dp4570
g69
I1
ssg70
Nsg63
(lp4571
g56
(g72
g58
NtRp4572
(dp4573
g61
(dp4574
sg70
g4568
sg63
(lp4575
g56
(g77
g58
NtRp4576
(dp4577
g61
(dp4578
sg70
g4572
sg63
(lp4579
g56
(g57
g58
NtRp4580
(dp4581
g61
(dp4582
g69
I1
ssg70
g4576
sg63
(lp4583
g3700
(S's\x06\x00\x00\x00Web2py'
tRp4584
asbasbasbag56
(g72
g58
NtRp4585
(dp4586
g61
(dp4587
sg70
g4568
sg63
(lp4588
g56
(g77
g58
NtRp4589
(dp4590
g61
(dp4591
sg70
g4585
sg63
(lp4592
g56
(g57
g58
NtRp4593
(dp4594
g61
(dp4595
g69
I1
ssg70
g4589
sg63
(lp4596
I00
asbasbasbag56
(g72
g58
NtRp4597
(dp4598
g61
(dp4599
sg70
g4568
sg63
(lp4600
g56
(g77
g58
NtRp4601
(dp4602
g61
(dp4603
sg70
g4597
sg63
(lp4604
g56
(g57
g58
NtRp4605
(dp4606
g61
(dp4607
g69
I1
ssg70
g4601
sg63
(lp4608
S'http://www.web2py.com'
p4609
asbasbasbag56
(g72
g58
NtRp4610
(dp4611
g61
(dp4612
sg70
g4568
sg63
(lp4613
g56
(g77
g58
NtRp4614
(dp4615
g61
(dp4616
sg70
g4610
sg63
(lp4617
g56
(g57
g58
NtRp4618
(dp4619
g61
(dp4620
g69
I1
ssg70
g4614
sg63
(lp4621
(lp4622
(g3700
(S's\x08\x00\x00\x00Download'
tRp4623
I00
S'http://www.web2py.com/examples/default/download'
p4624
tp4625
a(g3700
(S's\x07\x00\x00\x00Support'
tRp4626
I00
S'http://www.web2py.com/examples/default/support'
p4627
tp4628
a(g3700
(S's\x0e\x00\x00\x00Quick Examples'
tRp4629
I00
S'http://web2py.com/examples/default/examples'
p4630
tp4631
a(g3700
(S's\x03\x00\x00\x00FAQ'
tRp4632
I00
S'http://web2py.com/AlterEgo'
p4633
tp4634
a(g3700
(S's\x11\x00\x00\x00Free Applications'
tRp4635
I00
S'http://web2py.com/appliances'
p4636
tp4637
a(g3700
(S's\x07\x00\x00\x00Plugins'
tRp4638
I00
S'http://web2py.com/plugins'
p4639
tp4640
a(g3700
(S's\x07\x00\x00\x00Recipes'
tRp4641
I00
S'http://web2pyslices.com/'
p4642
tp4643
a(g3700
(S's\x04\x00\x00\x00Demo'
tRp4644
I00
S'http://web2py.com/demo_admin'
p4645
tp4646
a(g3700
(S's\x08\x00\x00\x00Semantic'
tRp4647
I00
S'http://web2py.com/semantic'
p4648
tp4649
a(g3700
(S's\x07\x00\x00\x00Layouts'
tRp4650
I00
S'http://web2py.com/layouts'
p4651
tp4652
a(g3700
(S's\x06\x00\x00\x00Videos'
tRp4653
I00
S'http://www.web2py.com/examples/default/videos/'
p4654
tp4655
aasbasbasbasbasbasbasbasbasbasbasbasbasbasbasbasbasbasbasbag56
(g72
g58
NtRp4656
(dp4657
g61
(dp4658
sg70
g3117
sg63
(lp4659
g56
(g77
g58
NtRp4660
(dp4661
g61
(dp4662
g81
g82
ssg70
g4656
sg63
(lp4663
S'meta'
p4664
asbag56
(g77
g58
NtRp4665
(dp4666
g61
(dp4667
g88
g89
ssg70
g4656
sg63
(lp4668
S':'
asbag56
(g77
g58
NtRp4669
(dp4670
g61
(dp4671
sg70
g4656
sg63
(lp4672
g56
(g57
g58
NtRp4673
(dp4674
g61
(dp4675
g69
I5
ssg70
g4669
sg63
(lp4676
g56
(g65
g58
NtRp4677
(dp4678
g61
(dp4679
g69
I4
ssg70
Nsg63
(lp4680
g56
(g72
g58
NtRp4681
(dp4682
g61
(dp4683
sg70
g4677
sg63
(lp4684
g56
(g77
g58
NtRp4685
(dp4686
g61
(dp4687
g81
g82
ssg70
g4681
sg63
(lp4688
S'author'
p4689
asbag56
(g77
g58
NtRp4690
(dp4691
g61
(dp4692
g88
g89
ssg70
g4681
sg63
(lp4693
S':'
asbag56
(g77
g58
NtRp4694
(dp4695
g61
(dp4696
sg70
g4681
sg63
(lp4697
g56
(g57
g58
NtRp4698
(dp4699
g61
(dp4700
g69
I4
ssg70
g4694
sg63
(lp4701
S'Your Name <you@example.com>'
p4702
asbasbasbag56
(g72
g58
NtRp4703
(dp4704
g61
(dp4705
sg70
g4677
sg63
(lp4706
g56
(g77
g58
NtRp4707
(dp4708
g61
(dp4709
g81
g82
ssg70
g4703
sg63
(lp4710
S'copyright'
p4711
asbag56
(g77
g58
NtRp4712
(dp4713
g61
(dp4714
g88
g89
ssg70
g4703
sg63
(lp4715
S':'
asbag56
(g77
g58
NtRp4716
(dp4717
g61
(dp4718
sg70
g4703
sg63
(lp4719
g56
(g57
g58
NtRp4720
(dp4721
g61
(dp4722
g69
I4
ssg70
g4716
sg63
(lp4723
S'Copyright 2011'
p4724
asbasbasbag56
(g72
g58
NtRp4725
(dp4726
g61
(dp4727
sg70
g4677
sg63
(lp4728
g56
(g77
g58
NtRp4729
(dp4730
g61
(dp4731
g81
g82
ssg70
g4725
sg63
(lp4732
S'description'
p4733
asbag56
(g77
g58
NtRp4734
(dp4735
g61
(dp4736
g88
g89
ssg70
g4725
sg63
(lp4737
S':'
asbag56
(g77
g58
NtRp4738
(dp4739
g61
(dp4740
sg70
g4725
sg63
(lp4741
g56
(g57
g58
NtRp4742
(dp4743
g61
(dp4744
g69
I4
ssg70
g4738
sg63
(lp4745
S'a cool new app'
p4746
asbasbasbag56
(g72
g58
NtRp4747
(dp4748
g61
(dp4749
sg70
g4677
sg63
(lp4750
g56
(g77
g58
NtRp4751
(dp4752
g61
(dp4753
g81
g82
ssg70
g4747
sg63
(lp4754
S'generator'
p4755
asbag56
(g77
g58
NtRp4756
(dp4757
g61
(dp4758
g88
g89
ssg70
g4747
sg63
(lp4759
S':'
asbag56
(g77
g58
NtRp4760
(dp4761
g61
(dp4762
sg70
g4747
sg63
(lp4763
g56
(g57
g58
NtRp4764
(dp4765
g61
(dp4766
g69
I4
ssg70
g4760
sg63
(lp4767
S'Web2py Web Framework'
p4768
asbasbasbag56
(g72
g58
NtRp4769
(dp4770
g61
(dp4771
sg70
g4677
sg63
(lp4772
g56
(g77
g58
NtRp4773
(dp4774
g61
(dp4775
g81
g82
ssg70
g4769
sg63
(lp4776
S'keywords'
p4777
asbag56
(g77
g58
NtRp4778
(dp4779
g61
(dp4780
g88
g89
ssg70
g4769
sg63
(lp4781
S':'
asbag56
(g77
g58
NtRp4782
(dp4783
g61
(dp4784
sg70
g4769
sg63
(lp4785
g56
(g57
g58
NtRp4786
(dp4787
g61
(dp4788
g69
I4
ssg70
g4782
sg63
(lp4789
S'web2py, python, framework'
p4790
asbasbasbasbasbasbasbag56
(g72
g58
NtRp4791
(dp4792
g61
(dp4793
sg70
g3117
sg63
(lp4794
g56
(g77
g58
NtRp4795
(dp4796
g61
(dp4797
g81
g82
ssg70
g4791
sg63
(lp4798
S'postprocessing'
p4799
asbag56
(g77
g58
NtRp4800
(dp4801
g61
(dp4802
g88
g89
ssg70
g4791
sg63
(lp4803
S':'
asbag56
(g77
g58
NtRp4804
(dp4805
g61
(dp4806
sg70
g4791
sg63
(lp4807
g56
(g57
g58
NtRp4808
(dp4809
g61
(dp4810
g69
I5
ssg70
g4804
sg63
(lp4811
g56
(g65
g58
NtRp4812
(dp4813
g61
(dp4814
g69
I4
ssg70
Nsg63
(lp4815
sbasbasbasbag56
(g72
g58
NtRp4816
(dp4817
g61
(dp4818
sg70
g3117
sg63
(lp4819
g56
(g77
g58
NtRp4820
(dp4821
g61
(dp4822
g81
g82
ssg70
g4816
sg63
(lp4823
S'session_filename'
p4824
asbag56
(g77
g58
NtRp4825
(dp4826
g61
(dp4827
g88
g89
ssg70
g4816
sg63
(lp4828
S':'
asbag56
(g77
g58
NtRp4829
(dp4830
g61
(dp4831
sg70
g4816
sg63
(lp4832
g56
(g57
g58
NtRp4833
(dp4834
g61
(dp4835
g69
I5
ssg70
g4829
sg63
(lp4836
S'/windows/Users/Thomas/Dropbox/appz/2011/GAE/ddl-lagoon/applications/ddlagoon/sessions/127.0.0.1-c481d9d3-5380-4ffa-b1f2-53a30031d3e6'
p4837
asbasbasbag56
(g72
g58
NtRp4838
(dp4839
g61
(dp4840
sg70
g3117
sg63
(lp4841
g56
(g77
g58
NtRp4842
(dp4843
g61
(dp4844
g81
g82
ssg70
g4838
sg63
(lp4845
S'session_id'
p4846
asbag56
(g77
g58
NtRp4847
(dp4848
g61
(dp4849
g88
g89
ssg70
g4838
sg63
(lp4850
S':'
asbag56
(g77
g58
NtRp4851
(dp4852
g61
(dp4853
sg70
g4838
sg63
(lp4854
g56
(g57
g58
NtRp4855
(dp4856
g61
(dp4857
g69
I5
ssg70
g4851
sg63
(lp4858
S'127.0.0.1-c481d9d3-5380-4ffa-b1f2-53a30031d3e6'
p4859
asbasbasbag56
(g72
g58
NtRp4860
(dp4861
g61
(dp4862
sg70
g3117
sg63
(lp4863
g56
(g77
g58
NtRp4864
(dp4865
g61
(dp4866
g81
g82
ssg70
g4860
sg63
(lp4867
S'session_id_name'
p4868
asbag56
(g77
g58
NtRp4869
(dp4870
g61
(dp4871
g88
g89
ssg70
g4860
sg63
(lp4872
S':'
asbag56
(g77
g58
NtRp4873
(dp4874
g61
(dp4875
sg70
g4860
sg63
(lp4876
g56
(g57
g58
NtRp4877
(dp4878
g61
(dp4879
g69
I5
ssg70
g4873
sg63
(lp4880
g3174
asbasbasbag56
(g72
g58
NtRp4881
(dp4882
g61
(dp4883
sg70
g3117
sg63
(lp4884
g56
(g77
g58
NtRp4885
(dp4886
g61
(dp4887
g81
g82
ssg70
g4881
sg63
(lp4888
S'session_new'
p4889
asbag56
(g77
g58
NtRp4890
(dp4891
g61
(dp4892
g88
g89
ssg70
g4881
sg63
(lp4893
S':'
asbag56
(g77
g58
NtRp4894
(dp4895
g61
(dp4896
sg70
g4881
sg63
(lp4897
g56
(g57
g58
NtRp4898
(dp4899
g61
(dp4900
g69
I5
ssg70
g4894
sg63
(lp4901
g1698
asbasbasbag56
(g72
g58
NtRp4902
(dp4903
g61
(dp4904
sg70
g3117
sg63
(lp4905
g56
(g77
g58
NtRp4906
(dp4907
g61
(dp4908
g81
g82
ssg70
g4902
sg63
(lp4909
S'status'
p4910
asbag56
(g77
g58
NtRp4911
(dp4912
g61
(dp4913
g88
g89
ssg70
g4902
sg63
(lp4914
S':'
asbag56
(g77
g58
NtRp4915
(dp4916
g61
(dp4917
sg70
g4902
sg63
(lp4918
g56
(g57
g58
NtRp4919
(dp4920
g61
(dp4921
g69
I5
ssg70
g4915
sg63
(lp4922
S'200'
p4923
asbasbasbag56
(g72
g58
NtRp4924
(dp4925
g61
(dp4926
sg70
g3117
sg63
(lp4927
g56
(g77
g58
NtRp4928
(dp4929
g61
(dp4930
g81
g82
ssg70
g4924
sg63
(lp4931
S'subtitle'
p4932
asbag56
(g77
g58
NtRp4933
(dp4934
g61
(dp4935
g88
g89
ssg70
g4924
sg63
(lp4936
S':'
asbag56
(g77
g58
NtRp4937
(dp4938
g61
(dp4939
sg70
g4924
sg63
(lp4940
g56
(g57
g58
NtRp4941
(dp4942
g61
(dp4943
g69
I5
ssg70
g4937
sg63
(lp4944
g3700
(S's\r\x00\x00\x00customize me!'
tRp4945
asbasbasbag56
(g72
g58
NtRp4946
(dp4947
g61
(dp4948
sg70
g3117
sg63
(lp4949
g56
(g77
g58
NtRp4950
(dp4951
g61
(dp4952
g81
g82
ssg70
g4946
sg63
(lp4953
S'title'
p4954
asbag56
(g77
g58
NtRp4955
(dp4956
g61
(dp4957
g88
g89
ssg70
g4946
sg63
(lp4958
S':'
asbag56
(g77
g58
NtRp4959
(dp4960
g61
(dp4961
sg70
g4946
sg63
(lp4962
g56
(g57
g58
NtRp4963
(dp4964
g61
(dp4965
g69
I5
ssg70
g4959
sg63
(lp4966
g121
asbasbasbag56
(g72
g58
NtRp4967
(dp4968
g61
(dp4969
sg70
g3117
sg63
(lp4970
g56
(g77
g58
NtRp4971
(dp4972
g61
(dp4973
g81
g82
ssg70
g4967
sg63
(lp4974
g2342
asbag56
(g77
g58
NtRp4975
(dp4976
g61
(dp4977
g88
g89
ssg70
g4967
sg63
(lp4978
S':'
asbag56
(g77
g58
NtRp4979
(dp4980
g61
(dp4981
sg70
g4967
sg63
(lp4982
g56
(g57
g58
NtRp4983
(dp4984
g61
(dp4985
g69
I5
ssg70
g4979
sg63
(lp4986
g2355
asbasbasbag56
(g72
g58
NtRp4987
(dp4988
g61
(dp4989
sg70
g3117
sg63
(lp4990
g56
(g77
g58
NtRp4991
(dp4992
g61
(dp4993
g81
g82
ssg70
g4987
sg63
(lp4994
S'view'
p4995
asbag56
(g77
g58
NtRp4996
(dp4997
g61
(dp4998
g88
g89
ssg70
g4987
sg63
(lp4999
S':'
asbag56
(g77
g58
NtRp5000
(dp5001
g61
(dp5002
sg70
g4987
sg63
(lp5003
g56
(g57
g58
NtRp5004
(dp5005
g61
(dp5006
g69
I5
ssg70
g5000
sg63
(lp5007
S'default/index.html'
p5008
asbasbasbasbasbsS'locals'
p5009
(dp5010
S'Service'
p5011
S"<class 'gluon.tools.Service'>"
p5012
sS'OBJECT'
p5013
S"<class 'gluon.html.OBJECT'>"
p5014
sS'SQLDB'
p5015
S"<class 'gluon.dal.DAL'>"
p5016
sg3099
S"<Storage {'_Session__hash': '\\xc8[\\xd5\\xc1#\\xd8e\\x10\\xe3\\x06\\x0ba\\xddT\\x92m'}>"
p5017
sS'LINK'
p5018
S"<class 'gluon.html.LINK'>"
p5019
sS'BR'
p5020
S"<class 'gluon.html.BR'>"
p5021
sS'local_import'
p5022
S'<function <lambda>>'
p5023
sS'OPTGROUP'
p5024
S"<class 'gluon.html.OPTGROUP'>"
p5025
sS'PRE'
p5026
S"<class 'gluon.html.PRE'>"
p5027
sS'IS_INT_IN_RANGE'
p5028
S"<class 'gluon.validators.IS_INT_IN_RANGE'>"
p5029
sS'left_sidebar_enabled'
p5030
g1698
sS'IS_LOWER'
p5031
S"<class 'gluon.validators.IS_LOWER'>"
p5032
sS'IS_STRONG'
p5033
S"<class 'gluon.validators.IS_STRONG'>"
p5034
sS'cache'
p5035
S'<gluon.cache.Cache object>'
p5036
sS'IS_IN_DB'
p5037
S"<class 'gluon.validators.IS_IN_DB'>"
p5038
sS'TAG'
p5039
S'<gluon.html.__TAG__ object>'
p5040
sS'SQLField'
p5041
S"<class 'gluon.dal.Field'>"
p5042
sS'mail'
p5043
S'<gluon.tools.Mail object>'
p5044
sS'BODY'
p5045
S"<class 'gluon.html.BODY'>"
p5046
sS'IS_DATE_IN_RANGE'
p5047
S"<class 'gluon.validators.IS_DATE_IN_RANGE'>"
p5048
sS'TH'
p5049
S"<class 'gluon.html.TH'>"
p5050
sS'URL'
p5051
S'<function URL>'
p5052
sS'__file__'
p5053
S"'/windows/Users/Thomas/Dropbox/appz/2011/GAE/ddl-...on/applications/ddlagoon/views/default/index.html'"
p5054
sS'db'
p5055
S"<DAL {'auth_event': <Table {'origin': <gluon.dal..., 'id': <gluon.dal.Field object at 0x33c2150>}>}>"
p5056
sS'auth'
p5057
S'<gluon.tools.Auth object>'
p5058
sS'P'
S"<class 'gluon.html.P'>"
p5059
sS'TFOOT'
p5060
S"<class 'gluon.html.TFOOT'>"
p5061
sS'XHTML'
p5062
S"<class 'gluon.html.XHTML'>"
p5063
sS'ON'
p5064
g1698
sS'OL'
p5065
S"<class 'gluon.html.OL'>"
p5066
sS'TEXTAREA'
p5067
S"<class 'gluon.html.TEXTAREA'>"
p5068
sS'MENU'
p5069
S"<class 'gluon.html.MENU'>"
p5070
sS'IS_IMAGE'
p5071
S"<class 'gluon.validators.IS_IMAGE'>"
p5072
sS'LOAD'
p5073
S'<gluon.compileapp.LoadFactory object>'
p5074
sS'CODE'
p5075
S"<class 'gluon.html.CODE'>"
p5076
sS'HTTP'
p5077
S"<class 'gluon.http.HTTP'>"
p5078
sS'HR'
p5079
S"<class 'gluon.html.HR'>"
p5080
sS'IS_DATETIME'
p5081
S"<class 'gluon.validators.IS_DATETIME'>"
p5082
sS'HEAD'
p5083
S"<class 'gluon.html.HEAD'>"
p5084
sS'LABEL'
p5085
S"<class 'gluon.html.LABEL'>"
p5086
sS'META'
p5087
S"<class 'gluon.html.META'>"
p5088
sS'plugins'
p5089
S'<gluon.tools.PluginManager object>'
p5090
sS'SELECT'
p5091
S"<class 'gluon.html.SELECT'>"
p5092
sS'use_janrain'
p5093
S'<function use_janrain>'
p5094
sS'CENTER'
p5095
S"<class 'gluon.html.CENTER'>"
p5096
sS'prettydate'
p5097
S'<function prettydate>'
p5098
sS'Crud'
p5099
S"<class 'gluon.tools.Crud'>"
p5100
sS'Auth'
p5101
S"<class 'gluon.tools.Auth'>"
p5102
sS'IS_EQUAL_TO'
p5103
S"<class 'gluon.validators.IS_EQUAL_TO'>"
p5104
sS'HTML'
p5105
S"<class 'gluon.html.HTML'>"
p5106
sS'ddl'
p5107
S"<Row {'last_time_downloaded': None, 'version': 1..., 'date_created': None, 'web_description': None}>"
p5108
sS'SQLFORM'
p5109
S"<class 'gluon.sqlhtml.SQLFORM'>"
p5110
sS'EM'
p5111
S"<class 'gluon.html.EM'>"
p5112
sS'redirect'
p5113
S'<function redirect>'
p5114
sS'FIELDSET'
p5115
S"<class 'gluon.html.FIELDSET'>"
p5116
sS'__builtins__'
p5117
S"{'ArithmeticError': <type 'exceptions.ArithmeticError'>, 'AssertionError': <type 'exceptions.AssertionError'>, 'AttributeError': <type 'exceptions.AttributeError'>, 'BaseException': <type 'exceptions.BaseException'>, 'BufferError': <type 'exceptions.BufferError'>, 'BytesWarning': <type 'exceptions.BytesWarning'>, 'DeprecationWarning': <type 'exceptions.DeprecationWarning'>, 'EOFError': <type 'exceptions.EOFError'>, 'Ellipsis': Ellipsis, 'EnvironmentError': <type 'exceptions.EnvironmentError'>, ...}"
p5118
sS'embed64'
p5119
S'<function embed64>'
p5120
sS'IS_LIST_OF'
p5121
S"<class 'gluon.validators.IS_LIST_OF'>"
p5122
sS'INPUT'
p5123
S"<class 'gluon.html.INPUT'>"
p5124
sS'EMBED'
p5125
S"<class 'gluon.html.EMBED'>"
p5126
sS'_'
S'<function _>'
p5127
sS'width_content'
p5128
S"'63%'"
p5129
sS'H2'
p5130
S"<class 'gluon.html.H2'>"
p5131
sS'H3'
p5132
S"<class 'gluon.html.H3'>"
p5133
sS'BUTTON'
p5134
S"<class 'gluon.html.BUTTON'>"
p5135
sS'H1'
p5136
S"<class 'gluon.html.H1'>"
p5137
sS'H6'
p5138
S"<class 'gluon.html.H6'>"
p5139
sS'H4'
p5140
S"<class 'gluon.html.H4'>"
p5141
sS'H5'
p5142
S"<class 'gluon.html.H5'>"
p5143
sS'UL'
p5144
S"<class 'gluon.html.UL'>"
p5145
sS'IS_UPPER'
p5146
S"<class 'gluon.validators.IS_UPPER'>"
p5147
sS'xmlescape'
p5148
S'<function xmlescape>'
p5149
sS'IS_TIME'
p5150
S"<class 'gluon.validators.IS_TIME'>"
p5151
sS'OPTION'
p5152
S"<class 'gluon.html.OPTION'>"
p5153
sS'TITLE'
p5154
S"<class 'gluon.html.TITLE'>"
p5155
sS'CRYPT'
p5156
S"<class 'gluon.validators.CRYPT'>"
p5157
sS'IS_EMPTY_OR'
p5158
S"<class 'gluon.validators.IS_EMPTY_OR'>"
p5159
sS'MARKMIN'
p5160
S"<class 'gluon.html.MARKMIN'>"
p5161
sS'message'
p5162
S"<lazyT 'Hello World'>"
p5163
sS'COL'
p5164
S"<class 'gluon.html.COL'>"
p5165
sS'service'
p5166
S'<gluon.tools.Service object>'
p5167
sS'SCRIPT'
p5168
S"<class 'gluon.html.SCRIPT'>"
p5169
sS'getCurrentTime'
p5170
S'<function getCurrentTime>'
p5171
sS'TABLE'
p5172
S"<class 'gluon.html.TABLE'>"
p5173
sS'IS_IPV4'
p5174
S"<class 'gluon.validators.IS_IPV4'>"
p5175
sS'IS_LENGTH'
p5176
S"<class 'gluon.validators.IS_LENGTH'>"
p5177
sS'XML'
p5178
S"<class 'gluon.html.XML'>"
p5179
sS'B'
S"<class 'gluon.html.B'>"
p5180
sS'IMG'
p5181
S"<class 'gluon.html.IMG'>"
p5182
sS'SQLTABLE'
p5183
S"<class 'gluon.sqlhtml.SQLTABLE'>"
p5184
sS'IS_MATCH'
p5185
S"<class 'gluon.validators.IS_MATCH'>"
p5186
sS'IS_ALPHANUMERIC'
p5187
S"<class 'gluon.validators.IS_ALPHANUMERIC'>"
p5188
sS'ddlz'
p5189
S"[<Row {'last_time_downloaded': None, 'version': 1..., 'date_created': None, 'web_description': None}>]"
p5190
sS'SPAN'
p5191
S"<class 'gluon.html.SPAN'>"
p5192
sS'IS_SLUG'
p5193
S"<class 'gluon.validators.IS_SLUG'>"
p5194
sS'CLEANUP'
p5195
S"<class 'gluon.validators.CLEANUP'>"
p5196
sS'IS_DATE'
p5197
S"<class 'gluon.validators.IS_DATE'>"
p5198
sS'IS_EMAIL'
p5199
S"<class 'gluon.validators.IS_EMAIL'>"
p5200
sS'IS_NOT_EMPTY'
p5201
S"<class 'gluon.validators.IS_NOT_EMPTY'>"
p5202
sg55
S"<Storage {'body': <cStringIO.StringO object at 0..._vars': <Storage {}>, 'post_vars': <Storage {}>}>"
p5203
sS'BEAUTIFY'
p5204
S"<class 'gluon.html.BEAUTIFY'>"
p5205
sS'TBODY'
p5206
S"<class 'gluon.html.TBODY'>"
p5207
sS'CAT'
p5208
S"<class 'gluon.html.CAT'>"
p5209
sS'Field'
p5210
S"<class 'gluon.dal.Field'>"
p5211
sS'DIV'
p5212
S"<class 'gluon.html.DIV'>"
p5213
sS'LEGEND'
p5214
S"<class 'gluon.html.LEGEND'>"
p5215
sS'COLGROUP'
p5216
S"<class 'gluon.html.COLGROUP'>"
p5217
sS'DAL'
p5218
S"<class 'gluon.dal.DAL'>"
p5219
sS'pathutils'
p5220
S"<module 'applications.ddlagoon.pathutils' from 'applications/ddlagoon/pathutils.pyc'>"
p5221
sS'TT'
p5222
S"<class 'gluon.html.TT'>"
p5223
sS'TR'
p5224
S"<class 'gluon.html.TR'>"
p5225
sS'LI'
p5226
S"<class 'gluon.html.LI'>"
p5227
sS'right_sidebar_enabled'
p5228
g1698
sS'IFRAME'
p5229
S"<class 'gluon.html.IFRAME'>"
p5230
sS'TD'
p5231
S"<class 'gluon.html.TD'>"
p5232
sS'PluginManager'
p5233
S"<class 'gluon.tools.PluginManager'>"
p5234
sS'IS_URL'
p5235
S"<class 'gluon.validators.IS_URL'>"
p5236
sS'A'
S"<class 'gluon.html.A'>"
p5237
sS'STYLE'
p5238
S"<class 'gluon.html.STYLE'>"
p5239
sS'IS_DATETIME_IN_RANGE'
p5240
S"<class 'gluon.validators.IS_DATETIME_IN_RANGE'>"
p5241
sS'generateNickname'
p5242
S'<function generateNickname>'
p5243
sS'FORM'
p5244
S"<class 'gluon.html.FORM'>"
p5245
sS'I'
S"<class 'gluon.html.I'>"
p5246
sS'crud'
p5247
S'<gluon.tools.Crud object>'
p5248
sS'right_sidebar_style'
p5249
S'\'style="display: block;"\''
p5250
sS'IS_NOT_IN_DB'
p5251
S"<class 'gluon.validators.IS_NOT_IN_DB'>"
p5252
sg3112
S"<Storage {'status': 200, 'body': <cStringIO.Stri...js/superfish.js'], 'view': 'default/index.html'}>"
p5253
sS'THEAD'
p5254
S"<class 'gluon.html.THEAD'>"
p5255
sS'IS_NULL_OR'
p5256
S"<class 'gluon.validators.IS_EMPTY_OR'>"
p5257
sS'left_sidebar_style'
p5258
S'\'style="display: block;"\''
p5259
sS'generateUploaderKey'
p5260
S'<function generateUploaderKey>'
p5261
sS'IS_FLOAT_IN_RANGE'
p5262
S"<class 'gluon.validators.IS_FLOAT_IN_RANGE'>"
p5263
sS'IS_EXPR'
p5264
S"<class 'gluon.validators.IS_EXPR'>"
p5265
sS'T'
S'<gluon.languages.translator object>'
p5266
sS'IS_IN_SET'
p5267
S"<class 'gluon.validators.IS_IN_SET'>"
p5268
sS'IS_UPLOAD_FILENAME'
p5269
S"<class 'gluon.validators.IS_UPLOAD_FILENAME'>"
p5270
sS'style_content'
p5271
S'\'style="width: 63%"\''
p5272
sS're'
p5273
S"<module 're' from '/usr/lib/python2.6/re.pyc'>"
p5274
sS'IS_DECIMAL_IN_RANGE'
p5275
S"<class 'gluon.validators.IS_DECIMAL_IN_RANGE'>"
p5276
sssS'traceback'
p5277
S'Traceback (most recent call last):\n  File "/windows/Users/Thomas/Dropbox/appz/2011/GAE/ddl-lagoon/gluon/restricted.py", line 194, in restricted\n    exec ccode in environment\n  File "/windows/Users/Thomas/Dropbox/appz/2011/GAE/ddl-lagoon/applications/ddlagoon/views/default/index.html", line 86, in <module>\nAttributeError: \'datetime.datetime\' object has no attribute \'split\'\n'
p5278
s.