(dp1
S'output'
p2
S''
sS'layer'
p3
S'/windows/Users/Thomas/Dropbox/appz/2011/GAE/ddl-lagoon/applications/ddlagoon/controllers/default.py'
p4
sS'code'
p5
S'# -*- coding: utf-8 -*-\n# this file is released under public domain and you can use without limitations\n\n#########################################################################\n## This is a samples controller\n## - index is the default action of any application\n## - user is required for authentication and authorization\n## - download is for downloading files uploaded in the db (does streaming)\n## - call exposes all registered services (none by default)\n#########################################################################\nfrom datetime import datetime\n#from applications.ddlagoon import pathutils\n\n__version__ = 1.5\n\nfrom Crypto.PublicKey import RSA\n#from Crypto.Random import random\nimport random\nimport base64, hashlib\nimport gluon.contrib.simplejson as json\nimport tempfile\nfrom time import mktime\n\ndef sha512(n):\n    return hashlib.sha512(str(n)).digest()\ndef sha256(n):\n    return hashlib.sha256(str(n)).digest()\ndef compute(n):\n    return 61*long(n)**3-54*long(n)**2+8942*long(n)*3\ndef chunks(s, n):\n    """Produce `n`-character chunks from `s`."""\n    for start in range(0, len(s), n):\n        yield s[start:start+n]\n\nif False:\n    from gluon.contrib import *\n    from re import T\n    from applications.ddlagoon.models.db import db, service, auth\n    from gluon.contrib.pysimplesoap.server import request\n\ndef pluralize(number, text):\n    output = str(number) + " " + text\n    if number>1:\n        output += "s"\n    return output\n\ndef getTimeDelta(weeks, days, hours, minutes, seconds):\n    output=""\n    if weeks>0:\n        return pluralize(weeks, "week")\n    elif days>0:\n        return pluralize(days, "day")\n    elif hours>0:\n        return pluralize(hours, "hour")\n    elif minutes>0:\n        return pluralize(minutes, "minute")\n    elif seconds>0:\n        return pluralize(seconds, "second")\n\ndef index():\n    """\n    example action using the internationalization operator T and flash\n    rendered by views/default/index.html or views/generic.html\n    """\n    rows= db(db.ddl.id>0).select(orderby=db.ddl.date_added, limitby=(0,10), sort=lambda r: not r[\'date_added\'])\n    ddlz=[]\n    for row in rows:\n        difference = datetime.now()-row[\'date_added\']\n        weeks, days = divmod(difference.days, 7)\n        minutes, seconds = divmod(difference.seconds, 60)\n        hours, minutes = divmod(minutes, 60)\n        row[\'timedelta\']= getTimeDelta(weeks, days, hours, minutes, seconds)\n        ddlz.insert(0,row)\n    return dict(message=T(\'Hello World\'),ddlz=ddlz)\n\ndef user():\n    """\n    exposes:\n    http://..../[app]/default/user/login\n    http://..../[app]/default/user/logout\n    http://..../[app]/default/user/register\n    http://..../[app]/default/user/profile\n    http://..../[app]/default/user/retrieve_password\n    http://..../[app]/default/user/change_password\n    use @auth.requires_login()\n        @auth.requires_membership(\'group name\')\n        @auth.requires_permission(\'read\',\'table name\',record_id)\n    to decorate functions that need access control\n    """\n    return dict(form=auth())\n\n@auth.requires_login()\ndef profile():\n    return dict(nickname=auth.user.nickname,\n                uploader_key=auth.user.uploader_key,\n                is_uploader=auth.user.is_uploader)\n\ndef download():\n    """\n    allows downloading of uploaded files\n    http://..../[app]/default/download/[filename]\n    """\n    return response.download(request,db)\n\n@auth.requires_login()\ndef uploadDDL():\n    return service()\n\ndef call():\n    """\n    exposes services. for example:\n    http://..../[app]/default/call/jsonrpc\n    decorate with @services.jsonrpc the functions to expose\n    supports xml, json, xmlrpc, jsonrpc, amfrpc, rss, csv\n    """\n    return service()\n\n@service.xmlrpc\n@service.json\n@service.xml\ndef receiveDDL(encryptedText):\n    returnCode=-1\n    message="Unknown Error"\n    try:\n        decryptedMsg= decryptFromClient(encryptedText)\n    except:\n        returnCode=-1\n        message= "Error decrypting the DDL"\n    else:\n        try:\n            dataFromClient = json.loads(decryptedMsg)\n        except :\n            returnCode= -1\n            message="Error reading the DDL"\n        else:\n            # prepare a DDL from the received information\n            uploader= db(db.auth_user.nickname==dataFromClient[\'nickname\']).select().first()\n            ddl = dataFromClient[\'ddl\']\n            # remove previous DDL, if present\n            db((db.ddl.filename==ddl[\'filename\']) & (db.ddl.uploader==uploader.id)).delete()\n            db.ddl.insert(\n                  author=ddl[\'author\']\n                , uploader=uploader.id\n                , filename=ddl[\'filename\']\n                , description=ddl[\'description\'],\n                size=ddl[\'size\'],\n                hash=ddl[\'hash\'],\n                parts=ddl[\'parts\'],\n                service=ddl[\'service\'],\n                links="|".join(ddl[\'links\']),\n                version=ddl[\'version\']\n                #, date_created=datetime.fromtimestamp(ddl[\'time\'])\n            )\n            returnCode= 0\n            message="Upload done!"\n    dataToSend = {\n        \'returnCode\' : returnCode,\n        \'message\' : message\n    }\n    return json.dumps(dataToSend, sort_keys=True, indent=4)\n\n@service.json\n@service.xmlrpc\n@service.xml\ndef concat(a,b):\n    return dict(test=a+b)\n\ndef loginTest(nickname, uploaderKey):\n    returnCode = -1\n    message = ""\n    try:\n        record = db(db.auth_user.nickname==nickname).select().first()\n    except:\n        pass\n    else:\n        if not record:\n            returnCode= -1\n            message= "Who is %s?" % nickname\n        else:\n            if not record.uploader_key==uploaderKey:\n                returnCode= -1\n                message= "Wrong API Key"\n            else:\n                if record.is_uploader:\n                    # login the user\n                    #session.nickname= nickname\n                    returnCode=0\n                else:\n                    returnCode= -1\n                    message= "You are not allowed to upload"\n    return returnCode, message\n\n\ndef decryptFromClient(encryptedMsg):\n    decryptedMsg = ""\n    private_json = {\n        "d": 23787079891404684333685400978249298094378954863672776929346845102263722750088918762338764266712467553502811192479791825128333774826784684125489823193368527161074577530140077392439136510635896140296132025922882984837588521257841050129145633510814630843053674301016823808612405445927946023993959147765325630609,\n        "e": 65537,\n        "n": 113857278326248086267655574343523535583648376051747208707172377115619164320229146138430878888952306898474564499090572366596232150220784972504544737264372878940265396864770701575284749329394957815581364039447123399430603091303935702146927576939090729428557897918935408150236788311903915427199939052963176280397,\n        "p": 9580774579539128121039431812737453710839471771236942870475012323041145011884745445780348665996631786895791139388698030648995797187661607074610865997962403,\n        "q": 11883932492202009053507786643172605523535663521769572031030078443728388902717320133755150294842235771246601522313496536316374989301635407931585896758667599,\n        "u": 1517576679209673870508661373022611765046783829884979500337395070156130858916802958093981514472423096659658057726899513257360280724233068450029128365828499\n    }\n    private_key = RSA.construct((long(private_json[\'n\']), long(private_json[\'e\']),\n                             long(private_json[\'d\']), long(private_json[\'p\']),\n                             long(private_json[\'q\']), long(private_json[\'u\'])))\n    try:\n        for p in encryptedMsg.split("@"):\n            decryptedMsg += private_key.decrypt(base64.b16decode(p))\n    except:\n        pass\n    \n    return decryptedMsg\n\ndef encryptForClient(n, e, clearMsg):\n    client_pub_key = RSA.construct((long(n), long(e)))\n    encryptedMsg = list()\n    randomK = long(random.getrandbits(random.randint(128, 256)))\n    for part in chunks(clearMsg,127):\n        encryptedData = client_pub_key.encrypt(part, randomK)\n        coded = base64.b16encode(encryptedData[0])\n        encryptedMsg.append(coded)\n    data = "@".join(encryptedMsg)\n    return data\n\n@service.json\n@service.xmlrpc\n@service.xml\ndef checkLogin(encryptedMsg):\n    # decrypt the message with the private key\n    returnCode = -1\n    message = \'\'\n    computedNb = 0\n    decryptedMsg = decryptFromClient(encryptedMsg)\n    dataFromClient = ()\n    if not len(decryptedMsg)>0:\n        returnCode = -1\n        message = \'Server Decrypt Error\'\n    else:\n        # try to load into a json\n        try:\n            dataFromClient = json.loads(decryptedMsg)\n        except:\n            returnCode = -1\n            message = \'Server Load Error\'\n        else:\n            toFind = [\'nickname\',\'version\',\'uploaderKey\',\'n\',\'e\',\'randomNb\']\n            error = False\n            for e in toFind:\n                if e not in dataFromClient:\n                    error = True\n                    returnCode = -1\n                    message = \'Server Elements Missing\'\n            if not error:\n                # check if the client is using the last version\n                if float(dataFromClient[\'version\'])>=__version__:\n                    returnCode, message = loginTest(dataFromClient[\'nickname\'],dataFromClient[\'uploaderKey\'])\n                    computedNb = base64.b16encode(sha512(sha256(str(compute(dataFromClient[\'randomNb\'])))))\n                else:\n                    returnCode=1\n                    message="A new version of Bobpic is available.\\nYou need to upgrade."\n\n    # prepare a json\n    dataToSend = {\n        \'returnCode\' : returnCode,\n        \'message\' : message,\n        \'computedNb\' : computedNb\n    }\n    # encrypt the json with the dynamic public key of the client\n    try:\n        dataToSendStr = str(json.dumps(dataToSend, sort_keys=True, indent=4))\n        data= encryptForClient(dataFromClient[\'n\'], dataFromClient[\'e\'], dataToSendStr)\n    except :\n        dataToSend = {\n            \'returnCode\' : -2,\n            \'message\' : message\n        }\n        return json.dumps(dataToSend, sort_keys=True, indent=4)\n    else:\n        return data\n\n#def checkLogin(username, key):\n#    users = db.auth_user\n#    q = users.nickname==username\n#    s = db(q)\n#    if s.select():\n#        return dict(test=username+key)\n#    else:\n#        return "get out"\n\n@auth.requires_signature()\ndef data():\n    """\n    http://..../[app]/default/data/tables\n    http://..../[app]/default/data/create/[table]\n    http://..../[app]/default/data/read/[table]/[id]\n    http://..../[app]/default/data/update/[table]/[id]\n    http://..../[app]/default/data/delete/[table]/[id]\n    http://..../[app]/default/data/select/[table]\n    http://..../[app]/default/data/search/[table]\n    but URLs bust be signed, i.e. linked with\n      A(\'table\',_href=URL(\'data/tables\',user_signature=True))\n    or with the signed load operator\n      LOAD(\'default\',\'data.load\',args=\'tables\',ajax=True,user_signature=True)\n    """\n    return dict(form=crud())\n\n\ndef get():\n    return service()\n\n@service.xml\ndef ddl(id="", filename=""):\n    # find the record\n    ddl= db((db.ddl.filename_url==filename) & (db.ddl.id==id)).select().first()\n    if not ddl:\n        return "404 - File not found."\n    else:\n        # prepare the file\n        ddlJ = {\n            \'author\':ddl.author,\n            \'filename\':ddl.filename,\n            \'description\':ddl.description,\n            \'size\':ddl.size,\n            \'hash\':ddl.hash,\n            \'parts\':ddl.parts,\n            \'service\':ddl.service,\n            \'links\':ddl.links.split("|"),\n            \'version\':ddl.version,\n            \'time\':int(mktime(ddl.date_added.timetuple()))\n        }\n        ddlJson = json.dumps(ddlJ, sort_keys=True, indent=4)\n        public_ddl = {\n            "e": 65537,\n            "n": 138699374543223257537557103176001704226735255147448649583225017098287197630734176291676474096655313606555548753275002732095146725547697816211326459323755204828036245647843790985208692060549009977103102474302073609652750671753426409739287485014860128030833183117757223967930924686377060843991855851119927153483\n        }\n        encryptedMsg = encryptForClient(public_ddl[\'n\'],public_ddl[\'e\'],ddlJson)\n        #response.headers[\'Content-Type\'] = \'application/ddl\'\n        #response.headers[\'Content-Disposition\'] = \'attachment; filename=test.ddl\'\n        #return response.stream(ddlFile, request=request)\n#        request.args[0] = ddlFile.name\n#        return response.download(request, ddlFile)\n        response.headers[\'Content-Type\'] = "application/octet-stream"\n        response.headers[\'Content-Disposition\'] = \'attachment; filename=%s.ddl\' % ddl.filename\n        return encryptedMsg\n\ndef howto():\n    win32= "http://www.mediafire.com/?hhbfzm4i3t2n99h"\n    win64= "http://www.mediafire.com/?54t5ehe72p0i41p"\n    linux64= "http://www.mediafire.com/?5dy9bakpk8333xr"\n    return dict(win32=win32, win64=win64, linux64=linux64)\nresponse._vars=response._caller(index)\n'
p6
sS'snapshot'
p7
(dp8
S'exception'
p9
(dp10
S'__getslice__'
p11
S"<method-wrapper '__getslice__' of exceptions.SyntaxError object>"
p12
sS'text'
p13
S'None'
p14
sS'__str__'
p15
S"<method-wrapper '__str__' of exceptions.SyntaxError object>"
p16
sS'__reduce__'
p17
S'<built-in method __reduce__ of exceptions.SyntaxError object>'
p18
sS'__dict__'
p19
S'{}'
p20
sS'__sizeof__'
p21
S'<built-in method __sizeof__ of exceptions.SyntaxError object>'
p22
sS'__init__'
p23
S"<method-wrapper '__init__' of exceptions.SyntaxError object>"
p24
sS'__setattr__'
p25
S"<method-wrapper '__setattr__' of exceptions.SyntaxError object>"
p26
sS'__reduce_ex__'
p27
S'<built-in method __reduce_ex__ of exceptions.SyntaxError object>'
p28
sS'__new__'
p29
S'<built-in method __new__ of type object>'
p30
sS'__format__'
p31
S'<built-in method __format__ of exceptions.SyntaxError object>'
p32
sS'__class__'
p33
S"<type 'exceptions.SyntaxError'>"
p34
sS'filename'
p35
S'None'
p36
sS'lineno'
p37
S'None'
p38
sS'msg'
p39
S"'invalid select attribute: sort'"
p40
sS'__doc__'
p41
S"'Invalid syntax.'"
p42
sS'__getitem__'
p43
S"<method-wrapper '__getitem__' of exceptions.SyntaxError object>"
p44
sS'__setstate__'
p45
S'<built-in method __setstate__ of exceptions.SyntaxError object>'
p46
sS'__getattribute__'
p47
S"<method-wrapper '__getattribute__' of exceptions.SyntaxError object>"
p48
sS'print_file_and_line'
p49
S'None'
p50
sS'args'
p51
S"('invalid select attribute: sort',)"
p52
sS'__subclasshook__'
p53
S'<built-in method __subclasshook__ of type object>'
p54
sS'offset'
p55
S'None'
p56
sS'__unicode__'
p57
S'<built-in method __unicode__ of exceptions.SyntaxError object>'
p58
sS'__delattr__'
p59
S"<method-wrapper '__delattr__' of exceptions.SyntaxError object>"
p60
sS'__repr__'
p61
S"<method-wrapper '__repr__' of exceptions.SyntaxError object>"
p62
sS'__hash__'
p63
S"<method-wrapper '__hash__' of exceptions.SyntaxError object>"
p64
ssS'evalue'
p65
S'invalid select attribute: sort'
p66
sS'request'
p67
ccopy_reg
_reconstructor
p68
(cgluon.html
BEAUTIFY
p69
c__builtin__
object
p70
NtRp71
(dp72
S'attributes'
p73
(dp74
sS'components'
p75
(lp76
g68
(cgluon.html
TABLE
p77
g70
NtRp78
(dp79
g73
(dp80
S'level'
p81
I5
ssS'parent'
p82
Nsg75
(lp83
g68
(cgluon.html
TR
p84
g70
NtRp85
(dp86
g73
(dp87
sg82
g78
sg75
(lp88
g68
(cgluon.html
TD
p89
g70
NtRp90
(dp91
g73
(dp92
S'_style'
p93
S'font-weight:bold;'
p94
ssg82
g85
sg75
(lp95
S'ajax'
p96
asbag68
(g89
g70
NtRp97
(dp98
g73
(dp99
S'_valign'
p100
S'top'
p101
ssg82
g85
sg75
(lp102
S':'
asbag68
(g89
g70
NtRp103
(dp104
g73
(dp105
sg82
g85
sg75
(lp106
g68
(g69
g70
NtRp107
(dp108
g73
(dp109
g81
I5
ssg82
g103
sg75
(lp110
S'False'
p111
asbasbasbag68
(g84
g70
NtRp112
(dp113
g73
(dp114
sg82
g78
sg75
(lp115
g68
(g89
g70
NtRp116
(dp117
g73
(dp118
g93
g94
ssg82
g112
sg75
(lp119
S'application'
p120
asbag68
(g89
g70
NtRp121
(dp122
g73
(dp123
g100
g101
ssg82
g112
sg75
(lp124
S':'
asbag68
(g89
g70
NtRp125
(dp126
g73
(dp127
sg82
g112
sg75
(lp128
g68
(g69
g70
NtRp129
(dp130
g73
(dp131
g81
I5
ssg82
g125
sg75
(lp132
S'ddlagoon'
p133
asbasbasbag68
(g84
g70
NtRp134
(dp135
g73
(dp136
sg82
g78
sg75
(lp137
g68
(g89
g70
NtRp138
(dp139
g73
(dp140
g93
g94
ssg82
g134
sg75
(lp141
g51
asbag68
(g89
g70
NtRp142
(dp143
g73
(dp144
g100
g101
ssg82
g134
sg75
(lp145
S':'
asbag68
(g89
g70
NtRp146
(dp147
g73
(dp148
sg82
g134
sg75
(lp149
g68
(g69
g70
NtRp150
(dp151
g73
(dp152
g81
I5
ssg82
g146
sg75
(lp153
g68
(g77
g70
NtRp154
(dp155
g73
(dp156
g81
I4
ssg82
Nsg75
(lp157
sbasbasbasbag68
(g84
g70
NtRp158
(dp159
g73
(dp160
sg82
g78
sg75
(lp161
g68
(g89
g70
NtRp162
(dp163
g73
(dp164
g93
g94
ssg82
g158
sg75
(lp165
S'body'
p166
asbag68
(g89
g70
NtRp167
(dp168
g73
(dp169
g100
g101
ssg82
g158
sg75
(lp170
S':'
asbag68
(g89
g70
NtRp171
(dp172
g73
(dp173
sg82
g158
sg75
(lp174
g68
(g69
g70
NtRp175
(dp176
g73
(dp177
g81
I5
ssg82
g171
sg75
(lp178
S'<cStringIO.StringO object at 0x22ab420>'
p179
asbasbasbag68
(g84
g70
NtRp180
(dp181
g73
(dp182
sg82
g78
sg75
(lp183
g68
(g89
g70
NtRp184
(dp185
g73
(dp186
g93
g94
ssg82
g180
sg75
(lp187
S'client'
p188
asbag68
(g89
g70
NtRp189
(dp190
g73
(dp191
g100
g101
ssg82
g180
sg75
(lp192
S':'
asbag68
(g89
g70
NtRp193
(dp194
g73
(dp195
sg82
g180
sg75
(lp196
g68
(g69
g70
NtRp197
(dp198
g73
(dp199
g81
I5
ssg82
g193
sg75
(lp200
S'127.0.0.1'
p201
asbasbasbag68
(g84
g70
NtRp202
(dp203
g73
(dp204
sg82
g78
sg75
(lp205
g68
(g89
g70
NtRp206
(dp207
g73
(dp208
g93
g94
ssg82
g202
sg75
(lp209
S'controller'
p210
asbag68
(g89
g70
NtRp211
(dp212
g73
(dp213
g100
g101
ssg82
g202
sg75
(lp214
S':'
asbag68
(g89
g70
NtRp215
(dp216
g73
(dp217
sg82
g202
sg75
(lp218
g68
(g69
g70
NtRp219
(dp220
g73
(dp221
g81
I5
ssg82
g215
sg75
(lp222
S'default'
p223
asbasbasbag68
(g84
g70
NtRp224
(dp225
g73
(dp226
sg82
g78
sg75
(lp227
g68
(g89
g70
NtRp228
(dp229
g73
(dp230
g93
g94
ssg82
g224
sg75
(lp231
S'cookies'
p232
asbag68
(g89
g70
NtRp233
(dp234
g73
(dp235
g100
g101
ssg82
g224
sg75
(lp236
S':'
asbag68
(g89
g70
NtRp237
(dp238
g73
(dp239
sg82
g224
sg75
(lp240
g68
(g69
g70
NtRp241
(dp242
g73
(dp243
g81
I5
ssg82
g237
sg75
(lp244
g68
(g77
g70
NtRp245
(dp246
g73
(dp247
g81
I4
ssg82
Nsg75
(lp248
g68
(g84
g70
NtRp249
(dp250
g73
(dp251
sg82
g245
sg75
(lp252
g68
(g89
g70
NtRp253
(dp254
g73
(dp255
g93
g94
ssg82
g249
sg75
(lp256
S'session_id_ddlagoon'
p257
asbag68
(g89
g70
NtRp258
(dp259
g73
(dp260
g100
g101
ssg82
g249
sg75
(lp261
S':'
asbag68
(g89
g70
NtRp262
(dp263
g73
(dp264
sg82
g249
sg75
(lp265
g68
(g69
g70
NtRp266
(dp267
g73
(dp268
g81
I4
ssg82
g262
sg75
(lp269
g68
(g77
g70
NtRp270
(dp271
g73
(dp272
g81
I3
ssg82
Nsg75
(lp273
g68
(g84
g70
NtRp274
(dp275
g73
(dp276
sg82
g270
sg75
(lp277
g68
(g89
g70
NtRp278
(dp279
g73
(dp280
g93
g94
ssg82
g274
sg75
(lp281
S'comment'
p282
asbag68
(g89
g70
NtRp283
(dp284
g73
(dp285
g100
g101
ssg82
g274
sg75
(lp286
S':'
asbag68
(g89
g70
NtRp287
(dp288
g73
(dp289
sg82
g274
sg75
(lp290
g68
(g69
g70
NtRp291
(dp292
g73
(dp293
g81
I3
ssg82
g287
sg75
(lp294
S''
asbasbasbag68
(g84
g70
NtRp295
(dp296
g73
(dp297
sg82
g270
sg75
(lp298
g68
(g89
g70
NtRp299
(dp300
g73
(dp301
g93
g94
ssg82
g295
sg75
(lp302
S'domain'
p303
asbag68
(g89
g70
NtRp304
(dp305
g73
(dp306
g100
g101
ssg82
g295
sg75
(lp307
S':'
asbag68
(g89
g70
NtRp308
(dp309
g73
(dp310
sg82
g295
sg75
(lp311
g68
(g69
g70
NtRp312
(dp313
g73
(dp314
g81
I3
ssg82
g308
sg75
(lp315
S''
asbasbasbag68
(g84
g70
NtRp316
(dp317
g73
(dp318
sg82
g270
sg75
(lp319
g68
(g89
g70
NtRp320
(dp321
g73
(dp322
g93
g94
ssg82
g316
sg75
(lp323
S'expires'
p324
asbag68
(g89
g70
NtRp325
(dp326
g73
(dp327
g100
g101
ssg82
g316
sg75
(lp328
S':'
asbag68
(g89
g70
NtRp329
(dp330
g73
(dp331
sg82
g316
sg75
(lp332
g68
(g69
g70
NtRp333
(dp334
g73
(dp335
g81
I3
ssg82
g329
sg75
(lp336
S''
asbasbasbag68
(g84
g70
NtRp337
(dp338
g73
(dp339
sg82
g270
sg75
(lp340
g68
(g89
g70
NtRp341
(dp342
g73
(dp343
g93
g94
ssg82
g337
sg75
(lp344
S'httponly'
p345
asbag68
(g89
g70
NtRp346
(dp347
g73
(dp348
g100
g101
ssg82
g337
sg75
(lp349
S':'
asbag68
(g89
g70
NtRp350
(dp351
g73
(dp352
sg82
g337
sg75
(lp353
g68
(g69
g70
NtRp354
(dp355
g73
(dp356
g81
I3
ssg82
g350
sg75
(lp357
S''
asbasbasbag68
(g84
g70
NtRp358
(dp359
g73
(dp360
sg82
g270
sg75
(lp361
g68
(g89
g70
NtRp362
(dp363
g73
(dp364
g93
g94
ssg82
g358
sg75
(lp365
S'max-age'
p366
asbag68
(g89
g70
NtRp367
(dp368
g73
(dp369
g100
g101
ssg82
g358
sg75
(lp370
S':'
asbag68
(g89
g70
NtRp371
(dp372
g73
(dp373
sg82
g358
sg75
(lp374
g68
(g69
g70
NtRp375
(dp376
g73
(dp377
g81
I3
ssg82
g371
sg75
(lp378
S''
asbasbasbag68
(g84
g70
NtRp379
(dp380
g73
(dp381
sg82
g270
sg75
(lp382
g68
(g89
g70
NtRp383
(dp384
g73
(dp385
g93
g94
ssg82
g379
sg75
(lp386
S'path'
p387
asbag68
(g89
g70
NtRp388
(dp389
g73
(dp390
g100
g101
ssg82
g379
sg75
(lp391
S':'
asbag68
(g89
g70
NtRp392
(dp393
g73
(dp394
sg82
g379
sg75
(lp395
g68
(g69
g70
NtRp396
(dp397
g73
(dp398
g81
I3
ssg82
g392
sg75
(lp399
S''
asbasbasbag68
(g84
g70
NtRp400
(dp401
g73
(dp402
sg82
g270
sg75
(lp403
g68
(g89
g70
NtRp404
(dp405
g73
(dp406
g93
g94
ssg82
g400
sg75
(lp407
S'secure'
p408
asbag68
(g89
g70
NtRp409
(dp410
g73
(dp411
g100
g101
ssg82
g400
sg75
(lp412
S':'
asbag68
(g89
g70
NtRp413
(dp414
g73
(dp415
sg82
g400
sg75
(lp416
g68
(g69
g70
NtRp417
(dp418
g73
(dp419
g81
I3
ssg82
g413
sg75
(lp420
S''
asbasbasbag68
(g84
g70
NtRp421
(dp422
g73
(dp423
sg82
g270
sg75
(lp424
g68
(g89
g70
NtRp425
(dp426
g73
(dp427
g93
g94
ssg82
g421
sg75
(lp428
S'version'
p429
asbag68
(g89
g70
NtRp430
(dp431
g73
(dp432
g100
g101
ssg82
g421
sg75
(lp433
S':'
asbag68
(g89
g70
NtRp434
(dp435
g73
(dp436
sg82
g421
sg75
(lp437
g68
(g69
g70
NtRp438
(dp439
g73
(dp440
g81
I3
ssg82
g434
sg75
(lp441
S''
asbasbasbasbasbasbasbasbasbasbasbag68
(g84
g70
NtRp442
(dp443
g73
(dp444
sg82
g78
sg75
(lp445
g68
(g89
g70
NtRp446
(dp447
g73
(dp448
g93
g94
ssg82
g442
sg75
(lp449
S'env'
p450
asbag68
(g89
g70
NtRp451
(dp452
g73
(dp453
g100
g101
ssg82
g442
sg75
(lp454
S':'
asbag68
(g89
g70
NtRp455
(dp456
g73
(dp457
sg82
g442
sg75
(lp458
g68
(g69
g70
NtRp459
(dp460
g73
(dp461
g81
I5
ssg82
g455
sg75
(lp462
g68
(g77
g70
NtRp463
(dp464
g73
(dp465
g81
I4
ssg82
Nsg75
(lp466
g68
(g84
g70
NtRp467
(dp468
g73
(dp469
sg82
g463
sg75
(lp470
g68
(g89
g70
NtRp471
(dp472
g73
(dp473
g93
g94
ssg82
g467
sg75
(lp474
S'app_folders'
p475
asbag68
(g89
g70
NtRp476
(dp477
g73
(dp478
g100
g101
ssg82
g467
sg75
(lp479
S':'
asbag68
(g89
g70
NtRp480
(dp481
g73
(dp482
sg82
g467
sg75
(lp483
g68
(g69
g70
NtRp484
(dp485
g73
(dp486
g81
I4
ssg82
g480
sg75
(lp487
S"set(['/windows/Users/Thomas/Dropbox/appz/2011/GAE/ddl-lagoon/applications/ddlagoon/'])"
p488
asbasbasbag68
(g84
g70
NtRp489
(dp490
g73
(dp491
sg82
g463
sg75
(lp492
g68
(g89
g70
NtRp493
(dp494
g73
(dp495
g93
g94
ssg82
g489
sg75
(lp496
S'applications_parent'
p497
asbag68
(g89
g70
NtRp498
(dp499
g73
(dp500
g100
g101
ssg82
g489
sg75
(lp501
S':'
asbag68
(g89
g70
NtRp502
(dp503
g73
(dp504
sg82
g489
sg75
(lp505
g68
(g69
g70
NtRp506
(dp507
g73
(dp508
g81
I4
ssg82
g502
sg75
(lp509
S'/windows/Users/Thomas/Dropbox/appz/2011/GAE/ddl-lagoon'
p510
asbasbasbag68
(g84
g70
NtRp511
(dp512
g73
(dp513
sg82
g463
sg75
(lp514
g68
(g89
g70
NtRp515
(dp516
g73
(dp517
g93
g94
ssg82
g511
sg75
(lp518
S'cmd_args'
p519
asbag68
(g89
g70
NtRp520
(dp521
g73
(dp522
g100
g101
ssg82
g511
sg75
(lp523
S':'
asbag68
(g89
g70
NtRp524
(dp525
g73
(dp526
sg82
g511
sg75
(lp527
g68
(g69
g70
NtRp528
(dp529
g73
(dp530
g81
I4
ssg82
g524
sg75
(lp531
g68
(g77
g70
NtRp532
(dp533
g73
(dp534
g81
I3
ssg82
Nsg75
(lp535
sbasbasbasbag68
(g84
g70
NtRp536
(dp537
g73
(dp538
sg82
g463
sg75
(lp539
g68
(g89
g70
NtRp540
(dp541
g73
(dp542
g93
g94
ssg82
g536
sg75
(lp543
S'cmd_options'
p544
asbag68
(g89
g70
NtRp545
(dp546
g73
(dp547
g100
g101
ssg82
g536
sg75
(lp548
S':'
asbag68
(g89
g70
NtRp549
(dp550
g73
(dp551
sg82
g536
sg75
(lp552
g68
(g69
g70
NtRp553
(dp554
g73
(dp555
g81
I4
ssg82
g549
sg75
(lp556
S"<Values at 0x1e2b170: {'verbose': False, 'ip': '127.0.0.1', 'shutdown_timeout': 5, 'taskbar': False, 'nocron': False, 'pid_filename': 'httpserver.pid', 'maxthreads': None, 'softcron': False, 'server_name': 'VPCF22AJ', 'bpython': False, 'nogui': False, 'port': 8000, 'extcron': False, 'debuglevel': 30, 'test': None, 'folder': '/windows/Users/Thomas/Dropbox/appz/2011/GAE/ddl-lagoon', 'config': '', 'import_models': False, 'winservice': '', 'shell': None, 'run': '', 'log_filename': 'httpserver.log', 'args': [''], 'ssl_ca_certificate': None, 'scheduler': None, 'profiler_filename': None, 'ssl_private_key': '', 'password': 'admin', 'request_queue_size': 5, 'ssl_certificate': '', 'cronjob': False, 'plain': False, 'quiet': False, 'interfaces': None, 'minthreads': None, 'timeout': 10, 'numthreads': None, 'nobanner': False}>"
p557
asbasbasbag68
(g84
g70
NtRp558
(dp559
g73
(dp560
sg82
g463
sg75
(lp561
g68
(g89
g70
NtRp562
(dp563
g73
(dp564
g93
g94
ssg82
g558
sg75
(lp565
S'db_sessions'
p566
asbag68
(g89
g70
NtRp567
(dp568
g73
(dp569
g100
g101
ssg82
g558
sg75
(lp570
S':'
asbag68
(g89
g70
NtRp571
(dp572
g73
(dp573
sg82
g558
sg75
(lp574
g68
(g69
g70
NtRp575
(dp576
g73
(dp577
g81
I4
ssg82
g571
sg75
(lp578
S'set([])'
p579
asbasbasbag68
(g84
g70
NtRp580
(dp581
g73
(dp582
sg82
g463
sg75
(lp583
g68
(g89
g70
NtRp584
(dp585
g73
(dp586
g93
g94
ssg82
g580
sg75
(lp587
S'debugging'
p588
asbag68
(g89
g70
NtRp589
(dp590
g73
(dp591
g100
g101
ssg82
g580
sg75
(lp592
S':'
asbag68
(g89
g70
NtRp593
(dp594
g73
(dp595
sg82
g580
sg75
(lp596
g68
(g69
g70
NtRp597
(dp598
g73
(dp599
g81
I4
ssg82
g593
sg75
(lp600
g111
asbasbasbag68
(g84
g70
NtRp601
(dp602
g73
(dp603
sg82
g463
sg75
(lp604
g68
(g89
g70
NtRp605
(dp606
g73
(dp607
g93
g94
ssg82
g601
sg75
(lp608
S'gluon_parent'
p609
asbag68
(g89
g70
NtRp610
(dp611
g73
(dp612
g100
g101
ssg82
g601
sg75
(lp613
S':'
asbag68
(g89
g70
NtRp614
(dp615
g73
(dp616
sg82
g601
sg75
(lp617
g68
(g69
g70
NtRp618
(dp619
g73
(dp620
g81
I4
ssg82
g614
sg75
(lp621
S'/windows/Users/Thomas/Dropbox/appz/2011/GAE/ddl-lagoon'
p622
asbasbasbag68
(g84
g70
NtRp623
(dp624
g73
(dp625
sg82
g463
sg75
(lp626
g68
(g89
g70
NtRp627
(dp628
g73
(dp629
g93
g94
ssg82
g623
sg75
(lp630
S'http_accept'
p631
asbag68
(g89
g70
NtRp632
(dp633
g73
(dp634
g100
g101
ssg82
g623
sg75
(lp635
S':'
asbag68
(g89
g70
NtRp636
(dp637
g73
(dp638
sg82
g623
sg75
(lp639
g68
(g69
g70
NtRp640
(dp641
g73
(dp642
g81
I4
ssg82
g636
sg75
(lp643
S'text/html,application/xhtml+xml,application/xml;q=0.9,*/*;q=0.8'
p644
asbasbasbag68
(g84
g70
NtRp645
(dp646
g73
(dp647
sg82
g463
sg75
(lp648
g68
(g89
g70
NtRp649
(dp650
g73
(dp651
g93
g94
ssg82
g645
sg75
(lp652
S'http_accept_charset'
p653
asbag68
(g89
g70
NtRp654
(dp655
g73
(dp656
g100
g101
ssg82
g645
sg75
(lp657
S':'
asbag68
(g89
g70
NtRp658
(dp659
g73
(dp660
sg82
g645
sg75
(lp661
g68
(g69
g70
NtRp662
(dp663
g73
(dp664
g81
I4
ssg82
g658
sg75
(lp665
S'ISO-8859-1,utf-8;q=0.7,*;q=0.3'
p666
asbasbasbag68
(g84
g70
NtRp667
(dp668
g73
(dp669
sg82
g463
sg75
(lp670
g68
(g89
g70
NtRp671
(dp672
g73
(dp673
g93
g94
ssg82
g667
sg75
(lp674
S'http_accept_encoding'
p675
asbag68
(g89
g70
NtRp676
(dp677
g73
(dp678
g100
g101
ssg82
g667
sg75
(lp679
S':'
asbag68
(g89
g70
NtRp680
(dp681
g73
(dp682
sg82
g667
sg75
(lp683
g68
(g69
g70
NtRp684
(dp685
g73
(dp686
g81
I4
ssg82
g680
sg75
(lp687
S'gzip,deflate,sdch'
p688
asbasbasbag68
(g84
g70
NtRp689
(dp690
g73
(dp691
sg82
g463
sg75
(lp692
g68
(g89
g70
NtRp693
(dp694
g73
(dp695
g93
g94
ssg82
g689
sg75
(lp696
S'http_accept_language'
p697
asbag68
(g89
g70
NtRp698
(dp699
g73
(dp700
g100
g101
ssg82
g689
sg75
(lp701
S':'
asbag68
(g89
g70
NtRp702
(dp703
g73
(dp704
sg82
g689
sg75
(lp705
g68
(g69
g70
NtRp706
(dp707
g73
(dp708
g81
I4
ssg82
g702
sg75
(lp709
S'en-US,en;q=0.8,fr;q=0.6'
p710
asbasbasbag68
(g84
g70
NtRp711
(dp712
g73
(dp713
sg82
g463
sg75
(lp714
g68
(g89
g70
NtRp715
(dp716
g73
(dp717
g93
g94
ssg82
g711
sg75
(lp718
S'http_cache_control'
p719
asbag68
(g89
g70
NtRp720
(dp721
g73
(dp722
g100
g101
ssg82
g711
sg75
(lp723
S':'
asbag68
(g89
g70
NtRp724
(dp725
g73
(dp726
sg82
g711
sg75
(lp727
g68
(g69
g70
NtRp728
(dp729
g73
(dp730
g81
I4
ssg82
g724
sg75
(lp731
S'max-age=0'
p732
asbasbasbag68
(g84
g70
NtRp733
(dp734
g73
(dp735
sg82
g463
sg75
(lp736
g68
(g89
g70
NtRp737
(dp738
g73
(dp739
g93
g94
ssg82
g733
sg75
(lp740
S'http_connection'
p741
asbag68
(g89
g70
NtRp742
(dp743
g73
(dp744
g100
g101
ssg82
g733
sg75
(lp745
S':'
asbag68
(g89
g70
NtRp746
(dp747
g73
(dp748
sg82
g733
sg75
(lp749
g68
(g69
g70
NtRp750
(dp751
g73
(dp752
g81
I4
ssg82
g746
sg75
(lp753
S'keep-alive'
p754
asbasbasbag68
(g84
g70
NtRp755
(dp756
g73
(dp757
sg82
g463
sg75
(lp758
g68
(g89
g70
NtRp759
(dp760
g73
(dp761
g93
g94
ssg82
g755
sg75
(lp762
S'http_cookie'
p763
asbag68
(g89
g70
NtRp764
(dp765
g73
(dp766
g100
g101
ssg82
g755
sg75
(lp767
S':'
asbag68
(g89
g70
NtRp768
(dp769
g73
(dp770
sg82
g755
sg75
(lp771
g68
(g69
g70
NtRp772
(dp773
g73
(dp774
g81
I4
ssg82
g768
sg75
(lp775
S'__utma_a2a=6830991484.1350583772.1319026846.1319052270.1319052278.11; session_id_ddlagoon=127.0.0.1-e2b0e85d-0308-4bbf-a81a-e4bd32bbbecd'
p776
asbasbasbag68
(g84
g70
NtRp777
(dp778
g73
(dp779
sg82
g463
sg75
(lp780
g68
(g89
g70
NtRp781
(dp782
g73
(dp783
g93
g94
ssg82
g777
sg75
(lp784
S'http_host'
p785
asbag68
(g89
g70
NtRp786
(dp787
g73
(dp788
g100
g101
ssg82
g777
sg75
(lp789
S':'
asbag68
(g89
g70
NtRp790
(dp791
g73
(dp792
sg82
g777
sg75
(lp793
g68
(g69
g70
NtRp794
(dp795
g73
(dp796
g81
I4
ssg82
g790
sg75
(lp797
S'localhost:8000'
p798
asbasbasbag68
(g84
g70
NtRp799
(dp800
g73
(dp801
sg82
g463
sg75
(lp802
g68
(g89
g70
NtRp803
(dp804
g73
(dp805
g93
g94
ssg82
g799
sg75
(lp806
S'http_user_agent'
p807
asbag68
(g89
g70
NtRp808
(dp809
g73
(dp810
g100
g101
ssg82
g799
sg75
(lp811
S':'
asbag68
(g89
g70
NtRp812
(dp813
g73
(dp814
sg82
g799
sg75
(lp815
g68
(g69
g70
NtRp816
(dp817
g73
(dp818
g81
I4
ssg82
g812
sg75
(lp819
S'Mozilla/5.0 (X11; Linux x86_64) AppleWebKit/535.2 (KHTML, like Gecko) Chrome/15.0.874.106 Safari/535.2'
p820
asbasbasbag68
(g84
g70
NtRp821
(dp822
g73
(dp823
sg82
g463
sg75
(lp824
g68
(g89
g70
NtRp825
(dp826
g73
(dp827
g93
g94
ssg82
g821
sg75
(lp828
S'is_jython'
p829
asbag68
(g89
g70
NtRp830
(dp831
g73
(dp832
g100
g101
ssg82
g821
sg75
(lp833
S':'
asbag68
(g89
g70
NtRp834
(dp835
g73
(dp836
sg82
g821
sg75
(lp837
g68
(g69
g70
NtRp838
(dp839
g73
(dp840
g81
I4
ssg82
g834
sg75
(lp841
g111
asbasbasbag68
(g84
g70
NtRp842
(dp843
g73
(dp844
sg82
g463
sg75
(lp845
g68
(g89
g70
NtRp846
(dp847
g73
(dp848
g93
g94
ssg82
g842
sg75
(lp849
S'path_info'
p850
asbag68
(g89
g70
NtRp851
(dp852
g73
(dp853
g100
g101
ssg82
g842
sg75
(lp854
S':'
asbag68
(g89
g70
NtRp855
(dp856
g73
(dp857
sg82
g842
sg75
(lp858
g68
(g69
g70
NtRp859
(dp860
g73
(dp861
g81
I4
ssg82
g855
sg75
(lp862
S'/ddlagoon/default/index'
p863
asbasbasbag68
(g84
g70
NtRp864
(dp865
g73
(dp866
sg82
g463
sg75
(lp867
g68
(g89
g70
NtRp868
(dp869
g73
(dp870
g93
g94
ssg82
g864
sg75
(lp871
S'query_string'
p872
asbag68
(g89
g70
NtRp873
(dp874
g73
(dp875
g100
g101
ssg82
g864
sg75
(lp876
S':'
asbag68
(g89
g70
NtRp877
(dp878
g73
(dp879
sg82
g864
sg75
(lp880
g68
(g69
g70
NtRp881
(dp882
g73
(dp883
g81
I4
ssg82
g877
sg75
(lp884
S''
asbasbasbag68
(g84
g70
NtRp885
(dp886
g73
(dp887
sg82
g463
sg75
(lp888
g68
(g89
g70
NtRp889
(dp890
g73
(dp891
g93
g94
ssg82
g885
sg75
(lp892
S'remote_addr'
p893
asbag68
(g89
g70
NtRp894
(dp895
g73
(dp896
g100
g101
ssg82
g885
sg75
(lp897
S':'
asbag68
(g89
g70
NtRp898
(dp899
g73
(dp900
sg82
g885
sg75
(lp901
g68
(g69
g70
NtRp902
(dp903
g73
(dp904
g81
I4
ssg82
g898
sg75
(lp905
g201
asbasbasbag68
(g84
g70
NtRp906
(dp907
g73
(dp908
sg82
g463
sg75
(lp909
g68
(g89
g70
NtRp910
(dp911
g73
(dp912
g93
g94
ssg82
g906
sg75
(lp913
S'remote_port'
p914
asbag68
(g89
g70
NtRp915
(dp916
g73
(dp917
g100
g101
ssg82
g906
sg75
(lp918
S':'
asbag68
(g89
g70
NtRp919
(dp920
g73
(dp921
sg82
g906
sg75
(lp922
g68
(g69
g70
NtRp923
(dp924
g73
(dp925
g81
I4
ssg82
g919
sg75
(lp926
S'56903'
p927
asbasbasbag68
(g84
g70
NtRp928
(dp929
g73
(dp930
sg82
g463
sg75
(lp931
g68
(g89
g70
NtRp932
(dp933
g73
(dp934
g93
g94
ssg82
g928
sg75
(lp935
S'request_method'
p936
asbag68
(g89
g70
NtRp937
(dp938
g73
(dp939
g100
g101
ssg82
g928
sg75
(lp940
S':'
asbag68
(g89
g70
NtRp941
(dp942
g73
(dp943
sg82
g928
sg75
(lp944
g68
(g69
g70
NtRp945
(dp946
g73
(dp947
g81
I4
ssg82
g941
sg75
(lp948
S'GET'
p949
asbasbasbag68
(g84
g70
NtRp950
(dp951
g73
(dp952
sg82
g463
sg75
(lp953
g68
(g89
g70
NtRp954
(dp955
g73
(dp956
g93
g94
ssg82
g950
sg75
(lp957
S'request_uri'
p958
asbag68
(g89
g70
NtRp959
(dp960
g73
(dp961
g100
g101
ssg82
g950
sg75
(lp962
S':'
asbag68
(g89
g70
NtRp963
(dp964
g73
(dp965
sg82
g950
sg75
(lp966
g68
(g69
g70
NtRp967
(dp968
g73
(dp969
g81
I4
ssg82
g963
sg75
(lp970
g863
asbasbasbag68
(g84
g70
NtRp971
(dp972
g73
(dp973
sg82
g463
sg75
(lp974
g68
(g89
g70
NtRp975
(dp976
g73
(dp977
g93
g94
ssg82
g971
sg75
(lp978
S'script_name'
p979
asbag68
(g89
g70
NtRp980
(dp981
g73
(dp982
g100
g101
ssg82
g971
sg75
(lp983
S':'
asbag68
(g89
g70
NtRp984
(dp985
g73
(dp986
sg82
g971
sg75
(lp987
g68
(g69
g70
NtRp988
(dp989
g73
(dp990
g81
I4
ssg82
g984
sg75
(lp991
S''
asbasbasbag68
(g84
g70
NtRp992
(dp993
g73
(dp994
sg82
g463
sg75
(lp995
g68
(g89
g70
NtRp996
(dp997
g73
(dp998
g93
g94
ssg82
g992
sg75
(lp999
S'server_name'
p1000
asbag68
(g89
g70
NtRp1001
(dp1002
g73
(dp1003
g100
g101
ssg82
g992
sg75
(lp1004
S':'
asbag68
(g89
g70
NtRp1005
(dp1006
g73
(dp1007
sg82
g992
sg75
(lp1008
g68
(g69
g70
NtRp1009
(dp1010
g73
(dp1011
g81
I4
ssg82
g1005
sg75
(lp1012
S'VPCF22AJ'
p1013
asbasbasbag68
(g84
g70
NtRp1014
(dp1015
g73
(dp1016
sg82
g463
sg75
(lp1017
g68
(g89
g70
NtRp1018
(dp1019
g73
(dp1020
g93
g94
ssg82
g1014
sg75
(lp1021
S'server_port'
p1022
asbag68
(g89
g70
NtRp1023
(dp1024
g73
(dp1025
g100
g101
ssg82
g1014
sg75
(lp1026
S':'
asbag68
(g89
g70
NtRp1027
(dp1028
g73
(dp1029
sg82
g1014
sg75
(lp1030
g68
(g69
g70
NtRp1031
(dp1032
g73
(dp1033
g81
I4
ssg82
g1027
sg75
(lp1034
S'8000'
p1035
asbasbasbag68
(g84
g70
NtRp1036
(dp1037
g73
(dp1038
sg82
g463
sg75
(lp1039
g68
(g89
g70
NtRp1040
(dp1041
g73
(dp1042
g93
g94
ssg82
g1036
sg75
(lp1043
S'server_protocol'
p1044
asbag68
(g89
g70
NtRp1045
(dp1046
g73
(dp1047
g100
g101
ssg82
g1036
sg75
(lp1048
S':'
asbag68
(g89
g70
NtRp1049
(dp1050
g73
(dp1051
sg82
g1036
sg75
(lp1052
g68
(g69
g70
NtRp1053
(dp1054
g73
(dp1055
g81
I4
ssg82
g1049
sg75
(lp1056
S'HTTP/1.1'
p1057
asbasbasbag68
(g84
g70
NtRp1058
(dp1059
g73
(dp1060
sg82
g463
sg75
(lp1061
g68
(g89
g70
NtRp1062
(dp1063
g73
(dp1064
g93
g94
ssg82
g1058
sg75
(lp1065
S'server_software'
p1066
asbag68
(g89
g70
NtRp1067
(dp1068
g73
(dp1069
g100
g101
ssg82
g1058
sg75
(lp1070
S':'
asbag68
(g89
g70
NtRp1071
(dp1072
g73
(dp1073
sg82
g1058
sg75
(lp1074
g68
(g69
g70
NtRp1075
(dp1076
g73
(dp1077
g81
I4
ssg82
g1071
sg75
(lp1078
S'Rocket 1.2.4'
p1079
asbasbasbag68
(g84
g70
NtRp1080
(dp1081
g73
(dp1082
sg82
g463
sg75
(lp1083
g68
(g89
g70
NtRp1084
(dp1085
g73
(dp1086
g93
g94
ssg82
g1080
sg75
(lp1087
S'web2py_crontype'
p1088
asbag68
(g89
g70
NtRp1089
(dp1090
g73
(dp1091
g100
g101
ssg82
g1080
sg75
(lp1092
S':'
asbag68
(g89
g70
NtRp1093
(dp1094
g73
(dp1095
sg82
g1080
sg75
(lp1096
g68
(g69
g70
NtRp1097
(dp1098
g73
(dp1099
g81
I4
ssg82
g1093
sg75
(lp1100
S'hard'
p1101
asbasbasbag68
(g84
g70
NtRp1102
(dp1103
g73
(dp1104
sg82
g463
sg75
(lp1105
g68
(g89
g70
NtRp1106
(dp1107
g73
(dp1108
g93
g94
ssg82
g1102
sg75
(lp1109
S'web2py_original_uri'
p1110
asbag68
(g89
g70
NtRp1111
(dp1112
g73
(dp1113
g100
g101
ssg82
g1102
sg75
(lp1114
S':'
asbag68
(g89
g70
NtRp1115
(dp1116
g73
(dp1117
sg82
g1102
sg75
(lp1118
g68
(g69
g70
NtRp1119
(dp1120
g73
(dp1121
g81
I4
ssg82
g1115
sg75
(lp1122
g863
asbasbasbag68
(g84
g70
NtRp1123
(dp1124
g73
(dp1125
sg82
g463
sg75
(lp1126
g68
(g89
g70
NtRp1127
(dp1128
g73
(dp1129
g93
g94
ssg82
g1123
sg75
(lp1130
S'web2py_path'
p1131
asbag68
(g89
g70
NtRp1132
(dp1133
g73
(dp1134
g100
g101
ssg82
g1123
sg75
(lp1135
S':'
asbag68
(g89
g70
NtRp1136
(dp1137
g73
(dp1138
sg82
g1123
sg75
(lp1139
g68
(g69
g70
NtRp1140
(dp1141
g73
(dp1142
g81
I4
ssg82
g1136
sg75
(lp1143
g510
asbasbasbag68
(g84
g70
NtRp1144
(dp1145
g73
(dp1146
sg82
g463
sg75
(lp1147
g68
(g89
g70
NtRp1148
(dp1149
g73
(dp1150
g93
g94
ssg82
g1144
sg75
(lp1151
S'web2py_version'
p1152
asbag68
(g89
g70
NtRp1153
(dp1154
g73
(dp1155
g100
g101
ssg82
g1144
sg75
(lp1156
S':'
asbag68
(g89
g70
NtRp1157
(dp1158
g73
(dp1159
sg82
g1144
sg75
(lp1160
g68
(g69
g70
NtRp1161
(dp1162
g73
(dp1163
g81
I4
ssg82
g1157
sg75
(lp1164
g68
(g77
g70
NtRp1165
(dp1166
g73
(dp1167
g81
I3
ssg82
Nsg75
(lp1168
g68
(g84
g70
NtRp1169
(dp1170
g73
(dp1171
sg82
g1165
sg75
(lp1172
g68
(g89
g70
NtRp1173
(dp1174
g73
(dp1175
sg82
g1169
sg75
(lp1176
g68
(g69
g70
NtRp1177
(dp1178
g73
(dp1179
g81
I3
ssg82
g1173
sg75
(lp1180
S'1'
asbasbasbag68
(g84
g70
NtRp1181
(dp1182
g73
(dp1183
sg82
g1165
sg75
(lp1184
g68
(g89
g70
NtRp1185
(dp1186
g73
(dp1187
sg82
g1181
sg75
(lp1188
g68
(g69
g70
NtRp1189
(dp1190
g73
(dp1191
g81
I3
ssg82
g1185
sg75
(lp1192
S'99'
p1193
asbasbasbag68
(g84
g70
NtRp1194
(dp1195
g73
(dp1196
sg82
g1165
sg75
(lp1197
g68
(g89
g70
NtRp1198
(dp1199
g73
(dp1200
sg82
g1194
sg75
(lp1201
g68
(g69
g70
NtRp1202
(dp1203
g73
(dp1204
g81
I3
ssg82
g1198
sg75
(lp1205
S'2'
asbasbasbag68
(g84
g70
NtRp1206
(dp1207
g73
(dp1208
sg82
g1165
sg75
(lp1209
g68
(g89
g70
NtRp1210
(dp1211
g73
(dp1212
sg82
g1206
sg75
(lp1213
g68
(g69
g70
NtRp1214
(dp1215
g73
(dp1216
g81
I3
ssg82
g1210
sg75
(lp1217
S'datetime.datetime(2011, 9, 26, 6, 55, 33)'
p1218
asbasbasbag68
(g84
g70
NtRp1219
(dp1220
g73
(dp1221
sg82
g1165
sg75
(lp1222
g68
(g89
g70
NtRp1223
(dp1224
g73
(dp1225
sg82
g1219
sg75
(lp1226
g68
(g69
g70
NtRp1227
(dp1228
g73
(dp1229
g81
I3
ssg82
g1223
sg75
(lp1230
S'stable'
p1231
asbasbasbasbasbasbasbag68
(g84
g70
NtRp1232
(dp1233
g73
(dp1234
sg82
g463
sg75
(lp1235
g68
(g89
g70
NtRp1236
(dp1237
g73
(dp1238
g93
g94
ssg82
g1232
sg75
(lp1239
S'wsgi_errors'
p1240
asbag68
(g89
g70
NtRp1241
(dp1242
g73
(dp1243
g100
g101
ssg82
g1232
sg75
(lp1244
S':'
asbag68
(g89
g70
NtRp1245
(dp1246
g73
(dp1247
sg82
g1232
sg75
(lp1248
g68
(g69
g70
NtRp1249
(dp1250
g73
(dp1251
g81
I4
ssg82
g1245
sg75
(lp1252
S"<open file '<stderr>', mode 'w' at 0x7fa4afe891e0>"
p1253
asbasbasbag68
(g84
g70
NtRp1254
(dp1255
g73
(dp1256
sg82
g463
sg75
(lp1257
g68
(g89
g70
NtRp1258
(dp1259
g73
(dp1260
g93
g94
ssg82
g1254
sg75
(lp1261
S'wsgi_file_wrapper'
p1262
asbag68
(g89
g70
NtRp1263
(dp1264
g73
(dp1265
g100
g101
ssg82
g1254
sg75
(lp1266
S':'
asbag68
(g89
g70
NtRp1267
(dp1268
g73
(dp1269
sg82
g1254
sg75
(lp1270
g68
(g69
g70
NtRp1271
(dp1272
g73
(dp1273
g81
I4
ssg82
g1267
sg75
(lp1274
S'<class wsgiref.util.FileWrapper at 0x1bbf590>'
p1275
asbasbasbag68
(g84
g70
NtRp1276
(dp1277
g73
(dp1278
sg82
g463
sg75
(lp1279
g68
(g89
g70
NtRp1280
(dp1281
g73
(dp1282
g93
g94
ssg82
g1276
sg75
(lp1283
S'wsgi_input'
p1284
asbag68
(g89
g70
NtRp1285
(dp1286
g73
(dp1287
g100
g101
ssg82
g1276
sg75
(lp1288
S':'
asbag68
(g89
g70
NtRp1289
(dp1290
g73
(dp1291
sg82
g1276
sg75
(lp1292
g68
(g69
g70
NtRp1293
(dp1294
g73
(dp1295
g81
I4
ssg82
g1289
sg75
(lp1296
S'<socket._fileobject object at 0x1f2b8d0>'
p1297
asbasbasbag68
(g84
g70
NtRp1298
(dp1299
g73
(dp1300
sg82
g463
sg75
(lp1301
g68
(g89
g70
NtRp1302
(dp1303
g73
(dp1304
g93
g94
ssg82
g1298
sg75
(lp1305
S'wsgi_multiprocess'
p1306
asbag68
(g89
g70
NtRp1307
(dp1308
g73
(dp1309
g100
g101
ssg82
g1298
sg75
(lp1310
S':'
asbag68
(g89
g70
NtRp1311
(dp1312
g73
(dp1313
sg82
g1298
sg75
(lp1314
g68
(g69
g70
NtRp1315
(dp1316
g73
(dp1317
g81
I4
ssg82
g1311
sg75
(lp1318
g111
asbasbasbag68
(g84
g70
NtRp1319
(dp1320
g73
(dp1321
sg82
g463
sg75
(lp1322
g68
(g89
g70
NtRp1323
(dp1324
g73
(dp1325
g93
g94
ssg82
g1319
sg75
(lp1326
S'wsgi_multithread'
p1327
asbag68
(g89
g70
NtRp1328
(dp1329
g73
(dp1330
g100
g101
ssg82
g1319
sg75
(lp1331
S':'
asbag68
(g89
g70
NtRp1332
(dp1333
g73
(dp1334
sg82
g1319
sg75
(lp1335
g68
(g69
g70
NtRp1336
(dp1337
g73
(dp1338
g81
I4
ssg82
g1332
sg75
(lp1339
S'True'
p1340
asbasbasbag68
(g84
g70
NtRp1341
(dp1342
g73
(dp1343
sg82
g463
sg75
(lp1344
g68
(g89
g70
NtRp1345
(dp1346
g73
(dp1347
g93
g94
ssg82
g1341
sg75
(lp1348
S'wsgi_run_once'
p1349
asbag68
(g89
g70
NtRp1350
(dp1351
g73
(dp1352
g100
g101
ssg82
g1341
sg75
(lp1353
S':'
asbag68
(g89
g70
NtRp1354
(dp1355
g73
(dp1356
sg82
g1341
sg75
(lp1357
g68
(g69
g70
NtRp1358
(dp1359
g73
(dp1360
g81
I4
ssg82
g1354
sg75
(lp1361
g111
asbasbasbag68
(g84
g70
NtRp1362
(dp1363
g73
(dp1364
sg82
g463
sg75
(lp1365
g68
(g89
g70
NtRp1366
(dp1367
g73
(dp1368
g93
g94
ssg82
g1362
sg75
(lp1369
S'wsgi_url_scheme'
p1370
asbag68
(g89
g70
NtRp1371
(dp1372
g73
(dp1373
g100
g101
ssg82
g1362
sg75
(lp1374
S':'
asbag68
(g89
g70
NtRp1375
(dp1376
g73
(dp1377
sg82
g1362
sg75
(lp1378
g68
(g69
g70
NtRp1379
(dp1380
g73
(dp1381
g81
I4
ssg82
g1375
sg75
(lp1382
S'http'
p1383
asbasbasbag68
(g84
g70
NtRp1384
(dp1385
g73
(dp1386
sg82
g463
sg75
(lp1387
g68
(g89
g70
NtRp1388
(dp1389
g73
(dp1390
g93
g94
ssg82
g1384
sg75
(lp1391
S'wsgi_version'
p1392
asbag68
(g89
g70
NtRp1393
(dp1394
g73
(dp1395
g100
g101
ssg82
g1384
sg75
(lp1396
S':'
asbag68
(g89
g70
NtRp1397
(dp1398
g73
(dp1399
sg82
g1384
sg75
(lp1400
g68
(g69
g70
NtRp1401
(dp1402
g73
(dp1403
g81
I4
ssg82
g1397
sg75
(lp1404
g68
(g77
g70
NtRp1405
(dp1406
g73
(dp1407
g81
I3
ssg82
Nsg75
(lp1408
g68
(g84
g70
NtRp1409
(dp1410
g73
(dp1411
sg82
g1405
sg75
(lp1412
g68
(g89
g70
NtRp1413
(dp1414
g73
(dp1415
sg82
g1409
sg75
(lp1416
g68
(g69
g70
NtRp1417
(dp1418
g73
(dp1419
g81
I3
ssg82
g1413
sg75
(lp1420
S'1'
asbasbasbag68
(g84
g70
NtRp1421
(dp1422
g73
(dp1423
sg82
g1405
sg75
(lp1424
g68
(g89
g70
NtRp1425
(dp1426
g73
(dp1427
sg82
g1421
sg75
(lp1428
g68
(g69
g70
NtRp1429
(dp1430
g73
(dp1431
g81
I3
ssg82
g1425
sg75
(lp1432
S'0'
asbasbasbasbasbasbasbasbasbasbasbag68
(g84
g70
NtRp1433
(dp1434
g73
(dp1435
sg82
g78
sg75
(lp1436
g68
(g89
g70
NtRp1437
(dp1438
g73
(dp1439
g93
g94
ssg82
g1433
sg75
(lp1440
S'extension'
p1441
asbag68
(g89
g70
NtRp1442
(dp1443
g73
(dp1444
g100
g101
ssg82
g1433
sg75
(lp1445
S':'
asbag68
(g89
g70
NtRp1446
(dp1447
g73
(dp1448
sg82
g1433
sg75
(lp1449
g68
(g69
g70
NtRp1450
(dp1451
g73
(dp1452
g81
I5
ssg82
g1446
sg75
(lp1453
S'html'
p1454
asbasbasbag68
(g84
g70
NtRp1455
(dp1456
g73
(dp1457
sg82
g78
sg75
(lp1458
g68
(g89
g70
NtRp1459
(dp1460
g73
(dp1461
g93
g94
ssg82
g1455
sg75
(lp1462
S'folder'
p1463
asbag68
(g89
g70
NtRp1464
(dp1465
g73
(dp1466
g100
g101
ssg82
g1455
sg75
(lp1467
S':'
asbag68
(g89
g70
NtRp1468
(dp1469
g73
(dp1470
sg82
g1455
sg75
(lp1471
g68
(g69
g70
NtRp1472
(dp1473
g73
(dp1474
g81
I5
ssg82
g1468
sg75
(lp1475
S'/windows/Users/Thomas/Dropbox/appz/2011/GAE/ddl-lagoon/applications/ddlagoon/'
p1476
asbasbasbag68
(g84
g70
NtRp1477
(dp1478
g73
(dp1479
sg82
g78
sg75
(lp1480
g68
(g89
g70
NtRp1481
(dp1482
g73
(dp1483
g93
g94
ssg82
g1477
sg75
(lp1484
S'function'
p1485
asbag68
(g89
g70
NtRp1486
(dp1487
g73
(dp1488
g100
g101
ssg82
g1477
sg75
(lp1489
S':'
asbag68
(g89
g70
NtRp1490
(dp1491
g73
(dp1492
sg82
g1477
sg75
(lp1493
g68
(g69
g70
NtRp1494
(dp1495
g73
(dp1496
g81
I5
ssg82
g1490
sg75
(lp1497
S'index'
p1498
asbasbasbag68
(g84
g70
NtRp1499
(dp1500
g73
(dp1501
sg82
g78
sg75
(lp1502
g68
(g89
g70
NtRp1503
(dp1504
g73
(dp1505
g93
g94
ssg82
g1499
sg75
(lp1506
S'get_vars'
p1507
asbag68
(g89
g70
NtRp1508
(dp1509
g73
(dp1510
g100
g101
ssg82
g1499
sg75
(lp1511
S':'
asbag68
(g89
g70
NtRp1512
(dp1513
g73
(dp1514
sg82
g1499
sg75
(lp1515
g68
(g69
g70
NtRp1516
(dp1517
g73
(dp1518
g81
I5
ssg82
g1512
sg75
(lp1519
g68
(g77
g70
NtRp1520
(dp1521
g73
(dp1522
g81
I4
ssg82
Nsg75
(lp1523
sbasbasbasbag68
(g84
g70
NtRp1524
(dp1525
g73
(dp1526
sg82
g78
sg75
(lp1527
g68
(g89
g70
NtRp1528
(dp1529
g73
(dp1530
g93
g94
ssg82
g1524
sg75
(lp1531
S'global_settings'
p1532
asbag68
(g89
g70
NtRp1533
(dp1534
g73
(dp1535
g100
g101
ssg82
g1524
sg75
(lp1536
S':'
asbag68
(g89
g70
NtRp1537
(dp1538
g73
(dp1539
sg82
g1524
sg75
(lp1540
g68
(g69
g70
NtRp1541
(dp1542
g73
(dp1543
g81
I5
ssg82
g1537
sg75
(lp1544
g68
(g77
g70
NtRp1545
(dp1546
g73
(dp1547
g81
I4
ssg82
Nsg75
(lp1548
g68
(g84
g70
NtRp1549
(dp1550
g73
(dp1551
sg82
g1545
sg75
(lp1552
g68
(g89
g70
NtRp1553
(dp1554
g73
(dp1555
g93
g94
ssg82
g1549
sg75
(lp1556
g475
asbag68
(g89
g70
NtRp1557
(dp1558
g73
(dp1559
g100
g101
ssg82
g1549
sg75
(lp1560
S':'
asbag68
(g89
g70
NtRp1561
(dp1562
g73
(dp1563
sg82
g1549
sg75
(lp1564
g68
(g69
g70
NtRp1565
(dp1566
g73
(dp1567
g81
I4
ssg82
g1561
sg75
(lp1568
S"set(['/windows/Users/Thomas/Dropbox/appz/2011/GAE/ddl-lagoon/applications/ddlagoon/'])"
p1569
asbasbasbag68
(g84
g70
NtRp1570
(dp1571
g73
(dp1572
sg82
g1545
sg75
(lp1573
g68
(g89
g70
NtRp1574
(dp1575
g73
(dp1576
g93
g94
ssg82
g1570
sg75
(lp1577
g497
asbag68
(g89
g70
NtRp1578
(dp1579
g73
(dp1580
g100
g101
ssg82
g1570
sg75
(lp1581
S':'
asbag68
(g89
g70
NtRp1582
(dp1583
g73
(dp1584
sg82
g1570
sg75
(lp1585
g68
(g69
g70
NtRp1586
(dp1587
g73
(dp1588
g81
I4
ssg82
g1582
sg75
(lp1589
g510
asbasbasbag68
(g84
g70
NtRp1590
(dp1591
g73
(dp1592
sg82
g1545
sg75
(lp1593
g68
(g89
g70
NtRp1594
(dp1595
g73
(dp1596
g93
g94
ssg82
g1590
sg75
(lp1597
g519
asbag68
(g89
g70
NtRp1598
(dp1599
g73
(dp1600
g100
g101
ssg82
g1590
sg75
(lp1601
S':'
asbag68
(g89
g70
NtRp1602
(dp1603
g73
(dp1604
sg82
g1590
sg75
(lp1605
g68
(g69
g70
NtRp1606
(dp1607
g73
(dp1608
g81
I4
ssg82
g1602
sg75
(lp1609
g68
(g77
g70
NtRp1610
(dp1611
g73
(dp1612
g81
I3
ssg82
Nsg75
(lp1613
sbasbasbasbag68
(g84
g70
NtRp1614
(dp1615
g73
(dp1616
sg82
g1545
sg75
(lp1617
g68
(g89
g70
NtRp1618
(dp1619
g73
(dp1620
g93
g94
ssg82
g1614
sg75
(lp1621
g544
asbag68
(g89
g70
NtRp1622
(dp1623
g73
(dp1624
g100
g101
ssg82
g1614
sg75
(lp1625
S':'
asbag68
(g89
g70
NtRp1626
(dp1627
g73
(dp1628
sg82
g1614
sg75
(lp1629
g68
(g69
g70
NtRp1630
(dp1631
g73
(dp1632
g81
I4
ssg82
g1626
sg75
(lp1633
S"<Values at 0x1e2b170: {'verbose': False, 'ip': '127.0.0.1', 'shutdown_timeout': 5, 'taskbar': False, 'nocron': False, 'pid_filename': 'httpserver.pid', 'maxthreads': None, 'softcron': False, 'server_name': 'VPCF22AJ', 'bpython': False, 'nogui': False, 'port': 8000, 'extcron': False, 'debuglevel': 30, 'test': None, 'folder': '/windows/Users/Thomas/Dropbox/appz/2011/GAE/ddl-lagoon', 'config': '', 'import_models': False, 'winservice': '', 'shell': None, 'run': '', 'log_filename': 'httpserver.log', 'args': [''], 'ssl_ca_certificate': None, 'scheduler': None, 'profiler_filename': None, 'ssl_private_key': '', 'password': 'admin', 'request_queue_size': 5, 'ssl_certificate': '', 'cronjob': False, 'plain': False, 'quiet': False, 'interfaces': None, 'minthreads': None, 'timeout': 10, 'numthreads': None, 'nobanner': False}>"
p1634
asbasbasbag68
(g84
g70
NtRp1635
(dp1636
g73
(dp1637
sg82
g1545
sg75
(lp1638
g68
(g89
g70
NtRp1639
(dp1640
g73
(dp1641
g93
g94
ssg82
g1635
sg75
(lp1642
g566
asbag68
(g89
g70
NtRp1643
(dp1644
g73
(dp1645
g100
g101
ssg82
g1635
sg75
(lp1646
S':'
asbag68
(g89
g70
NtRp1647
(dp1648
g73
(dp1649
sg82
g1635
sg75
(lp1650
g68
(g69
g70
NtRp1651
(dp1652
g73
(dp1653
g81
I4
ssg82
g1647
sg75
(lp1654
S'set([])'
p1655
asbasbasbag68
(g84
g70
NtRp1656
(dp1657
g73
(dp1658
sg82
g1545
sg75
(lp1659
g68
(g89
g70
NtRp1660
(dp1661
g73
(dp1662
g93
g94
ssg82
g1656
sg75
(lp1663
g588
asbag68
(g89
g70
NtRp1664
(dp1665
g73
(dp1666
g100
g101
ssg82
g1656
sg75
(lp1667
S':'
asbag68
(g89
g70
NtRp1668
(dp1669
g73
(dp1670
sg82
g1656
sg75
(lp1671
g68
(g69
g70
NtRp1672
(dp1673
g73
(dp1674
g81
I4
ssg82
g1668
sg75
(lp1675
g111
asbasbasbag68
(g84
g70
NtRp1676
(dp1677
g73
(dp1678
sg82
g1545
sg75
(lp1679
g68
(g89
g70
NtRp1680
(dp1681
g73
(dp1682
g93
g94
ssg82
g1676
sg75
(lp1683
g609
asbag68
(g89
g70
NtRp1684
(dp1685
g73
(dp1686
g100
g101
ssg82
g1676
sg75
(lp1687
S':'
asbag68
(g89
g70
NtRp1688
(dp1689
g73
(dp1690
sg82
g1676
sg75
(lp1691
g68
(g69
g70
NtRp1692
(dp1693
g73
(dp1694
g81
I4
ssg82
g1688
sg75
(lp1695
g622
asbasbasbag68
(g84
g70
NtRp1696
(dp1697
g73
(dp1698
sg82
g1545
sg75
(lp1699
g68
(g89
g70
NtRp1700
(dp1701
g73
(dp1702
g93
g94
ssg82
g1696
sg75
(lp1703
g829
asbag68
(g89
g70
NtRp1704
(dp1705
g73
(dp1706
g100
g101
ssg82
g1696
sg75
(lp1707
S':'
asbag68
(g89
g70
NtRp1708
(dp1709
g73
(dp1710
sg82
g1696
sg75
(lp1711
g68
(g69
g70
NtRp1712
(dp1713
g73
(dp1714
g81
I4
ssg82
g1708
sg75
(lp1715
g111
asbasbasbag68
(g84
g70
NtRp1716
(dp1717
g73
(dp1718
sg82
g1545
sg75
(lp1719
g68
(g89
g70
NtRp1720
(dp1721
g73
(dp1722
g93
g94
ssg82
g1716
sg75
(lp1723
g1088
asbag68
(g89
g70
NtRp1724
(dp1725
g73
(dp1726
g100
g101
ssg82
g1716
sg75
(lp1727
S':'
asbag68
(g89
g70
NtRp1728
(dp1729
g73
(dp1730
sg82
g1716
sg75
(lp1731
g68
(g69
g70
NtRp1732
(dp1733
g73
(dp1734
g81
I4
ssg82
g1728
sg75
(lp1735
g1101
asbasbasbag68
(g84
g70
NtRp1736
(dp1737
g73
(dp1738
sg82
g1545
sg75
(lp1739
g68
(g89
g70
NtRp1740
(dp1741
g73
(dp1742
g93
g94
ssg82
g1736
sg75
(lp1743
g1152
asbag68
(g89
g70
NtRp1744
(dp1745
g73
(dp1746
g100
g101
ssg82
g1736
sg75
(lp1747
S':'
asbag68
(g89
g70
NtRp1748
(dp1749
g73
(dp1750
sg82
g1736
sg75
(lp1751
g68
(g69
g70
NtRp1752
(dp1753
g73
(dp1754
g81
I4
ssg82
g1748
sg75
(lp1755
g68
(g77
g70
NtRp1756
(dp1757
g73
(dp1758
g81
I3
ssg82
Nsg75
(lp1759
g68
(g84
g70
NtRp1760
(dp1761
g73
(dp1762
sg82
g1756
sg75
(lp1763
g68
(g89
g70
NtRp1764
(dp1765
g73
(dp1766
sg82
g1760
sg75
(lp1767
g68
(g69
g70
NtRp1768
(dp1769
g73
(dp1770
g81
I3
ssg82
g1764
sg75
(lp1771
S'1'
asbasbasbag68
(g84
g70
NtRp1772
(dp1773
g73
(dp1774
sg82
g1756
sg75
(lp1775
g68
(g89
g70
NtRp1776
(dp1777
g73
(dp1778
sg82
g1772
sg75
(lp1779
g68
(g69
g70
NtRp1780
(dp1781
g73
(dp1782
g81
I3
ssg82
g1776
sg75
(lp1783
S'99'
p1784
asbasbasbag68
(g84
g70
NtRp1785
(dp1786
g73
(dp1787
sg82
g1756
sg75
(lp1788
g68
(g89
g70
NtRp1789
(dp1790
g73
(dp1791
sg82
g1785
sg75
(lp1792
g68
(g69
g70
NtRp1793
(dp1794
g73
(dp1795
g81
I3
ssg82
g1789
sg75
(lp1796
S'2'
asbasbasbag68
(g84
g70
NtRp1797
(dp1798
g73
(dp1799
sg82
g1756
sg75
(lp1800
g68
(g89
g70
NtRp1801
(dp1802
g73
(dp1803
sg82
g1797
sg75
(lp1804
g68
(g69
g70
NtRp1805
(dp1806
g73
(dp1807
g81
I3
ssg82
g1801
sg75
(lp1808
S'datetime.datetime(2011, 9, 26, 6, 55, 33)'
p1809
asbasbasbag68
(g84
g70
NtRp1810
(dp1811
g73
(dp1812
sg82
g1756
sg75
(lp1813
g68
(g89
g70
NtRp1814
(dp1815
g73
(dp1816
sg82
g1810
sg75
(lp1817
g68
(g69
g70
NtRp1818
(dp1819
g73
(dp1820
g81
I3
ssg82
g1814
sg75
(lp1821
g1231
asbasbasbasbasbasbasbasbasbasbasbag68
(g84
g70
NtRp1822
(dp1823
g73
(dp1824
sg82
g78
sg75
(lp1825
g68
(g89
g70
NtRp1826
(dp1827
g73
(dp1828
g93
g94
ssg82
g1822
sg75
(lp1829
S'is_https'
p1830
asbag68
(g89
g70
NtRp1831
(dp1832
g73
(dp1833
g100
g101
ssg82
g1822
sg75
(lp1834
S':'
asbag68
(g89
g70
NtRp1835
(dp1836
g73
(dp1837
sg82
g1822
sg75
(lp1838
g68
(g69
g70
NtRp1839
(dp1840
g73
(dp1841
g81
I5
ssg82
g1835
sg75
(lp1842
g111
asbasbasbag68
(g84
g70
NtRp1843
(dp1844
g73
(dp1845
sg82
g78
sg75
(lp1846
g68
(g89
g70
NtRp1847
(dp1848
g73
(dp1849
g93
g94
ssg82
g1843
sg75
(lp1850
S'is_local'
p1851
asbag68
(g89
g70
NtRp1852
(dp1853
g73
(dp1854
g100
g101
ssg82
g1843
sg75
(lp1855
S':'
asbag68
(g89
g70
NtRp1856
(dp1857
g73
(dp1858
sg82
g1843
sg75
(lp1859
g68
(g69
g70
NtRp1860
(dp1861
g73
(dp1862
g81
I5
ssg82
g1856
sg75
(lp1863
g1340
asbasbasbag68
(g84
g70
NtRp1864
(dp1865
g73
(dp1866
sg82
g78
sg75
(lp1867
g68
(g89
g70
NtRp1868
(dp1869
g73
(dp1870
g93
g94
ssg82
g1864
sg75
(lp1871
S'is_restful'
p1872
asbag68
(g89
g70
NtRp1873
(dp1874
g73
(dp1875
g100
g101
ssg82
g1864
sg75
(lp1876
S':'
asbag68
(g89
g70
NtRp1877
(dp1878
g73
(dp1879
sg82
g1864
sg75
(lp1880
g68
(g69
g70
NtRp1881
(dp1882
g73
(dp1883
g81
I5
ssg82
g1877
sg75
(lp1884
g111
asbasbasbag68
(g84
g70
NtRp1885
(dp1886
g73
(dp1887
sg82
g78
sg75
(lp1888
g68
(g89
g70
NtRp1889
(dp1890
g73
(dp1891
g93
g94
ssg82
g1885
sg75
(lp1892
S'now'
p1893
asbag68
(g89
g70
NtRp1894
(dp1895
g73
(dp1896
g100
g101
ssg82
g1885
sg75
(lp1897
S':'
asbag68
(g89
g70
NtRp1898
(dp1899
g73
(dp1900
sg82
g1885
sg75
(lp1901
g68
(g69
g70
NtRp1902
(dp1903
g73
(dp1904
g81
I5
ssg82
g1898
sg75
(lp1905
S'datetime.datetime(2011, 10, 28, 19, 45, 57, 489100)'
p1906
asbasbasbag68
(g84
g70
NtRp1907
(dp1908
g73
(dp1909
sg82
g78
sg75
(lp1910
g68
(g89
g70
NtRp1911
(dp1912
g73
(dp1913
g93
g94
ssg82
g1907
sg75
(lp1914
S'post_vars'
p1915
asbag68
(g89
g70
NtRp1916
(dp1917
g73
(dp1918
g100
g101
ssg82
g1907
sg75
(lp1919
S':'
asbag68
(g89
g70
NtRp1920
(dp1921
g73
(dp1922
sg82
g1907
sg75
(lp1923
g68
(g69
g70
NtRp1924
(dp1925
g73
(dp1926
g81
I5
ssg82
g1920
sg75
(lp1927
g68
(g77
g70
NtRp1928
(dp1929
g73
(dp1930
g81
I4
ssg82
Nsg75
(lp1931
sbasbasbasbag68
(g84
g70
NtRp1932
(dp1933
g73
(dp1934
sg82
g78
sg75
(lp1935
g68
(g89
g70
NtRp1936
(dp1937
g73
(dp1938
g93
g94
ssg82
g1932
sg75
(lp1939
S'url'
p1940
asbag68
(g89
g70
NtRp1941
(dp1942
g73
(dp1943
g100
g101
ssg82
g1932
sg75
(lp1944
S':'
asbag68
(g89
g70
NtRp1945
(dp1946
g73
(dp1947
sg82
g1932
sg75
(lp1948
g68
(g69
g70
NtRp1949
(dp1950
g73
(dp1951
g81
I5
ssg82
g1945
sg75
(lp1952
S'/ddlagoon/default/index'
p1953
asbasbasbag68
(g84
g70
NtRp1954
(dp1955
g73
(dp1956
sg82
g78
sg75
(lp1957
g68
(g89
g70
NtRp1958
(dp1959
g73
(dp1960
g93
g94
ssg82
g1954
sg75
(lp1961
S'utcnow'
p1962
asbag68
(g89
g70
NtRp1963
(dp1964
g73
(dp1965
g100
g101
ssg82
g1954
sg75
(lp1966
S':'
asbag68
(g89
g70
NtRp1967
(dp1968
g73
(dp1969
sg82
g1954
sg75
(lp1970
g68
(g69
g70
NtRp1971
(dp1972
g73
(dp1973
g81
I5
ssg82
g1967
sg75
(lp1974
S'datetime.datetime(2011, 10, 28, 18, 45, 57, 489112)'
p1975
asbasbasbag68
(g84
g70
NtRp1976
(dp1977
g73
(dp1978
sg82
g78
sg75
(lp1979
g68
(g89
g70
NtRp1980
(dp1981
g73
(dp1982
g93
g94
ssg82
g1976
sg75
(lp1983
S'uuid'
p1984
asbag68
(g89
g70
NtRp1985
(dp1986
g73
(dp1987
g100
g101
ssg82
g1976
sg75
(lp1988
S':'
asbag68
(g89
g70
NtRp1989
(dp1990
g73
(dp1991
sg82
g1976
sg75
(lp1992
g68
(g69
g70
NtRp1993
(dp1994
g73
(dp1995
g81
I5
ssg82
g1989
sg75
(lp1996
S'ddlagoon/127.0.0.1.2011-10-28.19-45-57.1ffb7bd8-ca80-4332-9da1-8dbb05361e8c'
p1997
asbasbasbag68
(g84
g70
NtRp1998
(dp1999
g73
(dp2000
sg82
g78
sg75
(lp2001
g68
(g89
g70
NtRp2002
(dp2003
g73
(dp2004
g93
g94
ssg82
g1998
sg75
(lp2005
S'vars'
p2006
asbag68
(g89
g70
NtRp2007
(dp2008
g73
(dp2009
g100
g101
ssg82
g1998
sg75
(lp2010
S':'
asbag68
(g89
g70
NtRp2011
(dp2012
g73
(dp2013
sg82
g1998
sg75
(lp2014
g68
(g69
g70
NtRp2015
(dp2016
g73
(dp2017
g81
I5
ssg82
g2011
sg75
(lp2018
g68
(g77
g70
NtRp2019
(dp2020
g73
(dp2021
g81
I4
ssg82
Nsg75
(lp2022
sbasbasbasbag68
(g84
g70
NtRp2023
(dp2024
g73
(dp2025
sg82
g78
sg75
(lp2026
g68
(g89
g70
NtRp2027
(dp2028
g73
(dp2029
g93
g94
ssg82
g2023
sg75
(lp2030
S'wsgi'
p2031
asbag68
(g89
g70
NtRp2032
(dp2033
g73
(dp2034
g100
g101
ssg82
g2023
sg75
(lp2035
S':'
asbag68
(g89
g70
NtRp2036
(dp2037
g73
(dp2038
sg82
g2023
sg75
(lp2039
g68
(g69
g70
NtRp2040
(dp2041
g73
(dp2042
g81
I5
ssg82
g2036
sg75
(lp2043
g68
(g77
g70
NtRp2044
(dp2045
g73
(dp2046
g81
I4
ssg82
Nsg75
(lp2047
g68
(g84
g70
NtRp2048
(dp2049
g73
(dp2050
sg82
g2044
sg75
(lp2051
g68
(g89
g70
NtRp2052
(dp2053
g73
(dp2054
g93
g94
ssg82
g2048
sg75
(lp2055
S'environ'
p2056
asbag68
(g89
g70
NtRp2057
(dp2058
g73
(dp2059
g100
g101
ssg82
g2048
sg75
(lp2060
S':'
asbag68
(g89
g70
NtRp2061
(dp2062
g73
(dp2063
sg82
g2048
sg75
(lp2064
g68
(g69
g70
NtRp2065
(dp2066
g73
(dp2067
g81
I4
ssg82
g2061
sg75
(lp2068
g68
(g77
g70
NtRp2069
(dp2070
g73
(dp2071
g81
I3
ssg82
Nsg75
(lp2072
g68
(g84
g70
NtRp2073
(dp2074
g73
(dp2075
sg82
g2069
sg75
(lp2076
g68
(g89
g70
NtRp2077
(dp2078
g73
(dp2079
g93
g94
ssg82
g2073
sg75
(lp2080
S'HTTP_ACCEPT'
p2081
asbag68
(g89
g70
NtRp2082
(dp2083
g73
(dp2084
g100
g101
ssg82
g2073
sg75
(lp2085
S':'
asbag68
(g89
g70
NtRp2086
(dp2087
g73
(dp2088
sg82
g2073
sg75
(lp2089
g68
(g69
g70
NtRp2090
(dp2091
g73
(dp2092
g81
I3
ssg82
g2086
sg75
(lp2093
g644
asbasbasbag68
(g84
g70
NtRp2094
(dp2095
g73
(dp2096
sg82
g2069
sg75
(lp2097
g68
(g89
g70
NtRp2098
(dp2099
g73
(dp2100
g93
g94
ssg82
g2094
sg75
(lp2101
S'HTTP_ACCEPT_CHARSET'
p2102
asbag68
(g89
g70
NtRp2103
(dp2104
g73
(dp2105
g100
g101
ssg82
g2094
sg75
(lp2106
S':'
asbag68
(g89
g70
NtRp2107
(dp2108
g73
(dp2109
sg82
g2094
sg75
(lp2110
g68
(g69
g70
NtRp2111
(dp2112
g73
(dp2113
g81
I3
ssg82
g2107
sg75
(lp2114
g666
asbasbasbag68
(g84
g70
NtRp2115
(dp2116
g73
(dp2117
sg82
g2069
sg75
(lp2118
g68
(g89
g70
NtRp2119
(dp2120
g73
(dp2121
g93
g94
ssg82
g2115
sg75
(lp2122
S'HTTP_ACCEPT_ENCODING'
p2123
asbag68
(g89
g70
NtRp2124
(dp2125
g73
(dp2126
g100
g101
ssg82
g2115
sg75
(lp2127
S':'
asbag68
(g89
g70
NtRp2128
(dp2129
g73
(dp2130
sg82
g2115
sg75
(lp2131
g68
(g69
g70
NtRp2132
(dp2133
g73
(dp2134
g81
I3
ssg82
g2128
sg75
(lp2135
g688
asbasbasbag68
(g84
g70
NtRp2136
(dp2137
g73
(dp2138
sg82
g2069
sg75
(lp2139
g68
(g89
g70
NtRp2140
(dp2141
g73
(dp2142
g93
g94
ssg82
g2136
sg75
(lp2143
S'HTTP_ACCEPT_LANGUAGE'
p2144
asbag68
(g89
g70
NtRp2145
(dp2146
g73
(dp2147
g100
g101
ssg82
g2136
sg75
(lp2148
S':'
asbag68
(g89
g70
NtRp2149
(dp2150
g73
(dp2151
sg82
g2136
sg75
(lp2152
g68
(g69
g70
NtRp2153
(dp2154
g73
(dp2155
g81
I3
ssg82
g2149
sg75
(lp2156
g710
asbasbasbag68
(g84
g70
NtRp2157
(dp2158
g73
(dp2159
sg82
g2069
sg75
(lp2160
g68
(g89
g70
NtRp2161
(dp2162
g73
(dp2163
g93
g94
ssg82
g2157
sg75
(lp2164
S'HTTP_CACHE_CONTROL'
p2165
asbag68
(g89
g70
NtRp2166
(dp2167
g73
(dp2168
g100
g101
ssg82
g2157
sg75
(lp2169
S':'
asbag68
(g89
g70
NtRp2170
(dp2171
g73
(dp2172
sg82
g2157
sg75
(lp2173
g68
(g69
g70
NtRp2174
(dp2175
g73
(dp2176
g81
I3
ssg82
g2170
sg75
(lp2177
g732
asbasbasbag68
(g84
g70
NtRp2178
(dp2179
g73
(dp2180
sg82
g2069
sg75
(lp2181
g68
(g89
g70
NtRp2182
(dp2183
g73
(dp2184
g93
g94
ssg82
g2178
sg75
(lp2185
S'HTTP_CONNECTION'
p2186
asbag68
(g89
g70
NtRp2187
(dp2188
g73
(dp2189
g100
g101
ssg82
g2178
sg75
(lp2190
S':'
asbag68
(g89
g70
NtRp2191
(dp2192
g73
(dp2193
sg82
g2178
sg75
(lp2194
g68
(g69
g70
NtRp2195
(dp2196
g73
(dp2197
g81
I3
ssg82
g2191
sg75
(lp2198
g754
asbasbasbag68
(g84
g70
NtRp2199
(dp2200
g73
(dp2201
sg82
g2069
sg75
(lp2202
g68
(g89
g70
NtRp2203
(dp2204
g73
(dp2205
g93
g94
ssg82
g2199
sg75
(lp2206
S'HTTP_COOKIE'
p2207
asbag68
(g89
g70
NtRp2208
(dp2209
g73
(dp2210
g100
g101
ssg82
g2199
sg75
(lp2211
S':'
asbag68
(g89
g70
NtRp2212
(dp2213
g73
(dp2214
sg82
g2199
sg75
(lp2215
g68
(g69
g70
NtRp2216
(dp2217
g73
(dp2218
g81
I3
ssg82
g2212
sg75
(lp2219
g776
asbasbasbag68
(g84
g70
NtRp2220
(dp2221
g73
(dp2222
sg82
g2069
sg75
(lp2223
g68
(g89
g70
NtRp2224
(dp2225
g73
(dp2226
g93
g94
ssg82
g2220
sg75
(lp2227
S'HTTP_HOST'
p2228
asbag68
(g89
g70
NtRp2229
(dp2230
g73
(dp2231
g100
g101
ssg82
g2220
sg75
(lp2232
S':'
asbag68
(g89
g70
NtRp2233
(dp2234
g73
(dp2235
sg82
g2220
sg75
(lp2236
g68
(g69
g70
NtRp2237
(dp2238
g73
(dp2239
g81
I3
ssg82
g2233
sg75
(lp2240
g798
asbasbasbag68
(g84
g70
NtRp2241
(dp2242
g73
(dp2243
sg82
g2069
sg75
(lp2244
g68
(g89
g70
NtRp2245
(dp2246
g73
(dp2247
g93
g94
ssg82
g2241
sg75
(lp2248
S'HTTP_USER_AGENT'
p2249
asbag68
(g89
g70
NtRp2250
(dp2251
g73
(dp2252
g100
g101
ssg82
g2241
sg75
(lp2253
S':'
asbag68
(g89
g70
NtRp2254
(dp2255
g73
(dp2256
sg82
g2241
sg75
(lp2257
g68
(g69
g70
NtRp2258
(dp2259
g73
(dp2260
g81
I3
ssg82
g2254
sg75
(lp2261
g820
asbasbasbag68
(g84
g70
NtRp2262
(dp2263
g73
(dp2264
sg82
g2069
sg75
(lp2265
g68
(g89
g70
NtRp2266
(dp2267
g73
(dp2268
g93
g94
ssg82
g2262
sg75
(lp2269
S'PATH_INFO'
p2270
asbag68
(g89
g70
NtRp2271
(dp2272
g73
(dp2273
g100
g101
ssg82
g2262
sg75
(lp2274
S':'
asbag68
(g89
g70
NtRp2275
(dp2276
g73
(dp2277
sg82
g2262
sg75
(lp2278
g68
(g69
g70
NtRp2279
(dp2280
g73
(dp2281
g81
I3
ssg82
g2275
sg75
(lp2282
g863
asbasbasbag68
(g84
g70
NtRp2283
(dp2284
g73
(dp2285
sg82
g2069
sg75
(lp2286
g68
(g89
g70
NtRp2287
(dp2288
g73
(dp2289
g93
g94
ssg82
g2283
sg75
(lp2290
S'QUERY_STRING'
p2291
asbag68
(g89
g70
NtRp2292
(dp2293
g73
(dp2294
g100
g101
ssg82
g2283
sg75
(lp2295
S':'
asbag68
(g89
g70
NtRp2296
(dp2297
g73
(dp2298
sg82
g2283
sg75
(lp2299
g68
(g69
g70
NtRp2300
(dp2301
g73
(dp2302
g81
I3
ssg82
g2296
sg75
(lp2303
S''
asbasbasbag68
(g84
g70
NtRp2304
(dp2305
g73
(dp2306
sg82
g2069
sg75
(lp2307
g68
(g89
g70
NtRp2308
(dp2309
g73
(dp2310
g93
g94
ssg82
g2304
sg75
(lp2311
S'REMOTE_ADDR'
p2312
asbag68
(g89
g70
NtRp2313
(dp2314
g73
(dp2315
g100
g101
ssg82
g2304
sg75
(lp2316
S':'
asbag68
(g89
g70
NtRp2317
(dp2318
g73
(dp2319
sg82
g2304
sg75
(lp2320
g68
(g69
g70
NtRp2321
(dp2322
g73
(dp2323
g81
I3
ssg82
g2317
sg75
(lp2324
g201
asbasbasbag68
(g84
g70
NtRp2325
(dp2326
g73
(dp2327
sg82
g2069
sg75
(lp2328
g68
(g89
g70
NtRp2329
(dp2330
g73
(dp2331
g93
g94
ssg82
g2325
sg75
(lp2332
S'REMOTE_PORT'
p2333
asbag68
(g89
g70
NtRp2334
(dp2335
g73
(dp2336
g100
g101
ssg82
g2325
sg75
(lp2337
S':'
asbag68
(g89
g70
NtRp2338
(dp2339
g73
(dp2340
sg82
g2325
sg75
(lp2341
g68
(g69
g70
NtRp2342
(dp2343
g73
(dp2344
g81
I3
ssg82
g2338
sg75
(lp2345
g927
asbasbasbag68
(g84
g70
NtRp2346
(dp2347
g73
(dp2348
sg82
g2069
sg75
(lp2349
g68
(g89
g70
NtRp2350
(dp2351
g73
(dp2352
g93
g94
ssg82
g2346
sg75
(lp2353
S'REQUEST_METHOD'
p2354
asbag68
(g89
g70
NtRp2355
(dp2356
g73
(dp2357
g100
g101
ssg82
g2346
sg75
(lp2358
S':'
asbag68
(g89
g70
NtRp2359
(dp2360
g73
(dp2361
sg82
g2346
sg75
(lp2362
g68
(g69
g70
NtRp2363
(dp2364
g73
(dp2365
g81
I3
ssg82
g2359
sg75
(lp2366
g949
asbasbasbag68
(g84
g70
NtRp2367
(dp2368
g73
(dp2369
sg82
g2069
sg75
(lp2370
g68
(g89
g70
NtRp2371
(dp2372
g73
(dp2373
g93
g94
ssg82
g2367
sg75
(lp2374
S'REQUEST_URI'
p2375
asbag68
(g89
g70
NtRp2376
(dp2377
g73
(dp2378
g100
g101
ssg82
g2367
sg75
(lp2379
S':'
asbag68
(g89
g70
NtRp2380
(dp2381
g73
(dp2382
sg82
g2367
sg75
(lp2383
g68
(g69
g70
NtRp2384
(dp2385
g73
(dp2386
g81
I3
ssg82
g2380
sg75
(lp2387
g863
asbasbasbag68
(g84
g70
NtRp2388
(dp2389
g73
(dp2390
sg82
g2069
sg75
(lp2391
g68
(g89
g70
NtRp2392
(dp2393
g73
(dp2394
g93
g94
ssg82
g2388
sg75
(lp2395
S'SCRIPT_NAME'
p2396
asbag68
(g89
g70
NtRp2397
(dp2398
g73
(dp2399
g100
g101
ssg82
g2388
sg75
(lp2400
S':'
asbag68
(g89
g70
NtRp2401
(dp2402
g73
(dp2403
sg82
g2388
sg75
(lp2404
g68
(g69
g70
NtRp2405
(dp2406
g73
(dp2407
g81
I3
ssg82
g2401
sg75
(lp2408
S''
asbasbasbag68
(g84
g70
NtRp2409
(dp2410
g73
(dp2411
sg82
g2069
sg75
(lp2412
g68
(g89
g70
NtRp2413
(dp2414
g73
(dp2415
g93
g94
ssg82
g2409
sg75
(lp2416
S'SERVER_NAME'
p2417
asbag68
(g89
g70
NtRp2418
(dp2419
g73
(dp2420
g100
g101
ssg82
g2409
sg75
(lp2421
S':'
asbag68
(g89
g70
NtRp2422
(dp2423
g73
(dp2424
sg82
g2409
sg75
(lp2425
g68
(g69
g70
NtRp2426
(dp2427
g73
(dp2428
g81
I3
ssg82
g2422
sg75
(lp2429
g1013
asbasbasbag68
(g84
g70
NtRp2430
(dp2431
g73
(dp2432
sg82
g2069
sg75
(lp2433
g68
(g89
g70
NtRp2434
(dp2435
g73
(dp2436
g93
g94
ssg82
g2430
sg75
(lp2437
S'SERVER_PORT'
p2438
asbag68
(g89
g70
NtRp2439
(dp2440
g73
(dp2441
g100
g101
ssg82
g2430
sg75
(lp2442
S':'
asbag68
(g89
g70
NtRp2443
(dp2444
g73
(dp2445
sg82
g2430
sg75
(lp2446
g68
(g69
g70
NtRp2447
(dp2448
g73
(dp2449
g81
I3
ssg82
g2443
sg75
(lp2450
g1035
asbasbasbag68
(g84
g70
NtRp2451
(dp2452
g73
(dp2453
sg82
g2069
sg75
(lp2454
g68
(g89
g70
NtRp2455
(dp2456
g73
(dp2457
g93
g94
ssg82
g2451
sg75
(lp2458
S'SERVER_PROTOCOL'
p2459
asbag68
(g89
g70
NtRp2460
(dp2461
g73
(dp2462
g100
g101
ssg82
g2451
sg75
(lp2463
S':'
asbag68
(g89
g70
NtRp2464
(dp2465
g73
(dp2466
sg82
g2451
sg75
(lp2467
g68
(g69
g70
NtRp2468
(dp2469
g73
(dp2470
g81
I3
ssg82
g2464
sg75
(lp2471
g1057
asbasbasbag68
(g84
g70
NtRp2472
(dp2473
g73
(dp2474
sg82
g2069
sg75
(lp2475
g68
(g89
g70
NtRp2476
(dp2477
g73
(dp2478
g93
g94
ssg82
g2472
sg75
(lp2479
S'SERVER_SOFTWARE'
p2480
asbag68
(g89
g70
NtRp2481
(dp2482
g73
(dp2483
g100
g101
ssg82
g2472
sg75
(lp2484
S':'
asbag68
(g89
g70
NtRp2485
(dp2486
g73
(dp2487
sg82
g2472
sg75
(lp2488
g68
(g69
g70
NtRp2489
(dp2490
g73
(dp2491
g81
I3
ssg82
g2485
sg75
(lp2492
g1079
asbasbasbag68
(g84
g70
NtRp2493
(dp2494
g73
(dp2495
sg82
g2069
sg75
(lp2496
g68
(g89
g70
NtRp2497
(dp2498
g73
(dp2499
g93
g94
ssg82
g2493
sg75
(lp2500
S'WEB2PY_ORIGINAL_URI'
p2501
asbag68
(g89
g70
NtRp2502
(dp2503
g73
(dp2504
g100
g101
ssg82
g2493
sg75
(lp2505
S':'
asbag68
(g89
g70
NtRp2506
(dp2507
g73
(dp2508
sg82
g2493
sg75
(lp2509
g68
(g69
g70
NtRp2510
(dp2511
g73
(dp2512
g81
I3
ssg82
g2506
sg75
(lp2513
g863
asbasbasbag68
(g84
g70
NtRp2514
(dp2515
g73
(dp2516
sg82
g2069
sg75
(lp2517
g68
(g89
g70
NtRp2518
(dp2519
g73
(dp2520
g93
g94
ssg82
g2514
sg75
(lp2521
S'wsgi.errors'
p2522
asbag68
(g89
g70
NtRp2523
(dp2524
g73
(dp2525
g100
g101
ssg82
g2514
sg75
(lp2526
S':'
asbag68
(g89
g70
NtRp2527
(dp2528
g73
(dp2529
sg82
g2514
sg75
(lp2530
g68
(g69
g70
NtRp2531
(dp2532
g73
(dp2533
g81
I3
ssg82
g2527
sg75
(lp2534
S"<open file '<stderr>', mode 'w' at 0x7fa4afe891e0>"
p2535
asbasbasbag68
(g84
g70
NtRp2536
(dp2537
g73
(dp2538
sg82
g2069
sg75
(lp2539
g68
(g89
g70
NtRp2540
(dp2541
g73
(dp2542
g93
g94
ssg82
g2536
sg75
(lp2543
S'wsgi.file_wrapper'
p2544
asbag68
(g89
g70
NtRp2545
(dp2546
g73
(dp2547
g100
g101
ssg82
g2536
sg75
(lp2548
S':'
asbag68
(g89
g70
NtRp2549
(dp2550
g73
(dp2551
sg82
g2536
sg75
(lp2552
g68
(g69
g70
NtRp2553
(dp2554
g73
(dp2555
g81
I3
ssg82
g2549
sg75
(lp2556
S'<class wsgiref.util.FileWrapper at 0x1bbf590>'
p2557
asbasbasbag68
(g84
g70
NtRp2558
(dp2559
g73
(dp2560
sg82
g2069
sg75
(lp2561
g68
(g89
g70
NtRp2562
(dp2563
g73
(dp2564
g93
g94
ssg82
g2558
sg75
(lp2565
S'wsgi.input'
p2566
asbag68
(g89
g70
NtRp2567
(dp2568
g73
(dp2569
g100
g101
ssg82
g2558
sg75
(lp2570
S':'
asbag68
(g89
g70
NtRp2571
(dp2572
g73
(dp2573
sg82
g2558
sg75
(lp2574
g68
(g69
g70
NtRp2575
(dp2576
g73
(dp2577
g81
I3
ssg82
g2571
sg75
(lp2578
S'<cStringIO.StringO object at 0x22ab420>'
p2579
asbasbasbag68
(g84
g70
NtRp2580
(dp2581
g73
(dp2582
sg82
g2069
sg75
(lp2583
g68
(g89
g70
NtRp2584
(dp2585
g73
(dp2586
g93
g94
ssg82
g2580
sg75
(lp2587
S'wsgi.multiprocess'
p2588
asbag68
(g89
g70
NtRp2589
(dp2590
g73
(dp2591
g100
g101
ssg82
g2580
sg75
(lp2592
S':'
asbag68
(g89
g70
NtRp2593
(dp2594
g73
(dp2595
sg82
g2580
sg75
(lp2596
g68
(g69
g70
NtRp2597
(dp2598
g73
(dp2599
g81
I3
ssg82
g2593
sg75
(lp2600
g111
asbasbasbag68
(g84
g70
NtRp2601
(dp2602
g73
(dp2603
sg82
g2069
sg75
(lp2604
g68
(g89
g70
NtRp2605
(dp2606
g73
(dp2607
g93
g94
ssg82
g2601
sg75
(lp2608
S'wsgi.multithread'
p2609
asbag68
(g89
g70
NtRp2610
(dp2611
g73
(dp2612
g100
g101
ssg82
g2601
sg75
(lp2613
S':'
asbag68
(g89
g70
NtRp2614
(dp2615
g73
(dp2616
sg82
g2601
sg75
(lp2617
g68
(g69
g70
NtRp2618
(dp2619
g73
(dp2620
g81
I3
ssg82
g2614
sg75
(lp2621
g1340
asbasbasbag68
(g84
g70
NtRp2622
(dp2623
g73
(dp2624
sg82
g2069
sg75
(lp2625
g68
(g89
g70
NtRp2626
(dp2627
g73
(dp2628
g93
g94
ssg82
g2622
sg75
(lp2629
S'wsgi.run_once'
p2630
asbag68
(g89
g70
NtRp2631
(dp2632
g73
(dp2633
g100
g101
ssg82
g2622
sg75
(lp2634
S':'
asbag68
(g89
g70
NtRp2635
(dp2636
g73
(dp2637
sg82
g2622
sg75
(lp2638
g68
(g69
g70
NtRp2639
(dp2640
g73
(dp2641
g81
I3
ssg82
g2635
sg75
(lp2642
g111
asbasbasbag68
(g84
g70
NtRp2643
(dp2644
g73
(dp2645
sg82
g2069
sg75
(lp2646
g68
(g89
g70
NtRp2647
(dp2648
g73
(dp2649
g93
g94
ssg82
g2643
sg75
(lp2650
S'wsgi.url_scheme'
p2651
asbag68
(g89
g70
NtRp2652
(dp2653
g73
(dp2654
g100
g101
ssg82
g2643
sg75
(lp2655
S':'
asbag68
(g89
g70
NtRp2656
(dp2657
g73
(dp2658
sg82
g2643
sg75
(lp2659
g68
(g69
g70
NtRp2660
(dp2661
g73
(dp2662
g81
I3
ssg82
g2656
sg75
(lp2663
g1383
asbasbasbag68
(g84
g70
NtRp2664
(dp2665
g73
(dp2666
sg82
g2069
sg75
(lp2667
g68
(g89
g70
NtRp2668
(dp2669
g73
(dp2670
g93
g94
ssg82
g2664
sg75
(lp2671
S'wsgi.version'
p2672
asbag68
(g89
g70
NtRp2673
(dp2674
g73
(dp2675
g100
g101
ssg82
g2664
sg75
(lp2676
S':'
asbag68
(g89
g70
NtRp2677
(dp2678
g73
(dp2679
sg82
g2664
sg75
(lp2680
g68
(g69
g70
NtRp2681
(dp2682
g73
(dp2683
g81
I3
ssg82
g2677
sg75
(lp2684
S'1'
asbasbasbasbasbasbasbasbasbasbasbasbasbsS'frames'
p2685
(lp2686
(dp2687
S'file'
p2688
S'/windows/Users/Thomas/Dropbox/appz/2011/GAE/ddl-lagoon/gluon/restricted.py'
p2689
sS'dump'
p2690
(dp2691
S'environment'
p2692
S"{'A': <class 'gluon.html.A'>, 'Auth': <class 'gluon.tools.Auth'>, 'B': <class 'gluon.html.B'>, 'BEAUTIFY': <class 'gluon.html.BEAUTIFY'>, 'BODY': <class 'gluon.html.BODY'>, 'BR': <class 'gluon.html.BR'>, 'BUTTON': <class 'gluon.html.BUTTON'>, 'CAT': <class 'gluon.html.CAT'>, 'CENTER': <class 'gluon.html.CENTER'>, 'CLEANUP': <class 'gluon.validators.CLEANUP'>, ...}"
p2693
sS'ccode'
p2694
S'<code object <module> at 0x23010a8, file "/windo...ations/ddlagoon/controllers/default.py", line 11>'
p2695
ssS'lnum'
p2696
I194
sS'lines'
p2697
(dp2698
I192
S'        else:'
p2699
sI193
S'            ccode = compile2(code,layer)'
p2700
sI194
S'        exec ccode in environment'
p2701
sI195
S'    except HTTP:'
p2702
sI196
S'        raise'
p2703
sI197
S'    except Exception, error:'
p2704
sI198
S'        # XXX Show exception in Wing IDE if running in debugger'
p2705
sI189
S'    try:'
p2706
sI190
S'        if type(code) == types.CodeType:'
p2707
sI191
S'            ccode = code'
p2708
ssS'call'
p2709
S"(code='# -*- coding: utf-8 -*-\\n# this file is released ...=linux64)\\nresponse._vars=response._caller(index)\\n', environment={'A': <class 'gluon.html.A'>, 'Auth': <class 'gluon.tools.Auth'>, 'B': <class 'gluon.html.B'>, 'BEAUTIFY': <class 'gluon.html.BEAUTIFY'>, 'BODY': <class 'gluon.html.BODY'>, 'BR': <class 'gluon.html.BR'>, 'BUTTON': <class 'gluon.html.BUTTON'>, 'CAT': <class 'gluon.html.CAT'>, 'CENTER': <class 'gluon.html.CENTER'>, 'CLEANUP': <class 'gluon.validators.CLEANUP'>, ...}, layer='/windows/Users/Thomas/Dropbox/appz/2011/GAE/ddl-lagoon/applications/ddlagoon/controllers/default.py')"
p2710
sS'func'
p2711
S'restricted'
p2712
sa(dp2713
g2688
S'/windows/Users/Thomas/Dropbox/appz/2011/GAE/ddl-lagoon/applications/ddlagoon/controllers/default.py'
p2714
sg2690
(dp2715
sg2696
I352
sg2697
(dp2716
I342
S'#        return response.download(request, ddlFile)'
p2717
sI343
S'        response.headers[\'Content-Type\'] = "application/octet-stream"'
p2718
sI344
S"        response.headers['Content-Disposition'] = 'attachment; filename=%s.ddl' % ddl.filename"
p2719
sI345
S'        return encryptedMsg'
p2720
sI346
S''
sI347
S'def howto():'
p2721
sI348
S'    win32= "http://www.mediafire.com/?hhbfzm4i3t2n99h"'
p2722
sI349
S'    win64= "http://www.mediafire.com/?54t5ehe72p0i41p"'
p2723
sI350
S'    linux64= "http://www.mediafire.com/?5dy9bakpk8333xr"'
p2724
sI351
S'    return dict(win32=win32, win64=win64, linux64=linux64)'
p2725
ssg2709
S'()'
p2726
sg2711
S'<module>'
p2727
sa(dp2728
g2688
S'/windows/Users/Thomas/Dropbox/appz/2011/GAE/ddl-lagoon/gluon/globals.py'
p2729
sg2690
(dp2730
S'self'
p2731
S'undefined'
p2732
sS'f'
S'<function index>'
p2733
ssg2696
I149
sg2697
(dp2734
I144
S'        self.meta = Storage()      # used by web2py_ajax.html'
p2735
sI145
S'        self.menu = []             # used by the default view layout'
p2736
sI146
S'        self.files = []            # used by web2py_ajax.html'
p2737
sI147
S'        self.generic_patterns = [] # patterns to allow generic views'
p2738
sI148
S'        self._vars = None'
p2739
sI149
S'        self._caller = lambda f: f()'
p2740
sI150
S'        self._view_environment = None'
p2741
sI151
S'        self._custom_commit = None'
p2742
sI152
S'        self._custom_rollback = None'
p2743
sI153
S''
ssg2709
S'(f=<function index>)'
p2744
sg2711
S'<lambda>'
p2745
sa(dp2746
g2688
S'/windows/Users/Thomas/Dropbox/appz/2011/GAE/ddl-lagoon/applications/ddlagoon/controllers/default.py'
p2747
sg2690
(dp2748
S'orderby'
p2749
g2732
sS'sort'
p2750
g2732
sS'rows'
p2751
g2732
sS').select'
p2752
g2732
sS'limitby'
p2753
g2732
sS'r'
g2732
sS'db.ddl.date_added'
p2754
S'<gluon.dal.Field object>'
p2755
sS'global db'
p2756
S"<DAL {'auth_event': <Table {'origin': <gluon.dal..., 'id': <gluon.dal.Field object at 0x22bd410>}>}>"
p2757
sS'db.ddl.id'
p2758
S'<gluon.dal.Field object>'
p2759
sS'db.ddl'
p2760
S"<Table {'last_time_downloaded': <gluon.dal.Field...>, '_id': <gluon.dal.Field object at 0x22b39d0>}>"
p2761
ssg2696
I65
sg2697
(dp2762
I64
S'    """'
p2763
sI65
S"    rows= db(db.ddl.id>0).select(orderby=db.ddl.date_added, limitby=(0,10), sort=lambda r: not r['date_added'])"
p2764
sI66
S'    ddlz=[]'
p2765
sI67
S'    for row in rows:'
p2766
sI68
S"        difference = datetime.now()-row['date_added']"
p2767
sI69
S'        weeks, days = divmod(difference.days, 7)'
p2768
sI60
S'def index():'
p2769
sI61
S'    """'
p2770
sI62
S'    example action using the internationalization operator T and flash'
p2771
sI63
S'    rendered by views/default/index.html or views/generic.html'
p2772
ssg2709
S'()'
p2773
sg2711
S'index'
p2774
sa(dp2775
g2688
S'/windows/Users/Thomas/Dropbox/appz/2011/GAE/ddl-lagoon/gluon/dal.py'
p2776
sg2690
(dp2777
S'self.query'
p2778
S'<gluon.dal.Query object>'
p2779
sS'fields'
p2780
S'()'
p2781
sS'self'
p2782
S'<gluon.dal.Set object>'
p2783
sS'self.db._adapter.select'
p2784
S'<bound method SQLiteAdapter.select of <gluon.dal.SQLiteAdapter object>>'
p2785
sS'self.db._adapter'
p2786
S'<gluon.dal.SQLiteAdapter object>'
p2787
sS'attributes'
p2788
S"{'limitby': (0, 10), 'orderby': <gluon.dal.Field object>, 'sort': <function <lambda>>}"
p2789
sS'self.db'
p2790
S"<DAL {'auth_event': <Table {'origin': <gluon.dal..., 'id': <gluon.dal.Field object at 0x22bd410>}>}>"
p2791
ssg2696
I5697
sg2697
(dp2792
I5696
S'    def select(self, *fields, **attributes):'
p2793
sI5697
S'        return self.db._adapter.select(self.query,fields,attributes)'
p2794
sI5698
S''
sI5699
S'    def delete(self):'
p2795
sI5700
S'        tablename=self.db._adapter.get_table(self.query)'
p2796
sI5701
S'        self.delete_uploaded_files()'
p2797
sI5692
S''
sI5693
S'    def count(self,distinct=None):'
p2798
sI5694
S'        return self.db._adapter.count(self.query,distinct)'
p2799
sI5695
S''
ssg2709
S"(self=<gluon.dal.Set object>, *fields=(), **attributes={'limitby': (0, 10), 'orderby': <gluon.dal.Field object>, 'sort': <function <lambda>>})"
p2800
sg2711
S'select'
p2801
sa(dp2802
g2688
S'/windows/Users/Thomas/Dropbox/appz/2011/GAE/ddl-lagoon/gluon/dal.py'
p2803
sg2690
(dp2804
S'self._select'
p2805
S'<bound method SQLiteAdapter._select of <gluon.dal.SQLiteAdapter object>>'
p2806
sS'fields'
p2807
S'()'
p2808
sS'self'
p2809
S'<gluon.dal.SQLiteAdapter object>'
p2810
sS'sql'
p2811
g2732
sS'query'
p2812
S'<gluon.dal.Query object>'
p2813
sS'attributes'
p2814
S"{'limitby': (0, 10), 'orderby': <gluon.dal.Field object>, 'sort': <function <lambda>>}"
p2815
ssg2696
I1225
sg2697
(dp2816
I1220
S'        Always returns a Rows object, even if it may be empty'
p2817
sI1221
S'        """'
p2818
sI1222
S'        def response(sql):'
p2819
sI1223
S'            self.execute(sql)'
p2820
sI1224
S'            return self.cursor.fetchall()'
p2821
sI1225
S'        sql = self._select(query,fields,attributes)'
p2822
sI1226
S"        if attributes.get('cache', None):"
p2823
sI1227
S"            (cache_model, time_expire) = attributes['cache']"
p2824
sI1228
S"            del attributes['cache']"
p2825
sI1229
S"            key = self.uri + '/' + sql"
p2826
ssg2709
S"(self=<gluon.dal.SQLiteAdapter object>, query=<gluon.dal.Query object>, fields=(), attributes={'limitby': (0, 10), 'orderby': <gluon.dal.Field object>, 'sort': <function <lambda>>})"
p2827
sg2711
g2801
sa(dp2828
g2688
S'/windows/Users/Thomas/Dropbox/appz/2011/GAE/ddl-lagoon/gluon/dal.py'
p2829
sg2690
(dp2830
S'builtinSyntaxError'
p2831
S"<type 'exceptions.SyntaxError'>"
p2832
sS'key'
p2833
S"'sort'"
p2834
ssg2696
I1104
sg2697
(dp2835
I1099
S''
sI1100
S'    def _select(self, query, fields, attributes):'
p2836
sI1101
S"        for key in set(attributes.keys())-set(('orderby','groupby','limitby',"
p2837
sI1102
S"                                               'required','cache','left',"
p2838
sI1103
S"                                               'distinct','having', 'join')):"
p2839
sI1104
S"            raise SyntaxError, 'invalid select attribute: %s' % key"
p2840
sI1105
S'        # ## if not fields specified take them all from the requested tables'
p2841
sI1106
S'        new_fields = []'
p2842
sI1107
S'        for item in fields:'
p2843
sI1108
S'            if isinstance(item,SQLALL):'
p2844
ssg2709
S"(self=<gluon.dal.SQLiteAdapter object>, query=<gluon.dal.Query object>, fields=(), attributes={'limitby': (0, 10), 'orderby': <gluon.dal.Field object>, 'sort': <function <lambda>>})"
p2845
sg2711
S'_select'
p2846
sasS'pyver'
p2847
S'Python 2.6.7: /usr/bin/python2.6'
p2848
sS'session'
p2849
g68
(g69
g70
NtRp2850
(dp2851
g73
(dp2852
sg75
(lp2853
g68
(g77
g70
NtRp2854
(dp2855
g73
(dp2856
g81
I5
ssg82
Nsg75
(lp2857
sbasbsS'etype'
p2858
S"<type 'exceptions.SyntaxError'>"
p2859
sS'date'
p2860
S'Fri Oct 28 19:45:57 2011'
p2861
sS'response'
p2862
g68
(g69
g70
NtRp2863
(dp2864
g73
(dp2865
sg75
(lp2866
g68
(g77
g70
NtRp2867
(dp2868
g73
(dp2869
g81
I5
ssg82
Nsg75
(lp2870
g68
(g84
g70
NtRp2871
(dp2872
g73
(dp2873
sg82
g2867
sg75
(lp2874
g68
(g89
g70
NtRp2875
(dp2876
g73
(dp2877
g93
g94
ssg82
g2871
sg75
(lp2878
g166
asbag68
(g89
g70
NtRp2879
(dp2880
g73
(dp2881
g100
g101
ssg82
g2871
sg75
(lp2882
S':'
asbag68
(g89
g70
NtRp2883
(dp2884
g73
(dp2885
sg82
g2871
sg75
(lp2886
g68
(g69
g70
NtRp2887
(dp2888
g73
(dp2889
g81
I5
ssg82
g2883
sg75
(lp2890
S'<cStringIO.StringO object at 0x2286298>'
p2891
asbasbasbag68
(g84
g70
NtRp2892
(dp2893
g73
(dp2894
sg82
g2867
sg75
(lp2895
g68
(g89
g70
NtRp2896
(dp2897
g73
(dp2898
g93
g94
ssg82
g2892
sg75
(lp2899
g232
asbag68
(g89
g70
NtRp2900
(dp2901
g73
(dp2902
g100
g101
ssg82
g2892
sg75
(lp2903
S':'
asbag68
(g89
g70
NtRp2904
(dp2905
g73
(dp2906
sg82
g2892
sg75
(lp2907
g68
(g69
g70
NtRp2908
(dp2909
g73
(dp2910
g81
I5
ssg82
g2904
sg75
(lp2911
g68
(g77
g70
NtRp2912
(dp2913
g73
(dp2914
g81
I4
ssg82
Nsg75
(lp2915
g68
(g84
g70
NtRp2916
(dp2917
g73
(dp2918
sg82
g2912
sg75
(lp2919
g68
(g89
g70
NtRp2920
(dp2921
g73
(dp2922
g93
g94
ssg82
g2916
sg75
(lp2923
S'session_id_ddlagoon'
p2924
asbag68
(g89
g70
NtRp2925
(dp2926
g73
(dp2927
g100
g101
ssg82
g2916
sg75
(lp2928
S':'
asbag68
(g89
g70
NtRp2929
(dp2930
g73
(dp2931
sg82
g2916
sg75
(lp2932
g68
(g69
g70
NtRp2933
(dp2934
g73
(dp2935
g81
I4
ssg82
g2929
sg75
(lp2936
g68
(g77
g70
NtRp2937
(dp2938
g73
(dp2939
g81
I3
ssg82
Nsg75
(lp2940
g68
(g84
g70
NtRp2941
(dp2942
g73
(dp2943
sg82
g2937
sg75
(lp2944
g68
(g89
g70
NtRp2945
(dp2946
g73
(dp2947
g93
g94
ssg82
g2941
sg75
(lp2948
g282
asbag68
(g89
g70
NtRp2949
(dp2950
g73
(dp2951
g100
g101
ssg82
g2941
sg75
(lp2952
S':'
asbag68
(g89
g70
NtRp2953
(dp2954
g73
(dp2955
sg82
g2941
sg75
(lp2956
g68
(g69
g70
NtRp2957
(dp2958
g73
(dp2959
g81
I3
ssg82
g2953
sg75
(lp2960
S''
asbasbasbag68
(g84
g70
NtRp2961
(dp2962
g73
(dp2963
sg82
g2937
sg75
(lp2964
g68
(g89
g70
NtRp2965
(dp2966
g73
(dp2967
g93
g94
ssg82
g2961
sg75
(lp2968
g303
asbag68
(g89
g70
NtRp2969
(dp2970
g73
(dp2971
g100
g101
ssg82
g2961
sg75
(lp2972
S':'
asbag68
(g89
g70
NtRp2973
(dp2974
g73
(dp2975
sg82
g2961
sg75
(lp2976
g68
(g69
g70
NtRp2977
(dp2978
g73
(dp2979
g81
I3
ssg82
g2973
sg75
(lp2980
S''
asbasbasbag68
(g84
g70
NtRp2981
(dp2982
g73
(dp2983
sg82
g2937
sg75
(lp2984
g68
(g89
g70
NtRp2985
(dp2986
g73
(dp2987
g93
g94
ssg82
g2981
sg75
(lp2988
g324
asbag68
(g89
g70
NtRp2989
(dp2990
g73
(dp2991
g100
g101
ssg82
g2981
sg75
(lp2992
S':'
asbag68
(g89
g70
NtRp2993
(dp2994
g73
(dp2995
sg82
g2981
sg75
(lp2996
g68
(g69
g70
NtRp2997
(dp2998
g73
(dp2999
g81
I3
ssg82
g2993
sg75
(lp3000
S''
asbasbasbag68
(g84
g70
NtRp3001
(dp3002
g73
(dp3003
sg82
g2937
sg75
(lp3004
g68
(g89
g70
NtRp3005
(dp3006
g73
(dp3007
g93
g94
ssg82
g3001
sg75
(lp3008
g345
asbag68
(g89
g70
NtRp3009
(dp3010
g73
(dp3011
g100
g101
ssg82
g3001
sg75
(lp3012
S':'
asbag68
(g89
g70
NtRp3013
(dp3014
g73
(dp3015
sg82
g3001
sg75
(lp3016
g68
(g69
g70
NtRp3017
(dp3018
g73
(dp3019
g81
I3
ssg82
g3013
sg75
(lp3020
S''
asbasbasbag68
(g84
g70
NtRp3021
(dp3022
g73
(dp3023
sg82
g2937
sg75
(lp3024
g68
(g89
g70
NtRp3025
(dp3026
g73
(dp3027
g93
g94
ssg82
g3021
sg75
(lp3028
g366
asbag68
(g89
g70
NtRp3029
(dp3030
g73
(dp3031
g100
g101
ssg82
g3021
sg75
(lp3032
S':'
asbag68
(g89
g70
NtRp3033
(dp3034
g73
(dp3035
sg82
g3021
sg75
(lp3036
g68
(g69
g70
NtRp3037
(dp3038
g73
(dp3039
g81
I3
ssg82
g3033
sg75
(lp3040
S''
asbasbasbag68
(g84
g70
NtRp3041
(dp3042
g73
(dp3043
sg82
g2937
sg75
(lp3044
g68
(g89
g70
NtRp3045
(dp3046
g73
(dp3047
g93
g94
ssg82
g3041
sg75
(lp3048
g387
asbag68
(g89
g70
NtRp3049
(dp3050
g73
(dp3051
g100
g101
ssg82
g3041
sg75
(lp3052
S':'
asbag68
(g89
g70
NtRp3053
(dp3054
g73
(dp3055
sg82
g3041
sg75
(lp3056
g68
(g69
g70
NtRp3057
(dp3058
g73
(dp3059
g81
I3
ssg82
g3053
sg75
(lp3060
S'/'
asbasbasbag68
(g84
g70
NtRp3061
(dp3062
g73
(dp3063
sg82
g2937
sg75
(lp3064
g68
(g89
g70
NtRp3065
(dp3066
g73
(dp3067
g93
g94
ssg82
g3061
sg75
(lp3068
g408
asbag68
(g89
g70
NtRp3069
(dp3070
g73
(dp3071
g100
g101
ssg82
g3061
sg75
(lp3072
S':'
asbag68
(g89
g70
NtRp3073
(dp3074
g73
(dp3075
sg82
g3061
sg75
(lp3076
g68
(g69
g70
NtRp3077
(dp3078
g73
(dp3079
g81
I3
ssg82
g3073
sg75
(lp3080
S''
asbasbasbag68
(g84
g70
NtRp3081
(dp3082
g73
(dp3083
sg82
g2937
sg75
(lp3084
g68
(g89
g70
NtRp3085
(dp3086
g73
(dp3087
g93
g94
ssg82
g3081
sg75
(lp3088
g429
asbag68
(g89
g70
NtRp3089
(dp3090
g73
(dp3091
g100
g101
ssg82
g3081
sg75
(lp3092
S':'
asbag68
(g89
g70
NtRp3093
(dp3094
g73
(dp3095
sg82
g3081
sg75
(lp3096
g68
(g69
g70
NtRp3097
(dp3098
g73
(dp3099
g81
I3
ssg82
g3093
sg75
(lp3100
S''
asbasbasbasbasbasbasbasbasbasbasbag68
(g84
g70
NtRp3101
(dp3102
g73
(dp3103
sg82
g2867
sg75
(lp3104
g68
(g89
g70
NtRp3105
(dp3106
g73
(dp3107
g93
g94
ssg82
g3101
sg75
(lp3108
S'files'
p3109
asbag68
(g89
g70
NtRp3110
(dp3111
g73
(dp3112
g100
g101
ssg82
g3101
sg75
(lp3113
S':'
asbag68
(g89
g70
NtRp3114
(dp3115
g73
(dp3116
sg82
g3101
sg75
(lp3117
g68
(g69
g70
NtRp3118
(dp3119
g73
(dp3120
g81
I5
ssg82
g3114
sg75
(lp3121
g68
(g77
g70
NtRp3122
(dp3123
g73
(dp3124
g81
I4
ssg82
Nsg75
(lp3125
sbasbasbasbag68
(g84
g70
NtRp3126
(dp3127
g73
(dp3128
sg82
g2867
sg75
(lp3129
g68
(g89
g70
NtRp3130
(dp3131
g73
(dp3132
g93
g94
ssg82
g3126
sg75
(lp3133
S'flash'
p3134
asbag68
(g89
g70
NtRp3135
(dp3136
g73
(dp3137
g100
g101
ssg82
g3126
sg75
(lp3138
S':'
asbag68
(g89
g70
NtRp3139
(dp3140
g73
(dp3141
sg82
g3126
sg75
(lp3142
g68
(g69
g70
NtRp3143
(dp3144
g73
(dp3145
g81
I5
ssg82
g3139
sg75
(lp3146
S''
asbasbasbag68
(g84
g70
NtRp3147
(dp3148
g73
(dp3149
sg82
g2867
sg75
(lp3150
g68
(g89
g70
NtRp3151
(dp3152
g73
(dp3153
g93
g94
ssg82
g3147
sg75
(lp3154
S'generic_patterns'
p3155
asbag68
(g89
g70
NtRp3156
(dp3157
g73
(dp3158
g100
g101
ssg82
g3147
sg75
(lp3159
S':'
asbag68
(g89
g70
NtRp3160
(dp3161
g73
(dp3162
sg82
g3147
sg75
(lp3163
g68
(g69
g70
NtRp3164
(dp3165
g73
(dp3166
g81
I5
ssg82
g3160
sg75
(lp3167
g68
(g77
g70
NtRp3168
(dp3169
g73
(dp3170
g81
I4
ssg82
Nsg75
(lp3171
g68
(g84
g70
NtRp3172
(dp3173
g73
(dp3174
sg82
g3168
sg75
(lp3175
g68
(g89
g70
NtRp3176
(dp3177
g73
(dp3178
sg82
g3172
sg75
(lp3179
g68
(g69
g70
NtRp3180
(dp3181
g73
(dp3182
g81
I4
ssg82
g3176
sg75
(lp3183
S'*'
asbasbasbasbasbasbasbag68
(g84
g70
NtRp3184
(dp3185
g73
(dp3186
sg82
g2867
sg75
(lp3187
g68
(g89
g70
NtRp3188
(dp3189
g73
(dp3190
g93
g94
ssg82
g3184
sg75
(lp3191
S'headers'
p3192
asbag68
(g89
g70
NtRp3193
(dp3194
g73
(dp3195
g100
g101
ssg82
g3184
sg75
(lp3196
S':'
asbag68
(g89
g70
NtRp3197
(dp3198
g73
(dp3199
sg82
g3184
sg75
(lp3200
g68
(g69
g70
NtRp3201
(dp3202
g73
(dp3203
g81
I5
ssg82
g3197
sg75
(lp3204
g68
(g77
g70
NtRp3205
(dp3206
g73
(dp3207
g81
I4
ssg82
Nsg75
(lp3208
g68
(g84
g70
NtRp3209
(dp3210
g73
(dp3211
sg82
g3205
sg75
(lp3212
g68
(g89
g70
NtRp3213
(dp3214
g73
(dp3215
g93
g94
ssg82
g3209
sg75
(lp3216
S'Cache-Control'
p3217
asbag68
(g89
g70
NtRp3218
(dp3219
g73
(dp3220
g100
g101
ssg82
g3209
sg75
(lp3221
S':'
asbag68
(g89
g70
NtRp3222
(dp3223
g73
(dp3224
sg82
g3209
sg75
(lp3225
g68
(g69
g70
NtRp3226
(dp3227
g73
(dp3228
g81
I4
ssg82
g3222
sg75
(lp3229
S'no-store, no-cache, must-revalidate, post-check=0, pre-check=0'
p3230
asbasbasbag68
(g84
g70
NtRp3231
(dp3232
g73
(dp3233
sg82
g3205
sg75
(lp3234
g68
(g89
g70
NtRp3235
(dp3236
g73
(dp3237
g93
g94
ssg82
g3231
sg75
(lp3238
S'Content-Type'
p3239
asbag68
(g89
g70
NtRp3240
(dp3241
g73
(dp3242
g100
g101
ssg82
g3231
sg75
(lp3243
S':'
asbag68
(g89
g70
NtRp3244
(dp3245
g73
(dp3246
sg82
g3231
sg75
(lp3247
g68
(g69
g70
NtRp3248
(dp3249
g73
(dp3250
g81
I4
ssg82
g3244
sg75
(lp3251
S'text/html; charset=utf-8'
p3252
asbasbasbag68
(g84
g70
NtRp3253
(dp3254
g73
(dp3255
sg82
g3205
sg75
(lp3256
g68
(g89
g70
NtRp3257
(dp3258
g73
(dp3259
g93
g94
ssg82
g3253
sg75
(lp3260
S'Expires'
p3261
asbag68
(g89
g70
NtRp3262
(dp3263
g73
(dp3264
g100
g101
ssg82
g3253
sg75
(lp3265
S':'
asbag68
(g89
g70
NtRp3266
(dp3267
g73
(dp3268
sg82
g3253
sg75
(lp3269
g68
(g69
g70
NtRp3270
(dp3271
g73
(dp3272
g81
I4
ssg82
g3266
sg75
(lp3273
S'Fri, 28 Oct 2011 18:45:57 GMT'
p3274
asbasbasbag68
(g84
g70
NtRp3275
(dp3276
g73
(dp3277
sg82
g3205
sg75
(lp3278
g68
(g89
g70
NtRp3279
(dp3280
g73
(dp3281
g93
g94
ssg82
g3275
sg75
(lp3282
S'Pragma'
p3283
asbag68
(g89
g70
NtRp3284
(dp3285
g73
(dp3286
g100
g101
ssg82
g3275
sg75
(lp3287
S':'
asbag68
(g89
g70
NtRp3288
(dp3289
g73
(dp3290
sg82
g3275
sg75
(lp3291
g68
(g69
g70
NtRp3292
(dp3293
g73
(dp3294
g81
I4
ssg82
g3288
sg75
(lp3295
S'no-cache'
p3296
asbasbasbag68
(g84
g70
NtRp3297
(dp3298
g73
(dp3299
sg82
g3205
sg75
(lp3300
g68
(g89
g70
NtRp3301
(dp3302
g73
(dp3303
g93
g94
ssg82
g3297
sg75
(lp3304
S'X-Powered-By'
p3305
asbag68
(g89
g70
NtRp3306
(dp3307
g73
(dp3308
g100
g101
ssg82
g3297
sg75
(lp3309
S':'
asbag68
(g89
g70
NtRp3310
(dp3311
g73
(dp3312
sg82
g3297
sg75
(lp3313
g68
(g69
g70
NtRp3314
(dp3315
g73
(dp3316
g81
I4
ssg82
g3310
sg75
(lp3317
S'web2py'
p3318
asbasbasbasbasbasbasbag68
(g84
g70
NtRp3319
(dp3320
g73
(dp3321
sg82
g2867
sg75
(lp3322
g68
(g89
g70
NtRp3323
(dp3324
g73
(dp3325
g93
g94
ssg82
g3319
sg75
(lp3326
S'menu'
p3327
asbag68
(g89
g70
NtRp3328
(dp3329
g73
(dp3330
g100
g101
ssg82
g3319
sg75
(lp3331
S':'
asbag68
(g89
g70
NtRp3332
(dp3333
g73
(dp3334
sg82
g3319
sg75
(lp3335
g68
(g69
g70
NtRp3336
(dp3337
g73
(dp3338
g81
I5
ssg82
g3332
sg75
(lp3339
g68
(g77
g70
NtRp3340
(dp3341
g73
(dp3342
g81
I4
ssg82
Nsg75
(lp3343
g68
(g84
g70
NtRp3344
(dp3345
g73
(dp3346
sg82
g3340
sg75
(lp3347
g68
(g89
g70
NtRp3348
(dp3349
g73
(dp3350
sg82
g3344
sg75
(lp3351
g68
(g69
g70
NtRp3352
(dp3353
g73
(dp3354
g81
I4
ssg82
g3348
sg75
(lp3355
g68
(g77
g70
NtRp3356
(dp3357
g73
(dp3358
g81
I3
ssg82
Nsg75
(lp3359
g68
(g84
g70
NtRp3360
(dp3361
g73
(dp3362
sg82
g3356
sg75
(lp3363
g68
(g89
g70
NtRp3364
(dp3365
g73
(dp3366
sg82
g3360
sg75
(lp3367
g68
(g69
g70
NtRp3368
(dp3369
g73
(dp3370
g81
I3
ssg82
g3364
sg75
(lp3371
cgluon.languages
lazyT_unpickle
p3372
(S's\x04\x00\x00\x00Home'
tRp3373
asbasbasbag68
(g84
g70
NtRp3374
(dp3375
g73
(dp3376
sg82
g3356
sg75
(lp3377
g68
(g89
g70
NtRp3378
(dp3379
g73
(dp3380
sg82
g3374
sg75
(lp3381
g68
(g69
g70
NtRp3382
(dp3383
g73
(dp3384
g81
I3
ssg82
g3378
sg75
(lp3385
g111
asbasbasbag68
(g84
g70
NtRp3386
(dp3387
g73
(dp3388
sg82
g3356
sg75
(lp3389
g68
(g89
g70
NtRp3390
(dp3391
g73
(dp3392
sg82
g3386
sg75
(lp3393
g68
(g69
g70
NtRp3394
(dp3395
g73
(dp3396
g81
I3
ssg82
g3390
sg75
(lp3397
S'/ddlagoon/default/index'
p3398
asbasbasbag68
(g84
g70
NtRp3399
(dp3400
g73
(dp3401
sg82
g3356
sg75
(lp3402
g68
(g89
g70
NtRp3403
(dp3404
g73
(dp3405
sg82
g3399
sg75
(lp3406
g68
(g69
g70
NtRp3407
(dp3408
g73
(dp3409
g81
I3
ssg82
g3403
sg75
(lp3410
g68
(g77
g70
NtRp3411
(dp3412
g73
(dp3413
g81
I2
ssg82
Nsg75
(lp3414
sbasbasbasbasbasbasbasbag68
(g84
g70
NtRp3415
(dp3416
g73
(dp3417
sg82
g3340
sg75
(lp3418
g68
(g89
g70
NtRp3419
(dp3420
g73
(dp3421
sg82
g3415
sg75
(lp3422
g68
(g69
g70
NtRp3423
(dp3424
g73
(dp3425
g81
I4
ssg82
g3419
sg75
(lp3426
g68
(g77
g70
NtRp3427
(dp3428
g73
(dp3429
g81
I3
ssg82
Nsg75
(lp3430
g68
(g84
g70
NtRp3431
(dp3432
g73
(dp3433
sg82
g3427
sg75
(lp3434
g68
(g89
g70
NtRp3435
(dp3436
g73
(dp3437
sg82
g3431
sg75
(lp3438
g68
(g69
g70
NtRp3439
(dp3440
g73
(dp3441
g81
I3
ssg82
g3435
sg75
(lp3442
g3372
(S's\x08\x00\x00\x00This App'
tRp3443
asbasbasbag68
(g84
g70
NtRp3444
(dp3445
g73
(dp3446
sg82
g3427
sg75
(lp3447
g68
(g89
g70
NtRp3448
(dp3449
g73
(dp3450
sg82
g3444
sg75
(lp3451
g68
(g69
g70
NtRp3452
(dp3453
g73
(dp3454
g81
I3
ssg82
g3448
sg75
(lp3455
g111
asbasbasbag68
(g84
g70
NtRp3456
(dp3457
g73
(dp3458
sg82
g3427
sg75
(lp3459
g68
(g89
g70
NtRp3460
(dp3461
g73
(dp3462
sg82
g3456
sg75
(lp3463
g68
(g69
g70
NtRp3464
(dp3465
g73
(dp3466
g81
I3
ssg82
g3460
sg75
(lp3467
S'/admin/default/design/ddlagoon'
p3468
asbasbasbag68
(g84
g70
NtRp3469
(dp3470
g73
(dp3471
sg82
g3427
sg75
(lp3472
g68
(g89
g70
NtRp3473
(dp3474
g73
(dp3475
sg82
g3469
sg75
(lp3476
g68
(g69
g70
NtRp3477
(dp3478
g73
(dp3479
g81
I3
ssg82
g3473
sg75
(lp3480
g68
(g77
g70
NtRp3481
(dp3482
g73
(dp3483
g81
I2
ssg82
Nsg75
(lp3484
g68
(g84
g70
NtRp3485
(dp3486
g73
(dp3487
sg82
g3481
sg75
(lp3488
g68
(g89
g70
NtRp3489
(dp3490
g73
(dp3491
sg82
g3485
sg75
(lp3492
g68
(g69
g70
NtRp3493
(dp3494
g73
(dp3495
g81
I2
ssg82
g3489
sg75
(lp3496
g68
(g77
g70
NtRp3497
(dp3498
g73
(dp3499
g81
I1
ssg82
Nsg75
(lp3500
g68
(g84
g70
NtRp3501
(dp3502
g73
(dp3503
sg82
g3497
sg75
(lp3504
g68
(g89
g70
NtRp3505
(dp3506
g73
(dp3507
sg82
g3501
sg75
(lp3508
g68
(g69
g70
NtRp3509
(dp3510
g73
(dp3511
g81
I1
ssg82
g3505
sg75
(lp3512
g3372
(S's\n\x00\x00\x00Controller'
tRp3513
asbasbasbag68
(g84
g70
NtRp3514
(dp3515
g73
(dp3516
sg82
g3497
sg75
(lp3517
g68
(g89
g70
NtRp3518
(dp3519
g73
(dp3520
sg82
g3514
sg75
(lp3521
g68
(g69
g70
NtRp3522
(dp3523
g73
(dp3524
g81
I1
ssg82
g3518
sg75
(lp3525
I00
asbasbasbag68
(g84
g70
NtRp3526
(dp3527
g73
(dp3528
sg82
g3497
sg75
(lp3529
g68
(g89
g70
NtRp3530
(dp3531
g73
(dp3532
sg82
g3526
sg75
(lp3533
g68
(g69
g70
NtRp3534
(dp3535
g73
(dp3536
g81
I1
ssg82
g3530
sg75
(lp3537
S'/admin/default/edit/ddlagoon/controllers/default.py'
p3538
asbasbasbasbasbasbasbag68
(g84
g70
NtRp3539
(dp3540
g73
(dp3541
sg82
g3481
sg75
(lp3542
g68
(g89
g70
NtRp3543
(dp3544
g73
(dp3545
sg82
g3539
sg75
(lp3546
g68
(g69
g70
NtRp3547
(dp3548
g73
(dp3549
g81
I2
ssg82
g3543
sg75
(lp3550
g68
(g77
g70
NtRp3551
(dp3552
g73
(dp3553
g81
I1
ssg82
Nsg75
(lp3554
g68
(g84
g70
NtRp3555
(dp3556
g73
(dp3557
sg82
g3551
sg75
(lp3558
g68
(g89
g70
NtRp3559
(dp3560
g73
(dp3561
sg82
g3555
sg75
(lp3562
g68
(g69
g70
NtRp3563
(dp3564
g73
(dp3565
g81
I1
ssg82
g3559
sg75
(lp3566
g3372
(S's\x04\x00\x00\x00View'
tRp3567
asbasbasbag68
(g84
g70
NtRp3568
(dp3569
g73
(dp3570
sg82
g3551
sg75
(lp3571
g68
(g89
g70
NtRp3572
(dp3573
g73
(dp3574
sg82
g3568
sg75
(lp3575
g68
(g69
g70
NtRp3576
(dp3577
g73
(dp3578
g81
I1
ssg82
g3572
sg75
(lp3579
I00
asbasbasbag68
(g84
g70
NtRp3580
(dp3581
g73
(dp3582
sg82
g3551
sg75
(lp3583
g68
(g89
g70
NtRp3584
(dp3585
g73
(dp3586
sg82
g3580
sg75
(lp3587
g68
(g69
g70
NtRp3588
(dp3589
g73
(dp3590
g81
I1
ssg82
g3584
sg75
(lp3591
S'/admin/default/edit/ddlagoon/views/default/index.html'
p3592
asbasbasbasbasbasbasbag68
(g84
g70
NtRp3593
(dp3594
g73
(dp3595
sg82
g3481
sg75
(lp3596
g68
(g89
g70
NtRp3597
(dp3598
g73
(dp3599
sg82
g3593
sg75
(lp3600
g68
(g69
g70
NtRp3601
(dp3602
g73
(dp3603
g81
I2
ssg82
g3597
sg75
(lp3604
g68
(g77
g70
NtRp3605
(dp3606
g73
(dp3607
g81
I1
ssg82
Nsg75
(lp3608
g68
(g84
g70
NtRp3609
(dp3610
g73
(dp3611
sg82
g3605
sg75
(lp3612
g68
(g89
g70
NtRp3613
(dp3614
g73
(dp3615
sg82
g3609
sg75
(lp3616
g68
(g69
g70
NtRp3617
(dp3618
g73
(dp3619
g81
I1
ssg82
g3613
sg75
(lp3620
g3372
(S's\x06\x00\x00\x00Layout'
tRp3621
asbasbasbag68
(g84
g70
NtRp3622
(dp3623
g73
(dp3624
sg82
g3605
sg75
(lp3625
g68
(g89
g70
NtRp3626
(dp3627
g73
(dp3628
sg82
g3622
sg75
(lp3629
g68
(g69
g70
NtRp3630
(dp3631
g73
(dp3632
g81
I1
ssg82
g3626
sg75
(lp3633
I00
asbasbasbag68
(g84
g70
NtRp3634
(dp3635
g73
(dp3636
sg82
g3605
sg75
(lp3637
g68
(g89
g70
NtRp3638
(dp3639
g73
(dp3640
sg82
g3634
sg75
(lp3641
g68
(g69
g70
NtRp3642
(dp3643
g73
(dp3644
g81
I1
ssg82
g3638
sg75
(lp3645
S'/admin/default/edit/ddlagoon/views/layout.html'
p3646
asbasbasbasbasbasbasbag68
(g84
g70
NtRp3647
(dp3648
g73
(dp3649
sg82
g3481
sg75
(lp3650
g68
(g89
g70
NtRp3651
(dp3652
g73
(dp3653
sg82
g3647
sg75
(lp3654
g68
(g69
g70
NtRp3655
(dp3656
g73
(dp3657
g81
I2
ssg82
g3651
sg75
(lp3658
g68
(g77
g70
NtRp3659
(dp3660
g73
(dp3661
g81
I1
ssg82
Nsg75
(lp3662
g68
(g84
g70
NtRp3663
(dp3664
g73
(dp3665
sg82
g3659
sg75
(lp3666
g68
(g89
g70
NtRp3667
(dp3668
g73
(dp3669
sg82
g3663
sg75
(lp3670
g68
(g69
g70
NtRp3671
(dp3672
g73
(dp3673
g81
I1
ssg82
g3667
sg75
(lp3674
g3372
(S's\n\x00\x00\x00Stylesheet'
tRp3675
asbasbasbag68
(g84
g70
NtRp3676
(dp3677
g73
(dp3678
sg82
g3659
sg75
(lp3679
g68
(g89
g70
NtRp3680
(dp3681
g73
(dp3682
sg82
g3676
sg75
(lp3683
g68
(g69
g70
NtRp3684
(dp3685
g73
(dp3686
g81
I1
ssg82
g3680
sg75
(lp3687
I00
asbasbasbag68
(g84
g70
NtRp3688
(dp3689
g73
(dp3690
sg82
g3659
sg75
(lp3691
g68
(g89
g70
NtRp3692
(dp3693
g73
(dp3694
sg82
g3688
sg75
(lp3695
g68
(g69
g70
NtRp3696
(dp3697
g73
(dp3698
g81
I1
ssg82
g3692
sg75
(lp3699
S'/admin/default/edit/ddlagoon/static/base.css'
p3700
asbasbasbasbasbasbasbag68
(g84
g70
NtRp3701
(dp3702
g73
(dp3703
sg82
g3481
sg75
(lp3704
g68
(g89
g70
NtRp3705
(dp3706
g73
(dp3707
sg82
g3701
sg75
(lp3708
g68
(g69
g70
NtRp3709
(dp3710
g73
(dp3711
g81
I2
ssg82
g3705
sg75
(lp3712
g68
(g77
g70
NtRp3713
(dp3714
g73
(dp3715
g81
I1
ssg82
Nsg75
(lp3716
g68
(g84
g70
NtRp3717
(dp3718
g73
(dp3719
sg82
g3713
sg75
(lp3720
g68
(g89
g70
NtRp3721
(dp3722
g73
(dp3723
sg82
g3717
sg75
(lp3724
g68
(g69
g70
NtRp3725
(dp3726
g73
(dp3727
g81
I1
ssg82
g3721
sg75
(lp3728
g3372
(S's\x08\x00\x00\x00DB Model'
tRp3729
asbasbasbag68
(g84
g70
NtRp3730
(dp3731
g73
(dp3732
sg82
g3713
sg75
(lp3733
g68
(g89
g70
NtRp3734
(dp3735
g73
(dp3736
sg82
g3730
sg75
(lp3737
g68
(g69
g70
NtRp3738
(dp3739
g73
(dp3740
g81
I1
ssg82
g3734
sg75
(lp3741
I00
asbasbasbag68
(g84
g70
NtRp3742
(dp3743
g73
(dp3744
sg82
g3713
sg75
(lp3745
g68
(g89
g70
NtRp3746
(dp3747
g73
(dp3748
sg82
g3742
sg75
(lp3749
g68
(g69
g70
NtRp3750
(dp3751
g73
(dp3752
g81
I1
ssg82
g3746
sg75
(lp3753
S'/admin/default/edit/ddlagoon/models/db.py'
p3754
asbasbasbasbasbasbasbag68
(g84
g70
NtRp3755
(dp3756
g73
(dp3757
sg82
g3481
sg75
(lp3758
g68
(g89
g70
NtRp3759
(dp3760
g73
(dp3761
sg82
g3755
sg75
(lp3762
g68
(g69
g70
NtRp3763
(dp3764
g73
(dp3765
g81
I2
ssg82
g3759
sg75
(lp3766
g68
(g77
g70
NtRp3767
(dp3768
g73
(dp3769
g81
I1
ssg82
Nsg75
(lp3770
g68
(g84
g70
NtRp3771
(dp3772
g73
(dp3773
sg82
g3767
sg75
(lp3774
g68
(g89
g70
NtRp3775
(dp3776
g73
(dp3777
sg82
g3771
sg75
(lp3778
g68
(g69
g70
NtRp3779
(dp3780
g73
(dp3781
g81
I1
ssg82
g3775
sg75
(lp3782
g3372
(S's\n\x00\x00\x00Menu Model'
tRp3783
asbasbasbag68
(g84
g70
NtRp3784
(dp3785
g73
(dp3786
sg82
g3767
sg75
(lp3787
g68
(g89
g70
NtRp3788
(dp3789
g73
(dp3790
sg82
g3784
sg75
(lp3791
g68
(g69
g70
NtRp3792
(dp3793
g73
(dp3794
g81
I1
ssg82
g3788
sg75
(lp3795
I00
asbasbasbag68
(g84
g70
NtRp3796
(dp3797
g73
(dp3798
sg82
g3767
sg75
(lp3799
g68
(g89
g70
NtRp3800
(dp3801
g73
(dp3802
sg82
g3796
sg75
(lp3803
g68
(g69
g70
NtRp3804
(dp3805
g73
(dp3806
g81
I1
ssg82
g3800
sg75
(lp3807
S'/admin/default/edit/ddlagoon/models/menu.py'
p3808
asbasbasbasbasbasbasbag68
(g84
g70
NtRp3809
(dp3810
g73
(dp3811
sg82
g3481
sg75
(lp3812
g68
(g89
g70
NtRp3813
(dp3814
g73
(dp3815
sg82
g3809
sg75
(lp3816
g68
(g69
g70
NtRp3817
(dp3818
g73
(dp3819
g81
I2
ssg82
g3813
sg75
(lp3820
g68
(g77
g70
NtRp3821
(dp3822
g73
(dp3823
g81
I1
ssg82
Nsg75
(lp3824
g68
(g84
g70
NtRp3825
(dp3826
g73
(dp3827
sg82
g3821
sg75
(lp3828
g68
(g89
g70
NtRp3829
(dp3830
g73
(dp3831
sg82
g3825
sg75
(lp3832
g68
(g69
g70
NtRp3833
(dp3834
g73
(dp3835
g81
I1
ssg82
g3829
sg75
(lp3836
g3372
(S's\x08\x00\x00\x00Database'
tRp3837
asbasbasbag68
(g84
g70
NtRp3838
(dp3839
g73
(dp3840
sg82
g3821
sg75
(lp3841
g68
(g89
g70
NtRp3842
(dp3843
g73
(dp3844
sg82
g3838
sg75
(lp3845
g68
(g69
g70
NtRp3846
(dp3847
g73
(dp3848
g81
I1
ssg82
g3842
sg75
(lp3849
I00
asbasbasbag68
(g84
g70
NtRp3850
(dp3851
g73
(dp3852
sg82
g3821
sg75
(lp3853
g68
(g89
g70
NtRp3854
(dp3855
g73
(dp3856
sg82
g3850
sg75
(lp3857
g68
(g69
g70
NtRp3858
(dp3859
g73
(dp3860
g81
I1
ssg82
g3854
sg75
(lp3861
S'/ddlagoon/appadmin/index'
p3862
asbasbasbasbasbasbasbag68
(g84
g70
NtRp3863
(dp3864
g73
(dp3865
sg82
g3481
sg75
(lp3866
g68
(g89
g70
NtRp3867
(dp3868
g73
(dp3869
sg82
g3863
sg75
(lp3870
g68
(g69
g70
NtRp3871
(dp3872
g73
(dp3873
g81
I2
ssg82
g3867
sg75
(lp3874
g68
(g77
g70
NtRp3875
(dp3876
g73
(dp3877
g81
I1
ssg82
Nsg75
(lp3878
g68
(g84
g70
NtRp3879
(dp3880
g73
(dp3881
sg82
g3875
sg75
(lp3882
g68
(g89
g70
NtRp3883
(dp3884
g73
(dp3885
sg82
g3879
sg75
(lp3886
g68
(g69
g70
NtRp3887
(dp3888
g73
(dp3889
g81
I1
ssg82
g3883
sg75
(lp3890
g3372
(S's\x06\x00\x00\x00Errors'
tRp3891
asbasbasbag68
(g84
g70
NtRp3892
(dp3893
g73
(dp3894
sg82
g3875
sg75
(lp3895
g68
(g89
g70
NtRp3896
(dp3897
g73
(dp3898
sg82
g3892
sg75
(lp3899
g68
(g69
g70
NtRp3900
(dp3901
g73
(dp3902
g81
I1
ssg82
g3896
sg75
(lp3903
I00
asbasbasbag68
(g84
g70
NtRp3904
(dp3905
g73
(dp3906
sg82
g3875
sg75
(lp3907
g68
(g89
g70
NtRp3908
(dp3909
g73
(dp3910
sg82
g3904
sg75
(lp3911
g68
(g69
g70
NtRp3912
(dp3913
g73
(dp3914
g81
I1
ssg82
g3908
sg75
(lp3915
S'/admin/default/errors/ddlagoon'
p3916
asbasbasbasbasbasbasbag68
(g84
g70
NtRp3917
(dp3918
g73
(dp3919
sg82
g3481
sg75
(lp3920
g68
(g89
g70
NtRp3921
(dp3922
g73
(dp3923
sg82
g3917
sg75
(lp3924
g68
(g69
g70
NtRp3925
(dp3926
g73
(dp3927
g81
I2
ssg82
g3921
sg75
(lp3928
g68
(g77
g70
NtRp3929
(dp3930
g73
(dp3931
g81
I1
ssg82
Nsg75
(lp3932
g68
(g84
g70
NtRp3933
(dp3934
g73
(dp3935
sg82
g3929
sg75
(lp3936
g68
(g89
g70
NtRp3937
(dp3938
g73
(dp3939
sg82
g3933
sg75
(lp3940
g68
(g69
g70
NtRp3941
(dp3942
g73
(dp3943
g81
I1
ssg82
g3937
sg75
(lp3944
g3372
(S's\x05\x00\x00\x00About'
tRp3945
asbasbasbag68
(g84
g70
NtRp3946
(dp3947
g73
(dp3948
sg82
g3929
sg75
(lp3949
g68
(g89
g70
NtRp3950
(dp3951
g73
(dp3952
sg82
g3946
sg75
(lp3953
g68
(g69
g70
NtRp3954
(dp3955
g73
(dp3956
g81
I1
ssg82
g3950
sg75
(lp3957
I00
asbasbasbag68
(g84
g70
NtRp3958
(dp3959
g73
(dp3960
sg82
g3929
sg75
(lp3961
g68
(g89
g70
NtRp3962
(dp3963
g73
(dp3964
sg82
g3958
sg75
(lp3965
g68
(g69
g70
NtRp3966
(dp3967
g73
(dp3968
g81
I1
ssg82
g3962
sg75
(lp3969
S'/admin/default/about/ddlagoon'
p3970
asbasbasbasbasbasbasbasbasbasbasbasbasbasbasbag68
(g84
g70
NtRp3971
(dp3972
g73
(dp3973
sg82
g3340
sg75
(lp3974
g68
(g89
g70
NtRp3975
(dp3976
g73
(dp3977
sg82
g3971
sg75
(lp3978
g68
(g69
g70
NtRp3979
(dp3980
g73
(dp3981
g81
I4
ssg82
g3975
sg75
(lp3982
g68
(g77
g70
NtRp3983
(dp3984
g73
(dp3985
g81
I3
ssg82
Nsg75
(lp3986
g68
(g84
g70
NtRp3987
(dp3988
g73
(dp3989
sg82
g3983
sg75
(lp3990
g68
(g89
g70
NtRp3991
(dp3992
g73
(dp3993
sg82
g3987
sg75
(lp3994
g68
(g69
g70
NtRp3995
(dp3996
g73
(dp3997
g81
I3
ssg82
g3991
sg75
(lp3998
g3372
(S's\t\x00\x00\x00Resources'
tRp3999
asbasbasbag68
(g84
g70
NtRp4000
(dp4001
g73
(dp4002
sg82
g3983
sg75
(lp4003
g68
(g89
g70
NtRp4004
(dp4005
g73
(dp4006
sg82
g4000
sg75
(lp4007
g68
(g69
g70
NtRp4008
(dp4009
g73
(dp4010
g81
I3
ssg82
g4004
sg75
(lp4011
g111
asbasbasbag68
(g84
g70
NtRp4012
(dp4013
g73
(dp4014
sg82
g3983
sg75
(lp4015
g68
(g89
g70
NtRp4016
(dp4017
g73
(dp4018
sg82
g4012
sg75
(lp4019
g68
(g69
g70
NtRp4020
(dp4021
g73
(dp4022
g81
I3
ssg82
g4016
sg75
(lp4023
S'None'
p4024
asbasbasbag68
(g84
g70
NtRp4025
(dp4026
g73
(dp4027
sg82
g3983
sg75
(lp4028
g68
(g89
g70
NtRp4029
(dp4030
g73
(dp4031
sg82
g4025
sg75
(lp4032
g68
(g69
g70
NtRp4033
(dp4034
g73
(dp4035
g81
I3
ssg82
g4029
sg75
(lp4036
g68
(g77
g70
NtRp4037
(dp4038
g73
(dp4039
g81
I2
ssg82
Nsg75
(lp4040
g68
(g84
g70
NtRp4041
(dp4042
g73
(dp4043
sg82
g4037
sg75
(lp4044
g68
(g89
g70
NtRp4045
(dp4046
g73
(dp4047
sg82
g4041
sg75
(lp4048
g68
(g69
g70
NtRp4049
(dp4050
g73
(dp4051
g81
I2
ssg82
g4045
sg75
(lp4052
g68
(g77
g70
NtRp4053
(dp4054
g73
(dp4055
g81
I1
ssg82
Nsg75
(lp4056
g68
(g84
g70
NtRp4057
(dp4058
g73
(dp4059
sg82
g4053
sg75
(lp4060
g68
(g89
g70
NtRp4061
(dp4062
g73
(dp4063
sg82
g4057
sg75
(lp4064
g68
(g69
g70
NtRp4065
(dp4066
g73
(dp4067
g81
I1
ssg82
g4061
sg75
(lp4068
g3372
(S's\r\x00\x00\x00Documentation'
tRp4069
asbasbasbag68
(g84
g70
NtRp4070
(dp4071
g73
(dp4072
sg82
g4053
sg75
(lp4073
g68
(g89
g70
NtRp4074
(dp4075
g73
(dp4076
sg82
g4070
sg75
(lp4077
g68
(g69
g70
NtRp4078
(dp4079
g73
(dp4080
g81
I1
ssg82
g4074
sg75
(lp4081
I00
asbasbasbag68
(g84
g70
NtRp4082
(dp4083
g73
(dp4084
sg82
g4053
sg75
(lp4085
g68
(g89
g70
NtRp4086
(dp4087
g73
(dp4088
sg82
g4082
sg75
(lp4089
g68
(g69
g70
NtRp4090
(dp4091
g73
(dp4092
g81
I1
ssg82
g4086
sg75
(lp4093
S'http://www.web2py.com/book'
p4094
asbasbasbag68
(g84
g70
NtRp4095
(dp4096
g73
(dp4097
sg82
g4053
sg75
(lp4098
g68
(g89
g70
NtRp4099
(dp4100
g73
(dp4101
sg82
g4095
sg75
(lp4102
g68
(g69
g70
NtRp4103
(dp4104
g73
(dp4105
g81
I1
ssg82
g4099
sg75
(lp4106
(lp4107
(g3372
(S's\x07\x00\x00\x00Preface'
tRp4108
I00
S'http://www.web2py.com/book/default/chapter/00'
p4109
tp4110
a(g3372
(S's\x0c\x00\x00\x00Introduction'
tRp4111
I00
S'http://www.web2py.com/book/default/chapter/01'
p4112
tp4113
a(g3372
(S's\x06\x00\x00\x00Python'
tRp4114
I00
S'http://www.web2py.com/book/default/chapter/02'
p4115
tp4116
a(g3372
(S's\x08\x00\x00\x00Overview'
tRp4117
I00
S'http://www.web2py.com/book/default/chapter/03'
p4118
tp4119
a(g3372
(S's\x08\x00\x00\x00The Core'
tRp4120
I00
S'http://www.web2py.com/book/default/chapter/04'
p4121
tp4122
a(g3372
(S's\t\x00\x00\x00The Views'
tRp4123
I00
S'http://www.web2py.com/book/default/chapter/05'
p4124
tp4125
a(g3372
(S's\x08\x00\x00\x00Database'
tRp4126
I00
S'http://www.web2py.com/book/default/chapter/06'
p4127
tp4128
a(g3372
(S's\x14\x00\x00\x00Forms and Validators'
tRp4129
I00
S'http://www.web2py.com/book/default/chapter/07'
p4130
tp4131
a(g3372
(S's\x0e\x00\x00\x00Access Control'
tRp4132
I00
S'http://www.web2py.com/book/default/chapter/08'
p4133
tp4134
a(g3372
(S's\x08\x00\x00\x00Services'
tRp4135
I00
S'http://www.web2py.com/book/default/chapter/09'
p4136
tp4137
a(g3372
(S's\x0c\x00\x00\x00Ajax Recipes'
tRp4138
I00
S'http://www.web2py.com/book/default/chapter/10'
p4139
tp4140
a(g3372
(S's\x12\x00\x00\x00Deployment Recipes'
tRp4141
I00
S'http://www.web2py.com/book/default/chapter/11'
p4142
tp4143
a(g3372
(S's\r\x00\x00\x00Other Recipes'
tRp4144
I00
S'http://www.web2py.com/book/default/chapter/12'
p4145
tp4146
a(g3372
(S's\r\x00\x00\x00Buy this book'
tRp4147
I00
S'http://stores.lulu.com/web2py'
p4148
tp4149
aasbasbasbasbasbasbasbag68
(g84
g70
NtRp4150
(dp4151
g73
(dp4152
sg82
g4037
sg75
(lp4153
g68
(g89
g70
NtRp4154
(dp4155
g73
(dp4156
sg82
g4150
sg75
(lp4157
g68
(g69
g70
NtRp4158
(dp4159
g73
(dp4160
g81
I2
ssg82
g4154
sg75
(lp4161
g68
(g77
g70
NtRp4162
(dp4163
g73
(dp4164
g81
I1
ssg82
Nsg75
(lp4165
g68
(g84
g70
NtRp4166
(dp4167
g73
(dp4168
sg82
g4162
sg75
(lp4169
g68
(g89
g70
NtRp4170
(dp4171
g73
(dp4172
sg82
g4166
sg75
(lp4173
g68
(g69
g70
NtRp4174
(dp4175
g73
(dp4176
g81
I1
ssg82
g4170
sg75
(lp4177
g3372
(S's\t\x00\x00\x00Community'
tRp4178
asbasbasbag68
(g84
g70
NtRp4179
(dp4180
g73
(dp4181
sg82
g4162
sg75
(lp4182
g68
(g89
g70
NtRp4183
(dp4184
g73
(dp4185
sg82
g4179
sg75
(lp4186
g68
(g69
g70
NtRp4187
(dp4188
g73
(dp4189
g81
I1
ssg82
g4183
sg75
(lp4190
I00
asbasbasbag68
(g84
g70
NtRp4191
(dp4192
g73
(dp4193
sg82
g4162
sg75
(lp4194
g68
(g89
g70
NtRp4195
(dp4196
g73
(dp4197
sg82
g4191
sg75
(lp4198
g68
(g69
g70
NtRp4199
(dp4200
g73
(dp4201
g81
I1
ssg82
g4195
sg75
(lp4202
Nasbasbasbag68
(g84
g70
NtRp4203
(dp4204
g73
(dp4205
sg82
g4162
sg75
(lp4206
g68
(g89
g70
NtRp4207
(dp4208
g73
(dp4209
sg82
g4203
sg75
(lp4210
g68
(g69
g70
NtRp4211
(dp4212
g73
(dp4213
g81
I1
ssg82
g4207
sg75
(lp4214
(lp4215
(g3372
(S's\x06\x00\x00\x00Groups'
tRp4216
I00
S'http://www.web2py.com/examples/default/usergroups'
p4217
tp4218
a(g3372
(S's\x07\x00\x00\x00Twitter'
tRp4219
I00
S'http://twitter.com/web2py'
p4220
tp4221
a(g3372
(S's\t\x00\x00\x00Live chat'
tRp4222
I00
S'http://mibbit.com/?channel=%23web2py&server=irc.mibbit.net'
p4223
tp4224
a(g3372
(S's\n\x00\x00\x00User Voice'
tRp4225
I00
S'http://web2py.uservoice.com/'
p4226
tp4227
aasbasbasbasbasbasbasbag68
(g84
g70
NtRp4228
(dp4229
g73
(dp4230
sg82
g4037
sg75
(lp4231
g68
(g89
g70
NtRp4232
(dp4233
g73
(dp4234
sg82
g4228
sg75
(lp4235
g68
(g69
g70
NtRp4236
(dp4237
g73
(dp4238
g81
I2
ssg82
g4232
sg75
(lp4239
g68
(g77
g70
NtRp4240
(dp4241
g73
(dp4242
g81
I1
ssg82
Nsg75
(lp4243
g68
(g84
g70
NtRp4244
(dp4245
g73
(dp4246
sg82
g4240
sg75
(lp4247
g68
(g89
g70
NtRp4248
(dp4249
g73
(dp4250
sg82
g4244
sg75
(lp4251
g68
(g69
g70
NtRp4252
(dp4253
g73
(dp4254
g81
I1
ssg82
g4248
sg75
(lp4255
g3372
(S's\x06\x00\x00\x00Web2py'
tRp4256
asbasbasbag68
(g84
g70
NtRp4257
(dp4258
g73
(dp4259
sg82
g4240
sg75
(lp4260
g68
(g89
g70
NtRp4261
(dp4262
g73
(dp4263
sg82
g4257
sg75
(lp4264
g68
(g69
g70
NtRp4265
(dp4266
g73
(dp4267
g81
I1
ssg82
g4261
sg75
(lp4268
I00
asbasbasbag68
(g84
g70
NtRp4269
(dp4270
g73
(dp4271
sg82
g4240
sg75
(lp4272
g68
(g89
g70
NtRp4273
(dp4274
g73
(dp4275
sg82
g4269
sg75
(lp4276
g68
(g69
g70
NtRp4277
(dp4278
g73
(dp4279
g81
I1
ssg82
g4273
sg75
(lp4280
S'http://www.web2py.com'
p4281
asbasbasbag68
(g84
g70
NtRp4282
(dp4283
g73
(dp4284
sg82
g4240
sg75
(lp4285
g68
(g89
g70
NtRp4286
(dp4287
g73
(dp4288
sg82
g4282
sg75
(lp4289
g68
(g69
g70
NtRp4290
(dp4291
g73
(dp4292
g81
I1
ssg82
g4286
sg75
(lp4293
(lp4294
(g3372
(S's\x08\x00\x00\x00Download'
tRp4295
I00
S'http://www.web2py.com/examples/default/download'
p4296
tp4297
a(g3372
(S's\x07\x00\x00\x00Support'
tRp4298
I00
S'http://www.web2py.com/examples/default/support'
p4299
tp4300
a(g3372
(S's\x0e\x00\x00\x00Quick Examples'
tRp4301
I00
S'http://web2py.com/examples/default/examples'
p4302
tp4303
a(g3372
(S's\x03\x00\x00\x00FAQ'
tRp4304
I00
S'http://web2py.com/AlterEgo'
p4305
tp4306
a(g3372
(S's\x11\x00\x00\x00Free Applications'
tRp4307
I00
S'http://web2py.com/appliances'
p4308
tp4309
a(g3372
(S's\x07\x00\x00\x00Plugins'
tRp4310
I00
S'http://web2py.com/plugins'
p4311
tp4312
a(g3372
(S's\x07\x00\x00\x00Recipes'
tRp4313
I00
S'http://web2pyslices.com/'
p4314
tp4315
a(g3372
(S's\x04\x00\x00\x00Demo'
tRp4316
I00
S'http://web2py.com/demo_admin'
p4317
tp4318
a(g3372
(S's\x08\x00\x00\x00Semantic'
tRp4319
I00
S'http://web2py.com/semantic'
p4320
tp4321
a(g3372
(S's\x07\x00\x00\x00Layouts'
tRp4322
I00
S'http://web2py.com/layouts'
p4323
tp4324
a(g3372
(S's\x06\x00\x00\x00Videos'
tRp4325
I00
S'http://www.web2py.com/examples/default/videos/'
p4326
tp4327
aasbasbasbasbasbasbasbasbasbasbasbasbasbasbasbasbasbasbasbag68
(g84
g70
NtRp4328
(dp4329
g73
(dp4330
sg82
g2867
sg75
(lp4331
g68
(g89
g70
NtRp4332
(dp4333
g73
(dp4334
g93
g94
ssg82
g4328
sg75
(lp4335
S'meta'
p4336
asbag68
(g89
g70
NtRp4337
(dp4338
g73
(dp4339
g100
g101
ssg82
g4328
sg75
(lp4340
S':'
asbag68
(g89
g70
NtRp4341
(dp4342
g73
(dp4343
sg82
g4328
sg75
(lp4344
g68
(g69
g70
NtRp4345
(dp4346
g73
(dp4347
g81
I5
ssg82
g4341
sg75
(lp4348
g68
(g77
g70
NtRp4349
(dp4350
g73
(dp4351
g81
I4
ssg82
Nsg75
(lp4352
g68
(g84
g70
NtRp4353
(dp4354
g73
(dp4355
sg82
g4349
sg75
(lp4356
g68
(g89
g70
NtRp4357
(dp4358
g73
(dp4359
g93
g94
ssg82
g4353
sg75
(lp4360
S'author'
p4361
asbag68
(g89
g70
NtRp4362
(dp4363
g73
(dp4364
g100
g101
ssg82
g4353
sg75
(lp4365
S':'
asbag68
(g89
g70
NtRp4366
(dp4367
g73
(dp4368
sg82
g4353
sg75
(lp4369
g68
(g69
g70
NtRp4370
(dp4371
g73
(dp4372
g81
I4
ssg82
g4366
sg75
(lp4373
S'Your Name <you@example.com>'
p4374
asbasbasbag68
(g84
g70
NtRp4375
(dp4376
g73
(dp4377
sg82
g4349
sg75
(lp4378
g68
(g89
g70
NtRp4379
(dp4380
g73
(dp4381
g93
g94
ssg82
g4375
sg75
(lp4382
S'copyright'
p4383
asbag68
(g89
g70
NtRp4384
(dp4385
g73
(dp4386
g100
g101
ssg82
g4375
sg75
(lp4387
S':'
asbag68
(g89
g70
NtRp4388
(dp4389
g73
(dp4390
sg82
g4375
sg75
(lp4391
g68
(g69
g70
NtRp4392
(dp4393
g73
(dp4394
g81
I4
ssg82
g4388
sg75
(lp4395
S'Copyright 2011'
p4396
asbasbasbag68
(g84
g70
NtRp4397
(dp4398
g73
(dp4399
sg82
g4349
sg75
(lp4400
g68
(g89
g70
NtRp4401
(dp4402
g73
(dp4403
g93
g94
ssg82
g4397
sg75
(lp4404
S'description'
p4405
asbag68
(g89
g70
NtRp4406
(dp4407
g73
(dp4408
g100
g101
ssg82
g4397
sg75
(lp4409
S':'
asbag68
(g89
g70
NtRp4410
(dp4411
g73
(dp4412
sg82
g4397
sg75
(lp4413
g68
(g69
g70
NtRp4414
(dp4415
g73
(dp4416
g81
I4
ssg82
g4410
sg75
(lp4417
S'a cool new app'
p4418
asbasbasbag68
(g84
g70
NtRp4419
(dp4420
g73
(dp4421
sg82
g4349
sg75
(lp4422
g68
(g89
g70
NtRp4423
(dp4424
g73
(dp4425
g93
g94
ssg82
g4419
sg75
(lp4426
S'generator'
p4427
asbag68
(g89
g70
NtRp4428
(dp4429
g73
(dp4430
g100
g101
ssg82
g4419
sg75
(lp4431
S':'
asbag68
(g89
g70
NtRp4432
(dp4433
g73
(dp4434
sg82
g4419
sg75
(lp4435
g68
(g69
g70
NtRp4436
(dp4437
g73
(dp4438
g81
I4
ssg82
g4432
sg75
(lp4439
S'Web2py Web Framework'
p4440
asbasbasbag68
(g84
g70
NtRp4441
(dp4442
g73
(dp4443
sg82
g4349
sg75
(lp4444
g68
(g89
g70
NtRp4445
(dp4446
g73
(dp4447
g93
g94
ssg82
g4441
sg75
(lp4448
S'keywords'
p4449
asbag68
(g89
g70
NtRp4450
(dp4451
g73
(dp4452
g100
g101
ssg82
g4441
sg75
(lp4453
S':'
asbag68
(g89
g70
NtRp4454
(dp4455
g73
(dp4456
sg82
g4441
sg75
(lp4457
g68
(g69
g70
NtRp4458
(dp4459
g73
(dp4460
g81
I4
ssg82
g4454
sg75
(lp4461
S'web2py, python, framework'
p4462
asbasbasbasbasbasbasbag68
(g84
g70
NtRp4463
(dp4464
g73
(dp4465
sg82
g2867
sg75
(lp4466
g68
(g89
g70
NtRp4467
(dp4468
g73
(dp4469
g93
g94
ssg82
g4463
sg75
(lp4470
S'postprocessing'
p4471
asbag68
(g89
g70
NtRp4472
(dp4473
g73
(dp4474
g100
g101
ssg82
g4463
sg75
(lp4475
S':'
asbag68
(g89
g70
NtRp4476
(dp4477
g73
(dp4478
sg82
g4463
sg75
(lp4479
g68
(g69
g70
NtRp4480
(dp4481
g73
(dp4482
g81
I5
ssg82
g4476
sg75
(lp4483
g68
(g77
g70
NtRp4484
(dp4485
g73
(dp4486
g81
I4
ssg82
Nsg75
(lp4487
sbasbasbasbag68
(g84
g70
NtRp4488
(dp4489
g73
(dp4490
sg82
g2867
sg75
(lp4491
g68
(g89
g70
NtRp4492
(dp4493
g73
(dp4494
g93
g94
ssg82
g4488
sg75
(lp4495
S'session_filename'
p4496
asbag68
(g89
g70
NtRp4497
(dp4498
g73
(dp4499
g100
g101
ssg82
g4488
sg75
(lp4500
S':'
asbag68
(g89
g70
NtRp4501
(dp4502
g73
(dp4503
sg82
g4488
sg75
(lp4504
g68
(g69
g70
NtRp4505
(dp4506
g73
(dp4507
g81
I5
ssg82
g4501
sg75
(lp4508
S'/windows/Users/Thomas/Dropbox/appz/2011/GAE/ddl-lagoon/applications/ddlagoon/sessions/127.0.0.1-b71ea8bb-2b1c-4021-8c85-4163f8f523ff'
p4509
asbasbasbag68
(g84
g70
NtRp4510
(dp4511
g73
(dp4512
sg82
g2867
sg75
(lp4513
g68
(g89
g70
NtRp4514
(dp4515
g73
(dp4516
g93
g94
ssg82
g4510
sg75
(lp4517
S'session_id'
p4518
asbag68
(g89
g70
NtRp4519
(dp4520
g73
(dp4521
g100
g101
ssg82
g4510
sg75
(lp4522
S':'
asbag68
(g89
g70
NtRp4523
(dp4524
g73
(dp4525
sg82
g4510
sg75
(lp4526
g68
(g69
g70
NtRp4527
(dp4528
g73
(dp4529
g81
I5
ssg82
g4523
sg75
(lp4530
S'127.0.0.1-b71ea8bb-2b1c-4021-8c85-4163f8f523ff'
p4531
asbasbasbag68
(g84
g70
NtRp4532
(dp4533
g73
(dp4534
sg82
g2867
sg75
(lp4535
g68
(g89
g70
NtRp4536
(dp4537
g73
(dp4538
g93
g94
ssg82
g4532
sg75
(lp4539
S'session_id_name'
p4540
asbag68
(g89
g70
NtRp4541
(dp4542
g73
(dp4543
g100
g101
ssg82
g4532
sg75
(lp4544
S':'
asbag68
(g89
g70
NtRp4545
(dp4546
g73
(dp4547
sg82
g4532
sg75
(lp4548
g68
(g69
g70
NtRp4549
(dp4550
g73
(dp4551
g81
I5
ssg82
g4545
sg75
(lp4552
g2924
asbasbasbag68
(g84
g70
NtRp4553
(dp4554
g73
(dp4555
sg82
g2867
sg75
(lp4556
g68
(g89
g70
NtRp4557
(dp4558
g73
(dp4559
g93
g94
ssg82
g4553
sg75
(lp4560
S'session_new'
p4561
asbag68
(g89
g70
NtRp4562
(dp4563
g73
(dp4564
g100
g101
ssg82
g4553
sg75
(lp4565
S':'
asbag68
(g89
g70
NtRp4566
(dp4567
g73
(dp4568
sg82
g4553
sg75
(lp4569
g68
(g69
g70
NtRp4570
(dp4571
g73
(dp4572
g81
I5
ssg82
g4566
sg75
(lp4573
g1340
asbasbasbag68
(g84
g70
NtRp4574
(dp4575
g73
(dp4576
sg82
g2867
sg75
(lp4577
g68
(g89
g70
NtRp4578
(dp4579
g73
(dp4580
g93
g94
ssg82
g4574
sg75
(lp4581
S'status'
p4582
asbag68
(g89
g70
NtRp4583
(dp4584
g73
(dp4585
g100
g101
ssg82
g4574
sg75
(lp4586
S':'
asbag68
(g89
g70
NtRp4587
(dp4588
g73
(dp4589
sg82
g4574
sg75
(lp4590
g68
(g69
g70
NtRp4591
(dp4592
g73
(dp4593
g81
I5
ssg82
g4587
sg75
(lp4594
S'200'
p4595
asbasbasbag68
(g84
g70
NtRp4596
(dp4597
g73
(dp4598
sg82
g2867
sg75
(lp4599
g68
(g89
g70
NtRp4600
(dp4601
g73
(dp4602
g93
g94
ssg82
g4596
sg75
(lp4603
S'subtitle'
p4604
asbag68
(g89
g70
NtRp4605
(dp4606
g73
(dp4607
g100
g101
ssg82
g4596
sg75
(lp4608
S':'
asbag68
(g89
g70
NtRp4609
(dp4610
g73
(dp4611
sg82
g4596
sg75
(lp4612
g68
(g69
g70
NtRp4613
(dp4614
g73
(dp4615
g81
I5
ssg82
g4609
sg75
(lp4616
g3372
(S's\r\x00\x00\x00customize me!'
tRp4617
asbasbasbag68
(g84
g70
NtRp4618
(dp4619
g73
(dp4620
sg82
g2867
sg75
(lp4621
g68
(g89
g70
NtRp4622
(dp4623
g73
(dp4624
g93
g94
ssg82
g4618
sg75
(lp4625
S'title'
p4626
asbag68
(g89
g70
NtRp4627
(dp4628
g73
(dp4629
g100
g101
ssg82
g4618
sg75
(lp4630
S':'
asbag68
(g89
g70
NtRp4631
(dp4632
g73
(dp4633
sg82
g4618
sg75
(lp4634
g68
(g69
g70
NtRp4635
(dp4636
g73
(dp4637
g81
I5
ssg82
g4631
sg75
(lp4638
g133
asbasbasbag68
(g84
g70
NtRp4639
(dp4640
g73
(dp4641
sg82
g2867
sg75
(lp4642
g68
(g89
g70
NtRp4643
(dp4644
g73
(dp4645
g93
g94
ssg82
g4639
sg75
(lp4646
g1984
asbag68
(g89
g70
NtRp4647
(dp4648
g73
(dp4649
g100
g101
ssg82
g4639
sg75
(lp4650
S':'
asbag68
(g89
g70
NtRp4651
(dp4652
g73
(dp4653
sg82
g4639
sg75
(lp4654
g68
(g69
g70
NtRp4655
(dp4656
g73
(dp4657
g81
I5
ssg82
g4651
sg75
(lp4658
g1997
asbasbasbag68
(g84
g70
NtRp4659
(dp4660
g73
(dp4661
sg82
g2867
sg75
(lp4662
g68
(g89
g70
NtRp4663
(dp4664
g73
(dp4665
g93
g94
ssg82
g4659
sg75
(lp4666
S'view'
p4667
asbag68
(g89
g70
NtRp4668
(dp4669
g73
(dp4670
g100
g101
ssg82
g4659
sg75
(lp4671
S':'
asbag68
(g89
g70
NtRp4672
(dp4673
g73
(dp4674
sg82
g4659
sg75
(lp4675
g68
(g69
g70
NtRp4676
(dp4677
g73
(dp4678
g81
I5
ssg82
g4672
sg75
(lp4679
S'default/index.html'
p4680
asbasbasbasbasbsS'locals'
p4681
(dp4682
g73
S"{'limitby': (0, 10), 'orderby': <gluon.dal.Field object>, 'sort': <function <lambda>>}"
p4683
sS'self'
p4684
S'<gluon.dal.SQLiteAdapter object>'
p4685
sS'fields'
p4686
S'()'
p4687
sS'key'
p4688
S"'sort'"
p4689
sS'query'
p4690
S'<gluon.dal.Query object>'
p4691
sssS'traceback'
p4692
S'Traceback (most recent call last):\n  File "/windows/Users/Thomas/Dropbox/appz/2011/GAE/ddl-lagoon/gluon/restricted.py", line 194, in restricted\n    exec ccode in environment\n  File "/windows/Users/Thomas/Dropbox/appz/2011/GAE/ddl-lagoon/applications/ddlagoon/controllers/default.py", line 352, in <module>\n  File "/windows/Users/Thomas/Dropbox/appz/2011/GAE/ddl-lagoon/gluon/globals.py", line 149, in <lambda>\n    self._caller = lambda f: f()\n  File "/windows/Users/Thomas/Dropbox/appz/2011/GAE/ddl-lagoon/applications/ddlagoon/controllers/default.py", line 65, in index\n    rows= db(db.ddl.id>0).select(orderby=db.ddl.date_added, limitby=(0,10), sort=lambda r: not r[\'date_added\'])\n  File "/windows/Users/Thomas/Dropbox/appz/2011/GAE/ddl-lagoon/gluon/dal.py", line 5697, in select\n    return self.db._adapter.select(self.query,fields,attributes)\n  File "/windows/Users/Thomas/Dropbox/appz/2011/GAE/ddl-lagoon/gluon/dal.py", line 1225, in select\n    sql = self._select(query,fields,attributes)\n  File "/windows/Users/Thomas/Dropbox/appz/2011/GAE/ddl-lagoon/gluon/dal.py", line 1104, in _select\n    raise SyntaxError, \'invalid select attribute: %s\' % key\nSyntaxError: invalid select attribute: sort\n'
p4693
s.