(dp1
S'output'
p2
S''
sS'layer'
p3
S'/windows/Users/Thomas/Dropbox/appz/2011/GAE/ddl-lagoon/applications/ddlagoon/controllers/ddl.py'
p4
sS'code'
p5
S'import tempfile\nfrom time import mktime\n\nif False:\n    from gluon.contrib.pysimplesoap.client import response\n    from gluon.contrib.pysimplesoap.server import request\n    from applications.ddlagoon.models.db import service, db\n\nfrom gluon.contrib import simplejson as json\n\n__author__ = \'thomas\'\n\ndef get():\n    return service()\n\n@service.xml\ndef ddl(id="", filename=""):\n    # find the record\n    ddl= db((db.ddl.filename==filename) & (db.ddl.id==id)).select().first()\n    if not ddl:\n        return "404 - File not found."\n    else:\n        # prepare the file\n        ddlJ = {\n            \'author\':ddl.author,\n            \'filename\':ddl.filename,\n            \'description\':ddl.description,\n            \'size\':ddl.size,\n            \'hash\':ddl.hash,\n            \'parts\':ddl.parts,\n            \'service\':ddl.service,\n            \'links\':ddl.links.split("|"),\n            \'version\':ddl.version,\n            \'time\':int(mktime(ddl.date_added.timetuple()))\n        }\n        ddlJson = json.dumps(ddlJ, sort_keys=True, indent=4)\n        public_ddl = {\n            "e": 65537,\n            "n": 138699374543223257537557103176001704226735255147448649583225017098287197630734176291676474096655313606555548753275002732095146725547697816211326459323755204828036245647843790985208692060549009977103102474302073609652750671753426409739287485014860128030833183117757223967930924686377060843991855851119927153483\n        }\n        encryptedMsg = encryptForClient(public_ddl[\'n\'],public_ddl[\'e\'],ddlJson)\n        #response.headers[\'Content-Type\'] = \'application/ddl\'\n        #response.headers[\'Content-Disposition\'] = \'attachment; filename=test.ddl\'\n        #return response.stream(ddlFile, request=request)\n#        request.args[0] = ddlFile.name\n#        return response.download(request, ddlFile)\n        response.headers[\'Content-Type\'] = "application/octet-stream"\n        response.headers[\'Content-Disposition\'] = \'attachment; filename=%s.ddl\' % ddl.filename\n        return encryptedMsg\nresponse._vars=response._caller(get)\n'
p6
sS'snapshot'
p7
(dp8
S'exception'
p9
(dp10
S'__hash__'
p11
S"<method-wrapper '__hash__' of exceptions.NameError object>"
p12
sS'__setattr__'
p13
S"<method-wrapper '__setattr__' of exceptions.NameError object>"
p14
sS'__reduce_ex__'
p15
S'<built-in method __reduce_ex__ of exceptions.NameError object>'
p16
sS'__getslice__'
p17
S"<method-wrapper '__getslice__' of exceptions.NameError object>"
p18
sS'__getitem__'
p19
S"<method-wrapper '__getitem__' of exceptions.NameError object>"
p20
sS'__setstate__'
p21
S'<built-in method __setstate__ of exceptions.NameError object>'
p22
sS'args'
p23
S'("global name \'encryptForClient\' is not defined",)'
p24
sS'__reduce__'
p25
S'<built-in method __reduce__ of exceptions.NameError object>'
p26
sS'__str__'
p27
S"<method-wrapper '__str__' of exceptions.NameError object>"
p28
sS'__format__'
p29
S'<built-in method __format__ of exceptions.NameError object>'
p30
sS'__getattribute__'
p31
S"<method-wrapper '__getattribute__' of exceptions.NameError object>"
p32
sS'__class__'
p33
S"<type 'exceptions.NameError'>"
p34
sS'__unicode__'
p35
S'<built-in method __unicode__ of exceptions.NameError object>'
p36
sS'__delattr__'
p37
S"<method-wrapper '__delattr__' of exceptions.NameError object>"
p38
sS'__subclasshook__'
p39
S'<built-in method __subclasshook__ of type object>'
p40
sS'__repr__'
p41
S"<method-wrapper '__repr__' of exceptions.NameError object>"
p42
sS'__dict__'
p43
S'{}'
p44
sS'__sizeof__'
p45
S'<built-in method __sizeof__ of exceptions.NameError object>'
p46
sS'__doc__'
p47
S"'Name not found globally.'"
p48
sS'__init__'
p49
S"<method-wrapper '__init__' of exceptions.NameError object>"
p50
sS'__new__'
p51
S'<built-in method __new__ of type object>'
p52
ssS'evalue'
p53
S"global name 'encryptForClient' is not defined"
p54
sS'request'
p55
ccopy_reg
_reconstructor
p56
(cgluon.html
BEAUTIFY
p57
c__builtin__
object
p58
NtRp59
(dp60
S'attributes'
p61
(dp62
sS'components'
p63
(lp64
g56
(cgluon.html
TABLE
p65
g58
NtRp66
(dp67
g61
(dp68
S'level'
p69
I5
ssS'parent'
p70
Nsg63
(lp71
g56
(cgluon.html
TR
p72
g58
NtRp73
(dp74
g61
(dp75
sg70
g66
sg63
(lp76
g56
(cgluon.html
TD
p77
g58
NtRp78
(dp79
g61
(dp80
S'_style'
p81
S'font-weight:bold;'
p82
ssg70
g73
sg63
(lp83
S'ajax'
p84
asbag56
(g77
g58
NtRp85
(dp86
g61
(dp87
S'_valign'
p88
S'top'
p89
ssg70
g73
sg63
(lp90
S':'
asbag56
(g77
g58
NtRp91
(dp92
g61
(dp93
sg70
g73
sg63
(lp94
g56
(g57
g58
NtRp95
(dp96
g61
(dp97
g69
I5
ssg70
g91
sg63
(lp98
S'False'
p99
asbasbasbag56
(g72
g58
NtRp100
(dp101
g61
(dp102
sg70
g66
sg63
(lp103
g56
(g77
g58
NtRp104
(dp105
g61
(dp106
g81
g82
ssg70
g100
sg63
(lp107
S'application'
p108
asbag56
(g77
g58
NtRp109
(dp110
g61
(dp111
g88
g89
ssg70
g100
sg63
(lp112
S':'
asbag56
(g77
g58
NtRp113
(dp114
g61
(dp115
sg70
g100
sg63
(lp116
g56
(g57
g58
NtRp117
(dp118
g61
(dp119
g69
I5
ssg70
g113
sg63
(lp120
S'ddlagoon'
p121
asbasbasbag56
(g72
g58
NtRp122
(dp123
g61
(dp124
sg70
g66
sg63
(lp125
g56
(g77
g58
NtRp126
(dp127
g61
(dp128
g81
g82
ssg70
g122
sg63
(lp129
g23
asbag56
(g77
g58
NtRp130
(dp131
g61
(dp132
g88
g89
ssg70
g122
sg63
(lp133
S':'
asbag56
(g77
g58
NtRp134
(dp135
g61
(dp136
sg70
g122
sg63
(lp137
g56
(g57
g58
NtRp138
(dp139
g61
(dp140
g69
I5
ssg70
g134
sg63
(lp141
g56
(g65
g58
NtRp142
(dp143
g61
(dp144
g69
I4
ssg70
Nsg63
(lp145
g56
(g72
g58
NtRp146
(dp147
g61
(dp148
sg70
g142
sg63
(lp149
g56
(g77
g58
NtRp150
(dp151
g61
(dp152
sg70
g146
sg63
(lp153
g56
(g57
g58
NtRp154
(dp155
g61
(dp156
g69
I4
ssg70
g150
sg63
(lp157
S'run'
p158
asbasbasbag56
(g72
g58
NtRp159
(dp160
g61
(dp161
sg70
g142
sg63
(lp162
g56
(g77
g58
NtRp163
(dp164
g61
(dp165
sg70
g159
sg63
(lp166
g56
(g57
g58
NtRp167
(dp168
g61
(dp169
g69
I4
ssg70
g163
sg63
(lp170
S'ddl'
p171
asbasbasbag56
(g72
g58
NtRp172
(dp173
g61
(dp174
sg70
g142
sg63
(lp175
g56
(g77
g58
NtRp176
(dp177
g61
(dp178
sg70
g172
sg63
(lp179
g56
(g57
g58
NtRp180
(dp181
g61
(dp182
g69
I4
ssg70
g176
sg63
(lp183
S'14'
p184
asbasbasbag56
(g72
g58
NtRp185
(dp186
g61
(dp187
sg70
g142
sg63
(lp188
g56
(g77
g58
NtRp189
(dp190
g61
(dp191
sg70
g185
sg63
(lp192
g56
(g57
g58
NtRp193
(dp194
g61
(dp195
g69
I4
ssg70
g189
sg63
(lp196
S'The_Thing_2011_TS_XviD_READNFO___MiSTERE.avi'
p197
asbasbasbasbasbasbasbag56
(g72
g58
NtRp198
(dp199
g61
(dp200
sg70
g66
sg63
(lp201
g56
(g77
g58
NtRp202
(dp203
g61
(dp204
g81
g82
ssg70
g198
sg63
(lp205
S'body'
p206
asbag56
(g77
g58
NtRp207
(dp208
g61
(dp209
g88
g89
ssg70
g198
sg63
(lp210
S':'
asbag56
(g77
g58
NtRp211
(dp212
g61
(dp213
sg70
g198
sg63
(lp214
g56
(g57
g58
NtRp215
(dp216
g61
(dp217
g69
I5
ssg70
g211
sg63
(lp218
S'<cStringIO.StringO object at 0x41255e0>'
p219
asbasbasbag56
(g72
g58
NtRp220
(dp221
g61
(dp222
sg70
g66
sg63
(lp223
g56
(g77
g58
NtRp224
(dp225
g61
(dp226
g81
g82
ssg70
g220
sg63
(lp227
S'client'
p228
asbag56
(g77
g58
NtRp229
(dp230
g61
(dp231
g88
g89
ssg70
g220
sg63
(lp232
S':'
asbag56
(g77
g58
NtRp233
(dp234
g61
(dp235
sg70
g220
sg63
(lp236
g56
(g57
g58
NtRp237
(dp238
g61
(dp239
g69
I5
ssg70
g233
sg63
(lp240
S'127.0.0.1'
p241
asbasbasbag56
(g72
g58
NtRp242
(dp243
g61
(dp244
sg70
g66
sg63
(lp245
g56
(g77
g58
NtRp246
(dp247
g61
(dp248
g81
g82
ssg70
g242
sg63
(lp249
S'controller'
p250
asbag56
(g77
g58
NtRp251
(dp252
g61
(dp253
g88
g89
ssg70
g242
sg63
(lp254
S':'
asbag56
(g77
g58
NtRp255
(dp256
g61
(dp257
sg70
g242
sg63
(lp258
g56
(g57
g58
NtRp259
(dp260
g61
(dp261
g69
I5
ssg70
g255
sg63
(lp262
S'ddl'
p263
asbasbasbag56
(g72
g58
NtRp264
(dp265
g61
(dp266
sg70
g66
sg63
(lp267
g56
(g77
g58
NtRp268
(dp269
g61
(dp270
g81
g82
ssg70
g264
sg63
(lp271
S'cookies'
p272
asbag56
(g77
g58
NtRp273
(dp274
g61
(dp275
g88
g89
ssg70
g264
sg63
(lp276
S':'
asbag56
(g77
g58
NtRp277
(dp278
g61
(dp279
sg70
g264
sg63
(lp280
g56
(g57
g58
NtRp281
(dp282
g61
(dp283
g69
I5
ssg70
g277
sg63
(lp284
g56
(g65
g58
NtRp285
(dp286
g61
(dp287
g69
I4
ssg70
Nsg63
(lp288
g56
(g72
g58
NtRp289
(dp290
g61
(dp291
sg70
g285
sg63
(lp292
g56
(g77
g58
NtRp293
(dp294
g61
(dp295
g81
g82
ssg70
g289
sg63
(lp296
S'session_id_admin'
p297
asbag56
(g77
g58
NtRp298
(dp299
g61
(dp300
g88
g89
ssg70
g289
sg63
(lp301
S':'
asbag56
(g77
g58
NtRp302
(dp303
g61
(dp304
sg70
g289
sg63
(lp305
g56
(g57
g58
NtRp306
(dp307
g61
(dp308
g69
I4
ssg70
g302
sg63
(lp309
g56
(g65
g58
NtRp310
(dp311
g61
(dp312
g69
I3
ssg70
Nsg63
(lp313
g56
(g72
g58
NtRp314
(dp315
g61
(dp316
sg70
g310
sg63
(lp317
g56
(g77
g58
NtRp318
(dp319
g61
(dp320
g81
g82
ssg70
g314
sg63
(lp321
S'comment'
p322
asbag56
(g77
g58
NtRp323
(dp324
g61
(dp325
g88
g89
ssg70
g314
sg63
(lp326
S':'
asbag56
(g77
g58
NtRp327
(dp328
g61
(dp329
sg70
g314
sg63
(lp330
g56
(g57
g58
NtRp331
(dp332
g61
(dp333
g69
I3
ssg70
g327
sg63
(lp334
S''
asbasbasbag56
(g72
g58
NtRp335
(dp336
g61
(dp337
sg70
g310
sg63
(lp338
g56
(g77
g58
NtRp339
(dp340
g61
(dp341
g81
g82
ssg70
g335
sg63
(lp342
S'domain'
p343
asbag56
(g77
g58
NtRp344
(dp345
g61
(dp346
g88
g89
ssg70
g335
sg63
(lp347
S':'
asbag56
(g77
g58
NtRp348
(dp349
g61
(dp350
sg70
g335
sg63
(lp351
g56
(g57
g58
NtRp352
(dp353
g61
(dp354
g69
I3
ssg70
g348
sg63
(lp355
S''
asbasbasbag56
(g72
g58
NtRp356
(dp357
g61
(dp358
sg70
g310
sg63
(lp359
g56
(g77
g58
NtRp360
(dp361
g61
(dp362
g81
g82
ssg70
g356
sg63
(lp363
S'expires'
p364
asbag56
(g77
g58
NtRp365
(dp366
g61
(dp367
g88
g89
ssg70
g356
sg63
(lp368
S':'
asbag56
(g77
g58
NtRp369
(dp370
g61
(dp371
sg70
g356
sg63
(lp372
g56
(g57
g58
NtRp373
(dp374
g61
(dp375
g69
I3
ssg70
g369
sg63
(lp376
S''
asbasbasbag56
(g72
g58
NtRp377
(dp378
g61
(dp379
sg70
g310
sg63
(lp380
g56
(g77
g58
NtRp381
(dp382
g61
(dp383
g81
g82
ssg70
g377
sg63
(lp384
S'httponly'
p385
asbag56
(g77
g58
NtRp386
(dp387
g61
(dp388
g88
g89
ssg70
g377
sg63
(lp389
S':'
asbag56
(g77
g58
NtRp390
(dp391
g61
(dp392
sg70
g377
sg63
(lp393
g56
(g57
g58
NtRp394
(dp395
g61
(dp396
g69
I3
ssg70
g390
sg63
(lp397
S''
asbasbasbag56
(g72
g58
NtRp398
(dp399
g61
(dp400
sg70
g310
sg63
(lp401
g56
(g77
g58
NtRp402
(dp403
g61
(dp404
g81
g82
ssg70
g398
sg63
(lp405
S'max-age'
p406
asbag56
(g77
g58
NtRp407
(dp408
g61
(dp409
g88
g89
ssg70
g398
sg63
(lp410
S':'
asbag56
(g77
g58
NtRp411
(dp412
g61
(dp413
sg70
g398
sg63
(lp414
g56
(g57
g58
NtRp415
(dp416
g61
(dp417
g69
I3
ssg70
g411
sg63
(lp418
S''
asbasbasbag56
(g72
g58
NtRp419
(dp420
g61
(dp421
sg70
g310
sg63
(lp422
g56
(g77
g58
NtRp423
(dp424
g61
(dp425
g81
g82
ssg70
g419
sg63
(lp426
S'path'
p427
asbag56
(g77
g58
NtRp428
(dp429
g61
(dp430
g88
g89
ssg70
g419
sg63
(lp431
S':'
asbag56
(g77
g58
NtRp432
(dp433
g61
(dp434
sg70
g419
sg63
(lp435
g56
(g57
g58
NtRp436
(dp437
g61
(dp438
g69
I3
ssg70
g432
sg63
(lp439
S''
asbasbasbag56
(g72
g58
NtRp440
(dp441
g61
(dp442
sg70
g310
sg63
(lp443
g56
(g77
g58
NtRp444
(dp445
g61
(dp446
g81
g82
ssg70
g440
sg63
(lp447
S'secure'
p448
asbag56
(g77
g58
NtRp449
(dp450
g61
(dp451
g88
g89
ssg70
g440
sg63
(lp452
S':'
asbag56
(g77
g58
NtRp453
(dp454
g61
(dp455
sg70
g440
sg63
(lp456
g56
(g57
g58
NtRp457
(dp458
g61
(dp459
g69
I3
ssg70
g453
sg63
(lp460
S''
asbasbasbag56
(g72
g58
NtRp461
(dp462
g61
(dp463
sg70
g310
sg63
(lp464
g56
(g77
g58
NtRp465
(dp466
g61
(dp467
g81
g82
ssg70
g461
sg63
(lp468
S'version'
p469
asbag56
(g77
g58
NtRp470
(dp471
g61
(dp472
g88
g89
ssg70
g461
sg63
(lp473
S':'
asbag56
(g77
g58
NtRp474
(dp475
g61
(dp476
sg70
g461
sg63
(lp477
g56
(g57
g58
NtRp478
(dp479
g61
(dp480
g69
I3
ssg70
g474
sg63
(lp481
S''
asbasbasbasbasbasbasbag56
(g72
g58
NtRp482
(dp483
g61
(dp484
sg70
g285
sg63
(lp485
g56
(g77
g58
NtRp486
(dp487
g61
(dp488
g81
g82
ssg70
g482
sg63
(lp489
S'session_id_ddlagoon'
p490
asbag56
(g77
g58
NtRp491
(dp492
g61
(dp493
g88
g89
ssg70
g482
sg63
(lp494
S':'
asbag56
(g77
g58
NtRp495
(dp496
g61
(dp497
sg70
g482
sg63
(lp498
g56
(g57
g58
NtRp499
(dp500
g61
(dp501
g69
I4
ssg70
g495
sg63
(lp502
g56
(g65
g58
NtRp503
(dp504
g61
(dp505
g69
I3
ssg70
Nsg63
(lp506
g56
(g72
g58
NtRp507
(dp508
g61
(dp509
sg70
g503
sg63
(lp510
g56
(g77
g58
NtRp511
(dp512
g61
(dp513
g81
g82
ssg70
g507
sg63
(lp514
g322
asbag56
(g77
g58
NtRp515
(dp516
g61
(dp517
g88
g89
ssg70
g507
sg63
(lp518
S':'
asbag56
(g77
g58
NtRp519
(dp520
g61
(dp521
sg70
g507
sg63
(lp522
g56
(g57
g58
NtRp523
(dp524
g61
(dp525
g69
I3
ssg70
g519
sg63
(lp526
S''
asbasbasbag56
(g72
g58
NtRp527
(dp528
g61
(dp529
sg70
g503
sg63
(lp530
g56
(g77
g58
NtRp531
(dp532
g61
(dp533
g81
g82
ssg70
g527
sg63
(lp534
g343
asbag56
(g77
g58
NtRp535
(dp536
g61
(dp537
g88
g89
ssg70
g527
sg63
(lp538
S':'
asbag56
(g77
g58
NtRp539
(dp540
g61
(dp541
sg70
g527
sg63
(lp542
g56
(g57
g58
NtRp543
(dp544
g61
(dp545
g69
I3
ssg70
g539
sg63
(lp546
S''
asbasbasbag56
(g72
g58
NtRp547
(dp548
g61
(dp549
sg70
g503
sg63
(lp550
g56
(g77
g58
NtRp551
(dp552
g61
(dp553
g81
g82
ssg70
g547
sg63
(lp554
g364
asbag56
(g77
g58
NtRp555
(dp556
g61
(dp557
g88
g89
ssg70
g547
sg63
(lp558
S':'
asbag56
(g77
g58
NtRp559
(dp560
g61
(dp561
sg70
g547
sg63
(lp562
g56
(g57
g58
NtRp563
(dp564
g61
(dp565
g69
I3
ssg70
g559
sg63
(lp566
S''
asbasbasbag56
(g72
g58
NtRp567
(dp568
g61
(dp569
sg70
g503
sg63
(lp570
g56
(g77
g58
NtRp571
(dp572
g61
(dp573
g81
g82
ssg70
g567
sg63
(lp574
g385
asbag56
(g77
g58
NtRp575
(dp576
g61
(dp577
g88
g89
ssg70
g567
sg63
(lp578
S':'
asbag56
(g77
g58
NtRp579
(dp580
g61
(dp581
sg70
g567
sg63
(lp582
g56
(g57
g58
NtRp583
(dp584
g61
(dp585
g69
I3
ssg70
g579
sg63
(lp586
S''
asbasbasbag56
(g72
g58
NtRp587
(dp588
g61
(dp589
sg70
g503
sg63
(lp590
g56
(g77
g58
NtRp591
(dp592
g61
(dp593
g81
g82
ssg70
g587
sg63
(lp594
g406
asbag56
(g77
g58
NtRp595
(dp596
g61
(dp597
g88
g89
ssg70
g587
sg63
(lp598
S':'
asbag56
(g77
g58
NtRp599
(dp600
g61
(dp601
sg70
g587
sg63
(lp602
g56
(g57
g58
NtRp603
(dp604
g61
(dp605
g69
I3
ssg70
g599
sg63
(lp606
S''
asbasbasbag56
(g72
g58
NtRp607
(dp608
g61
(dp609
sg70
g503
sg63
(lp610
g56
(g77
g58
NtRp611
(dp612
g61
(dp613
g81
g82
ssg70
g607
sg63
(lp614
g427
asbag56
(g77
g58
NtRp615
(dp616
g61
(dp617
g88
g89
ssg70
g607
sg63
(lp618
S':'
asbag56
(g77
g58
NtRp619
(dp620
g61
(dp621
sg70
g607
sg63
(lp622
g56
(g57
g58
NtRp623
(dp624
g61
(dp625
g69
I3
ssg70
g619
sg63
(lp626
S''
asbasbasbag56
(g72
g58
NtRp627
(dp628
g61
(dp629
sg70
g503
sg63
(lp630
g56
(g77
g58
NtRp631
(dp632
g61
(dp633
g81
g82
ssg70
g627
sg63
(lp634
g448
asbag56
(g77
g58
NtRp635
(dp636
g61
(dp637
g88
g89
ssg70
g627
sg63
(lp638
S':'
asbag56
(g77
g58
NtRp639
(dp640
g61
(dp641
sg70
g627
sg63
(lp642
g56
(g57
g58
NtRp643
(dp644
g61
(dp645
g69
I3
ssg70
g639
sg63
(lp646
S''
asbasbasbag56
(g72
g58
NtRp647
(dp648
g61
(dp649
sg70
g503
sg63
(lp650
g56
(g77
g58
NtRp651
(dp652
g61
(dp653
g81
g82
ssg70
g647
sg63
(lp654
g469
asbag56
(g77
g58
NtRp655
(dp656
g61
(dp657
g88
g89
ssg70
g647
sg63
(lp658
S':'
asbag56
(g77
g58
NtRp659
(dp660
g61
(dp661
sg70
g647
sg63
(lp662
g56
(g57
g58
NtRp663
(dp664
g61
(dp665
g69
I3
ssg70
g659
sg63
(lp666
S''
asbasbasbasbasbasbasbag56
(g72
g58
NtRp667
(dp668
g61
(dp669
sg70
g285
sg63
(lp670
g56
(g77
g58
NtRp671
(dp672
g61
(dp673
g81
g82
ssg70
g667
sg63
(lp674
S'session_id_welcome'
p675
asbag56
(g77
g58
NtRp676
(dp677
g61
(dp678
g88
g89
ssg70
g667
sg63
(lp679
S':'
asbag56
(g77
g58
NtRp680
(dp681
g61
(dp682
sg70
g667
sg63
(lp683
g56
(g57
g58
NtRp684
(dp685
g61
(dp686
g69
I4
ssg70
g680
sg63
(lp687
g56
(g65
g58
NtRp688
(dp689
g61
(dp690
g69
I3
ssg70
Nsg63
(lp691
g56
(g72
g58
NtRp692
(dp693
g61
(dp694
sg70
g688
sg63
(lp695
g56
(g77
g58
NtRp696
(dp697
g61
(dp698
g81
g82
ssg70
g692
sg63
(lp699
g322
asbag56
(g77
g58
NtRp700
(dp701
g61
(dp702
g88
g89
ssg70
g692
sg63
(lp703
S':'
asbag56
(g77
g58
NtRp704
(dp705
g61
(dp706
sg70
g692
sg63
(lp707
g56
(g57
g58
NtRp708
(dp709
g61
(dp710
g69
I3
ssg70
g704
sg63
(lp711
S''
asbasbasbag56
(g72
g58
NtRp712
(dp713
g61
(dp714
sg70
g688
sg63
(lp715
g56
(g77
g58
NtRp716
(dp717
g61
(dp718
g81
g82
ssg70
g712
sg63
(lp719
g343
asbag56
(g77
g58
NtRp720
(dp721
g61
(dp722
g88
g89
ssg70
g712
sg63
(lp723
S':'
asbag56
(g77
g58
NtRp724
(dp725
g61
(dp726
sg70
g712
sg63
(lp727
g56
(g57
g58
NtRp728
(dp729
g61
(dp730
g69
I3
ssg70
g724
sg63
(lp731
S''
asbasbasbag56
(g72
g58
NtRp732
(dp733
g61
(dp734
sg70
g688
sg63
(lp735
g56
(g77
g58
NtRp736
(dp737
g61
(dp738
g81
g82
ssg70
g732
sg63
(lp739
g364
asbag56
(g77
g58
NtRp740
(dp741
g61
(dp742
g88
g89
ssg70
g732
sg63
(lp743
S':'
asbag56
(g77
g58
NtRp744
(dp745
g61
(dp746
sg70
g732
sg63
(lp747
g56
(g57
g58
NtRp748
(dp749
g61
(dp750
g69
I3
ssg70
g744
sg63
(lp751
S''
asbasbasbag56
(g72
g58
NtRp752
(dp753
g61
(dp754
sg70
g688
sg63
(lp755
g56
(g77
g58
NtRp756
(dp757
g61
(dp758
g81
g82
ssg70
g752
sg63
(lp759
g385
asbag56
(g77
g58
NtRp760
(dp761
g61
(dp762
g88
g89
ssg70
g752
sg63
(lp763
S':'
asbag56
(g77
g58
NtRp764
(dp765
g61
(dp766
sg70
g752
sg63
(lp767
g56
(g57
g58
NtRp768
(dp769
g61
(dp770
g69
I3
ssg70
g764
sg63
(lp771
S''
asbasbasbag56
(g72
g58
NtRp772
(dp773
g61
(dp774
sg70
g688
sg63
(lp775
g56
(g77
g58
NtRp776
(dp777
g61
(dp778
g81
g82
ssg70
g772
sg63
(lp779
g406
asbag56
(g77
g58
NtRp780
(dp781
g61
(dp782
g88
g89
ssg70
g772
sg63
(lp783
S':'
asbag56
(g77
g58
NtRp784
(dp785
g61
(dp786
sg70
g772
sg63
(lp787
g56
(g57
g58
NtRp788
(dp789
g61
(dp790
g69
I3
ssg70
g784
sg63
(lp791
S''
asbasbasbag56
(g72
g58
NtRp792
(dp793
g61
(dp794
sg70
g688
sg63
(lp795
g56
(g77
g58
NtRp796
(dp797
g61
(dp798
g81
g82
ssg70
g792
sg63
(lp799
g427
asbag56
(g77
g58
NtRp800
(dp801
g61
(dp802
g88
g89
ssg70
g792
sg63
(lp803
S':'
asbag56
(g77
g58
NtRp804
(dp805
g61
(dp806
sg70
g792
sg63
(lp807
g56
(g57
g58
NtRp808
(dp809
g61
(dp810
g69
I3
ssg70
g804
sg63
(lp811
S''
asbasbasbag56
(g72
g58
NtRp812
(dp813
g61
(dp814
sg70
g688
sg63
(lp815
g56
(g77
g58
NtRp816
(dp817
g61
(dp818
g81
g82
ssg70
g812
sg63
(lp819
g448
asbag56
(g77
g58
NtRp820
(dp821
g61
(dp822
g88
g89
ssg70
g812
sg63
(lp823
S':'
asbag56
(g77
g58
NtRp824
(dp825
g61
(dp826
sg70
g812
sg63
(lp827
g56
(g57
g58
NtRp828
(dp829
g61
(dp830
g69
I3
ssg70
g824
sg63
(lp831
S''
asbasbasbag56
(g72
g58
NtRp832
(dp833
g61
(dp834
sg70
g688
sg63
(lp835
g56
(g77
g58
NtRp836
(dp837
g61
(dp838
g81
g82
ssg70
g832
sg63
(lp839
g469
asbag56
(g77
g58
NtRp840
(dp841
g61
(dp842
g88
g89
ssg70
g832
sg63
(lp843
S':'
asbag56
(g77
g58
NtRp844
(dp845
g61
(dp846
sg70
g832
sg63
(lp847
g56
(g57
g58
NtRp848
(dp849
g61
(dp850
g69
I3
ssg70
g844
sg63
(lp851
S''
asbasbasbasbasbasbasbasbasbasbasbag56
(g72
g58
NtRp852
(dp853
g61
(dp854
sg70
g66
sg63
(lp855
g56
(g77
g58
NtRp856
(dp857
g61
(dp858
g81
g82
ssg70
g852
sg63
(lp859
S'env'
p860
asbag56
(g77
g58
NtRp861
(dp862
g61
(dp863
g88
g89
ssg70
g852
sg63
(lp864
S':'
asbag56
(g77
g58
NtRp865
(dp866
g61
(dp867
sg70
g852
sg63
(lp868
g56
(g57
g58
NtRp869
(dp870
g61
(dp871
g69
I5
ssg70
g865
sg63
(lp872
g56
(g65
g58
NtRp873
(dp874
g61
(dp875
g69
I4
ssg70
Nsg63
(lp876
g56
(g72
g58
NtRp877
(dp878
g61
(dp879
sg70
g873
sg63
(lp880
g56
(g77
g58
NtRp881
(dp882
g61
(dp883
g81
g82
ssg70
g877
sg63
(lp884
S'app_folders'
p885
asbag56
(g77
g58
NtRp886
(dp887
g61
(dp888
g88
g89
ssg70
g877
sg63
(lp889
S':'
asbag56
(g77
g58
NtRp890
(dp891
g61
(dp892
sg70
g877
sg63
(lp893
g56
(g57
g58
NtRp894
(dp895
g61
(dp896
g69
I4
ssg70
g890
sg63
(lp897
S"set(['/windows/Users/Thomas/Dropbox/appz/2011/GAE/ddl-lagoon/applications/ddlagoon/', '/windows/Users/Thomas/Dropbox/appz/2011/GAE/ddl-lagoon/applications/welcome/', '/windows/Users/Thomas/Dropbox/appz/2011/GAE/ddl-lagoon/applications/admin/'])"
p898
asbasbasbag56
(g72
g58
NtRp899
(dp900
g61
(dp901
sg70
g873
sg63
(lp902
g56
(g77
g58
NtRp903
(dp904
g61
(dp905
g81
g82
ssg70
g899
sg63
(lp906
S'applications_parent'
p907
asbag56
(g77
g58
NtRp908
(dp909
g61
(dp910
g88
g89
ssg70
g899
sg63
(lp911
S':'
asbag56
(g77
g58
NtRp912
(dp913
g61
(dp914
sg70
g899
sg63
(lp915
g56
(g57
g58
NtRp916
(dp917
g61
(dp918
g69
I4
ssg70
g912
sg63
(lp919
S'/windows/Users/Thomas/Dropbox/appz/2011/GAE/ddl-lagoon'
p920
asbasbasbag56
(g72
g58
NtRp921
(dp922
g61
(dp923
sg70
g873
sg63
(lp924
g56
(g77
g58
NtRp925
(dp926
g61
(dp927
g81
g82
ssg70
g921
sg63
(lp928
S'cmd_args'
p929
asbag56
(g77
g58
NtRp930
(dp931
g61
(dp932
g88
g89
ssg70
g921
sg63
(lp933
S':'
asbag56
(g77
g58
NtRp934
(dp935
g61
(dp936
sg70
g921
sg63
(lp937
g56
(g57
g58
NtRp938
(dp939
g61
(dp940
g69
I4
ssg70
g934
sg63
(lp941
g56
(g65
g58
NtRp942
(dp943
g61
(dp944
g69
I3
ssg70
Nsg63
(lp945
sbasbasbasbag56
(g72
g58
NtRp946
(dp947
g61
(dp948
sg70
g873
sg63
(lp949
g56
(g77
g58
NtRp950
(dp951
g61
(dp952
g81
g82
ssg70
g946
sg63
(lp953
S'cmd_options'
p954
asbag56
(g77
g58
NtRp955
(dp956
g61
(dp957
g88
g89
ssg70
g946
sg63
(lp958
S':'
asbag56
(g77
g58
NtRp959
(dp960
g61
(dp961
sg70
g946
sg63
(lp962
g56
(g57
g58
NtRp963
(dp964
g61
(dp965
g69
I4
ssg70
g959
sg63
(lp966
S"<Values at 0x2569cf8: {'verbose': False, 'ip': '127.0.0.1', 'shutdown_timeout': 5, 'taskbar': False, 'nocron': False, 'pid_filename': 'httpserver.pid', 'maxthreads': None, 'softcron': False, 'server_name': 'VPCF22AJ', 'bpython': False, 'nogui': False, 'port': 8000, 'extcron': False, 'debuglevel': 30, 'test': None, 'folder': '/windows/Users/Thomas/Dropbox/appz/2011/GAE/ddl-lagoon', 'config': '', 'import_models': False, 'winservice': '', 'shell': None, 'run': '', 'log_filename': 'httpserver.log', 'args': [''], 'ssl_ca_certificate': None, 'scheduler': None, 'profiler_filename': None, 'ssl_private_key': '', 'password': 'admin', 'request_queue_size': 5, 'ssl_certificate': '', 'cronjob': False, 'plain': False, 'quiet': False, 'interfaces': None, 'minthreads': None, 'timeout': 10, 'numthreads': None, 'nobanner': False}>"
p967
asbasbasbag56
(g72
g58
NtRp968
(dp969
g61
(dp970
sg70
g873
sg63
(lp971
g56
(g77
g58
NtRp972
(dp973
g61
(dp974
g81
g82
ssg70
g968
sg63
(lp975
S'db_sessions'
p976
asbag56
(g77
g58
NtRp977
(dp978
g61
(dp979
g88
g89
ssg70
g968
sg63
(lp980
S':'
asbag56
(g77
g58
NtRp981
(dp982
g61
(dp983
sg70
g968
sg63
(lp984
g56
(g57
g58
NtRp985
(dp986
g61
(dp987
g69
I4
ssg70
g981
sg63
(lp988
S'set([])'
p989
asbasbasbag56
(g72
g58
NtRp990
(dp991
g61
(dp992
sg70
g873
sg63
(lp993
g56
(g77
g58
NtRp994
(dp995
g61
(dp996
g81
g82
ssg70
g990
sg63
(lp997
S'debugging'
p998
asbag56
(g77
g58
NtRp999
(dp1000
g61
(dp1001
g88
g89
ssg70
g990
sg63
(lp1002
S':'
asbag56
(g77
g58
NtRp1003
(dp1004
g61
(dp1005
sg70
g990
sg63
(lp1006
g56
(g57
g58
NtRp1007
(dp1008
g61
(dp1009
g69
I4
ssg70
g1003
sg63
(lp1010
g99
asbasbasbag56
(g72
g58
NtRp1011
(dp1012
g61
(dp1013
sg70
g873
sg63
(lp1014
g56
(g77
g58
NtRp1015
(dp1016
g61
(dp1017
g81
g82
ssg70
g1011
sg63
(lp1018
S'gluon_parent'
p1019
asbag56
(g77
g58
NtRp1020
(dp1021
g61
(dp1022
g88
g89
ssg70
g1011
sg63
(lp1023
S':'
asbag56
(g77
g58
NtRp1024
(dp1025
g61
(dp1026
sg70
g1011
sg63
(lp1027
g56
(g57
g58
NtRp1028
(dp1029
g61
(dp1030
g69
I4
ssg70
g1024
sg63
(lp1031
S'/windows/Users/Thomas/Dropbox/appz/2011/GAE/ddl-lagoon'
p1032
asbasbasbag56
(g72
g58
NtRp1033
(dp1034
g61
(dp1035
sg70
g873
sg63
(lp1036
g56
(g77
g58
NtRp1037
(dp1038
g61
(dp1039
g81
g82
ssg70
g1033
sg63
(lp1040
S'http_accept'
p1041
asbag56
(g77
g58
NtRp1042
(dp1043
g61
(dp1044
g88
g89
ssg70
g1033
sg63
(lp1045
S':'
asbag56
(g77
g58
NtRp1046
(dp1047
g61
(dp1048
sg70
g1033
sg63
(lp1049
g56
(g57
g58
NtRp1050
(dp1051
g61
(dp1052
g69
I4
ssg70
g1046
sg63
(lp1053
S'text/html,application/xhtml+xml,application/xml;q=0.9,*/*;q=0.8'
p1054
asbasbasbag56
(g72
g58
NtRp1055
(dp1056
g61
(dp1057
sg70
g873
sg63
(lp1058
g56
(g77
g58
NtRp1059
(dp1060
g61
(dp1061
g81
g82
ssg70
g1055
sg63
(lp1062
S'http_accept_charset'
p1063
asbag56
(g77
g58
NtRp1064
(dp1065
g61
(dp1066
g88
g89
ssg70
g1055
sg63
(lp1067
S':'
asbag56
(g77
g58
NtRp1068
(dp1069
g61
(dp1070
sg70
g1055
sg63
(lp1071
g56
(g57
g58
NtRp1072
(dp1073
g61
(dp1074
g69
I4
ssg70
g1068
sg63
(lp1075
S'ISO-8859-1,utf-8;q=0.7,*;q=0.3'
p1076
asbasbasbag56
(g72
g58
NtRp1077
(dp1078
g61
(dp1079
sg70
g873
sg63
(lp1080
g56
(g77
g58
NtRp1081
(dp1082
g61
(dp1083
g81
g82
ssg70
g1077
sg63
(lp1084
S'http_accept_encoding'
p1085
asbag56
(g77
g58
NtRp1086
(dp1087
g61
(dp1088
g88
g89
ssg70
g1077
sg63
(lp1089
S':'
asbag56
(g77
g58
NtRp1090
(dp1091
g61
(dp1092
sg70
g1077
sg63
(lp1093
g56
(g57
g58
NtRp1094
(dp1095
g61
(dp1096
g69
I4
ssg70
g1090
sg63
(lp1097
S'gzip,deflate,sdch'
p1098
asbasbasbag56
(g72
g58
NtRp1099
(dp1100
g61
(dp1101
sg70
g873
sg63
(lp1102
g56
(g77
g58
NtRp1103
(dp1104
g61
(dp1105
g81
g82
ssg70
g1099
sg63
(lp1106
S'http_accept_language'
p1107
asbag56
(g77
g58
NtRp1108
(dp1109
g61
(dp1110
g88
g89
ssg70
g1099
sg63
(lp1111
S':'
asbag56
(g77
g58
NtRp1112
(dp1113
g61
(dp1114
sg70
g1099
sg63
(lp1115
g56
(g57
g58
NtRp1116
(dp1117
g61
(dp1118
g69
I4
ssg70
g1112
sg63
(lp1119
S'en-US,en;q=0.8,fr;q=0.6'
p1120
asbasbasbag56
(g72
g58
NtRp1121
(dp1122
g61
(dp1123
sg70
g873
sg63
(lp1124
g56
(g77
g58
NtRp1125
(dp1126
g61
(dp1127
g81
g82
ssg70
g1121
sg63
(lp1128
S'http_cache_control'
p1129
asbag56
(g77
g58
NtRp1130
(dp1131
g61
(dp1132
g88
g89
ssg70
g1121
sg63
(lp1133
S':'
asbag56
(g77
g58
NtRp1134
(dp1135
g61
(dp1136
sg70
g1121
sg63
(lp1137
g56
(g57
g58
NtRp1138
(dp1139
g61
(dp1140
g69
I4
ssg70
g1134
sg63
(lp1141
S'max-age=0'
p1142
asbasbasbag56
(g72
g58
NtRp1143
(dp1144
g61
(dp1145
sg70
g873
sg63
(lp1146
g56
(g77
g58
NtRp1147
(dp1148
g61
(dp1149
g81
g82
ssg70
g1143
sg63
(lp1150
S'http_connection'
p1151
asbag56
(g77
g58
NtRp1152
(dp1153
g61
(dp1154
g88
g89
ssg70
g1143
sg63
(lp1155
S':'
asbag56
(g77
g58
NtRp1156
(dp1157
g61
(dp1158
sg70
g1143
sg63
(lp1159
g56
(g57
g58
NtRp1160
(dp1161
g61
(dp1162
g69
I4
ssg70
g1156
sg63
(lp1163
S'keep-alive'
p1164
asbasbasbag56
(g72
g58
NtRp1165
(dp1166
g61
(dp1167
sg70
g873
sg63
(lp1168
g56
(g77
g58
NtRp1169
(dp1170
g61
(dp1171
g81
g82
ssg70
g1165
sg63
(lp1172
S'http_cookie'
p1173
asbag56
(g77
g58
NtRp1174
(dp1175
g61
(dp1176
g88
g89
ssg70
g1165
sg63
(lp1177
S':'
asbag56
(g77
g58
NtRp1178
(dp1179
g61
(dp1180
sg70
g1165
sg63
(lp1181
g56
(g57
g58
NtRp1182
(dp1183
g61
(dp1184
g69
I4
ssg70
g1178
sg63
(lp1185
S'__utma_a2a=5510587673.1349489975.1317933049.1319659660.1319659660.47; session_id_welcome=127.0.0.1-f7fb4a09-ce09-4815-abcc-fca1d9093faf; session_id_ddlagoon=127.0.0.1-19127e1a-7611-4f40-b65d-22ada6f4ed65; session_id_admin=127.0.0.1-975d2e86-8c26-4bdc-8b21-2f846f38d507'
p1186
asbasbasbag56
(g72
g58
NtRp1187
(dp1188
g61
(dp1189
sg70
g873
sg63
(lp1190
g56
(g77
g58
NtRp1191
(dp1192
g61
(dp1193
g81
g82
ssg70
g1187
sg63
(lp1194
S'http_host'
p1195
asbag56
(g77
g58
NtRp1196
(dp1197
g61
(dp1198
g88
g89
ssg70
g1187
sg63
(lp1199
S':'
asbag56
(g77
g58
NtRp1200
(dp1201
g61
(dp1202
sg70
g1187
sg63
(lp1203
g56
(g57
g58
NtRp1204
(dp1205
g61
(dp1206
g69
I4
ssg70
g1200
sg63
(lp1207
S'127.0.0.1:8000'
p1208
asbasbasbag56
(g72
g58
NtRp1209
(dp1210
g61
(dp1211
sg70
g873
sg63
(lp1212
g56
(g77
g58
NtRp1213
(dp1214
g61
(dp1215
g81
g82
ssg70
g1209
sg63
(lp1216
S'http_user_agent'
p1217
asbag56
(g77
g58
NtRp1218
(dp1219
g61
(dp1220
g88
g89
ssg70
g1209
sg63
(lp1221
S':'
asbag56
(g77
g58
NtRp1222
(dp1223
g61
(dp1224
sg70
g1209
sg63
(lp1225
g56
(g57
g58
NtRp1226
(dp1227
g61
(dp1228
g69
I4
ssg70
g1222
sg63
(lp1229
S'Mozilla/5.0 (X11; Linux x86_64) AppleWebKit/535.2 (KHTML, like Gecko) Chrome/15.0.874.106 Safari/535.2'
p1230
asbasbasbag56
(g72
g58
NtRp1231
(dp1232
g61
(dp1233
sg70
g873
sg63
(lp1234
g56
(g77
g58
NtRp1235
(dp1236
g61
(dp1237
g81
g82
ssg70
g1231
sg63
(lp1238
S'is_jython'
p1239
asbag56
(g77
g58
NtRp1240
(dp1241
g61
(dp1242
g88
g89
ssg70
g1231
sg63
(lp1243
S':'
asbag56
(g77
g58
NtRp1244
(dp1245
g61
(dp1246
sg70
g1231
sg63
(lp1247
g56
(g57
g58
NtRp1248
(dp1249
g61
(dp1250
g69
I4
ssg70
g1244
sg63
(lp1251
g99
asbasbasbag56
(g72
g58
NtRp1252
(dp1253
g61
(dp1254
sg70
g873
sg63
(lp1255
g56
(g77
g58
NtRp1256
(dp1257
g61
(dp1258
g81
g82
ssg70
g1252
sg63
(lp1259
S'path_info'
p1260
asbag56
(g77
g58
NtRp1261
(dp1262
g61
(dp1263
g88
g89
ssg70
g1252
sg63
(lp1264
S':'
asbag56
(g77
g58
NtRp1265
(dp1266
g61
(dp1267
sg70
g1252
sg63
(lp1268
g56
(g57
g58
NtRp1269
(dp1270
g61
(dp1271
g69
I4
ssg70
g1265
sg63
(lp1272
S'/ddlagoon/ddl/get/run/ddl/14/The_Thing_2011_TS_XviD_READNFO___MiSTERE.avi'
p1273
asbasbasbag56
(g72
g58
NtRp1274
(dp1275
g61
(dp1276
sg70
g873
sg63
(lp1277
g56
(g77
g58
NtRp1278
(dp1279
g61
(dp1280
g81
g82
ssg70
g1274
sg63
(lp1281
S'query_string'
p1282
asbag56
(g77
g58
NtRp1283
(dp1284
g61
(dp1285
g88
g89
ssg70
g1274
sg63
(lp1286
S':'
asbag56
(g77
g58
NtRp1287
(dp1288
g61
(dp1289
sg70
g1274
sg63
(lp1290
g56
(g57
g58
NtRp1291
(dp1292
g61
(dp1293
g69
I4
ssg70
g1287
sg63
(lp1294
S''
asbasbasbag56
(g72
g58
NtRp1295
(dp1296
g61
(dp1297
sg70
g873
sg63
(lp1298
g56
(g77
g58
NtRp1299
(dp1300
g61
(dp1301
g81
g82
ssg70
g1295
sg63
(lp1302
S'remote_addr'
p1303
asbag56
(g77
g58
NtRp1304
(dp1305
g61
(dp1306
g88
g89
ssg70
g1295
sg63
(lp1307
S':'
asbag56
(g77
g58
NtRp1308
(dp1309
g61
(dp1310
sg70
g1295
sg63
(lp1311
g56
(g57
g58
NtRp1312
(dp1313
g61
(dp1314
g69
I4
ssg70
g1308
sg63
(lp1315
g241
asbasbasbag56
(g72
g58
NtRp1316
(dp1317
g61
(dp1318
sg70
g873
sg63
(lp1319
g56
(g77
g58
NtRp1320
(dp1321
g61
(dp1322
g81
g82
ssg70
g1316
sg63
(lp1323
S'remote_port'
p1324
asbag56
(g77
g58
NtRp1325
(dp1326
g61
(dp1327
g88
g89
ssg70
g1316
sg63
(lp1328
S':'
asbag56
(g77
g58
NtRp1329
(dp1330
g61
(dp1331
sg70
g1316
sg63
(lp1332
g56
(g57
g58
NtRp1333
(dp1334
g61
(dp1335
g69
I4
ssg70
g1329
sg63
(lp1336
S'45769'
p1337
asbasbasbag56
(g72
g58
NtRp1338
(dp1339
g61
(dp1340
sg70
g873
sg63
(lp1341
g56
(g77
g58
NtRp1342
(dp1343
g61
(dp1344
g81
g82
ssg70
g1338
sg63
(lp1345
S'request_method'
p1346
asbag56
(g77
g58
NtRp1347
(dp1348
g61
(dp1349
g88
g89
ssg70
g1338
sg63
(lp1350
S':'
asbag56
(g77
g58
NtRp1351
(dp1352
g61
(dp1353
sg70
g1338
sg63
(lp1354
g56
(g57
g58
NtRp1355
(dp1356
g61
(dp1357
g69
I4
ssg70
g1351
sg63
(lp1358
S'GET'
p1359
asbasbasbag56
(g72
g58
NtRp1360
(dp1361
g61
(dp1362
sg70
g873
sg63
(lp1363
g56
(g77
g58
NtRp1364
(dp1365
g61
(dp1366
g81
g82
ssg70
g1360
sg63
(lp1367
S'request_uri'
p1368
asbag56
(g77
g58
NtRp1369
(dp1370
g61
(dp1371
g88
g89
ssg70
g1360
sg63
(lp1372
S':'
asbag56
(g77
g58
NtRp1373
(dp1374
g61
(dp1375
sg70
g1360
sg63
(lp1376
g56
(g57
g58
NtRp1377
(dp1378
g61
(dp1379
g69
I4
ssg70
g1373
sg63
(lp1380
g1273
asbasbasbag56
(g72
g58
NtRp1381
(dp1382
g61
(dp1383
sg70
g873
sg63
(lp1384
g56
(g77
g58
NtRp1385
(dp1386
g61
(dp1387
g81
g82
ssg70
g1381
sg63
(lp1388
S'script_name'
p1389
asbag56
(g77
g58
NtRp1390
(dp1391
g61
(dp1392
g88
g89
ssg70
g1381
sg63
(lp1393
S':'
asbag56
(g77
g58
NtRp1394
(dp1395
g61
(dp1396
sg70
g1381
sg63
(lp1397
g56
(g57
g58
NtRp1398
(dp1399
g61
(dp1400
g69
I4
ssg70
g1394
sg63
(lp1401
S''
asbasbasbag56
(g72
g58
NtRp1402
(dp1403
g61
(dp1404
sg70
g873
sg63
(lp1405
g56
(g77
g58
NtRp1406
(dp1407
g61
(dp1408
g81
g82
ssg70
g1402
sg63
(lp1409
S'server_name'
p1410
asbag56
(g77
g58
NtRp1411
(dp1412
g61
(dp1413
g88
g89
ssg70
g1402
sg63
(lp1414
S':'
asbag56
(g77
g58
NtRp1415
(dp1416
g61
(dp1417
sg70
g1402
sg63
(lp1418
g56
(g57
g58
NtRp1419
(dp1420
g61
(dp1421
g69
I4
ssg70
g1415
sg63
(lp1422
S'VPCF22AJ'
p1423
asbasbasbag56
(g72
g58
NtRp1424
(dp1425
g61
(dp1426
sg70
g873
sg63
(lp1427
g56
(g77
g58
NtRp1428
(dp1429
g61
(dp1430
g81
g82
ssg70
g1424
sg63
(lp1431
S'server_port'
p1432
asbag56
(g77
g58
NtRp1433
(dp1434
g61
(dp1435
g88
g89
ssg70
g1424
sg63
(lp1436
S':'
asbag56
(g77
g58
NtRp1437
(dp1438
g61
(dp1439
sg70
g1424
sg63
(lp1440
g56
(g57
g58
NtRp1441
(dp1442
g61
(dp1443
g69
I4
ssg70
g1437
sg63
(lp1444
S'8000'
p1445
asbasbasbag56
(g72
g58
NtRp1446
(dp1447
g61
(dp1448
sg70
g873
sg63
(lp1449
g56
(g77
g58
NtRp1450
(dp1451
g61
(dp1452
g81
g82
ssg70
g1446
sg63
(lp1453
S'server_protocol'
p1454
asbag56
(g77
g58
NtRp1455
(dp1456
g61
(dp1457
g88
g89
ssg70
g1446
sg63
(lp1458
S':'
asbag56
(g77
g58
NtRp1459
(dp1460
g61
(dp1461
sg70
g1446
sg63
(lp1462
g56
(g57
g58
NtRp1463
(dp1464
g61
(dp1465
g69
I4
ssg70
g1459
sg63
(lp1466
S'HTTP/1.1'
p1467
asbasbasbag56
(g72
g58
NtRp1468
(dp1469
g61
(dp1470
sg70
g873
sg63
(lp1471
g56
(g77
g58
NtRp1472
(dp1473
g61
(dp1474
g81
g82
ssg70
g1468
sg63
(lp1475
S'server_software'
p1476
asbag56
(g77
g58
NtRp1477
(dp1478
g61
(dp1479
g88
g89
ssg70
g1468
sg63
(lp1480
S':'
asbag56
(g77
g58
NtRp1481
(dp1482
g61
(dp1483
sg70
g1468
sg63
(lp1484
g56
(g57
g58
NtRp1485
(dp1486
g61
(dp1487
g69
I4
ssg70
g1481
sg63
(lp1488
S'Rocket 1.2.4'
p1489
asbasbasbag56
(g72
g58
NtRp1490
(dp1491
g61
(dp1492
sg70
g873
sg63
(lp1493
g56
(g77
g58
NtRp1494
(dp1495
g61
(dp1496
g81
g82
ssg70
g1490
sg63
(lp1497
S'web2py_crontype'
p1498
asbag56
(g77
g58
NtRp1499
(dp1500
g61
(dp1501
g88
g89
ssg70
g1490
sg63
(lp1502
S':'
asbag56
(g77
g58
NtRp1503
(dp1504
g61
(dp1505
sg70
g1490
sg63
(lp1506
g56
(g57
g58
NtRp1507
(dp1508
g61
(dp1509
g69
I4
ssg70
g1503
sg63
(lp1510
S'hard'
p1511
asbasbasbag56
(g72
g58
NtRp1512
(dp1513
g61
(dp1514
sg70
g873
sg63
(lp1515
g56
(g77
g58
NtRp1516
(dp1517
g61
(dp1518
g81
g82
ssg70
g1512
sg63
(lp1519
S'web2py_original_uri'
p1520
asbag56
(g77
g58
NtRp1521
(dp1522
g61
(dp1523
g88
g89
ssg70
g1512
sg63
(lp1524
S':'
asbag56
(g77
g58
NtRp1525
(dp1526
g61
(dp1527
sg70
g1512
sg63
(lp1528
g56
(g57
g58
NtRp1529
(dp1530
g61
(dp1531
g69
I4
ssg70
g1525
sg63
(lp1532
g1273
asbasbasbag56
(g72
g58
NtRp1533
(dp1534
g61
(dp1535
sg70
g873
sg63
(lp1536
g56
(g77
g58
NtRp1537
(dp1538
g61
(dp1539
g81
g82
ssg70
g1533
sg63
(lp1540
S'web2py_path'
p1541
asbag56
(g77
g58
NtRp1542
(dp1543
g61
(dp1544
g88
g89
ssg70
g1533
sg63
(lp1545
S':'
asbag56
(g77
g58
NtRp1546
(dp1547
g61
(dp1548
sg70
g1533
sg63
(lp1549
g56
(g57
g58
NtRp1550
(dp1551
g61
(dp1552
g69
I4
ssg70
g1546
sg63
(lp1553
g920
asbasbasbag56
(g72
g58
NtRp1554
(dp1555
g61
(dp1556
sg70
g873
sg63
(lp1557
g56
(g77
g58
NtRp1558
(dp1559
g61
(dp1560
g81
g82
ssg70
g1554
sg63
(lp1561
S'web2py_version'
p1562
asbag56
(g77
g58
NtRp1563
(dp1564
g61
(dp1565
g88
g89
ssg70
g1554
sg63
(lp1566
S':'
asbag56
(g77
g58
NtRp1567
(dp1568
g61
(dp1569
sg70
g1554
sg63
(lp1570
g56
(g57
g58
NtRp1571
(dp1572
g61
(dp1573
g69
I4
ssg70
g1567
sg63
(lp1574
g56
(g65
g58
NtRp1575
(dp1576
g61
(dp1577
g69
I3
ssg70
Nsg63
(lp1578
g56
(g72
g58
NtRp1579
(dp1580
g61
(dp1581
sg70
g1575
sg63
(lp1582
g56
(g77
g58
NtRp1583
(dp1584
g61
(dp1585
sg70
g1579
sg63
(lp1586
g56
(g57
g58
NtRp1587
(dp1588
g61
(dp1589
g69
I3
ssg70
g1583
sg63
(lp1590
S'1'
asbasbasbag56
(g72
g58
NtRp1591
(dp1592
g61
(dp1593
sg70
g1575
sg63
(lp1594
g56
(g77
g58
NtRp1595
(dp1596
g61
(dp1597
sg70
g1591
sg63
(lp1598
g56
(g57
g58
NtRp1599
(dp1600
g61
(dp1601
g69
I3
ssg70
g1595
sg63
(lp1602
S'99'
p1603
asbasbasbag56
(g72
g58
NtRp1604
(dp1605
g61
(dp1606
sg70
g1575
sg63
(lp1607
g56
(g77
g58
NtRp1608
(dp1609
g61
(dp1610
sg70
g1604
sg63
(lp1611
g56
(g57
g58
NtRp1612
(dp1613
g61
(dp1614
g69
I3
ssg70
g1608
sg63
(lp1615
S'2'
asbasbasbag56
(g72
g58
NtRp1616
(dp1617
g61
(dp1618
sg70
g1575
sg63
(lp1619
g56
(g77
g58
NtRp1620
(dp1621
g61
(dp1622
sg70
g1616
sg63
(lp1623
g56
(g57
g58
NtRp1624
(dp1625
g61
(dp1626
g69
I3
ssg70
g1620
sg63
(lp1627
S'datetime.datetime(2011, 9, 26, 6, 55, 33)'
p1628
asbasbasbag56
(g72
g58
NtRp1629
(dp1630
g61
(dp1631
sg70
g1575
sg63
(lp1632
g56
(g77
g58
NtRp1633
(dp1634
g61
(dp1635
sg70
g1629
sg63
(lp1636
g56
(g57
g58
NtRp1637
(dp1638
g61
(dp1639
g69
I3
ssg70
g1633
sg63
(lp1640
S'stable'
p1641
asbasbasbasbasbasbasbag56
(g72
g58
NtRp1642
(dp1643
g61
(dp1644
sg70
g873
sg63
(lp1645
g56
(g77
g58
NtRp1646
(dp1647
g61
(dp1648
g81
g82
ssg70
g1642
sg63
(lp1649
S'wsgi_errors'
p1650
asbag56
(g77
g58
NtRp1651
(dp1652
g61
(dp1653
g88
g89
ssg70
g1642
sg63
(lp1654
S':'
asbag56
(g77
g58
NtRp1655
(dp1656
g61
(dp1657
sg70
g1642
sg63
(lp1658
g56
(g57
g58
NtRp1659
(dp1660
g61
(dp1661
g69
I4
ssg70
g1655
sg63
(lp1662
S"<open file '<stderr>', mode 'w' at 0x7f0d1464c1e0>"
p1663
asbasbasbag56
(g72
g58
NtRp1664
(dp1665
g61
(dp1666
sg70
g873
sg63
(lp1667
g56
(g77
g58
NtRp1668
(dp1669
g61
(dp1670
g81
g82
ssg70
g1664
sg63
(lp1671
S'wsgi_file_wrapper'
p1672
asbag56
(g77
g58
NtRp1673
(dp1674
g61
(dp1675
g88
g89
ssg70
g1664
sg63
(lp1676
S':'
asbag56
(g77
g58
NtRp1677
(dp1678
g61
(dp1679
sg70
g1664
sg63
(lp1680
g56
(g57
g58
NtRp1681
(dp1682
g61
(dp1683
g69
I4
ssg70
g1677
sg63
(lp1684
S'<class wsgiref.util.FileWrapper at 0x24c5110>'
p1685
asbasbasbag56
(g72
g58
NtRp1686
(dp1687
g61
(dp1688
sg70
g873
sg63
(lp1689
g56
(g77
g58
NtRp1690
(dp1691
g61
(dp1692
g81
g82
ssg70
g1686
sg63
(lp1693
S'wsgi_input'
p1694
asbag56
(g77
g58
NtRp1695
(dp1696
g61
(dp1697
g88
g89
ssg70
g1686
sg63
(lp1698
S':'
asbag56
(g77
g58
NtRp1699
(dp1700
g61
(dp1701
sg70
g1686
sg63
(lp1702
g56
(g57
g58
NtRp1703
(dp1704
g61
(dp1705
g69
I4
ssg70
g1699
sg63
(lp1706
S'<socket._fileobject object at 0x32fbe50>'
p1707
asbasbasbag56
(g72
g58
NtRp1708
(dp1709
g61
(dp1710
sg70
g873
sg63
(lp1711
g56
(g77
g58
NtRp1712
(dp1713
g61
(dp1714
g81
g82
ssg70
g1708
sg63
(lp1715
S'wsgi_multiprocess'
p1716
asbag56
(g77
g58
NtRp1717
(dp1718
g61
(dp1719
g88
g89
ssg70
g1708
sg63
(lp1720
S':'
asbag56
(g77
g58
NtRp1721
(dp1722
g61
(dp1723
sg70
g1708
sg63
(lp1724
g56
(g57
g58
NtRp1725
(dp1726
g61
(dp1727
g69
I4
ssg70
g1721
sg63
(lp1728
g99
asbasbasbag56
(g72
g58
NtRp1729
(dp1730
g61
(dp1731
sg70
g873
sg63
(lp1732
g56
(g77
g58
NtRp1733
(dp1734
g61
(dp1735
g81
g82
ssg70
g1729
sg63
(lp1736
S'wsgi_multithread'
p1737
asbag56
(g77
g58
NtRp1738
(dp1739
g61
(dp1740
g88
g89
ssg70
g1729
sg63
(lp1741
S':'
asbag56
(g77
g58
NtRp1742
(dp1743
g61
(dp1744
sg70
g1729
sg63
(lp1745
g56
(g57
g58
NtRp1746
(dp1747
g61
(dp1748
g69
I4
ssg70
g1742
sg63
(lp1749
S'True'
p1750
asbasbasbag56
(g72
g58
NtRp1751
(dp1752
g61
(dp1753
sg70
g873
sg63
(lp1754
g56
(g77
g58
NtRp1755
(dp1756
g61
(dp1757
g81
g82
ssg70
g1751
sg63
(lp1758
S'wsgi_run_once'
p1759
asbag56
(g77
g58
NtRp1760
(dp1761
g61
(dp1762
g88
g89
ssg70
g1751
sg63
(lp1763
S':'
asbag56
(g77
g58
NtRp1764
(dp1765
g61
(dp1766
sg70
g1751
sg63
(lp1767
g56
(g57
g58
NtRp1768
(dp1769
g61
(dp1770
g69
I4
ssg70
g1764
sg63
(lp1771
g99
asbasbasbag56
(g72
g58
NtRp1772
(dp1773
g61
(dp1774
sg70
g873
sg63
(lp1775
g56
(g77
g58
NtRp1776
(dp1777
g61
(dp1778
g81
g82
ssg70
g1772
sg63
(lp1779
S'wsgi_url_scheme'
p1780
asbag56
(g77
g58
NtRp1781
(dp1782
g61
(dp1783
g88
g89
ssg70
g1772
sg63
(lp1784
S':'
asbag56
(g77
g58
NtRp1785
(dp1786
g61
(dp1787
sg70
g1772
sg63
(lp1788
g56
(g57
g58
NtRp1789
(dp1790
g61
(dp1791
g69
I4
ssg70
g1785
sg63
(lp1792
S'http'
p1793
asbasbasbag56
(g72
g58
NtRp1794
(dp1795
g61
(dp1796
sg70
g873
sg63
(lp1797
g56
(g77
g58
NtRp1798
(dp1799
g61
(dp1800
g81
g82
ssg70
g1794
sg63
(lp1801
S'wsgi_version'
p1802
asbag56
(g77
g58
NtRp1803
(dp1804
g61
(dp1805
g88
g89
ssg70
g1794
sg63
(lp1806
S':'
asbag56
(g77
g58
NtRp1807
(dp1808
g61
(dp1809
sg70
g1794
sg63
(lp1810
g56
(g57
g58
NtRp1811
(dp1812
g61
(dp1813
g69
I4
ssg70
g1807
sg63
(lp1814
g56
(g65
g58
NtRp1815
(dp1816
g61
(dp1817
g69
I3
ssg70
Nsg63
(lp1818
g56
(g72
g58
NtRp1819
(dp1820
g61
(dp1821
sg70
g1815
sg63
(lp1822
g56
(g77
g58
NtRp1823
(dp1824
g61
(dp1825
sg70
g1819
sg63
(lp1826
g56
(g57
g58
NtRp1827
(dp1828
g61
(dp1829
g69
I3
ssg70
g1823
sg63
(lp1830
S'1'
asbasbasbag56
(g72
g58
NtRp1831
(dp1832
g61
(dp1833
sg70
g1815
sg63
(lp1834
g56
(g77
g58
NtRp1835
(dp1836
g61
(dp1837
sg70
g1831
sg63
(lp1838
g56
(g57
g58
NtRp1839
(dp1840
g61
(dp1841
g69
I3
ssg70
g1835
sg63
(lp1842
S'0'
asbasbasbasbasbasbasbasbasbasbasbag56
(g72
g58
NtRp1843
(dp1844
g61
(dp1845
sg70
g66
sg63
(lp1846
g56
(g77
g58
NtRp1847
(dp1848
g61
(dp1849
g81
g82
ssg70
g1843
sg63
(lp1850
S'extension'
p1851
asbag56
(g77
g58
NtRp1852
(dp1853
g61
(dp1854
g88
g89
ssg70
g1843
sg63
(lp1855
S':'
asbag56
(g77
g58
NtRp1856
(dp1857
g61
(dp1858
sg70
g1843
sg63
(lp1859
g56
(g57
g58
NtRp1860
(dp1861
g61
(dp1862
g69
I5
ssg70
g1856
sg63
(lp1863
S'html'
p1864
asbasbasbag56
(g72
g58
NtRp1865
(dp1866
g61
(dp1867
sg70
g66
sg63
(lp1868
g56
(g77
g58
NtRp1869
(dp1870
g61
(dp1871
g81
g82
ssg70
g1865
sg63
(lp1872
S'folder'
p1873
asbag56
(g77
g58
NtRp1874
(dp1875
g61
(dp1876
g88
g89
ssg70
g1865
sg63
(lp1877
S':'
asbag56
(g77
g58
NtRp1878
(dp1879
g61
(dp1880
sg70
g1865
sg63
(lp1881
g56
(g57
g58
NtRp1882
(dp1883
g61
(dp1884
g69
I5
ssg70
g1878
sg63
(lp1885
S'/windows/Users/Thomas/Dropbox/appz/2011/GAE/ddl-lagoon/applications/ddlagoon/'
p1886
asbasbasbag56
(g72
g58
NtRp1887
(dp1888
g61
(dp1889
sg70
g66
sg63
(lp1890
g56
(g77
g58
NtRp1891
(dp1892
g61
(dp1893
g81
g82
ssg70
g1887
sg63
(lp1894
S'function'
p1895
asbag56
(g77
g58
NtRp1896
(dp1897
g61
(dp1898
g88
g89
ssg70
g1887
sg63
(lp1899
S':'
asbag56
(g77
g58
NtRp1900
(dp1901
g61
(dp1902
sg70
g1887
sg63
(lp1903
g56
(g57
g58
NtRp1904
(dp1905
g61
(dp1906
g69
I5
ssg70
g1900
sg63
(lp1907
S'get'
p1908
asbasbasbag56
(g72
g58
NtRp1909
(dp1910
g61
(dp1911
sg70
g66
sg63
(lp1912
g56
(g77
g58
NtRp1913
(dp1914
g61
(dp1915
g81
g82
ssg70
g1909
sg63
(lp1916
S'get_vars'
p1917
asbag56
(g77
g58
NtRp1918
(dp1919
g61
(dp1920
g88
g89
ssg70
g1909
sg63
(lp1921
S':'
asbag56
(g77
g58
NtRp1922
(dp1923
g61
(dp1924
sg70
g1909
sg63
(lp1925
g56
(g57
g58
NtRp1926
(dp1927
g61
(dp1928
g69
I5
ssg70
g1922
sg63
(lp1929
g56
(g65
g58
NtRp1930
(dp1931
g61
(dp1932
g69
I4
ssg70
Nsg63
(lp1933
sbasbasbasbag56
(g72
g58
NtRp1934
(dp1935
g61
(dp1936
sg70
g66
sg63
(lp1937
g56
(g77
g58
NtRp1938
(dp1939
g61
(dp1940
g81
g82
ssg70
g1934
sg63
(lp1941
S'global_settings'
p1942
asbag56
(g77
g58
NtRp1943
(dp1944
g61
(dp1945
g88
g89
ssg70
g1934
sg63
(lp1946
S':'
asbag56
(g77
g58
NtRp1947
(dp1948
g61
(dp1949
sg70
g1934
sg63
(lp1950
g56
(g57
g58
NtRp1951
(dp1952
g61
(dp1953
g69
I5
ssg70
g1947
sg63
(lp1954
g56
(g65
g58
NtRp1955
(dp1956
g61
(dp1957
g69
I4
ssg70
Nsg63
(lp1958
g56
(g72
g58
NtRp1959
(dp1960
g61
(dp1961
sg70
g1955
sg63
(lp1962
g56
(g77
g58
NtRp1963
(dp1964
g61
(dp1965
g81
g82
ssg70
g1959
sg63
(lp1966
g885
asbag56
(g77
g58
NtRp1967
(dp1968
g61
(dp1969
g88
g89
ssg70
g1959
sg63
(lp1970
S':'
asbag56
(g77
g58
NtRp1971
(dp1972
g61
(dp1973
sg70
g1959
sg63
(lp1974
g56
(g57
g58
NtRp1975
(dp1976
g61
(dp1977
g69
I4
ssg70
g1971
sg63
(lp1978
S"set(['/windows/Users/Thomas/Dropbox/appz/2011/GAE/ddl-lagoon/applications/ddlagoon/', '/windows/Users/Thomas/Dropbox/appz/2011/GAE/ddl-lagoon/applications/welcome/', '/windows/Users/Thomas/Dropbox/appz/2011/GAE/ddl-lagoon/applications/admin/'])"
p1979
asbasbasbag56
(g72
g58
NtRp1980
(dp1981
g61
(dp1982
sg70
g1955
sg63
(lp1983
g56
(g77
g58
NtRp1984
(dp1985
g61
(dp1986
g81
g82
ssg70
g1980
sg63
(lp1987
g907
asbag56
(g77
g58
NtRp1988
(dp1989
g61
(dp1990
g88
g89
ssg70
g1980
sg63
(lp1991
S':'
asbag56
(g77
g58
NtRp1992
(dp1993
g61
(dp1994
sg70
g1980
sg63
(lp1995
g56
(g57
g58
NtRp1996
(dp1997
g61
(dp1998
g69
I4
ssg70
g1992
sg63
(lp1999
g920
asbasbasbag56
(g72
g58
NtRp2000
(dp2001
g61
(dp2002
sg70
g1955
sg63
(lp2003
g56
(g77
g58
NtRp2004
(dp2005
g61
(dp2006
g81
g82
ssg70
g2000
sg63
(lp2007
g929
asbag56
(g77
g58
NtRp2008
(dp2009
g61
(dp2010
g88
g89
ssg70
g2000
sg63
(lp2011
S':'
asbag56
(g77
g58
NtRp2012
(dp2013
g61
(dp2014
sg70
g2000
sg63
(lp2015
g56
(g57
g58
NtRp2016
(dp2017
g61
(dp2018
g69
I4
ssg70
g2012
sg63
(lp2019
g56
(g65
g58
NtRp2020
(dp2021
g61
(dp2022
g69
I3
ssg70
Nsg63
(lp2023
sbasbasbasbag56
(g72
g58
NtRp2024
(dp2025
g61
(dp2026
sg70
g1955
sg63
(lp2027
g56
(g77
g58
NtRp2028
(dp2029
g61
(dp2030
g81
g82
ssg70
g2024
sg63
(lp2031
g954
asbag56
(g77
g58
NtRp2032
(dp2033
g61
(dp2034
g88
g89
ssg70
g2024
sg63
(lp2035
S':'
asbag56
(g77
g58
NtRp2036
(dp2037
g61
(dp2038
sg70
g2024
sg63
(lp2039
g56
(g57
g58
NtRp2040
(dp2041
g61
(dp2042
g69
I4
ssg70
g2036
sg63
(lp2043
S"<Values at 0x2569cf8: {'verbose': False, 'ip': '127.0.0.1', 'shutdown_timeout': 5, 'taskbar': False, 'nocron': False, 'pid_filename': 'httpserver.pid', 'maxthreads': None, 'softcron': False, 'server_name': 'VPCF22AJ', 'bpython': False, 'nogui': False, 'port': 8000, 'extcron': False, 'debuglevel': 30, 'test': None, 'folder': '/windows/Users/Thomas/Dropbox/appz/2011/GAE/ddl-lagoon', 'config': '', 'import_models': False, 'winservice': '', 'shell': None, 'run': '', 'log_filename': 'httpserver.log', 'args': [''], 'ssl_ca_certificate': None, 'scheduler': None, 'profiler_filename': None, 'ssl_private_key': '', 'password': 'admin', 'request_queue_size': 5, 'ssl_certificate': '', 'cronjob': False, 'plain': False, 'quiet': False, 'interfaces': None, 'minthreads': None, 'timeout': 10, 'numthreads': None, 'nobanner': False}>"
p2044
asbasbasbag56
(g72
g58
NtRp2045
(dp2046
g61
(dp2047
sg70
g1955
sg63
(lp2048
g56
(g77
g58
NtRp2049
(dp2050
g61
(dp2051
g81
g82
ssg70
g2045
sg63
(lp2052
g976
asbag56
(g77
g58
NtRp2053
(dp2054
g61
(dp2055
g88
g89
ssg70
g2045
sg63
(lp2056
S':'
asbag56
(g77
g58
NtRp2057
(dp2058
g61
(dp2059
sg70
g2045
sg63
(lp2060
g56
(g57
g58
NtRp2061
(dp2062
g61
(dp2063
g69
I4
ssg70
g2057
sg63
(lp2064
S'set([])'
p2065
asbasbasbag56
(g72
g58
NtRp2066
(dp2067
g61
(dp2068
sg70
g1955
sg63
(lp2069
g56
(g77
g58
NtRp2070
(dp2071
g61
(dp2072
g81
g82
ssg70
g2066
sg63
(lp2073
g998
asbag56
(g77
g58
NtRp2074
(dp2075
g61
(dp2076
g88
g89
ssg70
g2066
sg63
(lp2077
S':'
asbag56
(g77
g58
NtRp2078
(dp2079
g61
(dp2080
sg70
g2066
sg63
(lp2081
g56
(g57
g58
NtRp2082
(dp2083
g61
(dp2084
g69
I4
ssg70
g2078
sg63
(lp2085
g99
asbasbasbag56
(g72
g58
NtRp2086
(dp2087
g61
(dp2088
sg70
g1955
sg63
(lp2089
g56
(g77
g58
NtRp2090
(dp2091
g61
(dp2092
g81
g82
ssg70
g2086
sg63
(lp2093
g1019
asbag56
(g77
g58
NtRp2094
(dp2095
g61
(dp2096
g88
g89
ssg70
g2086
sg63
(lp2097
S':'
asbag56
(g77
g58
NtRp2098
(dp2099
g61
(dp2100
sg70
g2086
sg63
(lp2101
g56
(g57
g58
NtRp2102
(dp2103
g61
(dp2104
g69
I4
ssg70
g2098
sg63
(lp2105
g1032
asbasbasbag56
(g72
g58
NtRp2106
(dp2107
g61
(dp2108
sg70
g1955
sg63
(lp2109
g56
(g77
g58
NtRp2110
(dp2111
g61
(dp2112
g81
g82
ssg70
g2106
sg63
(lp2113
g1239
asbag56
(g77
g58
NtRp2114
(dp2115
g61
(dp2116
g88
g89
ssg70
g2106
sg63
(lp2117
S':'
asbag56
(g77
g58
NtRp2118
(dp2119
g61
(dp2120
sg70
g2106
sg63
(lp2121
g56
(g57
g58
NtRp2122
(dp2123
g61
(dp2124
g69
I4
ssg70
g2118
sg63
(lp2125
g99
asbasbasbag56
(g72
g58
NtRp2126
(dp2127
g61
(dp2128
sg70
g1955
sg63
(lp2129
g56
(g77
g58
NtRp2130
(dp2131
g61
(dp2132
g81
g82
ssg70
g2126
sg63
(lp2133
g1498
asbag56
(g77
g58
NtRp2134
(dp2135
g61
(dp2136
g88
g89
ssg70
g2126
sg63
(lp2137
S':'
asbag56
(g77
g58
NtRp2138
(dp2139
g61
(dp2140
sg70
g2126
sg63
(lp2141
g56
(g57
g58
NtRp2142
(dp2143
g61
(dp2144
g69
I4
ssg70
g2138
sg63
(lp2145
g1511
asbasbasbag56
(g72
g58
NtRp2146
(dp2147
g61
(dp2148
sg70
g1955
sg63
(lp2149
g56
(g77
g58
NtRp2150
(dp2151
g61
(dp2152
g81
g82
ssg70
g2146
sg63
(lp2153
g1562
asbag56
(g77
g58
NtRp2154
(dp2155
g61
(dp2156
g88
g89
ssg70
g2146
sg63
(lp2157
S':'
asbag56
(g77
g58
NtRp2158
(dp2159
g61
(dp2160
sg70
g2146
sg63
(lp2161
g56
(g57
g58
NtRp2162
(dp2163
g61
(dp2164
g69
I4
ssg70
g2158
sg63
(lp2165
g56
(g65
g58
NtRp2166
(dp2167
g61
(dp2168
g69
I3
ssg70
Nsg63
(lp2169
g56
(g72
g58
NtRp2170
(dp2171
g61
(dp2172
sg70
g2166
sg63
(lp2173
g56
(g77
g58
NtRp2174
(dp2175
g61
(dp2176
sg70
g2170
sg63
(lp2177
g56
(g57
g58
NtRp2178
(dp2179
g61
(dp2180
g69
I3
ssg70
g2174
sg63
(lp2181
S'1'
asbasbasbag56
(g72
g58
NtRp2182
(dp2183
g61
(dp2184
sg70
g2166
sg63
(lp2185
g56
(g77
g58
NtRp2186
(dp2187
g61
(dp2188
sg70
g2182
sg63
(lp2189
g56
(g57
g58
NtRp2190
(dp2191
g61
(dp2192
g69
I3
ssg70
g2186
sg63
(lp2193
S'99'
p2194
asbasbasbag56
(g72
g58
NtRp2195
(dp2196
g61
(dp2197
sg70
g2166
sg63
(lp2198
g56
(g77
g58
NtRp2199
(dp2200
g61
(dp2201
sg70
g2195
sg63
(lp2202
g56
(g57
g58
NtRp2203
(dp2204
g61
(dp2205
g69
I3
ssg70
g2199
sg63
(lp2206
S'2'
asbasbasbag56
(g72
g58
NtRp2207
(dp2208
g61
(dp2209
sg70
g2166
sg63
(lp2210
g56
(g77
g58
NtRp2211
(dp2212
g61
(dp2213
sg70
g2207
sg63
(lp2214
g56
(g57
g58
NtRp2215
(dp2216
g61
(dp2217
g69
I3
ssg70
g2211
sg63
(lp2218
S'datetime.datetime(2011, 9, 26, 6, 55, 33)'
p2219
asbasbasbag56
(g72
g58
NtRp2220
(dp2221
g61
(dp2222
sg70
g2166
sg63
(lp2223
g56
(g77
g58
NtRp2224
(dp2225
g61
(dp2226
sg70
g2220
sg63
(lp2227
g56
(g57
g58
NtRp2228
(dp2229
g61
(dp2230
g69
I3
ssg70
g2224
sg63
(lp2231
g1641
asbasbasbasbasbasbasbasbasbasbasbag56
(g72
g58
NtRp2232
(dp2233
g61
(dp2234
sg70
g66
sg63
(lp2235
g56
(g77
g58
NtRp2236
(dp2237
g61
(dp2238
g81
g82
ssg70
g2232
sg63
(lp2239
S'is_https'
p2240
asbag56
(g77
g58
NtRp2241
(dp2242
g61
(dp2243
g88
g89
ssg70
g2232
sg63
(lp2244
S':'
asbag56
(g77
g58
NtRp2245
(dp2246
g61
(dp2247
sg70
g2232
sg63
(lp2248
g56
(g57
g58
NtRp2249
(dp2250
g61
(dp2251
g69
I5
ssg70
g2245
sg63
(lp2252
g99
asbasbasbag56
(g72
g58
NtRp2253
(dp2254
g61
(dp2255
sg70
g66
sg63
(lp2256
g56
(g77
g58
NtRp2257
(dp2258
g61
(dp2259
g81
g82
ssg70
g2253
sg63
(lp2260
S'is_local'
p2261
asbag56
(g77
g58
NtRp2262
(dp2263
g61
(dp2264
g88
g89
ssg70
g2253
sg63
(lp2265
S':'
asbag56
(g77
g58
NtRp2266
(dp2267
g61
(dp2268
sg70
g2253
sg63
(lp2269
g56
(g57
g58
NtRp2270
(dp2271
g61
(dp2272
g69
I5
ssg70
g2266
sg63
(lp2273
g1750
asbasbasbag56
(g72
g58
NtRp2274
(dp2275
g61
(dp2276
sg70
g66
sg63
(lp2277
g56
(g77
g58
NtRp2278
(dp2279
g61
(dp2280
g81
g82
ssg70
g2274
sg63
(lp2281
S'is_restful'
p2282
asbag56
(g77
g58
NtRp2283
(dp2284
g61
(dp2285
g88
g89
ssg70
g2274
sg63
(lp2286
S':'
asbag56
(g77
g58
NtRp2287
(dp2288
g61
(dp2289
sg70
g2274
sg63
(lp2290
g56
(g57
g58
NtRp2291
(dp2292
g61
(dp2293
g69
I5
ssg70
g2287
sg63
(lp2294
g99
asbasbasbag56
(g72
g58
NtRp2295
(dp2296
g61
(dp2297
sg70
g66
sg63
(lp2298
g56
(g77
g58
NtRp2299
(dp2300
g61
(dp2301
g81
g82
ssg70
g2295
sg63
(lp2302
S'now'
p2303
asbag56
(g77
g58
NtRp2304
(dp2305
g61
(dp2306
g88
g89
ssg70
g2295
sg63
(lp2307
S':'
asbag56
(g77
g58
NtRp2308
(dp2309
g61
(dp2310
sg70
g2295
sg63
(lp2311
g56
(g57
g58
NtRp2312
(dp2313
g61
(dp2314
g69
I5
ssg70
g2308
sg63
(lp2315
S'datetime.datetime(2011, 10, 27, 11, 48, 2, 359568)'
p2316
asbasbasbag56
(g72
g58
NtRp2317
(dp2318
g61
(dp2319
sg70
g66
sg63
(lp2320
g56
(g77
g58
NtRp2321
(dp2322
g61
(dp2323
g81
g82
ssg70
g2317
sg63
(lp2324
S'post_vars'
p2325
asbag56
(g77
g58
NtRp2326
(dp2327
g61
(dp2328
g88
g89
ssg70
g2317
sg63
(lp2329
S':'
asbag56
(g77
g58
NtRp2330
(dp2331
g61
(dp2332
sg70
g2317
sg63
(lp2333
g56
(g57
g58
NtRp2334
(dp2335
g61
(dp2336
g69
I5
ssg70
g2330
sg63
(lp2337
g56
(g65
g58
NtRp2338
(dp2339
g61
(dp2340
g69
I4
ssg70
Nsg63
(lp2341
sbasbasbasbag56
(g72
g58
NtRp2342
(dp2343
g61
(dp2344
sg70
g66
sg63
(lp2345
g56
(g77
g58
NtRp2346
(dp2347
g61
(dp2348
g81
g82
ssg70
g2342
sg63
(lp2349
S'raw_args'
p2350
asbag56
(g77
g58
NtRp2351
(dp2352
g61
(dp2353
g88
g89
ssg70
g2342
sg63
(lp2354
S':'
asbag56
(g77
g58
NtRp2355
(dp2356
g61
(dp2357
sg70
g2342
sg63
(lp2358
g56
(g57
g58
NtRp2359
(dp2360
g61
(dp2361
g69
I5
ssg70
g2355
sg63
(lp2362
S'run/ddl/14/The_Thing_2011_TS_XviD_READNFO___MiSTERE.avi'
p2363
asbasbasbag56
(g72
g58
NtRp2364
(dp2365
g61
(dp2366
sg70
g66
sg63
(lp2367
g56
(g77
g58
NtRp2368
(dp2369
g61
(dp2370
g81
g82
ssg70
g2364
sg63
(lp2371
S'url'
p2372
asbag56
(g77
g58
NtRp2373
(dp2374
g61
(dp2375
g88
g89
ssg70
g2364
sg63
(lp2376
S':'
asbag56
(g77
g58
NtRp2377
(dp2378
g61
(dp2379
sg70
g2364
sg63
(lp2380
g56
(g57
g58
NtRp2381
(dp2382
g61
(dp2383
g69
I5
ssg70
g2377
sg63
(lp2384
S'/ddlagoon/ddl/get/run/ddl/14/The_Thing_2011_TS_XviD_READNFO___MiSTERE.avi'
p2385
asbasbasbag56
(g72
g58
NtRp2386
(dp2387
g61
(dp2388
sg70
g66
sg63
(lp2389
g56
(g77
g58
NtRp2390
(dp2391
g61
(dp2392
g81
g82
ssg70
g2386
sg63
(lp2393
S'utcnow'
p2394
asbag56
(g77
g58
NtRp2395
(dp2396
g61
(dp2397
g88
g89
ssg70
g2386
sg63
(lp2398
S':'
asbag56
(g77
g58
NtRp2399
(dp2400
g61
(dp2401
sg70
g2386
sg63
(lp2402
g56
(g57
g58
NtRp2403
(dp2404
g61
(dp2405
g69
I5
ssg70
g2399
sg63
(lp2406
S'datetime.datetime(2011, 10, 27, 10, 48, 2, 359617)'
p2407
asbasbasbag56
(g72
g58
NtRp2408
(dp2409
g61
(dp2410
sg70
g66
sg63
(lp2411
g56
(g77
g58
NtRp2412
(dp2413
g61
(dp2414
g81
g82
ssg70
g2408
sg63
(lp2415
S'uuid'
p2416
asbag56
(g77
g58
NtRp2417
(dp2418
g61
(dp2419
g88
g89
ssg70
g2408
sg63
(lp2420
S':'
asbag56
(g77
g58
NtRp2421
(dp2422
g61
(dp2423
sg70
g2408
sg63
(lp2424
g56
(g57
g58
NtRp2425
(dp2426
g61
(dp2427
g69
I5
ssg70
g2421
sg63
(lp2428
S'ddlagoon/127.0.0.1.2011-10-27.11-48-02.15432058-0df8-4d4a-b951-d4bd40aee3ce'
p2429
asbasbasbag56
(g72
g58
NtRp2430
(dp2431
g61
(dp2432
sg70
g66
sg63
(lp2433
g56
(g77
g58
NtRp2434
(dp2435
g61
(dp2436
g81
g82
ssg70
g2430
sg63
(lp2437
S'vars'
p2438
asbag56
(g77
g58
NtRp2439
(dp2440
g61
(dp2441
g88
g89
ssg70
g2430
sg63
(lp2442
S':'
asbag56
(g77
g58
NtRp2443
(dp2444
g61
(dp2445
sg70
g2430
sg63
(lp2446
g56
(g57
g58
NtRp2447
(dp2448
g61
(dp2449
g69
I5
ssg70
g2443
sg63
(lp2450
g56
(g65
g58
NtRp2451
(dp2452
g61
(dp2453
g69
I4
ssg70
Nsg63
(lp2454
sbasbasbasbag56
(g72
g58
NtRp2455
(dp2456
g61
(dp2457
sg70
g66
sg63
(lp2458
g56
(g77
g58
NtRp2459
(dp2460
g61
(dp2461
g81
g82
ssg70
g2455
sg63
(lp2462
S'wsgi'
p2463
asbag56
(g77
g58
NtRp2464
(dp2465
g61
(dp2466
g88
g89
ssg70
g2455
sg63
(lp2467
S':'
asbag56
(g77
g58
NtRp2468
(dp2469
g61
(dp2470
sg70
g2455
sg63
(lp2471
g56
(g57
g58
NtRp2472
(dp2473
g61
(dp2474
g69
I5
ssg70
g2468
sg63
(lp2475
g56
(g65
g58
NtRp2476
(dp2477
g61
(dp2478
g69
I4
ssg70
Nsg63
(lp2479
g56
(g72
g58
NtRp2480
(dp2481
g61
(dp2482
sg70
g2476
sg63
(lp2483
g56
(g77
g58
NtRp2484
(dp2485
g61
(dp2486
g81
g82
ssg70
g2480
sg63
(lp2487
S'environ'
p2488
asbag56
(g77
g58
NtRp2489
(dp2490
g61
(dp2491
g88
g89
ssg70
g2480
sg63
(lp2492
S':'
asbag56
(g77
g58
NtRp2493
(dp2494
g61
(dp2495
sg70
g2480
sg63
(lp2496
g56
(g57
g58
NtRp2497
(dp2498
g61
(dp2499
g69
I4
ssg70
g2493
sg63
(lp2500
g56
(g65
g58
NtRp2501
(dp2502
g61
(dp2503
g69
I3
ssg70
Nsg63
(lp2504
g56
(g72
g58
NtRp2505
(dp2506
g61
(dp2507
sg70
g2501
sg63
(lp2508
g56
(g77
g58
NtRp2509
(dp2510
g61
(dp2511
g81
g82
ssg70
g2505
sg63
(lp2512
S'HTTP_ACCEPT'
p2513
asbag56
(g77
g58
NtRp2514
(dp2515
g61
(dp2516
g88
g89
ssg70
g2505
sg63
(lp2517
S':'
asbag56
(g77
g58
NtRp2518
(dp2519
g61
(dp2520
sg70
g2505
sg63
(lp2521
g56
(g57
g58
NtRp2522
(dp2523
g61
(dp2524
g69
I3
ssg70
g2518
sg63
(lp2525
g1054
asbasbasbag56
(g72
g58
NtRp2526
(dp2527
g61
(dp2528
sg70
g2501
sg63
(lp2529
g56
(g77
g58
NtRp2530
(dp2531
g61
(dp2532
g81
g82
ssg70
g2526
sg63
(lp2533
S'HTTP_ACCEPT_CHARSET'
p2534
asbag56
(g77
g58
NtRp2535
(dp2536
g61
(dp2537
g88
g89
ssg70
g2526
sg63
(lp2538
S':'
asbag56
(g77
g58
NtRp2539
(dp2540
g61
(dp2541
sg70
g2526
sg63
(lp2542
g56
(g57
g58
NtRp2543
(dp2544
g61
(dp2545
g69
I3
ssg70
g2539
sg63
(lp2546
g1076
asbasbasbag56
(g72
g58
NtRp2547
(dp2548
g61
(dp2549
sg70
g2501
sg63
(lp2550
g56
(g77
g58
NtRp2551
(dp2552
g61
(dp2553
g81
g82
ssg70
g2547
sg63
(lp2554
S'HTTP_ACCEPT_ENCODING'
p2555
asbag56
(g77
g58
NtRp2556
(dp2557
g61
(dp2558
g88
g89
ssg70
g2547
sg63
(lp2559
S':'
asbag56
(g77
g58
NtRp2560
(dp2561
g61
(dp2562
sg70
g2547
sg63
(lp2563
g56
(g57
g58
NtRp2564
(dp2565
g61
(dp2566
g69
I3
ssg70
g2560
sg63
(lp2567
g1098
asbasbasbag56
(g72
g58
NtRp2568
(dp2569
g61
(dp2570
sg70
g2501
sg63
(lp2571
g56
(g77
g58
NtRp2572
(dp2573
g61
(dp2574
g81
g82
ssg70
g2568
sg63
(lp2575
S'HTTP_ACCEPT_LANGUAGE'
p2576
asbag56
(g77
g58
NtRp2577
(dp2578
g61
(dp2579
g88
g89
ssg70
g2568
sg63
(lp2580
S':'
asbag56
(g77
g58
NtRp2581
(dp2582
g61
(dp2583
sg70
g2568
sg63
(lp2584
g56
(g57
g58
NtRp2585
(dp2586
g61
(dp2587
g69
I3
ssg70
g2581
sg63
(lp2588
g1120
asbasbasbag56
(g72
g58
NtRp2589
(dp2590
g61
(dp2591
sg70
g2501
sg63
(lp2592
g56
(g77
g58
NtRp2593
(dp2594
g61
(dp2595
g81
g82
ssg70
g2589
sg63
(lp2596
S'HTTP_CACHE_CONTROL'
p2597
asbag56
(g77
g58
NtRp2598
(dp2599
g61
(dp2600
g88
g89
ssg70
g2589
sg63
(lp2601
S':'
asbag56
(g77
g58
NtRp2602
(dp2603
g61
(dp2604
sg70
g2589
sg63
(lp2605
g56
(g57
g58
NtRp2606
(dp2607
g61
(dp2608
g69
I3
ssg70
g2602
sg63
(lp2609
g1142
asbasbasbag56
(g72
g58
NtRp2610
(dp2611
g61
(dp2612
sg70
g2501
sg63
(lp2613
g56
(g77
g58
NtRp2614
(dp2615
g61
(dp2616
g81
g82
ssg70
g2610
sg63
(lp2617
S'HTTP_CONNECTION'
p2618
asbag56
(g77
g58
NtRp2619
(dp2620
g61
(dp2621
g88
g89
ssg70
g2610
sg63
(lp2622
S':'
asbag56
(g77
g58
NtRp2623
(dp2624
g61
(dp2625
sg70
g2610
sg63
(lp2626
g56
(g57
g58
NtRp2627
(dp2628
g61
(dp2629
g69
I3
ssg70
g2623
sg63
(lp2630
g1164
asbasbasbag56
(g72
g58
NtRp2631
(dp2632
g61
(dp2633
sg70
g2501
sg63
(lp2634
g56
(g77
g58
NtRp2635
(dp2636
g61
(dp2637
g81
g82
ssg70
g2631
sg63
(lp2638
S'HTTP_COOKIE'
p2639
asbag56
(g77
g58
NtRp2640
(dp2641
g61
(dp2642
g88
g89
ssg70
g2631
sg63
(lp2643
S':'
asbag56
(g77
g58
NtRp2644
(dp2645
g61
(dp2646
sg70
g2631
sg63
(lp2647
g56
(g57
g58
NtRp2648
(dp2649
g61
(dp2650
g69
I3
ssg70
g2644
sg63
(lp2651
g1186
asbasbasbag56
(g72
g58
NtRp2652
(dp2653
g61
(dp2654
sg70
g2501
sg63
(lp2655
g56
(g77
g58
NtRp2656
(dp2657
g61
(dp2658
g81
g82
ssg70
g2652
sg63
(lp2659
S'HTTP_HOST'
p2660
asbag56
(g77
g58
NtRp2661
(dp2662
g61
(dp2663
g88
g89
ssg70
g2652
sg63
(lp2664
S':'
asbag56
(g77
g58
NtRp2665
(dp2666
g61
(dp2667
sg70
g2652
sg63
(lp2668
g56
(g57
g58
NtRp2669
(dp2670
g61
(dp2671
g69
I3
ssg70
g2665
sg63
(lp2672
g1208
asbasbasbag56
(g72
g58
NtRp2673
(dp2674
g61
(dp2675
sg70
g2501
sg63
(lp2676
g56
(g77
g58
NtRp2677
(dp2678
g61
(dp2679
g81
g82
ssg70
g2673
sg63
(lp2680
S'HTTP_USER_AGENT'
p2681
asbag56
(g77
g58
NtRp2682
(dp2683
g61
(dp2684
g88
g89
ssg70
g2673
sg63
(lp2685
S':'
asbag56
(g77
g58
NtRp2686
(dp2687
g61
(dp2688
sg70
g2673
sg63
(lp2689
g56
(g57
g58
NtRp2690
(dp2691
g61
(dp2692
g69
I3
ssg70
g2686
sg63
(lp2693
g1230
asbasbasbag56
(g72
g58
NtRp2694
(dp2695
g61
(dp2696
sg70
g2501
sg63
(lp2697
g56
(g77
g58
NtRp2698
(dp2699
g61
(dp2700
g81
g82
ssg70
g2694
sg63
(lp2701
S'PATH_INFO'
p2702
asbag56
(g77
g58
NtRp2703
(dp2704
g61
(dp2705
g88
g89
ssg70
g2694
sg63
(lp2706
S':'
asbag56
(g77
g58
NtRp2707
(dp2708
g61
(dp2709
sg70
g2694
sg63
(lp2710
g56
(g57
g58
NtRp2711
(dp2712
g61
(dp2713
g69
I3
ssg70
g2707
sg63
(lp2714
g1273
asbasbasbag56
(g72
g58
NtRp2715
(dp2716
g61
(dp2717
sg70
g2501
sg63
(lp2718
g56
(g77
g58
NtRp2719
(dp2720
g61
(dp2721
g81
g82
ssg70
g2715
sg63
(lp2722
S'QUERY_STRING'
p2723
asbag56
(g77
g58
NtRp2724
(dp2725
g61
(dp2726
g88
g89
ssg70
g2715
sg63
(lp2727
S':'
asbag56
(g77
g58
NtRp2728
(dp2729
g61
(dp2730
sg70
g2715
sg63
(lp2731
g56
(g57
g58
NtRp2732
(dp2733
g61
(dp2734
g69
I3
ssg70
g2728
sg63
(lp2735
S''
asbasbasbag56
(g72
g58
NtRp2736
(dp2737
g61
(dp2738
sg70
g2501
sg63
(lp2739
g56
(g77
g58
NtRp2740
(dp2741
g61
(dp2742
g81
g82
ssg70
g2736
sg63
(lp2743
S'REMOTE_ADDR'
p2744
asbag56
(g77
g58
NtRp2745
(dp2746
g61
(dp2747
g88
g89
ssg70
g2736
sg63
(lp2748
S':'
asbag56
(g77
g58
NtRp2749
(dp2750
g61
(dp2751
sg70
g2736
sg63
(lp2752
g56
(g57
g58
NtRp2753
(dp2754
g61
(dp2755
g69
I3
ssg70
g2749
sg63
(lp2756
g241
asbasbasbag56
(g72
g58
NtRp2757
(dp2758
g61
(dp2759
sg70
g2501
sg63
(lp2760
g56
(g77
g58
NtRp2761
(dp2762
g61
(dp2763
g81
g82
ssg70
g2757
sg63
(lp2764
S'REMOTE_PORT'
p2765
asbag56
(g77
g58
NtRp2766
(dp2767
g61
(dp2768
g88
g89
ssg70
g2757
sg63
(lp2769
S':'
asbag56
(g77
g58
NtRp2770
(dp2771
g61
(dp2772
sg70
g2757
sg63
(lp2773
g56
(g57
g58
NtRp2774
(dp2775
g61
(dp2776
g69
I3
ssg70
g2770
sg63
(lp2777
g1337
asbasbasbag56
(g72
g58
NtRp2778
(dp2779
g61
(dp2780
sg70
g2501
sg63
(lp2781
g56
(g77
g58
NtRp2782
(dp2783
g61
(dp2784
g81
g82
ssg70
g2778
sg63
(lp2785
S'REQUEST_METHOD'
p2786
asbag56
(g77
g58
NtRp2787
(dp2788
g61
(dp2789
g88
g89
ssg70
g2778
sg63
(lp2790
S':'
asbag56
(g77
g58
NtRp2791
(dp2792
g61
(dp2793
sg70
g2778
sg63
(lp2794
g56
(g57
g58
NtRp2795
(dp2796
g61
(dp2797
g69
I3
ssg70
g2791
sg63
(lp2798
g1359
asbasbasbag56
(g72
g58
NtRp2799
(dp2800
g61
(dp2801
sg70
g2501
sg63
(lp2802
g56
(g77
g58
NtRp2803
(dp2804
g61
(dp2805
g81
g82
ssg70
g2799
sg63
(lp2806
S'REQUEST_URI'
p2807
asbag56
(g77
g58
NtRp2808
(dp2809
g61
(dp2810
g88
g89
ssg70
g2799
sg63
(lp2811
S':'
asbag56
(g77
g58
NtRp2812
(dp2813
g61
(dp2814
sg70
g2799
sg63
(lp2815
g56
(g57
g58
NtRp2816
(dp2817
g61
(dp2818
g69
I3
ssg70
g2812
sg63
(lp2819
g1273
asbasbasbag56
(g72
g58
NtRp2820
(dp2821
g61
(dp2822
sg70
g2501
sg63
(lp2823
g56
(g77
g58
NtRp2824
(dp2825
g61
(dp2826
g81
g82
ssg70
g2820
sg63
(lp2827
S'SCRIPT_NAME'
p2828
asbag56
(g77
g58
NtRp2829
(dp2830
g61
(dp2831
g88
g89
ssg70
g2820
sg63
(lp2832
S':'
asbag56
(g77
g58
NtRp2833
(dp2834
g61
(dp2835
sg70
g2820
sg63
(lp2836
g56
(g57
g58
NtRp2837
(dp2838
g61
(dp2839
g69
I3
ssg70
g2833
sg63
(lp2840
S''
asbasbasbag56
(g72
g58
NtRp2841
(dp2842
g61
(dp2843
sg70
g2501
sg63
(lp2844
g56
(g77
g58
NtRp2845
(dp2846
g61
(dp2847
g81
g82
ssg70
g2841
sg63
(lp2848
S'SERVER_NAME'
p2849
asbag56
(g77
g58
NtRp2850
(dp2851
g61
(dp2852
g88
g89
ssg70
g2841
sg63
(lp2853
S':'
asbag56
(g77
g58
NtRp2854
(dp2855
g61
(dp2856
sg70
g2841
sg63
(lp2857
g56
(g57
g58
NtRp2858
(dp2859
g61
(dp2860
g69
I3
ssg70
g2854
sg63
(lp2861
g1423
asbasbasbag56
(g72
g58
NtRp2862
(dp2863
g61
(dp2864
sg70
g2501
sg63
(lp2865
g56
(g77
g58
NtRp2866
(dp2867
g61
(dp2868
g81
g82
ssg70
g2862
sg63
(lp2869
S'SERVER_PORT'
p2870
asbag56
(g77
g58
NtRp2871
(dp2872
g61
(dp2873
g88
g89
ssg70
g2862
sg63
(lp2874
S':'
asbag56
(g77
g58
NtRp2875
(dp2876
g61
(dp2877
sg70
g2862
sg63
(lp2878
g56
(g57
g58
NtRp2879
(dp2880
g61
(dp2881
g69
I3
ssg70
g2875
sg63
(lp2882
g1445
asbasbasbag56
(g72
g58
NtRp2883
(dp2884
g61
(dp2885
sg70
g2501
sg63
(lp2886
g56
(g77
g58
NtRp2887
(dp2888
g61
(dp2889
g81
g82
ssg70
g2883
sg63
(lp2890
S'SERVER_PROTOCOL'
p2891
asbag56
(g77
g58
NtRp2892
(dp2893
g61
(dp2894
g88
g89
ssg70
g2883
sg63
(lp2895
S':'
asbag56
(g77
g58
NtRp2896
(dp2897
g61
(dp2898
sg70
g2883
sg63
(lp2899
g56
(g57
g58
NtRp2900
(dp2901
g61
(dp2902
g69
I3
ssg70
g2896
sg63
(lp2903
g1467
asbasbasbag56
(g72
g58
NtRp2904
(dp2905
g61
(dp2906
sg70
g2501
sg63
(lp2907
g56
(g77
g58
NtRp2908
(dp2909
g61
(dp2910
g81
g82
ssg70
g2904
sg63
(lp2911
S'SERVER_SOFTWARE'
p2912
asbag56
(g77
g58
NtRp2913
(dp2914
g61
(dp2915
g88
g89
ssg70
g2904
sg63
(lp2916
S':'
asbag56
(g77
g58
NtRp2917
(dp2918
g61
(dp2919
sg70
g2904
sg63
(lp2920
g56
(g57
g58
NtRp2921
(dp2922
g61
(dp2923
g69
I3
ssg70
g2917
sg63
(lp2924
g1489
asbasbasbag56
(g72
g58
NtRp2925
(dp2926
g61
(dp2927
sg70
g2501
sg63
(lp2928
g56
(g77
g58
NtRp2929
(dp2930
g61
(dp2931
g81
g82
ssg70
g2925
sg63
(lp2932
S'WEB2PY_ORIGINAL_URI'
p2933
asbag56
(g77
g58
NtRp2934
(dp2935
g61
(dp2936
g88
g89
ssg70
g2925
sg63
(lp2937
S':'
asbag56
(g77
g58
NtRp2938
(dp2939
g61
(dp2940
sg70
g2925
sg63
(lp2941
g56
(g57
g58
NtRp2942
(dp2943
g61
(dp2944
g69
I3
ssg70
g2938
sg63
(lp2945
g1273
asbasbasbag56
(g72
g58
NtRp2946
(dp2947
g61
(dp2948
sg70
g2501
sg63
(lp2949
g56
(g77
g58
NtRp2950
(dp2951
g61
(dp2952
g81
g82
ssg70
g2946
sg63
(lp2953
S'wsgi.errors'
p2954
asbag56
(g77
g58
NtRp2955
(dp2956
g61
(dp2957
g88
g89
ssg70
g2946
sg63
(lp2958
S':'
asbag56
(g77
g58
NtRp2959
(dp2960
g61
(dp2961
sg70
g2946
sg63
(lp2962
g56
(g57
g58
NtRp2963
(dp2964
g61
(dp2965
g69
I3
ssg70
g2959
sg63
(lp2966
S"<open file '<stderr>', mode 'w' at 0x7f0d1464c1e0>"
p2967
asbasbasbag56
(g72
g58
NtRp2968
(dp2969
g61
(dp2970
sg70
g2501
sg63
(lp2971
g56
(g77
g58
NtRp2972
(dp2973
g61
(dp2974
g81
g82
ssg70
g2968
sg63
(lp2975
S'wsgi.file_wrapper'
p2976
asbag56
(g77
g58
NtRp2977
(dp2978
g61
(dp2979
g88
g89
ssg70
g2968
sg63
(lp2980
S':'
asbag56
(g77
g58
NtRp2981
(dp2982
g61
(dp2983
sg70
g2968
sg63
(lp2984
g56
(g57
g58
NtRp2985
(dp2986
g61
(dp2987
g69
I3
ssg70
g2981
sg63
(lp2988
S'<class wsgiref.util.FileWrapper at 0x24c5110>'
p2989
asbasbasbag56
(g72
g58
NtRp2990
(dp2991
g61
(dp2992
sg70
g2501
sg63
(lp2993
g56
(g77
g58
NtRp2994
(dp2995
g61
(dp2996
g81
g82
ssg70
g2990
sg63
(lp2997
S'wsgi.input'
p2998
asbag56
(g77
g58
NtRp2999
(dp3000
g61
(dp3001
g88
g89
ssg70
g2990
sg63
(lp3002
S':'
asbag56
(g77
g58
NtRp3003
(dp3004
g61
(dp3005
sg70
g2990
sg63
(lp3006
g56
(g57
g58
NtRp3007
(dp3008
g61
(dp3009
g69
I3
ssg70
g3003
sg63
(lp3010
S'<cStringIO.StringO object at 0x41255e0>'
p3011
asbasbasbag56
(g72
g58
NtRp3012
(dp3013
g61
(dp3014
sg70
g2501
sg63
(lp3015
g56
(g77
g58
NtRp3016
(dp3017
g61
(dp3018
g81
g82
ssg70
g3012
sg63
(lp3019
S'wsgi.multiprocess'
p3020
asbag56
(g77
g58
NtRp3021
(dp3022
g61
(dp3023
g88
g89
ssg70
g3012
sg63
(lp3024
S':'
asbag56
(g77
g58
NtRp3025
(dp3026
g61
(dp3027
sg70
g3012
sg63
(lp3028
g56
(g57
g58
NtRp3029
(dp3030
g61
(dp3031
g69
I3
ssg70
g3025
sg63
(lp3032
g99
asbasbasbag56
(g72
g58
NtRp3033
(dp3034
g61
(dp3035
sg70
g2501
sg63
(lp3036
g56
(g77
g58
NtRp3037
(dp3038
g61
(dp3039
g81
g82
ssg70
g3033
sg63
(lp3040
S'wsgi.multithread'
p3041
asbag56
(g77
g58
NtRp3042
(dp3043
g61
(dp3044
g88
g89
ssg70
g3033
sg63
(lp3045
S':'
asbag56
(g77
g58
NtRp3046
(dp3047
g61
(dp3048
sg70
g3033
sg63
(lp3049
g56
(g57
g58
NtRp3050
(dp3051
g61
(dp3052
g69
I3
ssg70
g3046
sg63
(lp3053
g1750
asbasbasbag56
(g72
g58
NtRp3054
(dp3055
g61
(dp3056
sg70
g2501
sg63
(lp3057
g56
(g77
g58
NtRp3058
(dp3059
g61
(dp3060
g81
g82
ssg70
g3054
sg63
(lp3061
S'wsgi.run_once'
p3062
asbag56
(g77
g58
NtRp3063
(dp3064
g61
(dp3065
g88
g89
ssg70
g3054
sg63
(lp3066
S':'
asbag56
(g77
g58
NtRp3067
(dp3068
g61
(dp3069
sg70
g3054
sg63
(lp3070
g56
(g57
g58
NtRp3071
(dp3072
g61
(dp3073
g69
I3
ssg70
g3067
sg63
(lp3074
g99
asbasbasbag56
(g72
g58
NtRp3075
(dp3076
g61
(dp3077
sg70
g2501
sg63
(lp3078
g56
(g77
g58
NtRp3079
(dp3080
g61
(dp3081
g81
g82
ssg70
g3075
sg63
(lp3082
S'wsgi.url_scheme'
p3083
asbag56
(g77
g58
NtRp3084
(dp3085
g61
(dp3086
g88
g89
ssg70
g3075
sg63
(lp3087
S':'
asbag56
(g77
g58
NtRp3088
(dp3089
g61
(dp3090
sg70
g3075
sg63
(lp3091
g56
(g57
g58
NtRp3092
(dp3093
g61
(dp3094
g69
I3
ssg70
g3088
sg63
(lp3095
g1793
asbasbasbag56
(g72
g58
NtRp3096
(dp3097
g61
(dp3098
sg70
g2501
sg63
(lp3099
g56
(g77
g58
NtRp3100
(dp3101
g61
(dp3102
g81
g82
ssg70
g3096
sg63
(lp3103
S'wsgi.version'
p3104
asbag56
(g77
g58
NtRp3105
(dp3106
g61
(dp3107
g88
g89
ssg70
g3096
sg63
(lp3108
S':'
asbag56
(g77
g58
NtRp3109
(dp3110
g61
(dp3111
sg70
g3096
sg63
(lp3112
g56
(g57
g58
NtRp3113
(dp3114
g61
(dp3115
g69
I3
ssg70
g3109
sg63
(lp3116
S'1'
asbasbasbasbasbasbasbasbasbasbasbasbasbsS'frames'
p3117
(lp3118
(dp3119
S'file'
p3120
S'/windows/Users/Thomas/Dropbox/appz/2011/GAE/ddl-lagoon/gluon/restricted.py'
p3121
sS'dump'
p3122
(dp3123
S'environment'
p3124
S"{'A': <class 'gluon.html.A'>, 'Auth': <class 'gluon.tools.Auth'>, 'B': <class 'gluon.html.B'>, 'BEAUTIFY': <class 'gluon.html.BEAUTIFY'>, 'BODY': <class 'gluon.html.BODY'>, 'BR': <class 'gluon.html.BR'>, 'BUTTON': <class 'gluon.html.BUTTON'>, 'CAT': <class 'gluon.html.CAT'>, 'CENTER': <class 'gluon.html.CENTER'>, 'CLEANUP': <class 'gluon.validators.CLEANUP'>, ...}"
p3125
sS'ccode'
p3126
S'<code object <module> at 0x4184288, file "/windo...pplications/ddlagoon/controllers/ddl.py", line 1>'
p3127
ssS'lnum'
p3128
I194
sS'lines'
p3129
(dp3130
I192
S'        else:'
p3131
sI193
S'            ccode = compile2(code,layer)'
p3132
sI194
S'        exec ccode in environment'
p3133
sI195
S'    except HTTP:'
p3134
sI196
S'        raise'
p3135
sI197
S'    except Exception, error:'
p3136
sI198
S'        # XXX Show exception in Wing IDE if running in debugger'
p3137
sI189
S'    try:'
p3138
sI190
S'        if type(code) == types.CodeType:'
p3139
sI191
S'            ccode = code'
p3140
ssS'call'
p3141
S"(code='import tempfile\\nfrom time import mktime\\n\\nif Fals...ncryptedMsg\\nresponse._vars=response._caller(get)\\n', environment={'A': <class 'gluon.html.A'>, 'Auth': <class 'gluon.tools.Auth'>, 'B': <class 'gluon.html.B'>, 'BEAUTIFY': <class 'gluon.html.BEAUTIFY'>, 'BODY': <class 'gluon.html.BODY'>, 'BR': <class 'gluon.html.BR'>, 'BUTTON': <class 'gluon.html.BUTTON'>, 'CAT': <class 'gluon.html.CAT'>, 'CENTER': <class 'gluon.html.CENTER'>, 'CLEANUP': <class 'gluon.validators.CLEANUP'>, ...}, layer='/windows/Users/Thomas/Dropbox/appz/2011/GAE/ddl-lagoon/applications/ddlagoon/controllers/ddl.py')"
p3142
sS'func'
p3143
S'restricted'
p3144
sa(dp3145
g3120
S'/windows/Users/Thomas/Dropbox/appz/2011/GAE/ddl-lagoon/applications/ddlagoon/controllers/ddl.py'
p3146
sg3122
(dp3147
sg3128
I50
sg3129
(dp3148
I40
S'        }'
p3149
sI41
S"        encryptedMsg = encryptForClient(public_ddl['n'],public_ddl['e'],ddlJson)"
p3150
sI42
S"        #response.headers['Content-Type'] = 'application/ddl'"
p3151
sI43
S"        #response.headers['Content-Disposition'] = 'attachment; filename=test.ddl'"
p3152
sI44
S'        #return response.stream(ddlFile, request=request)'
p3153
sI45
S'#        request.args[0] = ddlFile.name'
p3154
sI46
S'#        return response.download(request, ddlFile)'
p3155
sI47
S'        response.headers[\'Content-Type\'] = "application/octet-stream"'
p3156
sI48
S"        response.headers['Content-Disposition'] = 'attachment; filename=%s.ddl' % ddl.filename"
p3157
sI49
S'        return encryptedMsg'
p3158
ssg3141
S'()'
p3159
sg3143
S'<module>'
p3160
sa(dp3161
g3120
S'/windows/Users/Thomas/Dropbox/appz/2011/GAE/ddl-lagoon/gluon/globals.py'
p3162
sg3122
(dp3163
S'self'
p3164
S'undefined'
p3165
sS'f'
S'<function get>'
p3166
ssg3128
I149
sg3129
(dp3167
I144
S'        self.meta = Storage()      # used by web2py_ajax.html'
p3168
sI145
S'        self.menu = []             # used by the default view layout'
p3169
sI146
S'        self.files = []            # used by web2py_ajax.html'
p3170
sI147
S'        self.generic_patterns = [] # patterns to allow generic views'
p3171
sI148
S'        self._vars = None'
p3172
sI149
S'        self._caller = lambda f: f()'
p3173
sI150
S'        self._view_environment = None'
p3174
sI151
S'        self._custom_commit = None'
p3175
sI152
S'        self._custom_rollback = None'
p3176
sI153
S''
ssg3141
S'(f=<function get>)'
p3177
sg3143
S'<lambda>'
p3178
sa(dp3179
g3120
S'/windows/Users/Thomas/Dropbox/appz/2011/GAE/ddl-lagoon/applications/ddlagoon/controllers/ddl.py'
p3180
sg3122
(dp3181
S'global service'
p3182
S'<gluon.tools.Service object>'
p3183
ssg3128
I14
sg3129
(dp3184
I9
S'from gluon.contrib import simplejson as json'
p3185
sI10
S''
sI11
S"__author__ = 'thomas'"
p3186
sI12
S''
sI13
S'def get():'
p3187
sI14
S'    return service()'
p3188
sI15
S''
sI16
S'@service.xml'
p3189
sI17
S'def ddl(id="", filename=""):'
p3190
sI18
S'    # find the record'
p3191
ssg3141
S'()'
p3192
sg3143
S'get'
p3193
sa(dp3194
g3120
S'/windows/Users/Thomas/Dropbox/appz/2011/GAE/ddl-lagoon/gluon/tools.py'
p3195
sg3122
(dp3196
S'request.args'
p3197
S"['run', 'ddl', '14', 'The_Thing_2011_TS_XviD_READNFO___MiSTERE.avi']"
p3198
sS'self.serve_run'
p3199
S'<bound method Service.serve_run of <gluon.tools.Service object>>'
p3200
sS'self'
p3201
S'<gluon.tools.Service object>'
p3202
sS'request'
p3203
S"<Storage {'body': <cStringIO.StringO object at 0..._vars': <Storage {}>, 'post_vars': <Storage {}>}>"
p3204
ssg3128
I3834
sg3129
(dp3205
I3829
S'        request = current.request'
p3206
sI3830
S'        if len(request.args) < 1:'
p3207
sI3831
S'            raise HTTP(404, "Not Found")'
p3208
sI3832
S'        arg0 = request.args(0)'
p3209
sI3833
S"        if arg0 == 'run':"
p3210
sI3834
S'            return self.serve_run(request.args[1:])'
p3211
sI3835
S"        elif arg0 == 'rss':"
p3212
sI3836
S'            return self.serve_rss(request.args[1:])'
p3213
sI3837
S"        elif arg0 == 'csv':"
p3214
sI3838
S'            return self.serve_csv(request.args[1:])'
p3215
ssg3141
S'(self=<gluon.tools.Service object>)'
p3216
sg3143
S'__call__'
p3217
sa(dp3218
g3120
S'/windows/Users/Thomas/Dropbox/appz/2011/GAE/ddl-lagoon/gluon/tools.py'
p3219
sg3122
(dp3220
S'request.vars'
p3221
S'<Storage {}>'
p3222
sS'args'
p3223
S"['ddl', '14', 'The_Thing_2011_TS_XviD_READNFO___MiSTERE.avi']"
p3224
sS'request'
p3225
S"<Storage {'body': <cStringIO.StringO object at 0..._vars': <Storage {}>, 'post_vars': <Storage {}>}>"
p3226
sS'builtindict'
p3227
S"<type 'dict'>"
p3228
ssg3128
I3585
sg3129
(dp3229
I3584
S'            return str(universal_caller(self.run_procedures[args[0]],'
p3230
sI3585
S'                                        *args[1:], **dict(request.vars)))'
p3231
sI3586
S'        self.error()'
p3232
sI3587
S''
sI3588
S'    def serve_csv(self, args=None):'
p3233
sI3589
S'        request = current.request'
p3234
sI3580
S'        request = current.request'
p3235
sI3581
S'        if not args:'
p3236
sI3582
S'            args = request.args'
p3237
sI3583
S'        if args and args[0] in self.run_procedures:'
p3238
ssg3141
S"(self=<gluon.tools.Service object>, args=['ddl', '14', 'The_Thing_2011_TS_XviD_READNFO___MiSTERE.avi'])"
p3239
sg3143
S'serve_run'
p3240
sa(dp3241
g3120
S'/windows/Users/Thomas/Dropbox/appz/2011/GAE/ddl-lagoon/gluon/tools.py'
p3242
sg3122
(dp3243
S'arg_dict'
p3244
S"{'filename': 'The_Thing_2011_TS_XviD_READNFO___MiSTERE.avi', 'id': '14'}"
p3245
sS'f'
S'<function ddl>'
p3246
ssg3128
I3351
sg3129
(dp3247
I3346
S'        # However, we need to update the arg_dict with the values from the named arguments as well.'
p3248
sI3347
S'        for arg_name in named_args:'
p3249
sI3348
S'            if b.has_key(arg_name):'
p3250
sI3349
S'                arg_dict[arg_name] = b[arg_name]'
p3251
sI3350
S''
sI3351
S'        return f(**arg_dict)'
p3252
sI3352
S''
sI3353
S'    # Raise an error, the function cannot be called.'
p3253
sI3354
S'    raise HTTP(404, "Object does not exist")'
p3254
sI3355
S''
ssg3141
S"(f=<function ddl>, *a=('14', 'The_Thing_2011_TS_XviD_READNFO___MiSTERE.avi'), **b={})"
p3255
sg3143
S'universal_caller'
p3256
sa(dp3257
g3120
S'/windows/Users/Thomas/Dropbox/appz/2011/GAE/ddl-lagoon/applications/ddlagoon/controllers/ddl.py'
p3258
sg3122
(dp3259
S'encryptForClient'
p3260
g3165
sS'public_ddl'
p3261
S"{'e': 65537, 'n': 138699374543223257...855851119927153483L}"
p3262
sS'ddlJson'
p3263
S'\'{\\n    "author": null, \\n    "description": null, ...4, \\n    "time": 1319695724, \\n    "version": 1.5\\n}\''
p3264
sS'encryptedMsg'
p3265
g3165
ssg3128
I41
sg3129
(dp3266
I36
S'        ddlJson = json.dumps(ddlJ, sort_keys=True, indent=4)'
p3267
sI37
S'        public_ddl = {'
p3268
sI38
S'            "e": 65537,'
p3269
sI39
S'            "n": 138699374543223257537557103176001704226735255147448649583225017098287197630734176291676474096655313606555548753275002732095146725547697816211326459323755204828036245647843790985208692060549009977103102474302073609652750671753426409739287485014860128030833183117757223967930924686377060843991855851119927153483'
p3270
sI40
S'        }'
p3271
sI41
S"        encryptedMsg = encryptForClient(public_ddl['n'],public_ddl['e'],ddlJson)"
p3272
sI42
S"        #response.headers['Content-Type'] = 'application/ddl'"
p3273
sI43
S"        #response.headers['Content-Disposition'] = 'attachment; filename=test.ddl'"
p3274
sI44
S'        #return response.stream(ddlFile, request=request)'
p3275
sI45
S'#        request.args[0] = ddlFile.name'
p3276
ssg3141
S"(id='14', filename='The_Thing_2011_TS_XviD_READNFO___MiSTERE.avi')"
p3277
sg3143
S'ddl'
p3278
sasS'pyver'
p3279
S'Python 2.6.7: /usr/bin/python2.6'
p3280
sS'session'
p3281
g56
(g57
g58
NtRp3282
(dp3283
g61
(dp3284
sg63
(lp3285
g56
(g65
g58
NtRp3286
(dp3287
g61
(dp3288
g69
I5
ssg70
Nsg63
(lp3289
sbasbsS'etype'
p3290
S"<type 'exceptions.NameError'>"
p3291
sS'date'
p3292
S'Thu Oct 27 11:48:02 2011'
p3293
sS'response'
p3294
g56
(g57
g58
NtRp3295
(dp3296
g61
(dp3297
sg63
(lp3298
g56
(g65
g58
NtRp3299
(dp3300
g61
(dp3301
g69
I5
ssg70
Nsg63
(lp3302
g56
(g72
g58
NtRp3303
(dp3304
g61
(dp3305
sg70
g3299
sg63
(lp3306
g56
(g77
g58
NtRp3307
(dp3308
g61
(dp3309
g81
g82
ssg70
g3303
sg63
(lp3310
g206
asbag56
(g77
g58
NtRp3311
(dp3312
g61
(dp3313
g88
g89
ssg70
g3303
sg63
(lp3314
S':'
asbag56
(g77
g58
NtRp3315
(dp3316
g61
(dp3317
sg70
g3303
sg63
(lp3318
g56
(g57
g58
NtRp3319
(dp3320
g61
(dp3321
g69
I5
ssg70
g3315
sg63
(lp3322
S'<cStringIO.StringO object at 0x3ff99d0>'
p3323
asbasbasbag56
(g72
g58
NtRp3324
(dp3325
g61
(dp3326
sg70
g3299
sg63
(lp3327
g56
(g77
g58
NtRp3328
(dp3329
g61
(dp3330
g81
g82
ssg70
g3324
sg63
(lp3331
g272
asbag56
(g77
g58
NtRp3332
(dp3333
g61
(dp3334
g88
g89
ssg70
g3324
sg63
(lp3335
S':'
asbag56
(g77
g58
NtRp3336
(dp3337
g61
(dp3338
sg70
g3324
sg63
(lp3339
g56
(g57
g58
NtRp3340
(dp3341
g61
(dp3342
g69
I5
ssg70
g3336
sg63
(lp3343
g56
(g65
g58
NtRp3344
(dp3345
g61
(dp3346
g69
I4
ssg70
Nsg63
(lp3347
g56
(g72
g58
NtRp3348
(dp3349
g61
(dp3350
sg70
g3344
sg63
(lp3351
g56
(g77
g58
NtRp3352
(dp3353
g61
(dp3354
g81
g82
ssg70
g3348
sg63
(lp3355
S'session_id_ddlagoon'
p3356
asbag56
(g77
g58
NtRp3357
(dp3358
g61
(dp3359
g88
g89
ssg70
g3348
sg63
(lp3360
S':'
asbag56
(g77
g58
NtRp3361
(dp3362
g61
(dp3363
sg70
g3348
sg63
(lp3364
g56
(g57
g58
NtRp3365
(dp3366
g61
(dp3367
g69
I4
ssg70
g3361
sg63
(lp3368
g56
(g65
g58
NtRp3369
(dp3370
g61
(dp3371
g69
I3
ssg70
Nsg63
(lp3372
g56
(g72
g58
NtRp3373
(dp3374
g61
(dp3375
sg70
g3369
sg63
(lp3376
g56
(g77
g58
NtRp3377
(dp3378
g61
(dp3379
g81
g82
ssg70
g3373
sg63
(lp3380
g322
asbag56
(g77
g58
NtRp3381
(dp3382
g61
(dp3383
g88
g89
ssg70
g3373
sg63
(lp3384
S':'
asbag56
(g77
g58
NtRp3385
(dp3386
g61
(dp3387
sg70
g3373
sg63
(lp3388
g56
(g57
g58
NtRp3389
(dp3390
g61
(dp3391
g69
I3
ssg70
g3385
sg63
(lp3392
S''
asbasbasbag56
(g72
g58
NtRp3393
(dp3394
g61
(dp3395
sg70
g3369
sg63
(lp3396
g56
(g77
g58
NtRp3397
(dp3398
g61
(dp3399
g81
g82
ssg70
g3393
sg63
(lp3400
g343
asbag56
(g77
g58
NtRp3401
(dp3402
g61
(dp3403
g88
g89
ssg70
g3393
sg63
(lp3404
S':'
asbag56
(g77
g58
NtRp3405
(dp3406
g61
(dp3407
sg70
g3393
sg63
(lp3408
g56
(g57
g58
NtRp3409
(dp3410
g61
(dp3411
g69
I3
ssg70
g3405
sg63
(lp3412
S''
asbasbasbag56
(g72
g58
NtRp3413
(dp3414
g61
(dp3415
sg70
g3369
sg63
(lp3416
g56
(g77
g58
NtRp3417
(dp3418
g61
(dp3419
g81
g82
ssg70
g3413
sg63
(lp3420
g364
asbag56
(g77
g58
NtRp3421
(dp3422
g61
(dp3423
g88
g89
ssg70
g3413
sg63
(lp3424
S':'
asbag56
(g77
g58
NtRp3425
(dp3426
g61
(dp3427
sg70
g3413
sg63
(lp3428
g56
(g57
g58
NtRp3429
(dp3430
g61
(dp3431
g69
I3
ssg70
g3425
sg63
(lp3432
S''
asbasbasbag56
(g72
g58
NtRp3433
(dp3434
g61
(dp3435
sg70
g3369
sg63
(lp3436
g56
(g77
g58
NtRp3437
(dp3438
g61
(dp3439
g81
g82
ssg70
g3433
sg63
(lp3440
g385
asbag56
(g77
g58
NtRp3441
(dp3442
g61
(dp3443
g88
g89
ssg70
g3433
sg63
(lp3444
S':'
asbag56
(g77
g58
NtRp3445
(dp3446
g61
(dp3447
sg70
g3433
sg63
(lp3448
g56
(g57
g58
NtRp3449
(dp3450
g61
(dp3451
g69
I3
ssg70
g3445
sg63
(lp3452
S''
asbasbasbag56
(g72
g58
NtRp3453
(dp3454
g61
(dp3455
sg70
g3369
sg63
(lp3456
g56
(g77
g58
NtRp3457
(dp3458
g61
(dp3459
g81
g82
ssg70
g3453
sg63
(lp3460
g406
asbag56
(g77
g58
NtRp3461
(dp3462
g61
(dp3463
g88
g89
ssg70
g3453
sg63
(lp3464
S':'
asbag56
(g77
g58
NtRp3465
(dp3466
g61
(dp3467
sg70
g3453
sg63
(lp3468
g56
(g57
g58
NtRp3469
(dp3470
g61
(dp3471
g69
I3
ssg70
g3465
sg63
(lp3472
S''
asbasbasbag56
(g72
g58
NtRp3473
(dp3474
g61
(dp3475
sg70
g3369
sg63
(lp3476
g56
(g77
g58
NtRp3477
(dp3478
g61
(dp3479
g81
g82
ssg70
g3473
sg63
(lp3480
g427
asbag56
(g77
g58
NtRp3481
(dp3482
g61
(dp3483
g88
g89
ssg70
g3473
sg63
(lp3484
S':'
asbag56
(g77
g58
NtRp3485
(dp3486
g61
(dp3487
sg70
g3473
sg63
(lp3488
g56
(g57
g58
NtRp3489
(dp3490
g61
(dp3491
g69
I3
ssg70
g3485
sg63
(lp3492
S'/'
asbasbasbag56
(g72
g58
NtRp3493
(dp3494
g61
(dp3495
sg70
g3369
sg63
(lp3496
g56
(g77
g58
NtRp3497
(dp3498
g61
(dp3499
g81
g82
ssg70
g3493
sg63
(lp3500
g448
asbag56
(g77
g58
NtRp3501
(dp3502
g61
(dp3503
g88
g89
ssg70
g3493
sg63
(lp3504
S':'
asbag56
(g77
g58
NtRp3505
(dp3506
g61
(dp3507
sg70
g3493
sg63
(lp3508
g56
(g57
g58
NtRp3509
(dp3510
g61
(dp3511
g69
I3
ssg70
g3505
sg63
(lp3512
S''
asbasbasbag56
(g72
g58
NtRp3513
(dp3514
g61
(dp3515
sg70
g3369
sg63
(lp3516
g56
(g77
g58
NtRp3517
(dp3518
g61
(dp3519
g81
g82
ssg70
g3513
sg63
(lp3520
g469
asbag56
(g77
g58
NtRp3521
(dp3522
g61
(dp3523
g88
g89
ssg70
g3513
sg63
(lp3524
S':'
asbag56
(g77
g58
NtRp3525
(dp3526
g61
(dp3527
sg70
g3513
sg63
(lp3528
g56
(g57
g58
NtRp3529
(dp3530
g61
(dp3531
g69
I3
ssg70
g3525
sg63
(lp3532
S''
asbasbasbasbasbasbasbasbasbasbasbag56
(g72
g58
NtRp3533
(dp3534
g61
(dp3535
sg70
g3299
sg63
(lp3536
g56
(g77
g58
NtRp3537
(dp3538
g61
(dp3539
g81
g82
ssg70
g3533
sg63
(lp3540
S'files'
p3541
asbag56
(g77
g58
NtRp3542
(dp3543
g61
(dp3544
g88
g89
ssg70
g3533
sg63
(lp3545
S':'
asbag56
(g77
g58
NtRp3546
(dp3547
g61
(dp3548
sg70
g3533
sg63
(lp3549
g56
(g57
g58
NtRp3550
(dp3551
g61
(dp3552
g69
I5
ssg70
g3546
sg63
(lp3553
g56
(g65
g58
NtRp3554
(dp3555
g61
(dp3556
g69
I4
ssg70
Nsg63
(lp3557
sbasbasbasbag56
(g72
g58
NtRp3558
(dp3559
g61
(dp3560
sg70
g3299
sg63
(lp3561
g56
(g77
g58
NtRp3562
(dp3563
g61
(dp3564
g81
g82
ssg70
g3558
sg63
(lp3565
S'flash'
p3566
asbag56
(g77
g58
NtRp3567
(dp3568
g61
(dp3569
g88
g89
ssg70
g3558
sg63
(lp3570
S':'
asbag56
(g77
g58
NtRp3571
(dp3572
g61
(dp3573
sg70
g3558
sg63
(lp3574
g56
(g57
g58
NtRp3575
(dp3576
g61
(dp3577
g69
I5
ssg70
g3571
sg63
(lp3578
S''
asbasbasbag56
(g72
g58
NtRp3579
(dp3580
g61
(dp3581
sg70
g3299
sg63
(lp3582
g56
(g77
g58
NtRp3583
(dp3584
g61
(dp3585
g81
g82
ssg70
g3579
sg63
(lp3586
S'generic_patterns'
p3587
asbag56
(g77
g58
NtRp3588
(dp3589
g61
(dp3590
g88
g89
ssg70
g3579
sg63
(lp3591
S':'
asbag56
(g77
g58
NtRp3592
(dp3593
g61
(dp3594
sg70
g3579
sg63
(lp3595
g56
(g57
g58
NtRp3596
(dp3597
g61
(dp3598
g69
I5
ssg70
g3592
sg63
(lp3599
g56
(g65
g58
NtRp3600
(dp3601
g61
(dp3602
g69
I4
ssg70
Nsg63
(lp3603
g56
(g72
g58
NtRp3604
(dp3605
g61
(dp3606
sg70
g3600
sg63
(lp3607
g56
(g77
g58
NtRp3608
(dp3609
g61
(dp3610
sg70
g3604
sg63
(lp3611
g56
(g57
g58
NtRp3612
(dp3613
g61
(dp3614
g69
I4
ssg70
g3608
sg63
(lp3615
S'*'
asbasbasbasbasbasbasbag56
(g72
g58
NtRp3616
(dp3617
g61
(dp3618
sg70
g3299
sg63
(lp3619
g56
(g77
g58
NtRp3620
(dp3621
g61
(dp3622
g81
g82
ssg70
g3616
sg63
(lp3623
S'headers'
p3624
asbag56
(g77
g58
NtRp3625
(dp3626
g61
(dp3627
g88
g89
ssg70
g3616
sg63
(lp3628
S':'
asbag56
(g77
g58
NtRp3629
(dp3630
g61
(dp3631
sg70
g3616
sg63
(lp3632
g56
(g57
g58
NtRp3633
(dp3634
g61
(dp3635
g69
I5
ssg70
g3629
sg63
(lp3636
g56
(g65
g58
NtRp3637
(dp3638
g61
(dp3639
g69
I4
ssg70
Nsg63
(lp3640
g56
(g72
g58
NtRp3641
(dp3642
g61
(dp3643
sg70
g3637
sg63
(lp3644
g56
(g77
g58
NtRp3645
(dp3646
g61
(dp3647
g81
g82
ssg70
g3641
sg63
(lp3648
S'Cache-Control'
p3649
asbag56
(g77
g58
NtRp3650
(dp3651
g61
(dp3652
g88
g89
ssg70
g3641
sg63
(lp3653
S':'
asbag56
(g77
g58
NtRp3654
(dp3655
g61
(dp3656
sg70
g3641
sg63
(lp3657
g56
(g57
g58
NtRp3658
(dp3659
g61
(dp3660
g69
I4
ssg70
g3654
sg63
(lp3661
S'no-store, no-cache, must-revalidate, post-check=0, pre-check=0'
p3662
asbasbasbag56
(g72
g58
NtRp3663
(dp3664
g61
(dp3665
sg70
g3637
sg63
(lp3666
g56
(g77
g58
NtRp3667
(dp3668
g61
(dp3669
g81
g82
ssg70
g3663
sg63
(lp3670
S'Content-Type'
p3671
asbag56
(g77
g58
NtRp3672
(dp3673
g61
(dp3674
g88
g89
ssg70
g3663
sg63
(lp3675
S':'
asbag56
(g77
g58
NtRp3676
(dp3677
g61
(dp3678
sg70
g3663
sg63
(lp3679
g56
(g57
g58
NtRp3680
(dp3681
g61
(dp3682
g69
I4
ssg70
g3676
sg63
(lp3683
S'text/html; charset=utf-8'
p3684
asbasbasbag56
(g72
g58
NtRp3685
(dp3686
g61
(dp3687
sg70
g3637
sg63
(lp3688
g56
(g77
g58
NtRp3689
(dp3690
g61
(dp3691
g81
g82
ssg70
g3685
sg63
(lp3692
S'Expires'
p3693
asbag56
(g77
g58
NtRp3694
(dp3695
g61
(dp3696
g88
g89
ssg70
g3685
sg63
(lp3697
S':'
asbag56
(g77
g58
NtRp3698
(dp3699
g61
(dp3700
sg70
g3685
sg63
(lp3701
g56
(g57
g58
NtRp3702
(dp3703
g61
(dp3704
g69
I4
ssg70
g3698
sg63
(lp3705
S'Thu, 27 Oct 2011 10:48:02 GMT'
p3706
asbasbasbag56
(g72
g58
NtRp3707
(dp3708
g61
(dp3709
sg70
g3637
sg63
(lp3710
g56
(g77
g58
NtRp3711
(dp3712
g61
(dp3713
g81
g82
ssg70
g3707
sg63
(lp3714
S'Pragma'
p3715
asbag56
(g77
g58
NtRp3716
(dp3717
g61
(dp3718
g88
g89
ssg70
g3707
sg63
(lp3719
S':'
asbag56
(g77
g58
NtRp3720
(dp3721
g61
(dp3722
sg70
g3707
sg63
(lp3723
g56
(g57
g58
NtRp3724
(dp3725
g61
(dp3726
g69
I4
ssg70
g3720
sg63
(lp3727
S'no-cache'
p3728
asbasbasbag56
(g72
g58
NtRp3729
(dp3730
g61
(dp3731
sg70
g3637
sg63
(lp3732
g56
(g77
g58
NtRp3733
(dp3734
g61
(dp3735
g81
g82
ssg70
g3729
sg63
(lp3736
S'X-Powered-By'
p3737
asbag56
(g77
g58
NtRp3738
(dp3739
g61
(dp3740
g88
g89
ssg70
g3729
sg63
(lp3741
S':'
asbag56
(g77
g58
NtRp3742
(dp3743
g61
(dp3744
sg70
g3729
sg63
(lp3745
g56
(g57
g58
NtRp3746
(dp3747
g61
(dp3748
g69
I4
ssg70
g3742
sg63
(lp3749
S'web2py'
p3750
asbasbasbasbasbasbasbag56
(g72
g58
NtRp3751
(dp3752
g61
(dp3753
sg70
g3299
sg63
(lp3754
g56
(g77
g58
NtRp3755
(dp3756
g61
(dp3757
g81
g82
ssg70
g3751
sg63
(lp3758
S'menu'
p3759
asbag56
(g77
g58
NtRp3760
(dp3761
g61
(dp3762
g88
g89
ssg70
g3751
sg63
(lp3763
S':'
asbag56
(g77
g58
NtRp3764
(dp3765
g61
(dp3766
sg70
g3751
sg63
(lp3767
g56
(g57
g58
NtRp3768
(dp3769
g61
(dp3770
g69
I5
ssg70
g3764
sg63
(lp3771
g56
(g65
g58
NtRp3772
(dp3773
g61
(dp3774
g69
I4
ssg70
Nsg63
(lp3775
g56
(g72
g58
NtRp3776
(dp3777
g61
(dp3778
sg70
g3772
sg63
(lp3779
g56
(g77
g58
NtRp3780
(dp3781
g61
(dp3782
sg70
g3776
sg63
(lp3783
g56
(g57
g58
NtRp3784
(dp3785
g61
(dp3786
g69
I4
ssg70
g3780
sg63
(lp3787
g56
(g65
g58
NtRp3788
(dp3789
g61
(dp3790
g69
I3
ssg70
Nsg63
(lp3791
g56
(g72
g58
NtRp3792
(dp3793
g61
(dp3794
sg70
g3788
sg63
(lp3795
g56
(g77
g58
NtRp3796
(dp3797
g61
(dp3798
sg70
g3792
sg63
(lp3799
g56
(g57
g58
NtRp3800
(dp3801
g61
(dp3802
g69
I3
ssg70
g3796
sg63
(lp3803
cgluon.languages
lazyT_unpickle
p3804
(S's\x04\x00\x00\x00Home'
tRp3805
asbasbasbag56
(g72
g58
NtRp3806
(dp3807
g61
(dp3808
sg70
g3788
sg63
(lp3809
g56
(g77
g58
NtRp3810
(dp3811
g61
(dp3812
sg70
g3806
sg63
(lp3813
g56
(g57
g58
NtRp3814
(dp3815
g61
(dp3816
g69
I3
ssg70
g3810
sg63
(lp3817
g99
asbasbasbag56
(g72
g58
NtRp3818
(dp3819
g61
(dp3820
sg70
g3788
sg63
(lp3821
g56
(g77
g58
NtRp3822
(dp3823
g61
(dp3824
sg70
g3818
sg63
(lp3825
g56
(g57
g58
NtRp3826
(dp3827
g61
(dp3828
g69
I3
ssg70
g3822
sg63
(lp3829
S'/ddlagoon/default/index'
p3830
asbasbasbag56
(g72
g58
NtRp3831
(dp3832
g61
(dp3833
sg70
g3788
sg63
(lp3834
g56
(g77
g58
NtRp3835
(dp3836
g61
(dp3837
sg70
g3831
sg63
(lp3838
g56
(g57
g58
NtRp3839
(dp3840
g61
(dp3841
g69
I3
ssg70
g3835
sg63
(lp3842
g56
(g65
g58
NtRp3843
(dp3844
g61
(dp3845
g69
I2
ssg70
Nsg63
(lp3846
sbasbasbasbasbasbasbasbag56
(g72
g58
NtRp3847
(dp3848
g61
(dp3849
sg70
g3772
sg63
(lp3850
g56
(g77
g58
NtRp3851
(dp3852
g61
(dp3853
sg70
g3847
sg63
(lp3854
g56
(g57
g58
NtRp3855
(dp3856
g61
(dp3857
g69
I4
ssg70
g3851
sg63
(lp3858
g56
(g65
g58
NtRp3859
(dp3860
g61
(dp3861
g69
I3
ssg70
Nsg63
(lp3862
g56
(g72
g58
NtRp3863
(dp3864
g61
(dp3865
sg70
g3859
sg63
(lp3866
g56
(g77
g58
NtRp3867
(dp3868
g61
(dp3869
sg70
g3863
sg63
(lp3870
g56
(g57
g58
NtRp3871
(dp3872
g61
(dp3873
g69
I3
ssg70
g3867
sg63
(lp3874
g3804
(S's\x08\x00\x00\x00This App'
tRp3875
asbasbasbag56
(g72
g58
NtRp3876
(dp3877
g61
(dp3878
sg70
g3859
sg63
(lp3879
g56
(g77
g58
NtRp3880
(dp3881
g61
(dp3882
sg70
g3876
sg63
(lp3883
g56
(g57
g58
NtRp3884
(dp3885
g61
(dp3886
g69
I3
ssg70
g3880
sg63
(lp3887
g99
asbasbasbag56
(g72
g58
NtRp3888
(dp3889
g61
(dp3890
sg70
g3859
sg63
(lp3891
g56
(g77
g58
NtRp3892
(dp3893
g61
(dp3894
sg70
g3888
sg63
(lp3895
g56
(g57
g58
NtRp3896
(dp3897
g61
(dp3898
g69
I3
ssg70
g3892
sg63
(lp3899
S'/admin/default/design/ddlagoon'
p3900
asbasbasbag56
(g72
g58
NtRp3901
(dp3902
g61
(dp3903
sg70
g3859
sg63
(lp3904
g56
(g77
g58
NtRp3905
(dp3906
g61
(dp3907
sg70
g3901
sg63
(lp3908
g56
(g57
g58
NtRp3909
(dp3910
g61
(dp3911
g69
I3
ssg70
g3905
sg63
(lp3912
g56
(g65
g58
NtRp3913
(dp3914
g61
(dp3915
g69
I2
ssg70
Nsg63
(lp3916
g56
(g72
g58
NtRp3917
(dp3918
g61
(dp3919
sg70
g3913
sg63
(lp3920
g56
(g77
g58
NtRp3921
(dp3922
g61
(dp3923
sg70
g3917
sg63
(lp3924
g56
(g57
g58
NtRp3925
(dp3926
g61
(dp3927
g69
I2
ssg70
g3921
sg63
(lp3928
g56
(g65
g58
NtRp3929
(dp3930
g61
(dp3931
g69
I1
ssg70
Nsg63
(lp3932
g56
(g72
g58
NtRp3933
(dp3934
g61
(dp3935
sg70
g3929
sg63
(lp3936
g56
(g77
g58
NtRp3937
(dp3938
g61
(dp3939
sg70
g3933
sg63
(lp3940
g56
(g57
g58
NtRp3941
(dp3942
g61
(dp3943
g69
I1
ssg70
g3937
sg63
(lp3944
g3804
(S's\n\x00\x00\x00Controller'
tRp3945
asbasbasbag56
(g72
g58
NtRp3946
(dp3947
g61
(dp3948
sg70
g3929
sg63
(lp3949
g56
(g77
g58
NtRp3950
(dp3951
g61
(dp3952
sg70
g3946
sg63
(lp3953
g56
(g57
g58
NtRp3954
(dp3955
g61
(dp3956
g69
I1
ssg70
g3950
sg63
(lp3957
I00
asbasbasbag56
(g72
g58
NtRp3958
(dp3959
g61
(dp3960
sg70
g3929
sg63
(lp3961
g56
(g77
g58
NtRp3962
(dp3963
g61
(dp3964
sg70
g3958
sg63
(lp3965
g56
(g57
g58
NtRp3966
(dp3967
g61
(dp3968
g69
I1
ssg70
g3962
sg63
(lp3969
S'/admin/default/edit/ddlagoon/controllers/ddl.py'
p3970
asbasbasbasbasbasbasbag56
(g72
g58
NtRp3971
(dp3972
g61
(dp3973
sg70
g3913
sg63
(lp3974
g56
(g77
g58
NtRp3975
(dp3976
g61
(dp3977
sg70
g3971
sg63
(lp3978
g56
(g57
g58
NtRp3979
(dp3980
g61
(dp3981
g69
I2
ssg70
g3975
sg63
(lp3982
g56
(g65
g58
NtRp3983
(dp3984
g61
(dp3985
g69
I1
ssg70
Nsg63
(lp3986
g56
(g72
g58
NtRp3987
(dp3988
g61
(dp3989
sg70
g3983
sg63
(lp3990
g56
(g77
g58
NtRp3991
(dp3992
g61
(dp3993
sg70
g3987
sg63
(lp3994
g56
(g57
g58
NtRp3995
(dp3996
g61
(dp3997
g69
I1
ssg70
g3991
sg63
(lp3998
g3804
(S's\x04\x00\x00\x00View'
tRp3999
asbasbasbag56
(g72
g58
NtRp4000
(dp4001
g61
(dp4002
sg70
g3983
sg63
(lp4003
g56
(g77
g58
NtRp4004
(dp4005
g61
(dp4006
sg70
g4000
sg63
(lp4007
g56
(g57
g58
NtRp4008
(dp4009
g61
(dp4010
g69
I1
ssg70
g4004
sg63
(lp4011
I00
asbasbasbag56
(g72
g58
NtRp4012
(dp4013
g61
(dp4014
sg70
g3983
sg63
(lp4015
g56
(g77
g58
NtRp4016
(dp4017
g61
(dp4018
sg70
g4012
sg63
(lp4019
g56
(g57
g58
NtRp4020
(dp4021
g61
(dp4022
g69
I1
ssg70
g4016
sg63
(lp4023
S'/admin/default/edit/ddlagoon/views/ddl/get.html'
p4024
asbasbasbasbasbasbasbag56
(g72
g58
NtRp4025
(dp4026
g61
(dp4027
sg70
g3913
sg63
(lp4028
g56
(g77
g58
NtRp4029
(dp4030
g61
(dp4031
sg70
g4025
sg63
(lp4032
g56
(g57
g58
NtRp4033
(dp4034
g61
(dp4035
g69
I2
ssg70
g4029
sg63
(lp4036
g56
(g65
g58
NtRp4037
(dp4038
g61
(dp4039
g69
I1
ssg70
Nsg63
(lp4040
g56
(g72
g58
NtRp4041
(dp4042
g61
(dp4043
sg70
g4037
sg63
(lp4044
g56
(g77
g58
NtRp4045
(dp4046
g61
(dp4047
sg70
g4041
sg63
(lp4048
g56
(g57
g58
NtRp4049
(dp4050
g61
(dp4051
g69
I1
ssg70
g4045
sg63
(lp4052
g3804
(S's\x06\x00\x00\x00Layout'
tRp4053
asbasbasbag56
(g72
g58
NtRp4054
(dp4055
g61
(dp4056
sg70
g4037
sg63
(lp4057
g56
(g77
g58
NtRp4058
(dp4059
g61
(dp4060
sg70
g4054
sg63
(lp4061
g56
(g57
g58
NtRp4062
(dp4063
g61
(dp4064
g69
I1
ssg70
g4058
sg63
(lp4065
I00
asbasbasbag56
(g72
g58
NtRp4066
(dp4067
g61
(dp4068
sg70
g4037
sg63
(lp4069
g56
(g77
g58
NtRp4070
(dp4071
g61
(dp4072
sg70
g4066
sg63
(lp4073
g56
(g57
g58
NtRp4074
(dp4075
g61
(dp4076
g69
I1
ssg70
g4070
sg63
(lp4077
S'/admin/default/edit/ddlagoon/views/layout.html'
p4078
asbasbasbasbasbasbasbag56
(g72
g58
NtRp4079
(dp4080
g61
(dp4081
sg70
g3913
sg63
(lp4082
g56
(g77
g58
NtRp4083
(dp4084
g61
(dp4085
sg70
g4079
sg63
(lp4086
g56
(g57
g58
NtRp4087
(dp4088
g61
(dp4089
g69
I2
ssg70
g4083
sg63
(lp4090
g56
(g65
g58
NtRp4091
(dp4092
g61
(dp4093
g69
I1
ssg70
Nsg63
(lp4094
g56
(g72
g58
NtRp4095
(dp4096
g61
(dp4097
sg70
g4091
sg63
(lp4098
g56
(g77
g58
NtRp4099
(dp4100
g61
(dp4101
sg70
g4095
sg63
(lp4102
g56
(g57
g58
NtRp4103
(dp4104
g61
(dp4105
g69
I1
ssg70
g4099
sg63
(lp4106
g3804
(S's\n\x00\x00\x00Stylesheet'
tRp4107
asbasbasbag56
(g72
g58
NtRp4108
(dp4109
g61
(dp4110
sg70
g4091
sg63
(lp4111
g56
(g77
g58
NtRp4112
(dp4113
g61
(dp4114
sg70
g4108
sg63
(lp4115
g56
(g57
g58
NtRp4116
(dp4117
g61
(dp4118
g69
I1
ssg70
g4112
sg63
(lp4119
I00
asbasbasbag56
(g72
g58
NtRp4120
(dp4121
g61
(dp4122
sg70
g4091
sg63
(lp4123
g56
(g77
g58
NtRp4124
(dp4125
g61
(dp4126
sg70
g4120
sg63
(lp4127
g56
(g57
g58
NtRp4128
(dp4129
g61
(dp4130
g69
I1
ssg70
g4124
sg63
(lp4131
S'/admin/default/edit/ddlagoon/static/base.css'
p4132
asbasbasbasbasbasbasbag56
(g72
g58
NtRp4133
(dp4134
g61
(dp4135
sg70
g3913
sg63
(lp4136
g56
(g77
g58
NtRp4137
(dp4138
g61
(dp4139
sg70
g4133
sg63
(lp4140
g56
(g57
g58
NtRp4141
(dp4142
g61
(dp4143
g69
I2
ssg70
g4137
sg63
(lp4144
g56
(g65
g58
NtRp4145
(dp4146
g61
(dp4147
g69
I1
ssg70
Nsg63
(lp4148
g56
(g72
g58
NtRp4149
(dp4150
g61
(dp4151
sg70
g4145
sg63
(lp4152
g56
(g77
g58
NtRp4153
(dp4154
g61
(dp4155
sg70
g4149
sg63
(lp4156
g56
(g57
g58
NtRp4157
(dp4158
g61
(dp4159
g69
I1
ssg70
g4153
sg63
(lp4160
g3804
(S's\x08\x00\x00\x00DB Model'
tRp4161
asbasbasbag56
(g72
g58
NtRp4162
(dp4163
g61
(dp4164
sg70
g4145
sg63
(lp4165
g56
(g77
g58
NtRp4166
(dp4167
g61
(dp4168
sg70
g4162
sg63
(lp4169
g56
(g57
g58
NtRp4170
(dp4171
g61
(dp4172
g69
I1
ssg70
g4166
sg63
(lp4173
I00
asbasbasbag56
(g72
g58
NtRp4174
(dp4175
g61
(dp4176
sg70
g4145
sg63
(lp4177
g56
(g77
g58
NtRp4178
(dp4179
g61
(dp4180
sg70
g4174
sg63
(lp4181
g56
(g57
g58
NtRp4182
(dp4183
g61
(dp4184
g69
I1
ssg70
g4178
sg63
(lp4185
S'/admin/default/edit/ddlagoon/models/db.py'
p4186
asbasbasbasbasbasbasbag56
(g72
g58
NtRp4187
(dp4188
g61
(dp4189
sg70
g3913
sg63
(lp4190
g56
(g77
g58
NtRp4191
(dp4192
g61
(dp4193
sg70
g4187
sg63
(lp4194
g56
(g57
g58
NtRp4195
(dp4196
g61
(dp4197
g69
I2
ssg70
g4191
sg63
(lp4198
g56
(g65
g58
NtRp4199
(dp4200
g61
(dp4201
g69
I1
ssg70
Nsg63
(lp4202
g56
(g72
g58
NtRp4203
(dp4204
g61
(dp4205
sg70
g4199
sg63
(lp4206
g56
(g77
g58
NtRp4207
(dp4208
g61
(dp4209
sg70
g4203
sg63
(lp4210
g56
(g57
g58
NtRp4211
(dp4212
g61
(dp4213
g69
I1
ssg70
g4207
sg63
(lp4214
g3804
(S's\n\x00\x00\x00Menu Model'
tRp4215
asbasbasbag56
(g72
g58
NtRp4216
(dp4217
g61
(dp4218
sg70
g4199
sg63
(lp4219
g56
(g77
g58
NtRp4220
(dp4221
g61
(dp4222
sg70
g4216
sg63
(lp4223
g56
(g57
g58
NtRp4224
(dp4225
g61
(dp4226
g69
I1
ssg70
g4220
sg63
(lp4227
I00
asbasbasbag56
(g72
g58
NtRp4228
(dp4229
g61
(dp4230
sg70
g4199
sg63
(lp4231
g56
(g77
g58
NtRp4232
(dp4233
g61
(dp4234
sg70
g4228
sg63
(lp4235
g56
(g57
g58
NtRp4236
(dp4237
g61
(dp4238
g69
I1
ssg70
g4232
sg63
(lp4239
S'/admin/default/edit/ddlagoon/models/menu.py'
p4240
asbasbasbasbasbasbasbag56
(g72
g58
NtRp4241
(dp4242
g61
(dp4243
sg70
g3913
sg63
(lp4244
g56
(g77
g58
NtRp4245
(dp4246
g61
(dp4247
sg70
g4241
sg63
(lp4248
g56
(g57
g58
NtRp4249
(dp4250
g61
(dp4251
g69
I2
ssg70
g4245
sg63
(lp4252
g56
(g65
g58
NtRp4253
(dp4254
g61
(dp4255
g69
I1
ssg70
Nsg63
(lp4256
g56
(g72
g58
NtRp4257
(dp4258
g61
(dp4259
sg70
g4253
sg63
(lp4260
g56
(g77
g58
NtRp4261
(dp4262
g61
(dp4263
sg70
g4257
sg63
(lp4264
g56
(g57
g58
NtRp4265
(dp4266
g61
(dp4267
g69
I1
ssg70
g4261
sg63
(lp4268
g3804
(S's\x08\x00\x00\x00Database'
tRp4269
asbasbasbag56
(g72
g58
NtRp4270
(dp4271
g61
(dp4272
sg70
g4253
sg63
(lp4273
g56
(g77
g58
NtRp4274
(dp4275
g61
(dp4276
sg70
g4270
sg63
(lp4277
g56
(g57
g58
NtRp4278
(dp4279
g61
(dp4280
g69
I1
ssg70
g4274
sg63
(lp4281
I00
asbasbasbag56
(g72
g58
NtRp4282
(dp4283
g61
(dp4284
sg70
g4253
sg63
(lp4285
g56
(g77
g58
NtRp4286
(dp4287
g61
(dp4288
sg70
g4282
sg63
(lp4289
g56
(g57
g58
NtRp4290
(dp4291
g61
(dp4292
g69
I1
ssg70
g4286
sg63
(lp4293
S'/ddlagoon/appadmin/index'
p4294
asbasbasbasbasbasbasbag56
(g72
g58
NtRp4295
(dp4296
g61
(dp4297
sg70
g3913
sg63
(lp4298
g56
(g77
g58
NtRp4299
(dp4300
g61
(dp4301
sg70
g4295
sg63
(lp4302
g56
(g57
g58
NtRp4303
(dp4304
g61
(dp4305
g69
I2
ssg70
g4299
sg63
(lp4306
g56
(g65
g58
NtRp4307
(dp4308
g61
(dp4309
g69
I1
ssg70
Nsg63
(lp4310
g56
(g72
g58
NtRp4311
(dp4312
g61
(dp4313
sg70
g4307
sg63
(lp4314
g56
(g77
g58
NtRp4315
(dp4316
g61
(dp4317
sg70
g4311
sg63
(lp4318
g56
(g57
g58
NtRp4319
(dp4320
g61
(dp4321
g69
I1
ssg70
g4315
sg63
(lp4322
g3804
(S's\x06\x00\x00\x00Errors'
tRp4323
asbasbasbag56
(g72
g58
NtRp4324
(dp4325
g61
(dp4326
sg70
g4307
sg63
(lp4327
g56
(g77
g58
NtRp4328
(dp4329
g61
(dp4330
sg70
g4324
sg63
(lp4331
g56
(g57
g58
NtRp4332
(dp4333
g61
(dp4334
g69
I1
ssg70
g4328
sg63
(lp4335
I00
asbasbasbag56
(g72
g58
NtRp4336
(dp4337
g61
(dp4338
sg70
g4307
sg63
(lp4339
g56
(g77
g58
NtRp4340
(dp4341
g61
(dp4342
sg70
g4336
sg63
(lp4343
g56
(g57
g58
NtRp4344
(dp4345
g61
(dp4346
g69
I1
ssg70
g4340
sg63
(lp4347
S'/admin/default/errors/ddlagoon'
p4348
asbasbasbasbasbasbasbag56
(g72
g58
NtRp4349
(dp4350
g61
(dp4351
sg70
g3913
sg63
(lp4352
g56
(g77
g58
NtRp4353
(dp4354
g61
(dp4355
sg70
g4349
sg63
(lp4356
g56
(g57
g58
NtRp4357
(dp4358
g61
(dp4359
g69
I2
ssg70
g4353
sg63
(lp4360
g56
(g65
g58
NtRp4361
(dp4362
g61
(dp4363
g69
I1
ssg70
Nsg63
(lp4364
g56
(g72
g58
NtRp4365
(dp4366
g61
(dp4367
sg70
g4361
sg63
(lp4368
g56
(g77
g58
NtRp4369
(dp4370
g61
(dp4371
sg70
g4365
sg63
(lp4372
g56
(g57
g58
NtRp4373
(dp4374
g61
(dp4375
g69
I1
ssg70
g4369
sg63
(lp4376
g3804
(S's\x05\x00\x00\x00About'
tRp4377
asbasbasbag56
(g72
g58
NtRp4378
(dp4379
g61
(dp4380
sg70
g4361
sg63
(lp4381
g56
(g77
g58
NtRp4382
(dp4383
g61
(dp4384
sg70
g4378
sg63
(lp4385
g56
(g57
g58
NtRp4386
(dp4387
g61
(dp4388
g69
I1
ssg70
g4382
sg63
(lp4389
I00
asbasbasbag56
(g72
g58
NtRp4390
(dp4391
g61
(dp4392
sg70
g4361
sg63
(lp4393
g56
(g77
g58
NtRp4394
(dp4395
g61
(dp4396
sg70
g4390
sg63
(lp4397
g56
(g57
g58
NtRp4398
(dp4399
g61
(dp4400
g69
I1
ssg70
g4394
sg63
(lp4401
S'/admin/default/about/ddlagoon'
p4402
asbasbasbasbasbasbasbasbasbasbasbasbasbasbasbag56
(g72
g58
NtRp4403
(dp4404
g61
(dp4405
sg70
g3772
sg63
(lp4406
g56
(g77
g58
NtRp4407
(dp4408
g61
(dp4409
sg70
g4403
sg63
(lp4410
g56
(g57
g58
NtRp4411
(dp4412
g61
(dp4413
g69
I4
ssg70
g4407
sg63
(lp4414
g56
(g65
g58
NtRp4415
(dp4416
g61
(dp4417
g69
I3
ssg70
Nsg63
(lp4418
g56
(g72
g58
NtRp4419
(dp4420
g61
(dp4421
sg70
g4415
sg63
(lp4422
g56
(g77
g58
NtRp4423
(dp4424
g61
(dp4425
sg70
g4419
sg63
(lp4426
g56
(g57
g58
NtRp4427
(dp4428
g61
(dp4429
g69
I3
ssg70
g4423
sg63
(lp4430
g3804
(S's\t\x00\x00\x00Resources'
tRp4431
asbasbasbag56
(g72
g58
NtRp4432
(dp4433
g61
(dp4434
sg70
g4415
sg63
(lp4435
g56
(g77
g58
NtRp4436
(dp4437
g61
(dp4438
sg70
g4432
sg63
(lp4439
g56
(g57
g58
NtRp4440
(dp4441
g61
(dp4442
g69
I3
ssg70
g4436
sg63
(lp4443
g99
asbasbasbag56
(g72
g58
NtRp4444
(dp4445
g61
(dp4446
sg70
g4415
sg63
(lp4447
g56
(g77
g58
NtRp4448
(dp4449
g61
(dp4450
sg70
g4444
sg63
(lp4451
g56
(g57
g58
NtRp4452
(dp4453
g61
(dp4454
g69
I3
ssg70
g4448
sg63
(lp4455
S'None'
p4456
asbasbasbag56
(g72
g58
NtRp4457
(dp4458
g61
(dp4459
sg70
g4415
sg63
(lp4460
g56
(g77
g58
NtRp4461
(dp4462
g61
(dp4463
sg70
g4457
sg63
(lp4464
g56
(g57
g58
NtRp4465
(dp4466
g61
(dp4467
g69
I3
ssg70
g4461
sg63
(lp4468
g56
(g65
g58
NtRp4469
(dp4470
g61
(dp4471
g69
I2
ssg70
Nsg63
(lp4472
g56
(g72
g58
NtRp4473
(dp4474
g61
(dp4475
sg70
g4469
sg63
(lp4476
g56
(g77
g58
NtRp4477
(dp4478
g61
(dp4479
sg70
g4473
sg63
(lp4480
g56
(g57
g58
NtRp4481
(dp4482
g61
(dp4483
g69
I2
ssg70
g4477
sg63
(lp4484
g56
(g65
g58
NtRp4485
(dp4486
g61
(dp4487
g69
I1
ssg70
Nsg63
(lp4488
g56
(g72
g58
NtRp4489
(dp4490
g61
(dp4491
sg70
g4485
sg63
(lp4492
g56
(g77
g58
NtRp4493
(dp4494
g61
(dp4495
sg70
g4489
sg63
(lp4496
g56
(g57
g58
NtRp4497
(dp4498
g61
(dp4499
g69
I1
ssg70
g4493
sg63
(lp4500
g3804
(S's\r\x00\x00\x00Documentation'
tRp4501
asbasbasbag56
(g72
g58
NtRp4502
(dp4503
g61
(dp4504
sg70
g4485
sg63
(lp4505
g56
(g77
g58
NtRp4506
(dp4507
g61
(dp4508
sg70
g4502
sg63
(lp4509
g56
(g57
g58
NtRp4510
(dp4511
g61
(dp4512
g69
I1
ssg70
g4506
sg63
(lp4513
I00
asbasbasbag56
(g72
g58
NtRp4514
(dp4515
g61
(dp4516
sg70
g4485
sg63
(lp4517
g56
(g77
g58
NtRp4518
(dp4519
g61
(dp4520
sg70
g4514
sg63
(lp4521
g56
(g57
g58
NtRp4522
(dp4523
g61
(dp4524
g69
I1
ssg70
g4518
sg63
(lp4525
S'http://www.web2py.com/book'
p4526
asbasbasbag56
(g72
g58
NtRp4527
(dp4528
g61
(dp4529
sg70
g4485
sg63
(lp4530
g56
(g77
g58
NtRp4531
(dp4532
g61
(dp4533
sg70
g4527
sg63
(lp4534
g56
(g57
g58
NtRp4535
(dp4536
g61
(dp4537
g69
I1
ssg70
g4531
sg63
(lp4538
(lp4539
(g3804
(S's\x07\x00\x00\x00Preface'
tRp4540
I00
S'http://www.web2py.com/book/default/chapter/00'
p4541
tp4542
a(g3804
(S's\x0c\x00\x00\x00Introduction'
tRp4543
I00
S'http://www.web2py.com/book/default/chapter/01'
p4544
tp4545
a(g3804
(S's\x06\x00\x00\x00Python'
tRp4546
I00
S'http://www.web2py.com/book/default/chapter/02'
p4547
tp4548
a(g3804
(S's\x08\x00\x00\x00Overview'
tRp4549
I00
S'http://www.web2py.com/book/default/chapter/03'
p4550
tp4551
a(g3804
(S's\x08\x00\x00\x00The Core'
tRp4552
I00
S'http://www.web2py.com/book/default/chapter/04'
p4553
tp4554
a(g3804
(S's\t\x00\x00\x00The Views'
tRp4555
I00
S'http://www.web2py.com/book/default/chapter/05'
p4556
tp4557
a(g3804
(S's\x08\x00\x00\x00Database'
tRp4558
I00
S'http://www.web2py.com/book/default/chapter/06'
p4559
tp4560
a(g3804
(S's\x14\x00\x00\x00Forms and Validators'
tRp4561
I00
S'http://www.web2py.com/book/default/chapter/07'
p4562
tp4563
a(g3804
(S's\x0e\x00\x00\x00Access Control'
tRp4564
I00
S'http://www.web2py.com/book/default/chapter/08'
p4565
tp4566
a(g3804
(S's\x08\x00\x00\x00Services'
tRp4567
I00
S'http://www.web2py.com/book/default/chapter/09'
p4568
tp4569
a(g3804
(S's\x0c\x00\x00\x00Ajax Recipes'
tRp4570
I00
S'http://www.web2py.com/book/default/chapter/10'
p4571
tp4572
a(g3804
(S's\x12\x00\x00\x00Deployment Recipes'
tRp4573
I00
S'http://www.web2py.com/book/default/chapter/11'
p4574
tp4575
a(g3804
(S's\r\x00\x00\x00Other Recipes'
tRp4576
I00
S'http://www.web2py.com/book/default/chapter/12'
p4577
tp4578
a(g3804
(S's\r\x00\x00\x00Buy this book'
tRp4579
I00
S'http://stores.lulu.com/web2py'
p4580
tp4581
aasbasbasbasbasbasbasbag56
(g72
g58
NtRp4582
(dp4583
g61
(dp4584
sg70
g4469
sg63
(lp4585
g56
(g77
g58
NtRp4586
(dp4587
g61
(dp4588
sg70
g4582
sg63
(lp4589
g56
(g57
g58
NtRp4590
(dp4591
g61
(dp4592
g69
I2
ssg70
g4586
sg63
(lp4593
g56
(g65
g58
NtRp4594
(dp4595
g61
(dp4596
g69
I1
ssg70
Nsg63
(lp4597
g56
(g72
g58
NtRp4598
(dp4599
g61
(dp4600
sg70
g4594
sg63
(lp4601
g56
(g77
g58
NtRp4602
(dp4603
g61
(dp4604
sg70
g4598
sg63
(lp4605
g56
(g57
g58
NtRp4606
(dp4607
g61
(dp4608
g69
I1
ssg70
g4602
sg63
(lp4609
g3804
(S's\t\x00\x00\x00Community'
tRp4610
asbasbasbag56
(g72
g58
NtRp4611
(dp4612
g61
(dp4613
sg70
g4594
sg63
(lp4614
g56
(g77
g58
NtRp4615
(dp4616
g61
(dp4617
sg70
g4611
sg63
(lp4618
g56
(g57
g58
NtRp4619
(dp4620
g61
(dp4621
g69
I1
ssg70
g4615
sg63
(lp4622
I00
asbasbasbag56
(g72
g58
NtRp4623
(dp4624
g61
(dp4625
sg70
g4594
sg63
(lp4626
g56
(g77
g58
NtRp4627
(dp4628
g61
(dp4629
sg70
g4623
sg63
(lp4630
g56
(g57
g58
NtRp4631
(dp4632
g61
(dp4633
g69
I1
ssg70
g4627
sg63
(lp4634
Nasbasbasbag56
(g72
g58
NtRp4635
(dp4636
g61
(dp4637
sg70
g4594
sg63
(lp4638
g56
(g77
g58
NtRp4639
(dp4640
g61
(dp4641
sg70
g4635
sg63
(lp4642
g56
(g57
g58
NtRp4643
(dp4644
g61
(dp4645
g69
I1
ssg70
g4639
sg63
(lp4646
(lp4647
(g3804
(S's\x06\x00\x00\x00Groups'
tRp4648
I00
S'http://www.web2py.com/examples/default/usergroups'
p4649
tp4650
a(g3804
(S's\x07\x00\x00\x00Twitter'
tRp4651
I00
S'http://twitter.com/web2py'
p4652
tp4653
a(g3804
(S's\t\x00\x00\x00Live chat'
tRp4654
I00
S'http://mibbit.com/?channel=%23web2py&server=irc.mibbit.net'
p4655
tp4656
a(g3804
(S's\n\x00\x00\x00User Voice'
tRp4657
I00
S'http://web2py.uservoice.com/'
p4658
tp4659
aasbasbasbasbasbasbasbag56
(g72
g58
NtRp4660
(dp4661
g61
(dp4662
sg70
g4469
sg63
(lp4663
g56
(g77
g58
NtRp4664
(dp4665
g61
(dp4666
sg70
g4660
sg63
(lp4667
g56
(g57
g58
NtRp4668
(dp4669
g61
(dp4670
g69
I2
ssg70
g4664
sg63
(lp4671
g56
(g65
g58
NtRp4672
(dp4673
g61
(dp4674
g69
I1
ssg70
Nsg63
(lp4675
g56
(g72
g58
NtRp4676
(dp4677
g61
(dp4678
sg70
g4672
sg63
(lp4679
g56
(g77
g58
NtRp4680
(dp4681
g61
(dp4682
sg70
g4676
sg63
(lp4683
g56
(g57
g58
NtRp4684
(dp4685
g61
(dp4686
g69
I1
ssg70
g4680
sg63
(lp4687
g3804
(S's\x06\x00\x00\x00Web2py'
tRp4688
asbasbasbag56
(g72
g58
NtRp4689
(dp4690
g61
(dp4691
sg70
g4672
sg63
(lp4692
g56
(g77
g58
NtRp4693
(dp4694
g61
(dp4695
sg70
g4689
sg63
(lp4696
g56
(g57
g58
NtRp4697
(dp4698
g61
(dp4699
g69
I1
ssg70
g4693
sg63
(lp4700
I00
asbasbasbag56
(g72
g58
NtRp4701
(dp4702
g61
(dp4703
sg70
g4672
sg63
(lp4704
g56
(g77
g58
NtRp4705
(dp4706
g61
(dp4707
sg70
g4701
sg63
(lp4708
g56
(g57
g58
NtRp4709
(dp4710
g61
(dp4711
g69
I1
ssg70
g4705
sg63
(lp4712
S'http://www.web2py.com'
p4713
asbasbasbag56
(g72
g58
NtRp4714
(dp4715
g61
(dp4716
sg70
g4672
sg63
(lp4717
g56
(g77
g58
NtRp4718
(dp4719
g61
(dp4720
sg70
g4714
sg63
(lp4721
g56
(g57
g58
NtRp4722
(dp4723
g61
(dp4724
g69
I1
ssg70
g4718
sg63
(lp4725
(lp4726
(g3804
(S's\x08\x00\x00\x00Download'
tRp4727
I00
S'http://www.web2py.com/examples/default/download'
p4728
tp4729
a(g3804
(S's\x07\x00\x00\x00Support'
tRp4730
I00
S'http://www.web2py.com/examples/default/support'
p4731
tp4732
a(g3804
(S's\x0e\x00\x00\x00Quick Examples'
tRp4733
I00
S'http://web2py.com/examples/default/examples'
p4734
tp4735
a(g3804
(S's\x03\x00\x00\x00FAQ'
tRp4736
I00
S'http://web2py.com/AlterEgo'
p4737
tp4738
a(g3804
(S's\x11\x00\x00\x00Free Applications'
tRp4739
I00
S'http://web2py.com/appliances'
p4740
tp4741
a(g3804
(S's\x07\x00\x00\x00Plugins'
tRp4742
I00
S'http://web2py.com/plugins'
p4743
tp4744
a(g3804
(S's\x07\x00\x00\x00Recipes'
tRp4745
I00
S'http://web2pyslices.com/'
p4746
tp4747
a(g3804
(S's\x04\x00\x00\x00Demo'
tRp4748
I00
S'http://web2py.com/demo_admin'
p4749
tp4750
a(g3804
(S's\x08\x00\x00\x00Semantic'
tRp4751
I00
S'http://web2py.com/semantic'
p4752
tp4753
a(g3804
(S's\x07\x00\x00\x00Layouts'
tRp4754
I00
S'http://web2py.com/layouts'
p4755
tp4756
a(g3804
(S's\x06\x00\x00\x00Videos'
tRp4757
I00
S'http://www.web2py.com/examples/default/videos/'
p4758
tp4759
aasbasbasbasbasbasbasbasbasbasbasbasbasbasbasbasbasbasbasbag56
(g72
g58
NtRp4760
(dp4761
g61
(dp4762
sg70
g3299
sg63
(lp4763
g56
(g77
g58
NtRp4764
(dp4765
g61
(dp4766
g81
g82
ssg70
g4760
sg63
(lp4767
S'meta'
p4768
asbag56
(g77
g58
NtRp4769
(dp4770
g61
(dp4771
g88
g89
ssg70
g4760
sg63
(lp4772
S':'
asbag56
(g77
g58
NtRp4773
(dp4774
g61
(dp4775
sg70
g4760
sg63
(lp4776
g56
(g57
g58
NtRp4777
(dp4778
g61
(dp4779
g69
I5
ssg70
g4773
sg63
(lp4780
g56
(g65
g58
NtRp4781
(dp4782
g61
(dp4783
g69
I4
ssg70
Nsg63
(lp4784
g56
(g72
g58
NtRp4785
(dp4786
g61
(dp4787
sg70
g4781
sg63
(lp4788
g56
(g77
g58
NtRp4789
(dp4790
g61
(dp4791
g81
g82
ssg70
g4785
sg63
(lp4792
S'author'
p4793
asbag56
(g77
g58
NtRp4794
(dp4795
g61
(dp4796
g88
g89
ssg70
g4785
sg63
(lp4797
S':'
asbag56
(g77
g58
NtRp4798
(dp4799
g61
(dp4800
sg70
g4785
sg63
(lp4801
g56
(g57
g58
NtRp4802
(dp4803
g61
(dp4804
g69
I4
ssg70
g4798
sg63
(lp4805
S'Your Name <you@example.com>'
p4806
asbasbasbag56
(g72
g58
NtRp4807
(dp4808
g61
(dp4809
sg70
g4781
sg63
(lp4810
g56
(g77
g58
NtRp4811
(dp4812
g61
(dp4813
g81
g82
ssg70
g4807
sg63
(lp4814
S'copyright'
p4815
asbag56
(g77
g58
NtRp4816
(dp4817
g61
(dp4818
g88
g89
ssg70
g4807
sg63
(lp4819
S':'
asbag56
(g77
g58
NtRp4820
(dp4821
g61
(dp4822
sg70
g4807
sg63
(lp4823
g56
(g57
g58
NtRp4824
(dp4825
g61
(dp4826
g69
I4
ssg70
g4820
sg63
(lp4827
S'Copyright 2011'
p4828
asbasbasbag56
(g72
g58
NtRp4829
(dp4830
g61
(dp4831
sg70
g4781
sg63
(lp4832
g56
(g77
g58
NtRp4833
(dp4834
g61
(dp4835
g81
g82
ssg70
g4829
sg63
(lp4836
S'description'
p4837
asbag56
(g77
g58
NtRp4838
(dp4839
g61
(dp4840
g88
g89
ssg70
g4829
sg63
(lp4841
S':'
asbag56
(g77
g58
NtRp4842
(dp4843
g61
(dp4844
sg70
g4829
sg63
(lp4845
g56
(g57
g58
NtRp4846
(dp4847
g61
(dp4848
g69
I4
ssg70
g4842
sg63
(lp4849
S'a cool new app'
p4850
asbasbasbag56
(g72
g58
NtRp4851
(dp4852
g61
(dp4853
sg70
g4781
sg63
(lp4854
g56
(g77
g58
NtRp4855
(dp4856
g61
(dp4857
g81
g82
ssg70
g4851
sg63
(lp4858
S'generator'
p4859
asbag56
(g77
g58
NtRp4860
(dp4861
g61
(dp4862
g88
g89
ssg70
g4851
sg63
(lp4863
S':'
asbag56
(g77
g58
NtRp4864
(dp4865
g61
(dp4866
sg70
g4851
sg63
(lp4867
g56
(g57
g58
NtRp4868
(dp4869
g61
(dp4870
g69
I4
ssg70
g4864
sg63
(lp4871
S'Web2py Web Framework'
p4872
asbasbasbag56
(g72
g58
NtRp4873
(dp4874
g61
(dp4875
sg70
g4781
sg63
(lp4876
g56
(g77
g58
NtRp4877
(dp4878
g61
(dp4879
g81
g82
ssg70
g4873
sg63
(lp4880
S'keywords'
p4881
asbag56
(g77
g58
NtRp4882
(dp4883
g61
(dp4884
g88
g89
ssg70
g4873
sg63
(lp4885
S':'
asbag56
(g77
g58
NtRp4886
(dp4887
g61
(dp4888
sg70
g4873
sg63
(lp4889
g56
(g57
g58
NtRp4890
(dp4891
g61
(dp4892
g69
I4
ssg70
g4886
sg63
(lp4893
S'web2py, python, framework'
p4894
asbasbasbasbasbasbasbag56
(g72
g58
NtRp4895
(dp4896
g61
(dp4897
sg70
g3299
sg63
(lp4898
g56
(g77
g58
NtRp4899
(dp4900
g61
(dp4901
g81
g82
ssg70
g4895
sg63
(lp4902
S'postprocessing'
p4903
asbag56
(g77
g58
NtRp4904
(dp4905
g61
(dp4906
g88
g89
ssg70
g4895
sg63
(lp4907
S':'
asbag56
(g77
g58
NtRp4908
(dp4909
g61
(dp4910
sg70
g4895
sg63
(lp4911
g56
(g57
g58
NtRp4912
(dp4913
g61
(dp4914
g69
I5
ssg70
g4908
sg63
(lp4915
g56
(g65
g58
NtRp4916
(dp4917
g61
(dp4918
g69
I4
ssg70
Nsg63
(lp4919
sbasbasbasbag56
(g72
g58
NtRp4920
(dp4921
g61
(dp4922
sg70
g3299
sg63
(lp4923
g56
(g77
g58
NtRp4924
(dp4925
g61
(dp4926
g81
g82
ssg70
g4920
sg63
(lp4927
S'session_filename'
p4928
asbag56
(g77
g58
NtRp4929
(dp4930
g61
(dp4931
g88
g89
ssg70
g4920
sg63
(lp4932
S':'
asbag56
(g77
g58
NtRp4933
(dp4934
g61
(dp4935
sg70
g4920
sg63
(lp4936
g56
(g57
g58
NtRp4937
(dp4938
g61
(dp4939
g69
I5
ssg70
g4933
sg63
(lp4940
S'/windows/Users/Thomas/Dropbox/appz/2011/GAE/ddl-lagoon/applications/ddlagoon/sessions/127.0.0.1-2c121d23-ba64-4571-be2b-55971f7c369e'
p4941
asbasbasbag56
(g72
g58
NtRp4942
(dp4943
g61
(dp4944
sg70
g3299
sg63
(lp4945
g56
(g77
g58
NtRp4946
(dp4947
g61
(dp4948
g81
g82
ssg70
g4942
sg63
(lp4949
S'session_id'
p4950
asbag56
(g77
g58
NtRp4951
(dp4952
g61
(dp4953
g88
g89
ssg70
g4942
sg63
(lp4954
S':'
asbag56
(g77
g58
NtRp4955
(dp4956
g61
(dp4957
sg70
g4942
sg63
(lp4958
g56
(g57
g58
NtRp4959
(dp4960
g61
(dp4961
g69
I5
ssg70
g4955
sg63
(lp4962
S'127.0.0.1-2c121d23-ba64-4571-be2b-55971f7c369e'
p4963
asbasbasbag56
(g72
g58
NtRp4964
(dp4965
g61
(dp4966
sg70
g3299
sg63
(lp4967
g56
(g77
g58
NtRp4968
(dp4969
g61
(dp4970
g81
g82
ssg70
g4964
sg63
(lp4971
S'session_id_name'
p4972
asbag56
(g77
g58
NtRp4973
(dp4974
g61
(dp4975
g88
g89
ssg70
g4964
sg63
(lp4976
S':'
asbag56
(g77
g58
NtRp4977
(dp4978
g61
(dp4979
sg70
g4964
sg63
(lp4980
g56
(g57
g58
NtRp4981
(dp4982
g61
(dp4983
g69
I5
ssg70
g4977
sg63
(lp4984
g3356
asbasbasbag56
(g72
g58
NtRp4985
(dp4986
g61
(dp4987
sg70
g3299
sg63
(lp4988
g56
(g77
g58
NtRp4989
(dp4990
g61
(dp4991
g81
g82
ssg70
g4985
sg63
(lp4992
S'session_new'
p4993
asbag56
(g77
g58
NtRp4994
(dp4995
g61
(dp4996
g88
g89
ssg70
g4985
sg63
(lp4997
S':'
asbag56
(g77
g58
NtRp4998
(dp4999
g61
(dp5000
sg70
g4985
sg63
(lp5001
g56
(g57
g58
NtRp5002
(dp5003
g61
(dp5004
g69
I5
ssg70
g4998
sg63
(lp5005
g1750
asbasbasbag56
(g72
g58
NtRp5006
(dp5007
g61
(dp5008
sg70
g3299
sg63
(lp5009
g56
(g77
g58
NtRp5010
(dp5011
g61
(dp5012
g81
g82
ssg70
g5006
sg63
(lp5013
S'status'
p5014
asbag56
(g77
g58
NtRp5015
(dp5016
g61
(dp5017
g88
g89
ssg70
g5006
sg63
(lp5018
S':'
asbag56
(g77
g58
NtRp5019
(dp5020
g61
(dp5021
sg70
g5006
sg63
(lp5022
g56
(g57
g58
NtRp5023
(dp5024
g61
(dp5025
g69
I5
ssg70
g5019
sg63
(lp5026
S'200'
p5027
asbasbasbag56
(g72
g58
NtRp5028
(dp5029
g61
(dp5030
sg70
g3299
sg63
(lp5031
g56
(g77
g58
NtRp5032
(dp5033
g61
(dp5034
g81
g82
ssg70
g5028
sg63
(lp5035
S'subtitle'
p5036
asbag56
(g77
g58
NtRp5037
(dp5038
g61
(dp5039
g88
g89
ssg70
g5028
sg63
(lp5040
S':'
asbag56
(g77
g58
NtRp5041
(dp5042
g61
(dp5043
sg70
g5028
sg63
(lp5044
g56
(g57
g58
NtRp5045
(dp5046
g61
(dp5047
g69
I5
ssg70
g5041
sg63
(lp5048
g3804
(S's\r\x00\x00\x00customize me!'
tRp5049
asbasbasbag56
(g72
g58
NtRp5050
(dp5051
g61
(dp5052
sg70
g3299
sg63
(lp5053
g56
(g77
g58
NtRp5054
(dp5055
g61
(dp5056
g81
g82
ssg70
g5050
sg63
(lp5057
S'title'
p5058
asbag56
(g77
g58
NtRp5059
(dp5060
g61
(dp5061
g88
g89
ssg70
g5050
sg63
(lp5062
S':'
asbag56
(g77
g58
NtRp5063
(dp5064
g61
(dp5065
sg70
g5050
sg63
(lp5066
g56
(g57
g58
NtRp5067
(dp5068
g61
(dp5069
g69
I5
ssg70
g5063
sg63
(lp5070
g121
asbasbasbag56
(g72
g58
NtRp5071
(dp5072
g61
(dp5073
sg70
g3299
sg63
(lp5074
g56
(g77
g58
NtRp5075
(dp5076
g61
(dp5077
g81
g82
ssg70
g5071
sg63
(lp5078
g2416
asbag56
(g77
g58
NtRp5079
(dp5080
g61
(dp5081
g88
g89
ssg70
g5071
sg63
(lp5082
S':'
asbag56
(g77
g58
NtRp5083
(dp5084
g61
(dp5085
sg70
g5071
sg63
(lp5086
g56
(g57
g58
NtRp5087
(dp5088
g61
(dp5089
g69
I5
ssg70
g5083
sg63
(lp5090
g2429
asbasbasbag56
(g72
g58
NtRp5091
(dp5092
g61
(dp5093
sg70
g3299
sg63
(lp5094
g56
(g77
g58
NtRp5095
(dp5096
g61
(dp5097
g81
g82
ssg70
g5091
sg63
(lp5098
S'view'
p5099
asbag56
(g77
g58
NtRp5100
(dp5101
g61
(dp5102
g88
g89
ssg70
g5091
sg63
(lp5103
S':'
asbag56
(g77
g58
NtRp5104
(dp5105
g61
(dp5106
sg70
g5091
sg63
(lp5107
g56
(g57
g58
NtRp5108
(dp5109
g61
(dp5110
g69
I5
ssg70
g5104
sg63
(lp5111
S'ddl/get.html'
p5112
asbasbasbasbasbsS'locals'
p5113
(dp5114
g3278
S"<Row {'last_time_downloaded': None, 'version': 1..., 'date_created': None, 'web_description': None}>"
p5115
sS'public_ddl'
p5116
S"{'e': 65537, 'n': 138699374543223257...855851119927153483L}"
p5117
sS'filename'
p5118
S"'The_Thing_2011_TS_XviD_READNFO___MiSTERE.avi'"
p5119
sS'ddlJ'
p5120
S"{'author': None, 'description': None, 'filename': 'The_Thing_2011_TS_XviD_READNFO___MiSTERE.avi', 'hash': '0695d08c7202912d74c5fadecf97f220', 'links': ['76cx3r', '76cx28', '76cx40', '76cx4f', '76cx3n', '76cx91', '76cxaz', '76cxb8', '76cxbn', '76cxaq', '76cxf2', '76cxho', '76cxhg', '76cxh7', '76cxhu', '76cxl6', '76cxp4', '76cxo0', '76cxpy', '76cxpl', ...], 'parts': 228, 'service': 'twitpic', 'size': 1432680294, 'time': 1319695724, 'version': 1.5}"
p5121
sS'ddlJson'
p5122
S'\'{\\n    "author": null, \\n    "description": null, ...4, \\n    "time": 1319695724, \\n    "version": 1.5\\n}\''
p5123
sS'id'
p5124
S"'14'"
p5125
sssS'traceback'
p5126
S'Traceback (most recent call last):\n  File "/windows/Users/Thomas/Dropbox/appz/2011/GAE/ddl-lagoon/gluon/restricted.py", line 194, in restricted\n    exec ccode in environment\n  File "/windows/Users/Thomas/Dropbox/appz/2011/GAE/ddl-lagoon/applications/ddlagoon/controllers/ddl.py", line 50, in <module>\n  File "/windows/Users/Thomas/Dropbox/appz/2011/GAE/ddl-lagoon/gluon/globals.py", line 149, in <lambda>\n    self._caller = lambda f: f()\n  File "/windows/Users/Thomas/Dropbox/appz/2011/GAE/ddl-lagoon/applications/ddlagoon/controllers/ddl.py", line 14, in get\n    return service()\n  File "/windows/Users/Thomas/Dropbox/appz/2011/GAE/ddl-lagoon/gluon/tools.py", line 3834, in __call__\n    return self.serve_run(request.args[1:])\n  File "/windows/Users/Thomas/Dropbox/appz/2011/GAE/ddl-lagoon/gluon/tools.py", line 3585, in serve_run\n    *args[1:], **dict(request.vars)))\n  File "/windows/Users/Thomas/Dropbox/appz/2011/GAE/ddl-lagoon/gluon/tools.py", line 3351, in universal_caller\n    return f(**arg_dict)\n  File "/windows/Users/Thomas/Dropbox/appz/2011/GAE/ddl-lagoon/applications/ddlagoon/controllers/ddl.py", line 41, in ddl\n    encryptedMsg = encryptForClient(public_ddl[\'n\'],public_ddl[\'e\'],ddlJson)\nNameError: global name \'encryptForClient\' is not defined\n'
p5127
s.