(dp1
S'output'
p2
S''
sS'layer'
p3
S'/windows/Users/Thomas/Dropbox/appz/2011/ddlagoon/public_html/applications/ddlagoon/views/default/how_to_upload.html'
p4
sS'code'
p5
S'left_sidebar_enabled=right_sidebar_enabled=True\nresponse.write(\'\\r\\n\', escape=False)\nresponse.write(\'<!DOCTYPE html>\\n<html lang="\', escape=False)\nresponse.write(T.accepted_language or \'en\')\nresponse.write(\'" class="no-js"><!-- no-js need it for modernzr -->\\n  <head>\\n    \\n    <meta charset="utf-8" />        \\n    <!-- www.phpied.com/conditional-comments-block-downloads/ -->\\n    <!--[if IE]>\\n      <!-- Always force latest IE rendering engine \\n       (even in intranet) & Chrome Frame \\n       Remove this if you use the .htaccess -->\\n      <meta http-equiv="X-UA-Compatible" content="IE=edge,chrome=1">\\n    <![endif]-->    \\n\\n    <title>DDLagoon</title>\\n    \\n    <!-- http://dev.w3.org/html5/markup/meta.name.html -->\\n    <meta name="application-name" content="\', escape=False)\nresponse.write(request.application)\nresponse.write(\'" /> \\n    \\n    <!-- Speaking of Google, don\\\'t forget to set your site up: \\n     http://google.com/webmasters -->\\n    <meta name="google-site-verification" content="" />\\n    \\n    <!--  Mobile Viewport Fix\\n      j.mp/mobileviewport & davidbcalhoun.com/2010/viewport-metatag \\n      device-width: Occupy full width of the screen in its current orientation\\n      initial-scale = 1.0 retains dimensions instead of zooming out if page height > device height\\n      maximum-scale = 1.0 retains dimensions instead of zooming in if page width < device width\\n      -->\\n    <meta name="viewport" content="width=device-width, initial-scale=1.0, maximum-scale=1.0">\\n    \\n    <!-- Place favicon.ico and apple-touch-icon.png in the root of your domain and delete these references -->\\n    <link rel="shortcut icon" href="\', escape=False)\nresponse.write(URL(\'static\',\'favicon.ico\'))\nresponse.write(\'" type="image/x-icon">\\n    <link rel="apple-touch-icon" href="\', escape=False)\nresponse.write(URL(\'static\',\'favicon.png\'))\nresponse.write(\'">\\n\\n    <!-- For the less-enabled mobile browsers like Opera Mini -->\\n    <link rel="stylesheet" media="handheld" href="\', escape=False)\nresponse.write(URL(\'static\',\'css/handheld.css\'))\nresponse.write(\'">\\n    \\n    <!-- All JavaScript at the bottom, except for Modernizr which enables HTML5 elements & feature detects -->\\n    <script src="\', escape=False)\nresponse.write(URL(\'static\',\'js/modernizr-1.7.min.js\'))\nresponse.write(\'"></script>\\n    \\n    \', escape=False)\n#------  require CSS and JS files for this page (read info in base.css) ------\nresponse.write(\'\\n    \', escape=False)\nresponse.files.append(URL(\'static\',\'css/base.css\'))\nresponse.write(\'\\n    \', escape=False)\nresponse.files.append(URL(\'static\',\'css/superfish.css\'))\nresponse.write(\'\\n    \', escape=False)\nresponse.files.append(URL(\'static\',\'js/superfish.js\'))\nresponse.write(\'\\n    \', escape=False)\n#------ include web2py specific js code (jquery, calendar, form stuff) ------\nresponse.write(\'\\n    \', escape=False)\nresponse.files.insert(0,URL(\'static\',\'js/jquery.js\'))\nresponse.files.insert(1,URL(\'static\',\'css/anytime.css\'))\nresponse.files.insert(2,URL(\'static\',\'js/anytime.js\'))\nresponse.include_meta()\nresponse.include_files()\nresponse.write(\'\\n<script type="text/javascript"><!--\\n    // These variables are used by the web2py_ajax_init function in web2py_ajax.js (which is loaded below).\\n    var w2p_ajax_confirm_message = "\', escape=False)\nresponse.write(T(\'Are you sure you want to delete this object?\'))\nresponse.write(\'";\\n    var w2p_ajax_date_format = "\', escape=False)\nresponse.write(T(\'%Y-%m-%d\'))\nresponse.write(\'";\\n    var w2p_ajax_datetime_format = "\', escape=False)\nresponse.write(T(\'%Y-%m-%d %H:%M:%S\'))\nresponse.write(\'";\\n    //--></script>\\n    <script src="\', escape=False)\nresponse.write(URL(\'static\',\'js/web2py_ajax.js\'))\nresponse.write(\'" type="text/javascript"></script>\\n\', escape=False)\nresponse.write(\'\\n\\n    \', escape=False)\n#using sidebars need to know what sidebar you want to use\n#prior of using it, because of static width size of content, you can use\n#left_sidebar, right_sidebar, both or none (False left and right)\nleft_sidebar_enabled = globals().get(\'left_sidebar_enabled\',False)\nright_sidebar_enabled = globals().get(\'right_sidebar_enabled\',False)\nif left_sidebar_enabled and right_sidebar_enabled: width_content=\'63%\'\nelif left_sidebar_enabled != right_sidebar_enabled: width_content=\'740px\'\nelse: width_content=\'100%\'\nif left_sidebar_enabled: left_sidebar_style = \'style="display: block;"\'\nelse: left_sidebar_style = \'style="display: none;"\'\nif right_sidebar_enabled: right_sidebar_style = \'style="display: block;"\'\nelse: right_sidebar_style = \'style="display: none;"\'\nstyle_content = \'style="width: %s"\' % width_content\nresponse.write(\'\\n    \\n    <!-- uncomment here to load jquery-ui -->\\n    \\n    <link rel="stylesheet" href="http://ajax.googleapis.com/ajax/libs/jqueryui/1.8.16/themes/base/jquery-ui.css" type="text/css" media="all" />\\n    <script src="http://ajax.googleapis.com/ajax/libs/jqueryui/1.8.16/jquery-ui.min.js" type="text/javascript"></script>\\n    \\n   <!-- uncomment to load jquery-ui -->\\n    \\n    \\n  </head>\\n  \\n  <!-- paulirish.com/2008/conditional-stylesheets-vs-css-hacks-answer-neither/ -->  \\n  <!--[if lt IE 7 ]> <body class="ie6"> <![endif]-->\\n  <!--[if IE 7 ]>    <body class="ie7"> <![endif]-->\\n  <!--[if IE 8 ]>    <body class="ie8"> <![endif]-->\\n  <!--[if IE 9 ]>    <body class="ie9"> <![endif]-->\\n  <!--[if (gt IE 9)|!(IE)]><!--> <body> <!--<![endif]-->\\n    \\n    <div class="flash">\', escape=False)\nresponse.write(response.flash or \'\')\nresponse.write(\'</div> <!-- notification div -->\\n\\n        \\n\\n    <div id="container">                        \\n      \\n      <div id="wrapper">        \\n      \', escape=False)\ntry:\n    response.write(auth.navbar(action=URL(\'default\',\'user\')))\nexcept:pass\nresponse.write(\'\\n    \\n    <div id="header"> <!-- header and login nav -->\\n      \', escape=False)\nresponse.write(\' <!-- this is default header -->\\n      \\n      <h1>\\n        DDLagoon <span id="appname"> The lagoon of DDL</span>\\n      </h1>\\n      <div style="clear: both;"></div><!-- Clear the divs -->\\n      \', escape=False)\nresponse.write(\'\\n    </div><!-- header  -->\\n    \\n\\n    \\n    <div id="page"> <!-- Here my central body -->     \\n\\n      \', escape=False)\nif left_sidebar_enabled:\n    response.write(\'\\n          <div id="left_sidebar" \', escape=False)\n    response.write(XML(left_sidebar_style))\n    response.write(\' >\\n            <div style="padding: 4px;">\\n          \', escape=False)\n    response.write(\'<a href="/ddlagoon/default">Home</a> \', escape=False)\n    response.write(\'       \\n            </div>\\n          </div><!-- left_sidebar -->\\n      \', escape=False)\n    pass\nresponse.write(\'\\n\\n      <!-- content -->\\n      <div id="content" \', escape=False)\nresponse.write(XML(style_content))\nresponse.write(\' >\\n        \', escape=False)\nresponse.write(\'\\r\\n\', escape=False)\nif alloweed:\n    response.write(\'\\r\\n        Aller, on va apprendre \\xc3\\xa0 uploader ;)<br /><br />\\r\\n\\r\\n        <b><u>Table des mati\\xc3\\xa8res</u><br />\\r\\n            <a href="#twitter">Twitter Account</a><br />\\r\\n        <a href="#param">Param\\xc3\\xa8tres du programme</a><br />\\r\\n        &nbsp;&nbsp;&nbsp;&nbsp;<a href="#twitpic">Twitpic Account</a><br />\\r\\n        &nbsp;&nbsp;&nbsp;&nbsp;<a href="#pictures">Pictures Folder</a><br />\\r\\n        </b><br /><br />\\r\\n\\r\\n\\r\\n        <h1><a name="twitter"></a>Twitter Account</h1>\\r\\n        Tout d\\\'abord, il nous faut un compte Twitter.<br />\\r\\n        Utilisez un <b>COMPTE TWITTER BIDON</b> que vous n\\\'utilisez pas, que vous allez cr\\xc3\\xa9er pour l\\\'occasion, <u>et changer de temps en temps</u>.<br />\\r\\n        Allez sur <a href="http://www.twitter.com" target="_blank">Twitter.com</a> et cr\\xc3\\xa9ez un compte bidon, avec une adresse de type <b>un_mail_bidon@yopmail.com</b>.<br />\\r\\n        <u>Exemple:</u><br />\\r\\n        <img src="http://content.screencast.com/users/Sp00ky31/folders/Jing/media/98ca5436-e535-481a-80f2-ee6d1a31fc65/2011-11-08_2213.png" /><br />\\r\\n        <img src="http://content.screencast.com/users/Sp00ky31/folders/Jing/media/e8d1824e-323d-42a8-a4f9-f76dba200c0e/2011-11-08_2214.png" /><br /><br />\\r\\n        Allez sur http://<b>un_mail_bidon</b>.yopmail.com (en remplacant un_mail_bidon par votre email yopmail sans le "@yopmail.com") et confirmez votre e-mail addresse.<br />\\r\\n        <img src="http://content.screencast.com/users/Sp00ky31/folders/Jing/media/80e86354-8ee4-428c-9c4a-9b594f2f2033/2011-11-08_2219.png" /><br /><br />\\r\\n        Votre compte Twitter est cr\\xc3\\xa9\\xc3\\xa9 et le mail confirm\\xc3\\xa9 !<br />\\r\\n        <img src="http://content.screencast.com/users/Sp00ky31/folders/Jing/media/e21c4f1c-fd1c-4627-845c-cc301de06bb2/2011-11-08_2221.png" /><br /><br />\\r\\n        Time to go sur <a href="http://www.twitpic.com">TwitPic</a> et de se connecter avec le compte Twitter fra\\xc3\\xaechement cr\\xc3\\xa9\\xc3\\xa9.<br />\\r\\n        <!-- copy and paste. Modify height and width if desired. --> <object id="scPlayer"  width="1215" height="845" type="application/x-shockwave-flash" data="http://content.screencast.com/users/Sp00ky31/folders/Jing/media/6df58711-7d88-4d3e-978c-58596e7e35ff/jingswfplayer.swf" > <param name="movie" value="http://content.screencast.com/users/Sp00ky31/folders/Jing/media/6df58711-7d88-4d3e-978c-58596e7e35ff/jingswfplayer.swf" /> <param name="quality" value="high" /> <param name="bgcolor" value="#FFFFFF" /> <param name="flashVars" value="thumb=http://content.screencast.com/users/Sp00ky31/folders/Jing/media/6df58711-7d88-4d3e-978c-58596e7e35ff/FirstFrame.jpg&containerwidth=1215&containerheight=845&content=http://content.screencast.com/users/Sp00ky31/folders/Jing/media/6df58711-7d88-4d3e-978c-58596e7e35ff/2011-11-08_2224.swf&blurover=false" /> <param name="allowFullScreen" value="true" /> <param name="scale" value="showall" /> <param name="allowScriptAccess" value="always" /> <param name="base" value="http://content.screencast.com/users/Sp00ky31/folders/Jing/media/6df58711-7d88-4d3e-978c-58596e7e35ff/" /> Unable to display content. Adobe Flash is required.</object>\\r\\n        <br /><br />\\r\\n        Si tout a bien fonctionn\\xc3\\xa9, vous \\xc3\\xaates connect\\xc3\\xa9 avec votre compte Twitter sous Twitpic, pr\\xc3\\xaat \\xc3\\xa0 utiliser ce compte pour uploader !<br />\\r\\n        <img src="http://content.screencast.com/users/Sp00ky31/folders/Jing/media/91cf414b-7557-403c-beaa-c21778aa2fb3/2011-11-08_2226.png" />\\r\\n<br /><br />\\r\\n        <h1><a name="param"></a>Param\\xc3\\xa8tres du programme</h1>\\r\\n        <h2><a name="twitpic"></a>Twitpic Account</h2>\\r\\n        \', escape=False)\n    response.write(tuto[\'start\'])\n    response.write(\'<br />\\r\\n        <img src="/ddlagoon/static/images/tuto_upload/01.png" /><br /><br />\\r\\n        \', escape=False)\n    response.write(tuto[\'go_to_profile_pre\'])\n    response.write(\' <a href="/ddlagoon/default/user/profile" target="_blank">\', escape=False)\n    response.write(tuto[\'profile\'])\n    response.write(\'</a> \', escape=False)\n    response.write(tuto[\'go_to_profile_suf\'])\n    response.write(\'<br /><br />\\r\\n        \', escape=False)\n    response.write(tuto[\'login\'])\n    response.write(\'<br />\\r\\n        <img src="http://content.screencast.com/users/Sp00ky31/folders/Jing/media/5ba743b3-efe8-4a04-a522-d7da8e6a74a2/2011-11-08_2132.png" /><br /><br />\\r\\n        \', escape=False)\n    response.write(tuto[\'go_to_settings\'])\n    response.write(\'<br />\\r\\n        <img src="http://content.screencast.com/users/Sp00ky31/folders/Jing/media/1af6f8de-da2c-43fd-8aa3-bb0b6a6bce32/2011-11-08_2207.png" /><br /><br />\\r\\n        Et mettez \\xc3\\xa0 jour avec votre compte Twitter/Twitpic fra\\xc3\\xaechement cr\\xc3\\xa9\\xc3\\xa9 !<br />\\r\\n        <u>Best practice:</u> Renouveller souvent son compte Twitter/Twitpic !\\r\\n        <h2><a name="pictures"></a>Pictures Folder</h2>\\r\\n        Eh oui, comme on utilise Twitpic, il nous faut <i>cacher</i> nos fichiers dans des images.<br />\\r\\n        Il vous faut donc sp\\xc3\\xa9cifier un dossier <b>avec beaucoup d\\\'images</b>, de pr\\xc3\\xa9f\\xc3\\xa9rence <b>entre 100 Kb et 2 Mb</b> (maximum: 4 Mb, formats reconnus : jpg gif png).<br />\\r\\n        Le programme reconna\\xc3\\xaetra tout seul les sous-dossiers, vous pouvez donc juste indiquer la racine d\\\'un dossier contenant des images.<br />\\r\\n        Ces images seront <b>PUBLIQUES</b>, (que tout le monde puisse les t\\xc3\\xa9l\\xc3\\xa9charger pour reconstituer les fichiers cach\\xc3\\xa9s dedans), ne mettez donc pas de photos personnelles dedans !!!<br />\\r\\n        Je vous ai upload\\xc3\\xa9 un <a href="http://www.mediafire.com/?n10u91g52057b10" target="_blank"><b>pack d\\\'images</b></a> (175 Mb) que vous pouvez utiliser.\\r\\n        <u>Best practice:</u> Renouveller souvent les images de ce dossier.<br /><br />\\r\\n        Enfin il suffit de glisser/d\\xc3\\xa9poser les fichiers \\xc3\\xa0 uploader et cliquer sur START !\\r\\n\', escape=False)\n    pass\nresponse.write(\'\\r\\n\', escape=False)\nresponse.write(\'\\r\\n\', escape=False)\nresponse.write(\'\\r\\n\', escape=False)\nresponse.write(\' \\n      </div>\\n      <!-- content -->\\n\\n      \', escape=False)\nif right_sidebar_enabled:\n    response.write(\'\\n          <div id="right_sidebar" \', escape=False)\n    response.write(XML(right_sidebar_style))\n    response.write(\' >\\n            <div style="padding: 4px;">\\n              \', escape=False)\n    response.write(\'\\n            </div>\\n      </div><!-- right_sidebar -->\\n          \', escape=False)\n    pass\nresponse.write(\'\\n\\n\\n      <div style="clear: both;"></div><!-- Clear the divs -->\\n      \\n    </div><!-- page -->                         \\n    \\n    <div id="footer">\\n      \', escape=False)\nresponse.write(\' <!-- this is default footer -->\\n      <span style="float: left; padding-right: 6px;">\\n        <a href="/ddlagoon/default">DDLagoon</a>\\n      </span>\\n\\n        <span style="float: right; padding-right: 6px;">\', escape=False)\nresponse.write(T(\'Copyright\'))\nresponse.write(\' &#169; 2011</span>\\n      <div style="clear: both;"></div><!-- Clear the divs -->\\n      \', escape=False)\nresponse.write(\'\\n\\n    </div><!-- footer -->           \\n      </div><!-- wrapper -->\\n    </div><!-- container -->        \\n    \\n    <!--[if lt IE 7 ]>\\n    <script src="\', escape=False)\nresponse.write(URL(\'static\',\'js/dd_belatedpng.js\'))\nresponse.write(\'"></script>\\n    <script> DD_belatedPNG.fix(\\\'img, .png_bg\\\'); //fix any <img> or .png_bg background-images </script>\\n    <![endif]-->\\n    \', escape=False)\nif response.google_analytics_id:\n    response.write("<script>/* http://mathiasbynens.be/notes/async-analytics-snippet */ var _gaq=[[\'_setAccount\',\'", escape=False)\n    response.write(response.google_analyitics_id)\n    response.write("\'],[\'_trackPageview\']];(function(d,t){var g=d.createElement(t),s=d.getElementsByTagName(t)[0];g.src=\'//www.google-analytics.com/ga.js\';s.parentNode.insertBefore(g,s)}(document,\'script\')) </script>", escape=False)\n    pass\nresponse.write(\'\\n  </body>\\n</html>\\n\', escape=False)'
p6
sS'snapshot'
p7
(dp8
S'exception'
p9
(dp10
S'__hash__'
p11
S"<method-wrapper '__hash__' of exceptions.NameError object>"
p12
sS'__setattr__'
p13
S"<method-wrapper '__setattr__' of exceptions.NameError object>"
p14
sS'__reduce_ex__'
p15
S'<built-in method __reduce_ex__ of exceptions.NameError object>'
p16
sS'__getslice__'
p17
S"<method-wrapper '__getslice__' of exceptions.NameError object>"
p18
sS'__getitem__'
p19
S"<method-wrapper '__getitem__' of exceptions.NameError object>"
p20
sS'__setstate__'
p21
S'<built-in method __setstate__ of exceptions.NameError object>'
p22
sS'args'
p23
S'("name \'alloweed\' is not defined",)'
p24
sS'__reduce__'
p25
S'<built-in method __reduce__ of exceptions.NameError object>'
p26
sS'__str__'
p27
S"<method-wrapper '__str__' of exceptions.NameError object>"
p28
sS'__format__'
p29
S'<built-in method __format__ of exceptions.NameError object>'
p30
sS'__getattribute__'
p31
S"<method-wrapper '__getattribute__' of exceptions.NameError object>"
p32
sS'__class__'
p33
S"<type 'exceptions.NameError'>"
p34
sS'__unicode__'
p35
S'<built-in method __unicode__ of exceptions.NameError object>'
p36
sS'__delattr__'
p37
S"<method-wrapper '__delattr__' of exceptions.NameError object>"
p38
sS'__subclasshook__'
p39
S'<built-in method __subclasshook__ of type object>'
p40
sS'__repr__'
p41
S"<method-wrapper '__repr__' of exceptions.NameError object>"
p42
sS'__dict__'
p43
S'{}'
p44
sS'__sizeof__'
p45
S'<built-in method __sizeof__ of exceptions.NameError object>'
p46
sS'__doc__'
p47
S"'Name not found globally.'"
p48
sS'__init__'
p49
S"<method-wrapper '__init__' of exceptions.NameError object>"
p50
sS'__new__'
p51
S'<built-in method __new__ of type object>'
p52
ssS'evalue'
p53
S"name 'alloweed' is not defined"
p54
sS'request'
p55
ccopy_reg
_reconstructor
p56
(cgluon.html
BEAUTIFY
p57
c__builtin__
object
p58
NtRp59
(dp60
S'attributes'
p61
(dp62
sS'components'
p63
(lp64
g56
(cgluon.html
TABLE
p65
g58
NtRp66
(dp67
g61
(dp68
S'level'
p69
I5
ssS'parent'
p70
Nsg63
(lp71
g56
(cgluon.html
TR
p72
g58
NtRp73
(dp74
g61
(dp75
sg70
g66
sg63
(lp76
g56
(cgluon.html
TD
p77
g58
NtRp78
(dp79
g61
(dp80
S'_style'
p81
S'font-weight:bold;'
p82
ssg70
g73
sg63
(lp83
S'ajax'
p84
asbag56
(g77
g58
NtRp85
(dp86
g61
(dp87
S'_valign'
p88
S'top'
p89
ssg70
g73
sg63
(lp90
S':'
asbag56
(g77
g58
NtRp91
(dp92
g61
(dp93
sg70
g73
sg63
(lp94
g56
(g57
g58
NtRp95
(dp96
g61
(dp97
g69
I5
ssg70
g91
sg63
(lp98
S'False'
p99
asbasbasbag56
(g72
g58
NtRp100
(dp101
g61
(dp102
sg70
g66
sg63
(lp103
g56
(g77
g58
NtRp104
(dp105
g61
(dp106
g81
g82
ssg70
g100
sg63
(lp107
S'application'
p108
asbag56
(g77
g58
NtRp109
(dp110
g61
(dp111
g88
g89
ssg70
g100
sg63
(lp112
S':'
asbag56
(g77
g58
NtRp113
(dp114
g61
(dp115
sg70
g100
sg63
(lp116
g56
(g57
g58
NtRp117
(dp118
g61
(dp119
g69
I5
ssg70
g113
sg63
(lp120
S'ddlagoon'
p121
asbasbasbag56
(g72
g58
NtRp122
(dp123
g61
(dp124
sg70
g66
sg63
(lp125
g56
(g77
g58
NtRp126
(dp127
g61
(dp128
g81
g82
ssg70
g122
sg63
(lp129
g23
asbag56
(g77
g58
NtRp130
(dp131
g61
(dp132
g88
g89
ssg70
g122
sg63
(lp133
S':'
asbag56
(g77
g58
NtRp134
(dp135
g61
(dp136
sg70
g122
sg63
(lp137
g56
(g57
g58
NtRp138
(dp139
g61
(dp140
g69
I5
ssg70
g134
sg63
(lp141
g56
(g65
g58
NtRp142
(dp143
g61
(dp144
g69
I4
ssg70
Nsg63
(lp145
sbasbasbasbag56
(g72
g58
NtRp146
(dp147
g61
(dp148
sg70
g66
sg63
(lp149
g56
(g77
g58
NtRp150
(dp151
g61
(dp152
g81
g82
ssg70
g146
sg63
(lp153
S'body'
p154
asbag56
(g77
g58
NtRp155
(dp156
g61
(dp157
g88
g89
ssg70
g146
sg63
(lp158
S':'
asbag56
(g77
g58
NtRp159
(dp160
g61
(dp161
sg70
g146
sg63
(lp162
g56
(g57
g58
NtRp163
(dp164
g61
(dp165
g69
I5
ssg70
g159
sg63
(lp166
S'<cStringIO.StringO object at 0x2031340>'
p167
asbasbasbag56
(g72
g58
NtRp168
(dp169
g61
(dp170
sg70
g66
sg63
(lp171
g56
(g77
g58
NtRp172
(dp173
g61
(dp174
g81
g82
ssg70
g168
sg63
(lp175
S'client'
p176
asbag56
(g77
g58
NtRp177
(dp178
g61
(dp179
g88
g89
ssg70
g168
sg63
(lp180
S':'
asbag56
(g77
g58
NtRp181
(dp182
g61
(dp183
sg70
g168
sg63
(lp184
g56
(g57
g58
NtRp185
(dp186
g61
(dp187
g69
I5
ssg70
g181
sg63
(lp188
S'127.0.0.1'
p189
asbasbasbag56
(g72
g58
NtRp190
(dp191
g61
(dp192
sg70
g66
sg63
(lp193
g56
(g77
g58
NtRp194
(dp195
g61
(dp196
g81
g82
ssg70
g190
sg63
(lp197
S'controller'
p198
asbag56
(g77
g58
NtRp199
(dp200
g61
(dp201
g88
g89
ssg70
g190
sg63
(lp202
S':'
asbag56
(g77
g58
NtRp203
(dp204
g61
(dp205
sg70
g190
sg63
(lp206
g56
(g57
g58
NtRp207
(dp208
g61
(dp209
g69
I5
ssg70
g203
sg63
(lp210
S'default'
p211
asbasbasbag56
(g72
g58
NtRp212
(dp213
g61
(dp214
sg70
g66
sg63
(lp215
g56
(g77
g58
NtRp216
(dp217
g61
(dp218
g81
g82
ssg70
g212
sg63
(lp219
S'cookies'
p220
asbag56
(g77
g58
NtRp221
(dp222
g61
(dp223
g88
g89
ssg70
g212
sg63
(lp224
S':'
asbag56
(g77
g58
NtRp225
(dp226
g61
(dp227
sg70
g212
sg63
(lp228
g56
(g57
g58
NtRp229
(dp230
g61
(dp231
g69
I5
ssg70
g225
sg63
(lp232
g56
(g65
g58
NtRp233
(dp234
g61
(dp235
g69
I4
ssg70
Nsg63
(lp236
g56
(g72
g58
NtRp237
(dp238
g61
(dp239
sg70
g233
sg63
(lp240
g56
(g77
g58
NtRp241
(dp242
g61
(dp243
g81
g82
ssg70
g237
sg63
(lp244
S'session_id_admin'
p245
asbag56
(g77
g58
NtRp246
(dp247
g61
(dp248
g88
g89
ssg70
g237
sg63
(lp249
S':'
asbag56
(g77
g58
NtRp250
(dp251
g61
(dp252
sg70
g237
sg63
(lp253
g56
(g57
g58
NtRp254
(dp255
g61
(dp256
g69
I4
ssg70
g250
sg63
(lp257
g56
(g65
g58
NtRp258
(dp259
g61
(dp260
g69
I3
ssg70
Nsg63
(lp261
g56
(g72
g58
NtRp262
(dp263
g61
(dp264
sg70
g258
sg63
(lp265
g56
(g77
g58
NtRp266
(dp267
g61
(dp268
g81
g82
ssg70
g262
sg63
(lp269
S'comment'
p270
asbag56
(g77
g58
NtRp271
(dp272
g61
(dp273
g88
g89
ssg70
g262
sg63
(lp274
S':'
asbag56
(g77
g58
NtRp275
(dp276
g61
(dp277
sg70
g262
sg63
(lp278
g56
(g57
g58
NtRp279
(dp280
g61
(dp281
g69
I3
ssg70
g275
sg63
(lp282
S''
asbasbasbag56
(g72
g58
NtRp283
(dp284
g61
(dp285
sg70
g258
sg63
(lp286
g56
(g77
g58
NtRp287
(dp288
g61
(dp289
g81
g82
ssg70
g283
sg63
(lp290
S'domain'
p291
asbag56
(g77
g58
NtRp292
(dp293
g61
(dp294
g88
g89
ssg70
g283
sg63
(lp295
S':'
asbag56
(g77
g58
NtRp296
(dp297
g61
(dp298
sg70
g283
sg63
(lp299
g56
(g57
g58
NtRp300
(dp301
g61
(dp302
g69
I3
ssg70
g296
sg63
(lp303
S''
asbasbasbag56
(g72
g58
NtRp304
(dp305
g61
(dp306
sg70
g258
sg63
(lp307
g56
(g77
g58
NtRp308
(dp309
g61
(dp310
g81
g82
ssg70
g304
sg63
(lp311
S'expires'
p312
asbag56
(g77
g58
NtRp313
(dp314
g61
(dp315
g88
g89
ssg70
g304
sg63
(lp316
S':'
asbag56
(g77
g58
NtRp317
(dp318
g61
(dp319
sg70
g304
sg63
(lp320
g56
(g57
g58
NtRp321
(dp322
g61
(dp323
g69
I3
ssg70
g317
sg63
(lp324
S''
asbasbasbag56
(g72
g58
NtRp325
(dp326
g61
(dp327
sg70
g258
sg63
(lp328
g56
(g77
g58
NtRp329
(dp330
g61
(dp331
g81
g82
ssg70
g325
sg63
(lp332
S'httponly'
p333
asbag56
(g77
g58
NtRp334
(dp335
g61
(dp336
g88
g89
ssg70
g325
sg63
(lp337
S':'
asbag56
(g77
g58
NtRp338
(dp339
g61
(dp340
sg70
g325
sg63
(lp341
g56
(g57
g58
NtRp342
(dp343
g61
(dp344
g69
I3
ssg70
g338
sg63
(lp345
S''
asbasbasbag56
(g72
g58
NtRp346
(dp347
g61
(dp348
sg70
g258
sg63
(lp349
g56
(g77
g58
NtRp350
(dp351
g61
(dp352
g81
g82
ssg70
g346
sg63
(lp353
S'max-age'
p354
asbag56
(g77
g58
NtRp355
(dp356
g61
(dp357
g88
g89
ssg70
g346
sg63
(lp358
S':'
asbag56
(g77
g58
NtRp359
(dp360
g61
(dp361
sg70
g346
sg63
(lp362
g56
(g57
g58
NtRp363
(dp364
g61
(dp365
g69
I3
ssg70
g359
sg63
(lp366
S''
asbasbasbag56
(g72
g58
NtRp367
(dp368
g61
(dp369
sg70
g258
sg63
(lp370
g56
(g77
g58
NtRp371
(dp372
g61
(dp373
g81
g82
ssg70
g367
sg63
(lp374
S'path'
p375
asbag56
(g77
g58
NtRp376
(dp377
g61
(dp378
g88
g89
ssg70
g367
sg63
(lp379
S':'
asbag56
(g77
g58
NtRp380
(dp381
g61
(dp382
sg70
g367
sg63
(lp383
g56
(g57
g58
NtRp384
(dp385
g61
(dp386
g69
I3
ssg70
g380
sg63
(lp387
S''
asbasbasbag56
(g72
g58
NtRp388
(dp389
g61
(dp390
sg70
g258
sg63
(lp391
g56
(g77
g58
NtRp392
(dp393
g61
(dp394
g81
g82
ssg70
g388
sg63
(lp395
S'secure'
p396
asbag56
(g77
g58
NtRp397
(dp398
g61
(dp399
g88
g89
ssg70
g388
sg63
(lp400
S':'
asbag56
(g77
g58
NtRp401
(dp402
g61
(dp403
sg70
g388
sg63
(lp404
g56
(g57
g58
NtRp405
(dp406
g61
(dp407
g69
I3
ssg70
g401
sg63
(lp408
S''
asbasbasbag56
(g72
g58
NtRp409
(dp410
g61
(dp411
sg70
g258
sg63
(lp412
g56
(g77
g58
NtRp413
(dp414
g61
(dp415
g81
g82
ssg70
g409
sg63
(lp416
S'version'
p417
asbag56
(g77
g58
NtRp418
(dp419
g61
(dp420
g88
g89
ssg70
g409
sg63
(lp421
S':'
asbag56
(g77
g58
NtRp422
(dp423
g61
(dp424
sg70
g409
sg63
(lp425
g56
(g57
g58
NtRp426
(dp427
g61
(dp428
g69
I3
ssg70
g422
sg63
(lp429
S''
asbasbasbasbasbasbasbag56
(g72
g58
NtRp430
(dp431
g61
(dp432
sg70
g233
sg63
(lp433
g56
(g77
g58
NtRp434
(dp435
g61
(dp436
g81
g82
ssg70
g430
sg63
(lp437
S'session_id_ddlagoon'
p438
asbag56
(g77
g58
NtRp439
(dp440
g61
(dp441
g88
g89
ssg70
g430
sg63
(lp442
S':'
asbag56
(g77
g58
NtRp443
(dp444
g61
(dp445
sg70
g430
sg63
(lp446
g56
(g57
g58
NtRp447
(dp448
g61
(dp449
g69
I4
ssg70
g443
sg63
(lp450
g56
(g65
g58
NtRp451
(dp452
g61
(dp453
g69
I3
ssg70
Nsg63
(lp454
g56
(g72
g58
NtRp455
(dp456
g61
(dp457
sg70
g451
sg63
(lp458
g56
(g77
g58
NtRp459
(dp460
g61
(dp461
g81
g82
ssg70
g455
sg63
(lp462
g270
asbag56
(g77
g58
NtRp463
(dp464
g61
(dp465
g88
g89
ssg70
g455
sg63
(lp466
S':'
asbag56
(g77
g58
NtRp467
(dp468
g61
(dp469
sg70
g455
sg63
(lp470
g56
(g57
g58
NtRp471
(dp472
g61
(dp473
g69
I3
ssg70
g467
sg63
(lp474
S''
asbasbasbag56
(g72
g58
NtRp475
(dp476
g61
(dp477
sg70
g451
sg63
(lp478
g56
(g77
g58
NtRp479
(dp480
g61
(dp481
g81
g82
ssg70
g475
sg63
(lp482
g291
asbag56
(g77
g58
NtRp483
(dp484
g61
(dp485
g88
g89
ssg70
g475
sg63
(lp486
S':'
asbag56
(g77
g58
NtRp487
(dp488
g61
(dp489
sg70
g475
sg63
(lp490
g56
(g57
g58
NtRp491
(dp492
g61
(dp493
g69
I3
ssg70
g487
sg63
(lp494
S''
asbasbasbag56
(g72
g58
NtRp495
(dp496
g61
(dp497
sg70
g451
sg63
(lp498
g56
(g77
g58
NtRp499
(dp500
g61
(dp501
g81
g82
ssg70
g495
sg63
(lp502
g312
asbag56
(g77
g58
NtRp503
(dp504
g61
(dp505
g88
g89
ssg70
g495
sg63
(lp506
S':'
asbag56
(g77
g58
NtRp507
(dp508
g61
(dp509
sg70
g495
sg63
(lp510
g56
(g57
g58
NtRp511
(dp512
g61
(dp513
g69
I3
ssg70
g507
sg63
(lp514
S''
asbasbasbag56
(g72
g58
NtRp515
(dp516
g61
(dp517
sg70
g451
sg63
(lp518
g56
(g77
g58
NtRp519
(dp520
g61
(dp521
g81
g82
ssg70
g515
sg63
(lp522
g333
asbag56
(g77
g58
NtRp523
(dp524
g61
(dp525
g88
g89
ssg70
g515
sg63
(lp526
S':'
asbag56
(g77
g58
NtRp527
(dp528
g61
(dp529
sg70
g515
sg63
(lp530
g56
(g57
g58
NtRp531
(dp532
g61
(dp533
g69
I3
ssg70
g527
sg63
(lp534
S''
asbasbasbag56
(g72
g58
NtRp535
(dp536
g61
(dp537
sg70
g451
sg63
(lp538
g56
(g77
g58
NtRp539
(dp540
g61
(dp541
g81
g82
ssg70
g535
sg63
(lp542
g354
asbag56
(g77
g58
NtRp543
(dp544
g61
(dp545
g88
g89
ssg70
g535
sg63
(lp546
S':'
asbag56
(g77
g58
NtRp547
(dp548
g61
(dp549
sg70
g535
sg63
(lp550
g56
(g57
g58
NtRp551
(dp552
g61
(dp553
g69
I3
ssg70
g547
sg63
(lp554
S''
asbasbasbag56
(g72
g58
NtRp555
(dp556
g61
(dp557
sg70
g451
sg63
(lp558
g56
(g77
g58
NtRp559
(dp560
g61
(dp561
g81
g82
ssg70
g555
sg63
(lp562
g375
asbag56
(g77
g58
NtRp563
(dp564
g61
(dp565
g88
g89
ssg70
g555
sg63
(lp566
S':'
asbag56
(g77
g58
NtRp567
(dp568
g61
(dp569
sg70
g555
sg63
(lp570
g56
(g57
g58
NtRp571
(dp572
g61
(dp573
g69
I3
ssg70
g567
sg63
(lp574
S''
asbasbasbag56
(g72
g58
NtRp575
(dp576
g61
(dp577
sg70
g451
sg63
(lp578
g56
(g77
g58
NtRp579
(dp580
g61
(dp581
g81
g82
ssg70
g575
sg63
(lp582
g396
asbag56
(g77
g58
NtRp583
(dp584
g61
(dp585
g88
g89
ssg70
g575
sg63
(lp586
S':'
asbag56
(g77
g58
NtRp587
(dp588
g61
(dp589
sg70
g575
sg63
(lp590
g56
(g57
g58
NtRp591
(dp592
g61
(dp593
g69
I3
ssg70
g587
sg63
(lp594
S''
asbasbasbag56
(g72
g58
NtRp595
(dp596
g61
(dp597
sg70
g451
sg63
(lp598
g56
(g77
g58
NtRp599
(dp600
g61
(dp601
g81
g82
ssg70
g595
sg63
(lp602
g417
asbag56
(g77
g58
NtRp603
(dp604
g61
(dp605
g88
g89
ssg70
g595
sg63
(lp606
S':'
asbag56
(g77
g58
NtRp607
(dp608
g61
(dp609
sg70
g595
sg63
(lp610
g56
(g57
g58
NtRp611
(dp612
g61
(dp613
g69
I3
ssg70
g607
sg63
(lp614
S''
asbasbasbasbasbasbasbag56
(g72
g58
NtRp615
(dp616
g61
(dp617
sg70
g233
sg63
(lp618
g56
(g77
g58
NtRp619
(dp620
g61
(dp621
g81
g82
ssg70
g615
sg63
(lp622
S'session_id_welcome'
p623
asbag56
(g77
g58
NtRp624
(dp625
g61
(dp626
g88
g89
ssg70
g615
sg63
(lp627
S':'
asbag56
(g77
g58
NtRp628
(dp629
g61
(dp630
sg70
g615
sg63
(lp631
g56
(g57
g58
NtRp632
(dp633
g61
(dp634
g69
I4
ssg70
g628
sg63
(lp635
g56
(g65
g58
NtRp636
(dp637
g61
(dp638
g69
I3
ssg70
Nsg63
(lp639
g56
(g72
g58
NtRp640
(dp641
g61
(dp642
sg70
g636
sg63
(lp643
g56
(g77
g58
NtRp644
(dp645
g61
(dp646
g81
g82
ssg70
g640
sg63
(lp647
g270
asbag56
(g77
g58
NtRp648
(dp649
g61
(dp650
g88
g89
ssg70
g640
sg63
(lp651
S':'
asbag56
(g77
g58
NtRp652
(dp653
g61
(dp654
sg70
g640
sg63
(lp655
g56
(g57
g58
NtRp656
(dp657
g61
(dp658
g69
I3
ssg70
g652
sg63
(lp659
S''
asbasbasbag56
(g72
g58
NtRp660
(dp661
g61
(dp662
sg70
g636
sg63
(lp663
g56
(g77
g58
NtRp664
(dp665
g61
(dp666
g81
g82
ssg70
g660
sg63
(lp667
g291
asbag56
(g77
g58
NtRp668
(dp669
g61
(dp670
g88
g89
ssg70
g660
sg63
(lp671
S':'
asbag56
(g77
g58
NtRp672
(dp673
g61
(dp674
sg70
g660
sg63
(lp675
g56
(g57
g58
NtRp676
(dp677
g61
(dp678
g69
I3
ssg70
g672
sg63
(lp679
S''
asbasbasbag56
(g72
g58
NtRp680
(dp681
g61
(dp682
sg70
g636
sg63
(lp683
g56
(g77
g58
NtRp684
(dp685
g61
(dp686
g81
g82
ssg70
g680
sg63
(lp687
g312
asbag56
(g77
g58
NtRp688
(dp689
g61
(dp690
g88
g89
ssg70
g680
sg63
(lp691
S':'
asbag56
(g77
g58
NtRp692
(dp693
g61
(dp694
sg70
g680
sg63
(lp695
g56
(g57
g58
NtRp696
(dp697
g61
(dp698
g69
I3
ssg70
g692
sg63
(lp699
S''
asbasbasbag56
(g72
g58
NtRp700
(dp701
g61
(dp702
sg70
g636
sg63
(lp703
g56
(g77
g58
NtRp704
(dp705
g61
(dp706
g81
g82
ssg70
g700
sg63
(lp707
g333
asbag56
(g77
g58
NtRp708
(dp709
g61
(dp710
g88
g89
ssg70
g700
sg63
(lp711
S':'
asbag56
(g77
g58
NtRp712
(dp713
g61
(dp714
sg70
g700
sg63
(lp715
g56
(g57
g58
NtRp716
(dp717
g61
(dp718
g69
I3
ssg70
g712
sg63
(lp719
S''
asbasbasbag56
(g72
g58
NtRp720
(dp721
g61
(dp722
sg70
g636
sg63
(lp723
g56
(g77
g58
NtRp724
(dp725
g61
(dp726
g81
g82
ssg70
g720
sg63
(lp727
g354
asbag56
(g77
g58
NtRp728
(dp729
g61
(dp730
g88
g89
ssg70
g720
sg63
(lp731
S':'
asbag56
(g77
g58
NtRp732
(dp733
g61
(dp734
sg70
g720
sg63
(lp735
g56
(g57
g58
NtRp736
(dp737
g61
(dp738
g69
I3
ssg70
g732
sg63
(lp739
S''
asbasbasbag56
(g72
g58
NtRp740
(dp741
g61
(dp742
sg70
g636
sg63
(lp743
g56
(g77
g58
NtRp744
(dp745
g61
(dp746
g81
g82
ssg70
g740
sg63
(lp747
g375
asbag56
(g77
g58
NtRp748
(dp749
g61
(dp750
g88
g89
ssg70
g740
sg63
(lp751
S':'
asbag56
(g77
g58
NtRp752
(dp753
g61
(dp754
sg70
g740
sg63
(lp755
g56
(g57
g58
NtRp756
(dp757
g61
(dp758
g69
I3
ssg70
g752
sg63
(lp759
S''
asbasbasbag56
(g72
g58
NtRp760
(dp761
g61
(dp762
sg70
g636
sg63
(lp763
g56
(g77
g58
NtRp764
(dp765
g61
(dp766
g81
g82
ssg70
g760
sg63
(lp767
g396
asbag56
(g77
g58
NtRp768
(dp769
g61
(dp770
g88
g89
ssg70
g760
sg63
(lp771
S':'
asbag56
(g77
g58
NtRp772
(dp773
g61
(dp774
sg70
g760
sg63
(lp775
g56
(g57
g58
NtRp776
(dp777
g61
(dp778
g69
I3
ssg70
g772
sg63
(lp779
S''
asbasbasbag56
(g72
g58
NtRp780
(dp781
g61
(dp782
sg70
g636
sg63
(lp783
g56
(g77
g58
NtRp784
(dp785
g61
(dp786
g81
g82
ssg70
g780
sg63
(lp787
g417
asbag56
(g77
g58
NtRp788
(dp789
g61
(dp790
g88
g89
ssg70
g780
sg63
(lp791
S':'
asbag56
(g77
g58
NtRp792
(dp793
g61
(dp794
sg70
g780
sg63
(lp795
g56
(g57
g58
NtRp796
(dp797
g61
(dp798
g69
I3
ssg70
g792
sg63
(lp799
S''
asbasbasbasbasbasbasbasbasbasbasbag56
(g72
g58
NtRp800
(dp801
g61
(dp802
sg70
g66
sg63
(lp803
g56
(g77
g58
NtRp804
(dp805
g61
(dp806
g81
g82
ssg70
g800
sg63
(lp807
S'env'
p808
asbag56
(g77
g58
NtRp809
(dp810
g61
(dp811
g88
g89
ssg70
g800
sg63
(lp812
S':'
asbag56
(g77
g58
NtRp813
(dp814
g61
(dp815
sg70
g800
sg63
(lp816
g56
(g57
g58
NtRp817
(dp818
g61
(dp819
g69
I5
ssg70
g813
sg63
(lp820
g56
(g65
g58
NtRp821
(dp822
g61
(dp823
g69
I4
ssg70
Nsg63
(lp824
g56
(g72
g58
NtRp825
(dp826
g61
(dp827
sg70
g821
sg63
(lp828
g56
(g77
g58
NtRp829
(dp830
g61
(dp831
g81
g82
ssg70
g825
sg63
(lp832
S'app_folders'
p833
asbag56
(g77
g58
NtRp834
(dp835
g61
(dp836
g88
g89
ssg70
g825
sg63
(lp837
S':'
asbag56
(g77
g58
NtRp838
(dp839
g61
(dp840
sg70
g825
sg63
(lp841
g56
(g57
g58
NtRp842
(dp843
g61
(dp844
g69
I4
ssg70
g838
sg63
(lp845
S"set(['/windows/Users/Thomas/Dropbox/appz/2011/ddlagoon/public_html/applications/ddlagoon/', '/windows/Users/Thomas/Dropbox/appz/2011/ddlagoon/public_html/applications/admin/', '/windows/Users/Thomas/Dropbox/appz/2011/ddlagoon/public_html/applications/welcome/'])"
p846
asbasbasbag56
(g72
g58
NtRp847
(dp848
g61
(dp849
sg70
g821
sg63
(lp850
g56
(g77
g58
NtRp851
(dp852
g61
(dp853
g81
g82
ssg70
g847
sg63
(lp854
S'applications_parent'
p855
asbag56
(g77
g58
NtRp856
(dp857
g61
(dp858
g88
g89
ssg70
g847
sg63
(lp859
S':'
asbag56
(g77
g58
NtRp860
(dp861
g61
(dp862
sg70
g847
sg63
(lp863
g56
(g57
g58
NtRp864
(dp865
g61
(dp866
g69
I4
ssg70
g860
sg63
(lp867
S'/windows/Users/Thomas/Dropbox/appz/2011/ddlagoon/public_html'
p868
asbasbasbag56
(g72
g58
NtRp869
(dp870
g61
(dp871
sg70
g821
sg63
(lp872
g56
(g77
g58
NtRp873
(dp874
g61
(dp875
g81
g82
ssg70
g869
sg63
(lp876
S'cmd_args'
p877
asbag56
(g77
g58
NtRp878
(dp879
g61
(dp880
g88
g89
ssg70
g869
sg63
(lp881
S':'
asbag56
(g77
g58
NtRp882
(dp883
g61
(dp884
sg70
g869
sg63
(lp885
g56
(g57
g58
NtRp886
(dp887
g61
(dp888
g69
I4
ssg70
g882
sg63
(lp889
g56
(g65
g58
NtRp890
(dp891
g61
(dp892
g69
I3
ssg70
Nsg63
(lp893
sbasbasbasbag56
(g72
g58
NtRp894
(dp895
g61
(dp896
sg70
g821
sg63
(lp897
g56
(g77
g58
NtRp898
(dp899
g61
(dp900
g81
g82
ssg70
g894
sg63
(lp901
S'cmd_options'
p902
asbag56
(g77
g58
NtRp903
(dp904
g61
(dp905
g88
g89
ssg70
g894
sg63
(lp906
S':'
asbag56
(g77
g58
NtRp907
(dp908
g61
(dp909
sg70
g894
sg63
(lp910
g56
(g57
g58
NtRp911
(dp912
g61
(dp913
g69
I4
ssg70
g907
sg63
(lp914
S"<Values at 0x1581c68: {'verbose': False, 'ip': '127.0.0.1', 'shutdown_timeout': 5, 'taskbar': False, 'nocron': False, 'pid_filename': 'httpserver.pid', 'maxthreads': None, 'softcron': False, 'server_name': 'VPCF22AJ', 'bpython': False, 'nogui': False, 'port': 8000, 'extcron': False, 'debuglevel': 30, 'test': None, 'folder': '/windows/Users/Thomas/Dropbox/appz/2011/ddlagoon/public_html', 'config': '', 'import_models': False, 'winservice': '', 'shell': None, 'run': '', 'log_filename': 'httpserver.log', 'args': [''], 'ssl_ca_certificate': None, 'scheduler': None, 'profiler_filename': None, 'ssl_private_key': '', 'password': 'admin', 'request_queue_size': 5, 'ssl_certificate': '', 'cronjob': False, 'plain': False, 'quiet': False, 'interfaces': None, 'minthreads': None, 'timeout': 10, 'numthreads': None, 'nobanner': False}>"
p915
asbasbasbag56
(g72
g58
NtRp916
(dp917
g61
(dp918
sg70
g821
sg63
(lp919
g56
(g77
g58
NtRp920
(dp921
g61
(dp922
g81
g82
ssg70
g916
sg63
(lp923
S'db_sessions'
p924
asbag56
(g77
g58
NtRp925
(dp926
g61
(dp927
g88
g89
ssg70
g916
sg63
(lp928
S':'
asbag56
(g77
g58
NtRp929
(dp930
g61
(dp931
sg70
g916
sg63
(lp932
g56
(g57
g58
NtRp933
(dp934
g61
(dp935
g69
I4
ssg70
g929
sg63
(lp936
S'set([])'
p937
asbasbasbag56
(g72
g58
NtRp938
(dp939
g61
(dp940
sg70
g821
sg63
(lp941
g56
(g77
g58
NtRp942
(dp943
g61
(dp944
g81
g82
ssg70
g938
sg63
(lp945
S'debugging'
p946
asbag56
(g77
g58
NtRp947
(dp948
g61
(dp949
g88
g89
ssg70
g938
sg63
(lp950
S':'
asbag56
(g77
g58
NtRp951
(dp952
g61
(dp953
sg70
g938
sg63
(lp954
g56
(g57
g58
NtRp955
(dp956
g61
(dp957
g69
I4
ssg70
g951
sg63
(lp958
g99
asbasbasbag56
(g72
g58
NtRp959
(dp960
g61
(dp961
sg70
g821
sg63
(lp962
g56
(g77
g58
NtRp963
(dp964
g61
(dp965
g81
g82
ssg70
g959
sg63
(lp966
S'gluon_parent'
p967
asbag56
(g77
g58
NtRp968
(dp969
g61
(dp970
g88
g89
ssg70
g959
sg63
(lp971
S':'
asbag56
(g77
g58
NtRp972
(dp973
g61
(dp974
sg70
g959
sg63
(lp975
g56
(g57
g58
NtRp976
(dp977
g61
(dp978
g69
I4
ssg70
g972
sg63
(lp979
S'/windows/Users/Thomas/Dropbox/appz/2011/ddlagoon/public_html'
p980
asbasbasbag56
(g72
g58
NtRp981
(dp982
g61
(dp983
sg70
g821
sg63
(lp984
g56
(g77
g58
NtRp985
(dp986
g61
(dp987
g81
g82
ssg70
g981
sg63
(lp988
S'http_accept'
p989
asbag56
(g77
g58
NtRp990
(dp991
g61
(dp992
g88
g89
ssg70
g981
sg63
(lp993
S':'
asbag56
(g77
g58
NtRp994
(dp995
g61
(dp996
sg70
g981
sg63
(lp997
g56
(g57
g58
NtRp998
(dp999
g61
(dp1000
g69
I4
ssg70
g994
sg63
(lp1001
S'text/html,application/xhtml+xml,application/xml;q=0.9,*/*;q=0.8'
p1002
asbasbasbag56
(g72
g58
NtRp1003
(dp1004
g61
(dp1005
sg70
g821
sg63
(lp1006
g56
(g77
g58
NtRp1007
(dp1008
g61
(dp1009
g81
g82
ssg70
g1003
sg63
(lp1010
S'http_accept_charset'
p1011
asbag56
(g77
g58
NtRp1012
(dp1013
g61
(dp1014
g88
g89
ssg70
g1003
sg63
(lp1015
S':'
asbag56
(g77
g58
NtRp1016
(dp1017
g61
(dp1018
sg70
g1003
sg63
(lp1019
g56
(g57
g58
NtRp1020
(dp1021
g61
(dp1022
g69
I4
ssg70
g1016
sg63
(lp1023
S'ISO-8859-1,utf-8;q=0.7,*;q=0.3'
p1024
asbasbasbag56
(g72
g58
NtRp1025
(dp1026
g61
(dp1027
sg70
g821
sg63
(lp1028
g56
(g77
g58
NtRp1029
(dp1030
g61
(dp1031
g81
g82
ssg70
g1025
sg63
(lp1032
S'http_accept_encoding'
p1033
asbag56
(g77
g58
NtRp1034
(dp1035
g61
(dp1036
g88
g89
ssg70
g1025
sg63
(lp1037
S':'
asbag56
(g77
g58
NtRp1038
(dp1039
g61
(dp1040
sg70
g1025
sg63
(lp1041
g56
(g57
g58
NtRp1042
(dp1043
g61
(dp1044
g69
I4
ssg70
g1038
sg63
(lp1045
S'gzip,deflate,sdch'
p1046
asbasbasbag56
(g72
g58
NtRp1047
(dp1048
g61
(dp1049
sg70
g821
sg63
(lp1050
g56
(g77
g58
NtRp1051
(dp1052
g61
(dp1053
g81
g82
ssg70
g1047
sg63
(lp1054
S'http_accept_language'
p1055
asbag56
(g77
g58
NtRp1056
(dp1057
g61
(dp1058
g88
g89
ssg70
g1047
sg63
(lp1059
S':'
asbag56
(g77
g58
NtRp1060
(dp1061
g61
(dp1062
sg70
g1047
sg63
(lp1063
g56
(g57
g58
NtRp1064
(dp1065
g61
(dp1066
g69
I4
ssg70
g1060
sg63
(lp1067
S'en-US,en;q=0.8,fr;q=0.6'
p1068
asbasbasbag56
(g72
g58
NtRp1069
(dp1070
g61
(dp1071
sg70
g821
sg63
(lp1072
g56
(g77
g58
NtRp1073
(dp1074
g61
(dp1075
g81
g82
ssg70
g1069
sg63
(lp1076
S'http_cache_control'
p1077
asbag56
(g77
g58
NtRp1078
(dp1079
g61
(dp1080
g88
g89
ssg70
g1069
sg63
(lp1081
S':'
asbag56
(g77
g58
NtRp1082
(dp1083
g61
(dp1084
sg70
g1069
sg63
(lp1085
g56
(g57
g58
NtRp1086
(dp1087
g61
(dp1088
g69
I4
ssg70
g1082
sg63
(lp1089
S'max-age=0'
p1090
asbasbasbag56
(g72
g58
NtRp1091
(dp1092
g61
(dp1093
sg70
g821
sg63
(lp1094
g56
(g77
g58
NtRp1095
(dp1096
g61
(dp1097
g81
g82
ssg70
g1091
sg63
(lp1098
S'http_connection'
p1099
asbag56
(g77
g58
NtRp1100
(dp1101
g61
(dp1102
g88
g89
ssg70
g1091
sg63
(lp1103
S':'
asbag56
(g77
g58
NtRp1104
(dp1105
g61
(dp1106
sg70
g1091
sg63
(lp1107
g56
(g57
g58
NtRp1108
(dp1109
g61
(dp1110
g69
I4
ssg70
g1104
sg63
(lp1111
S'keep-alive'
p1112
asbasbasbag56
(g72
g58
NtRp1113
(dp1114
g61
(dp1115
sg70
g821
sg63
(lp1116
g56
(g77
g58
NtRp1117
(dp1118
g61
(dp1119
g81
g82
ssg70
g1113
sg63
(lp1120
S'http_cookie'
p1121
asbag56
(g77
g58
NtRp1122
(dp1123
g61
(dp1124
g88
g89
ssg70
g1113
sg63
(lp1125
S':'
asbag56
(g77
g58
NtRp1126
(dp1127
g61
(dp1128
sg70
g1113
sg63
(lp1129
g56
(g57
g58
NtRp1130
(dp1131
g61
(dp1132
g69
I4
ssg70
g1126
sg63
(lp1133
S'__utma_a2a=5510587673.1349489975.1317933049.1319659660.1319659660.47; session_id_welcome=127.0.0.1-286d0a26-bf08-49fa-8872-3d7fbc467c81; session_id_admin=127.0.0.1-c0b7fa09-8500-4aea-b720-4893cc278df8; session_id_ddlagoon=127.0.0.1-a8cd47ee-ccb5-4235-8c76-15b25c6b7c82'
p1134
asbasbasbag56
(g72
g58
NtRp1135
(dp1136
g61
(dp1137
sg70
g821
sg63
(lp1138
g56
(g77
g58
NtRp1139
(dp1140
g61
(dp1141
g81
g82
ssg70
g1135
sg63
(lp1142
S'http_host'
p1143
asbag56
(g77
g58
NtRp1144
(dp1145
g61
(dp1146
g88
g89
ssg70
g1135
sg63
(lp1147
S':'
asbag56
(g77
g58
NtRp1148
(dp1149
g61
(dp1150
sg70
g1135
sg63
(lp1151
g56
(g57
g58
NtRp1152
(dp1153
g61
(dp1154
g69
I4
ssg70
g1148
sg63
(lp1155
S'127.0.0.1:8000'
p1156
asbasbasbag56
(g72
g58
NtRp1157
(dp1158
g61
(dp1159
sg70
g821
sg63
(lp1160
g56
(g77
g58
NtRp1161
(dp1162
g61
(dp1163
g81
g82
ssg70
g1157
sg63
(lp1164
S'http_user_agent'
p1165
asbag56
(g77
g58
NtRp1166
(dp1167
g61
(dp1168
g88
g89
ssg70
g1157
sg63
(lp1169
S':'
asbag56
(g77
g58
NtRp1170
(dp1171
g61
(dp1172
sg70
g1157
sg63
(lp1173
g56
(g57
g58
NtRp1174
(dp1175
g61
(dp1176
g69
I4
ssg70
g1170
sg63
(lp1177
S'Mozilla/5.0 (X11; Linux x86_64) AppleWebKit/535.2 (KHTML, like Gecko) Chrome/15.0.874.106 Safari/535.2'
p1178
asbasbasbag56
(g72
g58
NtRp1179
(dp1180
g61
(dp1181
sg70
g821
sg63
(lp1182
g56
(g77
g58
NtRp1183
(dp1184
g61
(dp1185
g81
g82
ssg70
g1179
sg63
(lp1186
S'is_jython'
p1187
asbag56
(g77
g58
NtRp1188
(dp1189
g61
(dp1190
g88
g89
ssg70
g1179
sg63
(lp1191
S':'
asbag56
(g77
g58
NtRp1192
(dp1193
g61
(dp1194
sg70
g1179
sg63
(lp1195
g56
(g57
g58
NtRp1196
(dp1197
g61
(dp1198
g69
I4
ssg70
g1192
sg63
(lp1199
g99
asbasbasbag56
(g72
g58
NtRp1200
(dp1201
g61
(dp1202
sg70
g821
sg63
(lp1203
g56
(g77
g58
NtRp1204
(dp1205
g61
(dp1206
g81
g82
ssg70
g1200
sg63
(lp1207
S'path_info'
p1208
asbag56
(g77
g58
NtRp1209
(dp1210
g61
(dp1211
g88
g89
ssg70
g1200
sg63
(lp1212
S':'
asbag56
(g77
g58
NtRp1213
(dp1214
g61
(dp1215
sg70
g1200
sg63
(lp1216
g56
(g57
g58
NtRp1217
(dp1218
g61
(dp1219
g69
I4
ssg70
g1213
sg63
(lp1220
S'/ddlagoon/default/how_to_upload'
p1221
asbasbasbag56
(g72
g58
NtRp1222
(dp1223
g61
(dp1224
sg70
g821
sg63
(lp1225
g56
(g77
g58
NtRp1226
(dp1227
g61
(dp1228
g81
g82
ssg70
g1222
sg63
(lp1229
S'query_string'
p1230
asbag56
(g77
g58
NtRp1231
(dp1232
g61
(dp1233
g88
g89
ssg70
g1222
sg63
(lp1234
S':'
asbag56
(g77
g58
NtRp1235
(dp1236
g61
(dp1237
sg70
g1222
sg63
(lp1238
g56
(g57
g58
NtRp1239
(dp1240
g61
(dp1241
g69
I4
ssg70
g1235
sg63
(lp1242
S''
asbasbasbag56
(g72
g58
NtRp1243
(dp1244
g61
(dp1245
sg70
g821
sg63
(lp1246
g56
(g77
g58
NtRp1247
(dp1248
g61
(dp1249
g81
g82
ssg70
g1243
sg63
(lp1250
S'remote_addr'
p1251
asbag56
(g77
g58
NtRp1252
(dp1253
g61
(dp1254
g88
g89
ssg70
g1243
sg63
(lp1255
S':'
asbag56
(g77
g58
NtRp1256
(dp1257
g61
(dp1258
sg70
g1243
sg63
(lp1259
g56
(g57
g58
NtRp1260
(dp1261
g61
(dp1262
g69
I4
ssg70
g1256
sg63
(lp1263
g189
asbasbasbag56
(g72
g58
NtRp1264
(dp1265
g61
(dp1266
sg70
g821
sg63
(lp1267
g56
(g77
g58
NtRp1268
(dp1269
g61
(dp1270
g81
g82
ssg70
g1264
sg63
(lp1271
S'remote_port'
p1272
asbag56
(g77
g58
NtRp1273
(dp1274
g61
(dp1275
g88
g89
ssg70
g1264
sg63
(lp1276
S':'
asbag56
(g77
g58
NtRp1277
(dp1278
g61
(dp1279
sg70
g1264
sg63
(lp1280
g56
(g57
g58
NtRp1281
(dp1282
g61
(dp1283
g69
I4
ssg70
g1277
sg63
(lp1284
S'57315'
p1285
asbasbasbag56
(g72
g58
NtRp1286
(dp1287
g61
(dp1288
sg70
g821
sg63
(lp1289
g56
(g77
g58
NtRp1290
(dp1291
g61
(dp1292
g81
g82
ssg70
g1286
sg63
(lp1293
S'request_method'
p1294
asbag56
(g77
g58
NtRp1295
(dp1296
g61
(dp1297
g88
g89
ssg70
g1286
sg63
(lp1298
S':'
asbag56
(g77
g58
NtRp1299
(dp1300
g61
(dp1301
sg70
g1286
sg63
(lp1302
g56
(g57
g58
NtRp1303
(dp1304
g61
(dp1305
g69
I4
ssg70
g1299
sg63
(lp1306
S'GET'
p1307
asbasbasbag56
(g72
g58
NtRp1308
(dp1309
g61
(dp1310
sg70
g821
sg63
(lp1311
g56
(g77
g58
NtRp1312
(dp1313
g61
(dp1314
g81
g82
ssg70
g1308
sg63
(lp1315
S'script_name'
p1316
asbag56
(g77
g58
NtRp1317
(dp1318
g61
(dp1319
g88
g89
ssg70
g1308
sg63
(lp1320
S':'
asbag56
(g77
g58
NtRp1321
(dp1322
g61
(dp1323
sg70
g1308
sg63
(lp1324
g56
(g57
g58
NtRp1325
(dp1326
g61
(dp1327
g69
I4
ssg70
g1321
sg63
(lp1328
S''
asbasbasbag56
(g72
g58
NtRp1329
(dp1330
g61
(dp1331
sg70
g821
sg63
(lp1332
g56
(g77
g58
NtRp1333
(dp1334
g61
(dp1335
g81
g82
ssg70
g1329
sg63
(lp1336
S'server_name'
p1337
asbag56
(g77
g58
NtRp1338
(dp1339
g61
(dp1340
g88
g89
ssg70
g1329
sg63
(lp1341
S':'
asbag56
(g77
g58
NtRp1342
(dp1343
g61
(dp1344
sg70
g1329
sg63
(lp1345
g56
(g57
g58
NtRp1346
(dp1347
g61
(dp1348
g69
I4
ssg70
g1342
sg63
(lp1349
S'VPCF22AJ'
p1350
asbasbasbag56
(g72
g58
NtRp1351
(dp1352
g61
(dp1353
sg70
g821
sg63
(lp1354
g56
(g77
g58
NtRp1355
(dp1356
g61
(dp1357
g81
g82
ssg70
g1351
sg63
(lp1358
S'server_port'
p1359
asbag56
(g77
g58
NtRp1360
(dp1361
g61
(dp1362
g88
g89
ssg70
g1351
sg63
(lp1363
S':'
asbag56
(g77
g58
NtRp1364
(dp1365
g61
(dp1366
sg70
g1351
sg63
(lp1367
g56
(g57
g58
NtRp1368
(dp1369
g61
(dp1370
g69
I4
ssg70
g1364
sg63
(lp1371
S'8000'
p1372
asbasbasbag56
(g72
g58
NtRp1373
(dp1374
g61
(dp1375
sg70
g821
sg63
(lp1376
g56
(g77
g58
NtRp1377
(dp1378
g61
(dp1379
g81
g82
ssg70
g1373
sg63
(lp1380
S'server_protocol'
p1381
asbag56
(g77
g58
NtRp1382
(dp1383
g61
(dp1384
g88
g89
ssg70
g1373
sg63
(lp1385
S':'
asbag56
(g77
g58
NtRp1386
(dp1387
g61
(dp1388
sg70
g1373
sg63
(lp1389
g56
(g57
g58
NtRp1390
(dp1391
g61
(dp1392
g69
I4
ssg70
g1386
sg63
(lp1393
S'HTTP/1.1'
p1394
asbasbasbag56
(g72
g58
NtRp1395
(dp1396
g61
(dp1397
sg70
g821
sg63
(lp1398
g56
(g77
g58
NtRp1399
(dp1400
g61
(dp1401
g81
g82
ssg70
g1395
sg63
(lp1402
S'server_software'
p1403
asbag56
(g77
g58
NtRp1404
(dp1405
g61
(dp1406
g88
g89
ssg70
g1395
sg63
(lp1407
S':'
asbag56
(g77
g58
NtRp1408
(dp1409
g61
(dp1410
sg70
g1395
sg63
(lp1411
g56
(g57
g58
NtRp1412
(dp1413
g61
(dp1414
g69
I4
ssg70
g1408
sg63
(lp1415
S'Rocket 1.2.4'
p1416
asbasbasbag56
(g72
g58
NtRp1417
(dp1418
g61
(dp1419
sg70
g821
sg63
(lp1420
g56
(g77
g58
NtRp1421
(dp1422
g61
(dp1423
g81
g82
ssg70
g1417
sg63
(lp1424
S'web2py_crontype'
p1425
asbag56
(g77
g58
NtRp1426
(dp1427
g61
(dp1428
g88
g89
ssg70
g1417
sg63
(lp1429
S':'
asbag56
(g77
g58
NtRp1430
(dp1431
g61
(dp1432
sg70
g1417
sg63
(lp1433
g56
(g57
g58
NtRp1434
(dp1435
g61
(dp1436
g69
I4
ssg70
g1430
sg63
(lp1437
S'hard'
p1438
asbasbasbag56
(g72
g58
NtRp1439
(dp1440
g61
(dp1441
sg70
g821
sg63
(lp1442
g56
(g77
g58
NtRp1443
(dp1444
g61
(dp1445
g81
g82
ssg70
g1439
sg63
(lp1446
S'web2py_path'
p1447
asbag56
(g77
g58
NtRp1448
(dp1449
g61
(dp1450
g88
g89
ssg70
g1439
sg63
(lp1451
S':'
asbag56
(g77
g58
NtRp1452
(dp1453
g61
(dp1454
sg70
g1439
sg63
(lp1455
g56
(g57
g58
NtRp1456
(dp1457
g61
(dp1458
g69
I4
ssg70
g1452
sg63
(lp1459
g868
asbasbasbag56
(g72
g58
NtRp1460
(dp1461
g61
(dp1462
sg70
g821
sg63
(lp1463
g56
(g77
g58
NtRp1464
(dp1465
g61
(dp1466
g81
g82
ssg70
g1460
sg63
(lp1467
S'web2py_version'
p1468
asbag56
(g77
g58
NtRp1469
(dp1470
g61
(dp1471
g88
g89
ssg70
g1460
sg63
(lp1472
S':'
asbag56
(g77
g58
NtRp1473
(dp1474
g61
(dp1475
sg70
g1460
sg63
(lp1476
g56
(g57
g58
NtRp1477
(dp1478
g61
(dp1479
g69
I4
ssg70
g1473
sg63
(lp1480
g56
(g65
g58
NtRp1481
(dp1482
g61
(dp1483
g69
I3
ssg70
Nsg63
(lp1484
g56
(g72
g58
NtRp1485
(dp1486
g61
(dp1487
sg70
g1481
sg63
(lp1488
g56
(g77
g58
NtRp1489
(dp1490
g61
(dp1491
sg70
g1485
sg63
(lp1492
g56
(g57
g58
NtRp1493
(dp1494
g61
(dp1495
g69
I3
ssg70
g1489
sg63
(lp1496
S'1'
asbasbasbag56
(g72
g58
NtRp1497
(dp1498
g61
(dp1499
sg70
g1481
sg63
(lp1500
g56
(g77
g58
NtRp1501
(dp1502
g61
(dp1503
sg70
g1497
sg63
(lp1504
g56
(g57
g58
NtRp1505
(dp1506
g61
(dp1507
g69
I3
ssg70
g1501
sg63
(lp1508
S'99'
p1509
asbasbasbag56
(g72
g58
NtRp1510
(dp1511
g61
(dp1512
sg70
g1481
sg63
(lp1513
g56
(g77
g58
NtRp1514
(dp1515
g61
(dp1516
sg70
g1510
sg63
(lp1517
g56
(g57
g58
NtRp1518
(dp1519
g61
(dp1520
g69
I3
ssg70
g1514
sg63
(lp1521
S'2'
asbasbasbag56
(g72
g58
NtRp1522
(dp1523
g61
(dp1524
sg70
g1481
sg63
(lp1525
g56
(g77
g58
NtRp1526
(dp1527
g61
(dp1528
sg70
g1522
sg63
(lp1529
g56
(g57
g58
NtRp1530
(dp1531
g61
(dp1532
g69
I3
ssg70
g1526
sg63
(lp1533
S'datetime.datetime(2011, 9, 26, 6, 55, 33)'
p1534
asbasbasbag56
(g72
g58
NtRp1535
(dp1536
g61
(dp1537
sg70
g1481
sg63
(lp1538
g56
(g77
g58
NtRp1539
(dp1540
g61
(dp1541
sg70
g1535
sg63
(lp1542
g56
(g57
g58
NtRp1543
(dp1544
g61
(dp1545
g69
I3
ssg70
g1539
sg63
(lp1546
S'stable'
p1547
asbasbasbasbasbasbasbag56
(g72
g58
NtRp1548
(dp1549
g61
(dp1550
sg70
g821
sg63
(lp1551
g56
(g77
g58
NtRp1552
(dp1553
g61
(dp1554
g81
g82
ssg70
g1548
sg63
(lp1555
S'wsgi_errors'
p1556
asbag56
(g77
g58
NtRp1557
(dp1558
g61
(dp1559
g88
g89
ssg70
g1548
sg63
(lp1560
S':'
asbag56
(g77
g58
NtRp1561
(dp1562
g61
(dp1563
sg70
g1548
sg63
(lp1564
g56
(g57
g58
NtRp1565
(dp1566
g61
(dp1567
g69
I4
ssg70
g1561
sg63
(lp1568
S"<open file '<stderr>', mode 'w' at 0x7f5e9e0e81e0>"
p1569
asbasbasbag56
(g72
g58
NtRp1570
(dp1571
g61
(dp1572
sg70
g821
sg63
(lp1573
g56
(g77
g58
NtRp1574
(dp1575
g61
(dp1576
g81
g82
ssg70
g1570
sg63
(lp1577
S'wsgi_file_wrapper'
p1578
asbag56
(g77
g58
NtRp1579
(dp1580
g61
(dp1581
g88
g89
ssg70
g1570
sg63
(lp1582
S':'
asbag56
(g77
g58
NtRp1583
(dp1584
g61
(dp1585
sg70
g1570
sg63
(lp1586
g56
(g57
g58
NtRp1587
(dp1588
g61
(dp1589
g69
I4
ssg70
g1583
sg63
(lp1590
S'<class wsgiref.util.FileWrapper at 0x136e3b0>'
p1591
asbasbasbag56
(g72
g58
NtRp1592
(dp1593
g61
(dp1594
sg70
g821
sg63
(lp1595
g56
(g77
g58
NtRp1596
(dp1597
g61
(dp1598
g81
g82
ssg70
g1592
sg63
(lp1599
S'wsgi_input'
p1600
asbag56
(g77
g58
NtRp1601
(dp1602
g61
(dp1603
g88
g89
ssg70
g1592
sg63
(lp1604
S':'
asbag56
(g77
g58
NtRp1605
(dp1606
g61
(dp1607
sg70
g1592
sg63
(lp1608
g56
(g57
g58
NtRp1609
(dp1610
g61
(dp1611
g69
I4
ssg70
g1605
sg63
(lp1612
S'<socket._fileobject object at 0xf955d0>'
p1613
asbasbasbag56
(g72
g58
NtRp1614
(dp1615
g61
(dp1616
sg70
g821
sg63
(lp1617
g56
(g77
g58
NtRp1618
(dp1619
g61
(dp1620
g81
g82
ssg70
g1614
sg63
(lp1621
S'wsgi_multiprocess'
p1622
asbag56
(g77
g58
NtRp1623
(dp1624
g61
(dp1625
g88
g89
ssg70
g1614
sg63
(lp1626
S':'
asbag56
(g77
g58
NtRp1627
(dp1628
g61
(dp1629
sg70
g1614
sg63
(lp1630
g56
(g57
g58
NtRp1631
(dp1632
g61
(dp1633
g69
I4
ssg70
g1627
sg63
(lp1634
g99
asbasbasbag56
(g72
g58
NtRp1635
(dp1636
g61
(dp1637
sg70
g821
sg63
(lp1638
g56
(g77
g58
NtRp1639
(dp1640
g61
(dp1641
g81
g82
ssg70
g1635
sg63
(lp1642
S'wsgi_multithread'
p1643
asbag56
(g77
g58
NtRp1644
(dp1645
g61
(dp1646
g88
g89
ssg70
g1635
sg63
(lp1647
S':'
asbag56
(g77
g58
NtRp1648
(dp1649
g61
(dp1650
sg70
g1635
sg63
(lp1651
g56
(g57
g58
NtRp1652
(dp1653
g61
(dp1654
g69
I4
ssg70
g1648
sg63
(lp1655
S'True'
p1656
asbasbasbag56
(g72
g58
NtRp1657
(dp1658
g61
(dp1659
sg70
g821
sg63
(lp1660
g56
(g77
g58
NtRp1661
(dp1662
g61
(dp1663
g81
g82
ssg70
g1657
sg63
(lp1664
S'wsgi_run_once'
p1665
asbag56
(g77
g58
NtRp1666
(dp1667
g61
(dp1668
g88
g89
ssg70
g1657
sg63
(lp1669
S':'
asbag56
(g77
g58
NtRp1670
(dp1671
g61
(dp1672
sg70
g1657
sg63
(lp1673
g56
(g57
g58
NtRp1674
(dp1675
g61
(dp1676
g69
I4
ssg70
g1670
sg63
(lp1677
g99
asbasbasbag56
(g72
g58
NtRp1678
(dp1679
g61
(dp1680
sg70
g821
sg63
(lp1681
g56
(g77
g58
NtRp1682
(dp1683
g61
(dp1684
g81
g82
ssg70
g1678
sg63
(lp1685
S'wsgi_url_scheme'
p1686
asbag56
(g77
g58
NtRp1687
(dp1688
g61
(dp1689
g88
g89
ssg70
g1678
sg63
(lp1690
S':'
asbag56
(g77
g58
NtRp1691
(dp1692
g61
(dp1693
sg70
g1678
sg63
(lp1694
g56
(g57
g58
NtRp1695
(dp1696
g61
(dp1697
g69
I4
ssg70
g1691
sg63
(lp1698
S'http'
p1699
asbasbasbag56
(g72
g58
NtRp1700
(dp1701
g61
(dp1702
sg70
g821
sg63
(lp1703
g56
(g77
g58
NtRp1704
(dp1705
g61
(dp1706
g81
g82
ssg70
g1700
sg63
(lp1707
S'wsgi_version'
p1708
asbag56
(g77
g58
NtRp1709
(dp1710
g61
(dp1711
g88
g89
ssg70
g1700
sg63
(lp1712
S':'
asbag56
(g77
g58
NtRp1713
(dp1714
g61
(dp1715
sg70
g1700
sg63
(lp1716
g56
(g57
g58
NtRp1717
(dp1718
g61
(dp1719
g69
I4
ssg70
g1713
sg63
(lp1720
g56
(g65
g58
NtRp1721
(dp1722
g61
(dp1723
g69
I3
ssg70
Nsg63
(lp1724
g56
(g72
g58
NtRp1725
(dp1726
g61
(dp1727
sg70
g1721
sg63
(lp1728
g56
(g77
g58
NtRp1729
(dp1730
g61
(dp1731
sg70
g1725
sg63
(lp1732
g56
(g57
g58
NtRp1733
(dp1734
g61
(dp1735
g69
I3
ssg70
g1729
sg63
(lp1736
S'1'
asbasbasbag56
(g72
g58
NtRp1737
(dp1738
g61
(dp1739
sg70
g1721
sg63
(lp1740
g56
(g77
g58
NtRp1741
(dp1742
g61
(dp1743
sg70
g1737
sg63
(lp1744
g56
(g57
g58
NtRp1745
(dp1746
g61
(dp1747
g69
I3
ssg70
g1741
sg63
(lp1748
S'0'
asbasbasbasbasbasbasbasbasbasbasbag56
(g72
g58
NtRp1749
(dp1750
g61
(dp1751
sg70
g66
sg63
(lp1752
g56
(g77
g58
NtRp1753
(dp1754
g61
(dp1755
g81
g82
ssg70
g1749
sg63
(lp1756
S'extension'
p1757
asbag56
(g77
g58
NtRp1758
(dp1759
g61
(dp1760
g88
g89
ssg70
g1749
sg63
(lp1761
S':'
asbag56
(g77
g58
NtRp1762
(dp1763
g61
(dp1764
sg70
g1749
sg63
(lp1765
g56
(g57
g58
NtRp1766
(dp1767
g61
(dp1768
g69
I5
ssg70
g1762
sg63
(lp1769
S'html'
p1770
asbasbasbag56
(g72
g58
NtRp1771
(dp1772
g61
(dp1773
sg70
g66
sg63
(lp1774
g56
(g77
g58
NtRp1775
(dp1776
g61
(dp1777
g81
g82
ssg70
g1771
sg63
(lp1778
S'folder'
p1779
asbag56
(g77
g58
NtRp1780
(dp1781
g61
(dp1782
g88
g89
ssg70
g1771
sg63
(lp1783
S':'
asbag56
(g77
g58
NtRp1784
(dp1785
g61
(dp1786
sg70
g1771
sg63
(lp1787
g56
(g57
g58
NtRp1788
(dp1789
g61
(dp1790
g69
I5
ssg70
g1784
sg63
(lp1791
S'/windows/Users/Thomas/Dropbox/appz/2011/ddlagoon/public_html/applications/ddlagoon/'
p1792
asbasbasbag56
(g72
g58
NtRp1793
(dp1794
g61
(dp1795
sg70
g66
sg63
(lp1796
g56
(g77
g58
NtRp1797
(dp1798
g61
(dp1799
g81
g82
ssg70
g1793
sg63
(lp1800
S'function'
p1801
asbag56
(g77
g58
NtRp1802
(dp1803
g61
(dp1804
g88
g89
ssg70
g1793
sg63
(lp1805
S':'
asbag56
(g77
g58
NtRp1806
(dp1807
g61
(dp1808
sg70
g1793
sg63
(lp1809
g56
(g57
g58
NtRp1810
(dp1811
g61
(dp1812
g69
I5
ssg70
g1806
sg63
(lp1813
S'how_to_upload'
p1814
asbasbasbag56
(g72
g58
NtRp1815
(dp1816
g61
(dp1817
sg70
g66
sg63
(lp1818
g56
(g77
g58
NtRp1819
(dp1820
g61
(dp1821
g81
g82
ssg70
g1815
sg63
(lp1822
S'get_vars'
p1823
asbag56
(g77
g58
NtRp1824
(dp1825
g61
(dp1826
g88
g89
ssg70
g1815
sg63
(lp1827
S':'
asbag56
(g77
g58
NtRp1828
(dp1829
g61
(dp1830
sg70
g1815
sg63
(lp1831
g56
(g57
g58
NtRp1832
(dp1833
g61
(dp1834
g69
I5
ssg70
g1828
sg63
(lp1835
g56
(g65
g58
NtRp1836
(dp1837
g61
(dp1838
g69
I4
ssg70
Nsg63
(lp1839
sbasbasbasbag56
(g72
g58
NtRp1840
(dp1841
g61
(dp1842
sg70
g66
sg63
(lp1843
g56
(g77
g58
NtRp1844
(dp1845
g61
(dp1846
g81
g82
ssg70
g1840
sg63
(lp1847
S'global_settings'
p1848
asbag56
(g77
g58
NtRp1849
(dp1850
g61
(dp1851
g88
g89
ssg70
g1840
sg63
(lp1852
S':'
asbag56
(g77
g58
NtRp1853
(dp1854
g61
(dp1855
sg70
g1840
sg63
(lp1856
g56
(g57
g58
NtRp1857
(dp1858
g61
(dp1859
g69
I5
ssg70
g1853
sg63
(lp1860
g56
(g65
g58
NtRp1861
(dp1862
g61
(dp1863
g69
I4
ssg70
Nsg63
(lp1864
g56
(g72
g58
NtRp1865
(dp1866
g61
(dp1867
sg70
g1861
sg63
(lp1868
g56
(g77
g58
NtRp1869
(dp1870
g61
(dp1871
g81
g82
ssg70
g1865
sg63
(lp1872
g833
asbag56
(g77
g58
NtRp1873
(dp1874
g61
(dp1875
g88
g89
ssg70
g1865
sg63
(lp1876
S':'
asbag56
(g77
g58
NtRp1877
(dp1878
g61
(dp1879
sg70
g1865
sg63
(lp1880
g56
(g57
g58
NtRp1881
(dp1882
g61
(dp1883
g69
I4
ssg70
g1877
sg63
(lp1884
S"set(['/windows/Users/Thomas/Dropbox/appz/2011/ddlagoon/public_html/applications/ddlagoon/', '/windows/Users/Thomas/Dropbox/appz/2011/ddlagoon/public_html/applications/admin/', '/windows/Users/Thomas/Dropbox/appz/2011/ddlagoon/public_html/applications/welcome/'])"
p1885
asbasbasbag56
(g72
g58
NtRp1886
(dp1887
g61
(dp1888
sg70
g1861
sg63
(lp1889
g56
(g77
g58
NtRp1890
(dp1891
g61
(dp1892
g81
g82
ssg70
g1886
sg63
(lp1893
g855
asbag56
(g77
g58
NtRp1894
(dp1895
g61
(dp1896
g88
g89
ssg70
g1886
sg63
(lp1897
S':'
asbag56
(g77
g58
NtRp1898
(dp1899
g61
(dp1900
sg70
g1886
sg63
(lp1901
g56
(g57
g58
NtRp1902
(dp1903
g61
(dp1904
g69
I4
ssg70
g1898
sg63
(lp1905
g868
asbasbasbag56
(g72
g58
NtRp1906
(dp1907
g61
(dp1908
sg70
g1861
sg63
(lp1909
g56
(g77
g58
NtRp1910
(dp1911
g61
(dp1912
g81
g82
ssg70
g1906
sg63
(lp1913
g877
asbag56
(g77
g58
NtRp1914
(dp1915
g61
(dp1916
g88
g89
ssg70
g1906
sg63
(lp1917
S':'
asbag56
(g77
g58
NtRp1918
(dp1919
g61
(dp1920
sg70
g1906
sg63
(lp1921
g56
(g57
g58
NtRp1922
(dp1923
g61
(dp1924
g69
I4
ssg70
g1918
sg63
(lp1925
g56
(g65
g58
NtRp1926
(dp1927
g61
(dp1928
g69
I3
ssg70
Nsg63
(lp1929
sbasbasbasbag56
(g72
g58
NtRp1930
(dp1931
g61
(dp1932
sg70
g1861
sg63
(lp1933
g56
(g77
g58
NtRp1934
(dp1935
g61
(dp1936
g81
g82
ssg70
g1930
sg63
(lp1937
g902
asbag56
(g77
g58
NtRp1938
(dp1939
g61
(dp1940
g88
g89
ssg70
g1930
sg63
(lp1941
S':'
asbag56
(g77
g58
NtRp1942
(dp1943
g61
(dp1944
sg70
g1930
sg63
(lp1945
g56
(g57
g58
NtRp1946
(dp1947
g61
(dp1948
g69
I4
ssg70
g1942
sg63
(lp1949
S"<Values at 0x1581c68: {'verbose': False, 'ip': '127.0.0.1', 'shutdown_timeout': 5, 'taskbar': False, 'nocron': False, 'pid_filename': 'httpserver.pid', 'maxthreads': None, 'softcron': False, 'server_name': 'VPCF22AJ', 'bpython': False, 'nogui': False, 'port': 8000, 'extcron': False, 'debuglevel': 30, 'test': None, 'folder': '/windows/Users/Thomas/Dropbox/appz/2011/ddlagoon/public_html', 'config': '', 'import_models': False, 'winservice': '', 'shell': None, 'run': '', 'log_filename': 'httpserver.log', 'args': [''], 'ssl_ca_certificate': None, 'scheduler': None, 'profiler_filename': None, 'ssl_private_key': '', 'password': 'admin', 'request_queue_size': 5, 'ssl_certificate': '', 'cronjob': False, 'plain': False, 'quiet': False, 'interfaces': None, 'minthreads': None, 'timeout': 10, 'numthreads': None, 'nobanner': False}>"
p1950
asbasbasbag56
(g72
g58
NtRp1951
(dp1952
g61
(dp1953
sg70
g1861
sg63
(lp1954
g56
(g77
g58
NtRp1955
(dp1956
g61
(dp1957
g81
g82
ssg70
g1951
sg63
(lp1958
g924
asbag56
(g77
g58
NtRp1959
(dp1960
g61
(dp1961
g88
g89
ssg70
g1951
sg63
(lp1962
S':'
asbag56
(g77
g58
NtRp1963
(dp1964
g61
(dp1965
sg70
g1951
sg63
(lp1966
g56
(g57
g58
NtRp1967
(dp1968
g61
(dp1969
g69
I4
ssg70
g1963
sg63
(lp1970
S'set([])'
p1971
asbasbasbag56
(g72
g58
NtRp1972
(dp1973
g61
(dp1974
sg70
g1861
sg63
(lp1975
g56
(g77
g58
NtRp1976
(dp1977
g61
(dp1978
g81
g82
ssg70
g1972
sg63
(lp1979
g946
asbag56
(g77
g58
NtRp1980
(dp1981
g61
(dp1982
g88
g89
ssg70
g1972
sg63
(lp1983
S':'
asbag56
(g77
g58
NtRp1984
(dp1985
g61
(dp1986
sg70
g1972
sg63
(lp1987
g56
(g57
g58
NtRp1988
(dp1989
g61
(dp1990
g69
I4
ssg70
g1984
sg63
(lp1991
g99
asbasbasbag56
(g72
g58
NtRp1992
(dp1993
g61
(dp1994
sg70
g1861
sg63
(lp1995
g56
(g77
g58
NtRp1996
(dp1997
g61
(dp1998
g81
g82
ssg70
g1992
sg63
(lp1999
g967
asbag56
(g77
g58
NtRp2000
(dp2001
g61
(dp2002
g88
g89
ssg70
g1992
sg63
(lp2003
S':'
asbag56
(g77
g58
NtRp2004
(dp2005
g61
(dp2006
sg70
g1992
sg63
(lp2007
g56
(g57
g58
NtRp2008
(dp2009
g61
(dp2010
g69
I4
ssg70
g2004
sg63
(lp2011
g980
asbasbasbag56
(g72
g58
NtRp2012
(dp2013
g61
(dp2014
sg70
g1861
sg63
(lp2015
g56
(g77
g58
NtRp2016
(dp2017
g61
(dp2018
g81
g82
ssg70
g2012
sg63
(lp2019
g1187
asbag56
(g77
g58
NtRp2020
(dp2021
g61
(dp2022
g88
g89
ssg70
g2012
sg63
(lp2023
S':'
asbag56
(g77
g58
NtRp2024
(dp2025
g61
(dp2026
sg70
g2012
sg63
(lp2027
g56
(g57
g58
NtRp2028
(dp2029
g61
(dp2030
g69
I4
ssg70
g2024
sg63
(lp2031
g99
asbasbasbag56
(g72
g58
NtRp2032
(dp2033
g61
(dp2034
sg70
g1861
sg63
(lp2035
g56
(g77
g58
NtRp2036
(dp2037
g61
(dp2038
g81
g82
ssg70
g2032
sg63
(lp2039
g1425
asbag56
(g77
g58
NtRp2040
(dp2041
g61
(dp2042
g88
g89
ssg70
g2032
sg63
(lp2043
S':'
asbag56
(g77
g58
NtRp2044
(dp2045
g61
(dp2046
sg70
g2032
sg63
(lp2047
g56
(g57
g58
NtRp2048
(dp2049
g61
(dp2050
g69
I4
ssg70
g2044
sg63
(lp2051
g1438
asbasbasbag56
(g72
g58
NtRp2052
(dp2053
g61
(dp2054
sg70
g1861
sg63
(lp2055
g56
(g77
g58
NtRp2056
(dp2057
g61
(dp2058
g81
g82
ssg70
g2052
sg63
(lp2059
g1468
asbag56
(g77
g58
NtRp2060
(dp2061
g61
(dp2062
g88
g89
ssg70
g2052
sg63
(lp2063
S':'
asbag56
(g77
g58
NtRp2064
(dp2065
g61
(dp2066
sg70
g2052
sg63
(lp2067
g56
(g57
g58
NtRp2068
(dp2069
g61
(dp2070
g69
I4
ssg70
g2064
sg63
(lp2071
g56
(g65
g58
NtRp2072
(dp2073
g61
(dp2074
g69
I3
ssg70
Nsg63
(lp2075
g56
(g72
g58
NtRp2076
(dp2077
g61
(dp2078
sg70
g2072
sg63
(lp2079
g56
(g77
g58
NtRp2080
(dp2081
g61
(dp2082
sg70
g2076
sg63
(lp2083
g56
(g57
g58
NtRp2084
(dp2085
g61
(dp2086
g69
I3
ssg70
g2080
sg63
(lp2087
S'1'
asbasbasbag56
(g72
g58
NtRp2088
(dp2089
g61
(dp2090
sg70
g2072
sg63
(lp2091
g56
(g77
g58
NtRp2092
(dp2093
g61
(dp2094
sg70
g2088
sg63
(lp2095
g56
(g57
g58
NtRp2096
(dp2097
g61
(dp2098
g69
I3
ssg70
g2092
sg63
(lp2099
S'99'
p2100
asbasbasbag56
(g72
g58
NtRp2101
(dp2102
g61
(dp2103
sg70
g2072
sg63
(lp2104
g56
(g77
g58
NtRp2105
(dp2106
g61
(dp2107
sg70
g2101
sg63
(lp2108
g56
(g57
g58
NtRp2109
(dp2110
g61
(dp2111
g69
I3
ssg70
g2105
sg63
(lp2112
S'2'
asbasbasbag56
(g72
g58
NtRp2113
(dp2114
g61
(dp2115
sg70
g2072
sg63
(lp2116
g56
(g77
g58
NtRp2117
(dp2118
g61
(dp2119
sg70
g2113
sg63
(lp2120
g56
(g57
g58
NtRp2121
(dp2122
g61
(dp2123
g69
I3
ssg70
g2117
sg63
(lp2124
S'datetime.datetime(2011, 9, 26, 6, 55, 33)'
p2125
asbasbasbag56
(g72
g58
NtRp2126
(dp2127
g61
(dp2128
sg70
g2072
sg63
(lp2129
g56
(g77
g58
NtRp2130
(dp2131
g61
(dp2132
sg70
g2126
sg63
(lp2133
g56
(g57
g58
NtRp2134
(dp2135
g61
(dp2136
g69
I3
ssg70
g2130
sg63
(lp2137
g1547
asbasbasbasbasbasbasbasbasbasbasbag56
(g72
g58
NtRp2138
(dp2139
g61
(dp2140
sg70
g66
sg63
(lp2141
g56
(g77
g58
NtRp2142
(dp2143
g61
(dp2144
g81
g82
ssg70
g2138
sg63
(lp2145
S'is_https'
p2146
asbag56
(g77
g58
NtRp2147
(dp2148
g61
(dp2149
g88
g89
ssg70
g2138
sg63
(lp2150
S':'
asbag56
(g77
g58
NtRp2151
(dp2152
g61
(dp2153
sg70
g2138
sg63
(lp2154
g56
(g57
g58
NtRp2155
(dp2156
g61
(dp2157
g69
I5
ssg70
g2151
sg63
(lp2158
g99
asbasbasbag56
(g72
g58
NtRp2159
(dp2160
g61
(dp2161
sg70
g66
sg63
(lp2162
g56
(g77
g58
NtRp2163
(dp2164
g61
(dp2165
g81
g82
ssg70
g2159
sg63
(lp2166
S'is_local'
p2167
asbag56
(g77
g58
NtRp2168
(dp2169
g61
(dp2170
g88
g89
ssg70
g2159
sg63
(lp2171
S':'
asbag56
(g77
g58
NtRp2172
(dp2173
g61
(dp2174
sg70
g2159
sg63
(lp2175
g56
(g57
g58
NtRp2176
(dp2177
g61
(dp2178
g69
I5
ssg70
g2172
sg63
(lp2179
g1656
asbasbasbag56
(g72
g58
NtRp2180
(dp2181
g61
(dp2182
sg70
g66
sg63
(lp2183
g56
(g77
g58
NtRp2184
(dp2185
g61
(dp2186
g81
g82
ssg70
g2180
sg63
(lp2187
S'is_restful'
p2188
asbag56
(g77
g58
NtRp2189
(dp2190
g61
(dp2191
g88
g89
ssg70
g2180
sg63
(lp2192
S':'
asbag56
(g77
g58
NtRp2193
(dp2194
g61
(dp2195
sg70
g2180
sg63
(lp2196
g56
(g57
g58
NtRp2197
(dp2198
g61
(dp2199
g69
I5
ssg70
g2193
sg63
(lp2200
g99
asbasbasbag56
(g72
g58
NtRp2201
(dp2202
g61
(dp2203
sg70
g66
sg63
(lp2204
g56
(g77
g58
NtRp2205
(dp2206
g61
(dp2207
g81
g82
ssg70
g2201
sg63
(lp2208
S'now'
p2209
asbag56
(g77
g58
NtRp2210
(dp2211
g61
(dp2212
g88
g89
ssg70
g2201
sg63
(lp2213
S':'
asbag56
(g77
g58
NtRp2214
(dp2215
g61
(dp2216
sg70
g2201
sg63
(lp2217
g56
(g57
g58
NtRp2218
(dp2219
g61
(dp2220
g69
I5
ssg70
g2214
sg63
(lp2221
S'datetime.datetime(2011, 11, 9, 10, 8, 32, 232580)'
p2222
asbasbasbag56
(g72
g58
NtRp2223
(dp2224
g61
(dp2225
sg70
g66
sg63
(lp2226
g56
(g77
g58
NtRp2227
(dp2228
g61
(dp2229
g81
g82
ssg70
g2223
sg63
(lp2230
S'post_vars'
p2231
asbag56
(g77
g58
NtRp2232
(dp2233
g61
(dp2234
g88
g89
ssg70
g2223
sg63
(lp2235
S':'
asbag56
(g77
g58
NtRp2236
(dp2237
g61
(dp2238
sg70
g2223
sg63
(lp2239
g56
(g57
g58
NtRp2240
(dp2241
g61
(dp2242
g69
I5
ssg70
g2236
sg63
(lp2243
g56
(g65
g58
NtRp2244
(dp2245
g61
(dp2246
g69
I4
ssg70
Nsg63
(lp2247
sbasbasbasbag56
(g72
g58
NtRp2248
(dp2249
g61
(dp2250
sg70
g66
sg63
(lp2251
g56
(g77
g58
NtRp2252
(dp2253
g61
(dp2254
g81
g82
ssg70
g2248
sg63
(lp2255
S'url'
p2256
asbag56
(g77
g58
NtRp2257
(dp2258
g61
(dp2259
g88
g89
ssg70
g2248
sg63
(lp2260
S':'
asbag56
(g77
g58
NtRp2261
(dp2262
g61
(dp2263
sg70
g2248
sg63
(lp2264
g56
(g57
g58
NtRp2265
(dp2266
g61
(dp2267
g69
I5
ssg70
g2261
sg63
(lp2268
S'/ddlagoon/default/how_to_upload'
p2269
asbasbasbag56
(g72
g58
NtRp2270
(dp2271
g61
(dp2272
sg70
g66
sg63
(lp2273
g56
(g77
g58
NtRp2274
(dp2275
g61
(dp2276
g81
g82
ssg70
g2270
sg63
(lp2277
S'utcnow'
p2278
asbag56
(g77
g58
NtRp2279
(dp2280
g61
(dp2281
g88
g89
ssg70
g2270
sg63
(lp2282
S':'
asbag56
(g77
g58
NtRp2283
(dp2284
g61
(dp2285
sg70
g2270
sg63
(lp2286
g56
(g57
g58
NtRp2287
(dp2288
g61
(dp2289
g69
I5
ssg70
g2283
sg63
(lp2290
S'datetime.datetime(2011, 11, 9, 10, 8, 32, 232600)'
p2291
asbasbasbag56
(g72
g58
NtRp2292
(dp2293
g61
(dp2294
sg70
g66
sg63
(lp2295
g56
(g77
g58
NtRp2296
(dp2297
g61
(dp2298
g81
g82
ssg70
g2292
sg63
(lp2299
S'uuid'
p2300
asbag56
(g77
g58
NtRp2301
(dp2302
g61
(dp2303
g88
g89
ssg70
g2292
sg63
(lp2304
S':'
asbag56
(g77
g58
NtRp2305
(dp2306
g61
(dp2307
sg70
g2292
sg63
(lp2308
g56
(g57
g58
NtRp2309
(dp2310
g61
(dp2311
g69
I5
ssg70
g2305
sg63
(lp2312
S'ddlagoon/127.0.0.1.2011-11-09.10-08-32.2801158c-c0d7-4857-aebd-17c257b71b2f'
p2313
asbasbasbag56
(g72
g58
NtRp2314
(dp2315
g61
(dp2316
sg70
g66
sg63
(lp2317
g56
(g77
g58
NtRp2318
(dp2319
g61
(dp2320
g81
g82
ssg70
g2314
sg63
(lp2321
S'vars'
p2322
asbag56
(g77
g58
NtRp2323
(dp2324
g61
(dp2325
g88
g89
ssg70
g2314
sg63
(lp2326
S':'
asbag56
(g77
g58
NtRp2327
(dp2328
g61
(dp2329
sg70
g2314
sg63
(lp2330
g56
(g57
g58
NtRp2331
(dp2332
g61
(dp2333
g69
I5
ssg70
g2327
sg63
(lp2334
g56
(g65
g58
NtRp2335
(dp2336
g61
(dp2337
g69
I4
ssg70
Nsg63
(lp2338
sbasbasbasbag56
(g72
g58
NtRp2339
(dp2340
g61
(dp2341
sg70
g66
sg63
(lp2342
g56
(g77
g58
NtRp2343
(dp2344
g61
(dp2345
g81
g82
ssg70
g2339
sg63
(lp2346
S'wsgi'
p2347
asbag56
(g77
g58
NtRp2348
(dp2349
g61
(dp2350
g88
g89
ssg70
g2339
sg63
(lp2351
S':'
asbag56
(g77
g58
NtRp2352
(dp2353
g61
(dp2354
sg70
g2339
sg63
(lp2355
g56
(g57
g58
NtRp2356
(dp2357
g61
(dp2358
g69
I5
ssg70
g2352
sg63
(lp2359
g56
(g65
g58
NtRp2360
(dp2361
g61
(dp2362
g69
I4
ssg70
Nsg63
(lp2363
g56
(g72
g58
NtRp2364
(dp2365
g61
(dp2366
sg70
g2360
sg63
(lp2367
g56
(g77
g58
NtRp2368
(dp2369
g61
(dp2370
g81
g82
ssg70
g2364
sg63
(lp2371
S'environ'
p2372
asbag56
(g77
g58
NtRp2373
(dp2374
g61
(dp2375
g88
g89
ssg70
g2364
sg63
(lp2376
S':'
asbag56
(g77
g58
NtRp2377
(dp2378
g61
(dp2379
sg70
g2364
sg63
(lp2380
g56
(g57
g58
NtRp2381
(dp2382
g61
(dp2383
g69
I4
ssg70
g2377
sg63
(lp2384
g56
(g65
g58
NtRp2385
(dp2386
g61
(dp2387
g69
I3
ssg70
Nsg63
(lp2388
g56
(g72
g58
NtRp2389
(dp2390
g61
(dp2391
sg70
g2385
sg63
(lp2392
g56
(g77
g58
NtRp2393
(dp2394
g61
(dp2395
g81
g82
ssg70
g2389
sg63
(lp2396
S'HTTP_ACCEPT'
p2397
asbag56
(g77
g58
NtRp2398
(dp2399
g61
(dp2400
g88
g89
ssg70
g2389
sg63
(lp2401
S':'
asbag56
(g77
g58
NtRp2402
(dp2403
g61
(dp2404
sg70
g2389
sg63
(lp2405
g56
(g57
g58
NtRp2406
(dp2407
g61
(dp2408
g69
I3
ssg70
g2402
sg63
(lp2409
g1002
asbasbasbag56
(g72
g58
NtRp2410
(dp2411
g61
(dp2412
sg70
g2385
sg63
(lp2413
g56
(g77
g58
NtRp2414
(dp2415
g61
(dp2416
g81
g82
ssg70
g2410
sg63
(lp2417
S'HTTP_ACCEPT_CHARSET'
p2418
asbag56
(g77
g58
NtRp2419
(dp2420
g61
(dp2421
g88
g89
ssg70
g2410
sg63
(lp2422
S':'
asbag56
(g77
g58
NtRp2423
(dp2424
g61
(dp2425
sg70
g2410
sg63
(lp2426
g56
(g57
g58
NtRp2427
(dp2428
g61
(dp2429
g69
I3
ssg70
g2423
sg63
(lp2430
g1024
asbasbasbag56
(g72
g58
NtRp2431
(dp2432
g61
(dp2433
sg70
g2385
sg63
(lp2434
g56
(g77
g58
NtRp2435
(dp2436
g61
(dp2437
g81
g82
ssg70
g2431
sg63
(lp2438
S'HTTP_ACCEPT_ENCODING'
p2439
asbag56
(g77
g58
NtRp2440
(dp2441
g61
(dp2442
g88
g89
ssg70
g2431
sg63
(lp2443
S':'
asbag56
(g77
g58
NtRp2444
(dp2445
g61
(dp2446
sg70
g2431
sg63
(lp2447
g56
(g57
g58
NtRp2448
(dp2449
g61
(dp2450
g69
I3
ssg70
g2444
sg63
(lp2451
g1046
asbasbasbag56
(g72
g58
NtRp2452
(dp2453
g61
(dp2454
sg70
g2385
sg63
(lp2455
g56
(g77
g58
NtRp2456
(dp2457
g61
(dp2458
g81
g82
ssg70
g2452
sg63
(lp2459
S'HTTP_ACCEPT_LANGUAGE'
p2460
asbag56
(g77
g58
NtRp2461
(dp2462
g61
(dp2463
g88
g89
ssg70
g2452
sg63
(lp2464
S':'
asbag56
(g77
g58
NtRp2465
(dp2466
g61
(dp2467
sg70
g2452
sg63
(lp2468
g56
(g57
g58
NtRp2469
(dp2470
g61
(dp2471
g69
I3
ssg70
g2465
sg63
(lp2472
g1068
asbasbasbag56
(g72
g58
NtRp2473
(dp2474
g61
(dp2475
sg70
g2385
sg63
(lp2476
g56
(g77
g58
NtRp2477
(dp2478
g61
(dp2479
g81
g82
ssg70
g2473
sg63
(lp2480
S'HTTP_CACHE_CONTROL'
p2481
asbag56
(g77
g58
NtRp2482
(dp2483
g61
(dp2484
g88
g89
ssg70
g2473
sg63
(lp2485
S':'
asbag56
(g77
g58
NtRp2486
(dp2487
g61
(dp2488
sg70
g2473
sg63
(lp2489
g56
(g57
g58
NtRp2490
(dp2491
g61
(dp2492
g69
I3
ssg70
g2486
sg63
(lp2493
g1090
asbasbasbag56
(g72
g58
NtRp2494
(dp2495
g61
(dp2496
sg70
g2385
sg63
(lp2497
g56
(g77
g58
NtRp2498
(dp2499
g61
(dp2500
g81
g82
ssg70
g2494
sg63
(lp2501
S'HTTP_CONNECTION'
p2502
asbag56
(g77
g58
NtRp2503
(dp2504
g61
(dp2505
g88
g89
ssg70
g2494
sg63
(lp2506
S':'
asbag56
(g77
g58
NtRp2507
(dp2508
g61
(dp2509
sg70
g2494
sg63
(lp2510
g56
(g57
g58
NtRp2511
(dp2512
g61
(dp2513
g69
I3
ssg70
g2507
sg63
(lp2514
g1112
asbasbasbag56
(g72
g58
NtRp2515
(dp2516
g61
(dp2517
sg70
g2385
sg63
(lp2518
g56
(g77
g58
NtRp2519
(dp2520
g61
(dp2521
g81
g82
ssg70
g2515
sg63
(lp2522
S'HTTP_COOKIE'
p2523
asbag56
(g77
g58
NtRp2524
(dp2525
g61
(dp2526
g88
g89
ssg70
g2515
sg63
(lp2527
S':'
asbag56
(g77
g58
NtRp2528
(dp2529
g61
(dp2530
sg70
g2515
sg63
(lp2531
g56
(g57
g58
NtRp2532
(dp2533
g61
(dp2534
g69
I3
ssg70
g2528
sg63
(lp2535
g1134
asbasbasbag56
(g72
g58
NtRp2536
(dp2537
g61
(dp2538
sg70
g2385
sg63
(lp2539
g56
(g77
g58
NtRp2540
(dp2541
g61
(dp2542
g81
g82
ssg70
g2536
sg63
(lp2543
S'HTTP_HOST'
p2544
asbag56
(g77
g58
NtRp2545
(dp2546
g61
(dp2547
g88
g89
ssg70
g2536
sg63
(lp2548
S':'
asbag56
(g77
g58
NtRp2549
(dp2550
g61
(dp2551
sg70
g2536
sg63
(lp2552
g56
(g57
g58
NtRp2553
(dp2554
g61
(dp2555
g69
I3
ssg70
g2549
sg63
(lp2556
g1156
asbasbasbag56
(g72
g58
NtRp2557
(dp2558
g61
(dp2559
sg70
g2385
sg63
(lp2560
g56
(g77
g58
NtRp2561
(dp2562
g61
(dp2563
g81
g82
ssg70
g2557
sg63
(lp2564
S'HTTP_USER_AGENT'
p2565
asbag56
(g77
g58
NtRp2566
(dp2567
g61
(dp2568
g88
g89
ssg70
g2557
sg63
(lp2569
S':'
asbag56
(g77
g58
NtRp2570
(dp2571
g61
(dp2572
sg70
g2557
sg63
(lp2573
g56
(g57
g58
NtRp2574
(dp2575
g61
(dp2576
g69
I3
ssg70
g2570
sg63
(lp2577
g1178
asbasbasbag56
(g72
g58
NtRp2578
(dp2579
g61
(dp2580
sg70
g2385
sg63
(lp2581
g56
(g77
g58
NtRp2582
(dp2583
g61
(dp2584
g81
g82
ssg70
g2578
sg63
(lp2585
S'PATH_INFO'
p2586
asbag56
(g77
g58
NtRp2587
(dp2588
g61
(dp2589
g88
g89
ssg70
g2578
sg63
(lp2590
S':'
asbag56
(g77
g58
NtRp2591
(dp2592
g61
(dp2593
sg70
g2578
sg63
(lp2594
g56
(g57
g58
NtRp2595
(dp2596
g61
(dp2597
g69
I3
ssg70
g2591
sg63
(lp2598
g1221
asbasbasbag56
(g72
g58
NtRp2599
(dp2600
g61
(dp2601
sg70
g2385
sg63
(lp2602
g56
(g77
g58
NtRp2603
(dp2604
g61
(dp2605
g81
g82
ssg70
g2599
sg63
(lp2606
S'QUERY_STRING'
p2607
asbag56
(g77
g58
NtRp2608
(dp2609
g61
(dp2610
g88
g89
ssg70
g2599
sg63
(lp2611
S':'
asbag56
(g77
g58
NtRp2612
(dp2613
g61
(dp2614
sg70
g2599
sg63
(lp2615
g56
(g57
g58
NtRp2616
(dp2617
g61
(dp2618
g69
I3
ssg70
g2612
sg63
(lp2619
S''
asbasbasbag56
(g72
g58
NtRp2620
(dp2621
g61
(dp2622
sg70
g2385
sg63
(lp2623
g56
(g77
g58
NtRp2624
(dp2625
g61
(dp2626
g81
g82
ssg70
g2620
sg63
(lp2627
S'REMOTE_ADDR'
p2628
asbag56
(g77
g58
NtRp2629
(dp2630
g61
(dp2631
g88
g89
ssg70
g2620
sg63
(lp2632
S':'
asbag56
(g77
g58
NtRp2633
(dp2634
g61
(dp2635
sg70
g2620
sg63
(lp2636
g56
(g57
g58
NtRp2637
(dp2638
g61
(dp2639
g69
I3
ssg70
g2633
sg63
(lp2640
g189
asbasbasbag56
(g72
g58
NtRp2641
(dp2642
g61
(dp2643
sg70
g2385
sg63
(lp2644
g56
(g77
g58
NtRp2645
(dp2646
g61
(dp2647
g81
g82
ssg70
g2641
sg63
(lp2648
S'REMOTE_PORT'
p2649
asbag56
(g77
g58
NtRp2650
(dp2651
g61
(dp2652
g88
g89
ssg70
g2641
sg63
(lp2653
S':'
asbag56
(g77
g58
NtRp2654
(dp2655
g61
(dp2656
sg70
g2641
sg63
(lp2657
g56
(g57
g58
NtRp2658
(dp2659
g61
(dp2660
g69
I3
ssg70
g2654
sg63
(lp2661
g1285
asbasbasbag56
(g72
g58
NtRp2662
(dp2663
g61
(dp2664
sg70
g2385
sg63
(lp2665
g56
(g77
g58
NtRp2666
(dp2667
g61
(dp2668
g81
g82
ssg70
g2662
sg63
(lp2669
S'REQUEST_METHOD'
p2670
asbag56
(g77
g58
NtRp2671
(dp2672
g61
(dp2673
g88
g89
ssg70
g2662
sg63
(lp2674
S':'
asbag56
(g77
g58
NtRp2675
(dp2676
g61
(dp2677
sg70
g2662
sg63
(lp2678
g56
(g57
g58
NtRp2679
(dp2680
g61
(dp2681
g69
I3
ssg70
g2675
sg63
(lp2682
g1307
asbasbasbag56
(g72
g58
NtRp2683
(dp2684
g61
(dp2685
sg70
g2385
sg63
(lp2686
g56
(g77
g58
NtRp2687
(dp2688
g61
(dp2689
g81
g82
ssg70
g2683
sg63
(lp2690
S'SCRIPT_NAME'
p2691
asbag56
(g77
g58
NtRp2692
(dp2693
g61
(dp2694
g88
g89
ssg70
g2683
sg63
(lp2695
S':'
asbag56
(g77
g58
NtRp2696
(dp2697
g61
(dp2698
sg70
g2683
sg63
(lp2699
g56
(g57
g58
NtRp2700
(dp2701
g61
(dp2702
g69
I3
ssg70
g2696
sg63
(lp2703
S''
asbasbasbag56
(g72
g58
NtRp2704
(dp2705
g61
(dp2706
sg70
g2385
sg63
(lp2707
g56
(g77
g58
NtRp2708
(dp2709
g61
(dp2710
g81
g82
ssg70
g2704
sg63
(lp2711
S'SERVER_NAME'
p2712
asbag56
(g77
g58
NtRp2713
(dp2714
g61
(dp2715
g88
g89
ssg70
g2704
sg63
(lp2716
S':'
asbag56
(g77
g58
NtRp2717
(dp2718
g61
(dp2719
sg70
g2704
sg63
(lp2720
g56
(g57
g58
NtRp2721
(dp2722
g61
(dp2723
g69
I3
ssg70
g2717
sg63
(lp2724
g1350
asbasbasbag56
(g72
g58
NtRp2725
(dp2726
g61
(dp2727
sg70
g2385
sg63
(lp2728
g56
(g77
g58
NtRp2729
(dp2730
g61
(dp2731
g81
g82
ssg70
g2725
sg63
(lp2732
S'SERVER_PORT'
p2733
asbag56
(g77
g58
NtRp2734
(dp2735
g61
(dp2736
g88
g89
ssg70
g2725
sg63
(lp2737
S':'
asbag56
(g77
g58
NtRp2738
(dp2739
g61
(dp2740
sg70
g2725
sg63
(lp2741
g56
(g57
g58
NtRp2742
(dp2743
g61
(dp2744
g69
I3
ssg70
g2738
sg63
(lp2745
g1372
asbasbasbag56
(g72
g58
NtRp2746
(dp2747
g61
(dp2748
sg70
g2385
sg63
(lp2749
g56
(g77
g58
NtRp2750
(dp2751
g61
(dp2752
g81
g82
ssg70
g2746
sg63
(lp2753
S'SERVER_PROTOCOL'
p2754
asbag56
(g77
g58
NtRp2755
(dp2756
g61
(dp2757
g88
g89
ssg70
g2746
sg63
(lp2758
S':'
asbag56
(g77
g58
NtRp2759
(dp2760
g61
(dp2761
sg70
g2746
sg63
(lp2762
g56
(g57
g58
NtRp2763
(dp2764
g61
(dp2765
g69
I3
ssg70
g2759
sg63
(lp2766
g1394
asbasbasbag56
(g72
g58
NtRp2767
(dp2768
g61
(dp2769
sg70
g2385
sg63
(lp2770
g56
(g77
g58
NtRp2771
(dp2772
g61
(dp2773
g81
g82
ssg70
g2767
sg63
(lp2774
S'SERVER_SOFTWARE'
p2775
asbag56
(g77
g58
NtRp2776
(dp2777
g61
(dp2778
g88
g89
ssg70
g2767
sg63
(lp2779
S':'
asbag56
(g77
g58
NtRp2780
(dp2781
g61
(dp2782
sg70
g2767
sg63
(lp2783
g56
(g57
g58
NtRp2784
(dp2785
g61
(dp2786
g69
I3
ssg70
g2780
sg63
(lp2787
g1416
asbasbasbag56
(g72
g58
NtRp2788
(dp2789
g61
(dp2790
sg70
g2385
sg63
(lp2791
g56
(g77
g58
NtRp2792
(dp2793
g61
(dp2794
g81
g82
ssg70
g2788
sg63
(lp2795
S'wsgi.errors'
p2796
asbag56
(g77
g58
NtRp2797
(dp2798
g61
(dp2799
g88
g89
ssg70
g2788
sg63
(lp2800
S':'
asbag56
(g77
g58
NtRp2801
(dp2802
g61
(dp2803
sg70
g2788
sg63
(lp2804
g56
(g57
g58
NtRp2805
(dp2806
g61
(dp2807
g69
I3
ssg70
g2801
sg63
(lp2808
S"<open file '<stderr>', mode 'w' at 0x7f5e9e0e81e0>"
p2809
asbasbasbag56
(g72
g58
NtRp2810
(dp2811
g61
(dp2812
sg70
g2385
sg63
(lp2813
g56
(g77
g58
NtRp2814
(dp2815
g61
(dp2816
g81
g82
ssg70
g2810
sg63
(lp2817
S'wsgi.file_wrapper'
p2818
asbag56
(g77
g58
NtRp2819
(dp2820
g61
(dp2821
g88
g89
ssg70
g2810
sg63
(lp2822
S':'
asbag56
(g77
g58
NtRp2823
(dp2824
g61
(dp2825
sg70
g2810
sg63
(lp2826
g56
(g57
g58
NtRp2827
(dp2828
g61
(dp2829
g69
I3
ssg70
g2823
sg63
(lp2830
S'<class wsgiref.util.FileWrapper at 0x136e3b0>'
p2831
asbasbasbag56
(g72
g58
NtRp2832
(dp2833
g61
(dp2834
sg70
g2385
sg63
(lp2835
g56
(g77
g58
NtRp2836
(dp2837
g61
(dp2838
g81
g82
ssg70
g2832
sg63
(lp2839
S'wsgi.input'
p2840
asbag56
(g77
g58
NtRp2841
(dp2842
g61
(dp2843
g88
g89
ssg70
g2832
sg63
(lp2844
S':'
asbag56
(g77
g58
NtRp2845
(dp2846
g61
(dp2847
sg70
g2832
sg63
(lp2848
g56
(g57
g58
NtRp2849
(dp2850
g61
(dp2851
g69
I3
ssg70
g2845
sg63
(lp2852
S'<cStringIO.StringO object at 0x2031340>'
p2853
asbasbasbag56
(g72
g58
NtRp2854
(dp2855
g61
(dp2856
sg70
g2385
sg63
(lp2857
g56
(g77
g58
NtRp2858
(dp2859
g61
(dp2860
g81
g82
ssg70
g2854
sg63
(lp2861
S'wsgi.multiprocess'
p2862
asbag56
(g77
g58
NtRp2863
(dp2864
g61
(dp2865
g88
g89
ssg70
g2854
sg63
(lp2866
S':'
asbag56
(g77
g58
NtRp2867
(dp2868
g61
(dp2869
sg70
g2854
sg63
(lp2870
g56
(g57
g58
NtRp2871
(dp2872
g61
(dp2873
g69
I3
ssg70
g2867
sg63
(lp2874
g99
asbasbasbag56
(g72
g58
NtRp2875
(dp2876
g61
(dp2877
sg70
g2385
sg63
(lp2878
g56
(g77
g58
NtRp2879
(dp2880
g61
(dp2881
g81
g82
ssg70
g2875
sg63
(lp2882
S'wsgi.multithread'
p2883
asbag56
(g77
g58
NtRp2884
(dp2885
g61
(dp2886
g88
g89
ssg70
g2875
sg63
(lp2887
S':'
asbag56
(g77
g58
NtRp2888
(dp2889
g61
(dp2890
sg70
g2875
sg63
(lp2891
g56
(g57
g58
NtRp2892
(dp2893
g61
(dp2894
g69
I3
ssg70
g2888
sg63
(lp2895
g1656
asbasbasbag56
(g72
g58
NtRp2896
(dp2897
g61
(dp2898
sg70
g2385
sg63
(lp2899
g56
(g77
g58
NtRp2900
(dp2901
g61
(dp2902
g81
g82
ssg70
g2896
sg63
(lp2903
S'wsgi.run_once'
p2904
asbag56
(g77
g58
NtRp2905
(dp2906
g61
(dp2907
g88
g89
ssg70
g2896
sg63
(lp2908
S':'
asbag56
(g77
g58
NtRp2909
(dp2910
g61
(dp2911
sg70
g2896
sg63
(lp2912
g56
(g57
g58
NtRp2913
(dp2914
g61
(dp2915
g69
I3
ssg70
g2909
sg63
(lp2916
g99
asbasbasbag56
(g72
g58
NtRp2917
(dp2918
g61
(dp2919
sg70
g2385
sg63
(lp2920
g56
(g77
g58
NtRp2921
(dp2922
g61
(dp2923
g81
g82
ssg70
g2917
sg63
(lp2924
S'wsgi.url_scheme'
p2925
asbag56
(g77
g58
NtRp2926
(dp2927
g61
(dp2928
g88
g89
ssg70
g2917
sg63
(lp2929
S':'
asbag56
(g77
g58
NtRp2930
(dp2931
g61
(dp2932
sg70
g2917
sg63
(lp2933
g56
(g57
g58
NtRp2934
(dp2935
g61
(dp2936
g69
I3
ssg70
g2930
sg63
(lp2937
g1699
asbasbasbag56
(g72
g58
NtRp2938
(dp2939
g61
(dp2940
sg70
g2385
sg63
(lp2941
g56
(g77
g58
NtRp2942
(dp2943
g61
(dp2944
g81
g82
ssg70
g2938
sg63
(lp2945
S'wsgi.version'
p2946
asbag56
(g77
g58
NtRp2947
(dp2948
g61
(dp2949
g88
g89
ssg70
g2938
sg63
(lp2950
S':'
asbag56
(g77
g58
NtRp2951
(dp2952
g61
(dp2953
sg70
g2938
sg63
(lp2954
g56
(g57
g58
NtRp2955
(dp2956
g61
(dp2957
g69
I3
ssg70
g2951
sg63
(lp2958
S'1'
asbasbasbasbasbasbasbasbasbasbasbasbasbsS'frames'
p2959
(lp2960
(dp2961
S'file'
p2962
S'/home/thomas/Dropbox/appz/2011/ddlagoon/public_html/gluon/restricted.py'
p2963
sS'dump'
p2964
(dp2965
S'environment'
p2966
S"{'A': <class 'gluon.html.A'>, 'Auth': <class 'gluon.tools.Auth'>, 'B': <class 'gluon.html.B'>, 'BEAUTIFY': <class 'gluon.html.BEAUTIFY'>, 'BODY': <class 'gluon.html.BODY'>, 'BR': <class 'gluon.html.BR'>, 'BUTTON': <class 'gluon.html.BUTTON'>, 'CAT': <class 'gluon.html.CAT'>, 'CENTER': <class 'gluon.html.CENTER'>, 'CLEANUP': <class 'gluon.validators.CLEANUP'>, ...}"
p2967
sS'ccode'
p2968
S'<code object <module> at 0x20285d0, file "/windo...lagoon/views/default/how_to_upload.html", line 1>'
p2969
ssS'lnum'
p2970
I194
sS'lines'
p2971
(dp2972
I192
S'        else:'
p2973
sI193
S'            ccode = compile2(code,layer)'
p2974
sI194
S'        exec ccode in environment'
p2975
sI195
S'    except HTTP:'
p2976
sI196
S'        raise'
p2977
sI197
S'    except Exception, error:'
p2978
sI198
S'        # XXX Show exception in Wing IDE if running in debugger'
p2979
sI189
S'    try:'
p2980
sI190
S'        if type(code) == types.CodeType:'
p2981
sI191
S'            ccode = code'
p2982
ssS'call'
p2983
S'(code="left_sidebar_enabled=right_sidebar_enabled=True\\n...nse.write(\'\\\\n  </body>\\\\n</html>\\\\n\', escape=False)", environment={\'A\': <class \'gluon.html.A\'>, \'Auth\': <class \'gluon.tools.Auth\'>, \'B\': <class \'gluon.html.B\'>, \'BEAUTIFY\': <class \'gluon.html.BEAUTIFY\'>, \'BODY\': <class \'gluon.html.BODY\'>, \'BR\': <class \'gluon.html.BR\'>, \'BUTTON\': <class \'gluon.html.BUTTON\'>, \'CAT\': <class \'gluon.html.CAT\'>, \'CENTER\': <class \'gluon.html.CENTER\'>, \'CLEANUP\': <class \'gluon.validators.CLEANUP\'>, ...}, layer=\'/windows/Users/Thomas/Dropbox/appz/2011/ddlagoon...cations/ddlagoon/views/default/how_to_upload.html\')'
p2984
sS'func'
p2985
S'restricted'
p2986
sa(dp2987
g2962
S'/windows/Users/Thomas/Dropbox/appz/2011/ddlagoon/public_html/applications/ddlagoon/views/default/how_to_upload.html'
p2988
sg2964
(dp2989
sg2970
I74
sg2971
(dp2990
I65
S'    response.write(XML(left_sidebar_style))'
p2991
sI66
S'    response.write(\' >\\n            <div style="padding: 4px;">\\n          \', escape=False)'
p2992
sI67
S'    response.write(\'<a href="/ddlagoon/default">Home</a> \', escape=False)'
p2993
sI68
S"    response.write('       \\n            </div>\\n          </div><!-- left_sidebar -->\\n      ', escape=False)"
p2994
sI69
S'    pass'
p2995
sI70
S'response.write(\'\\n\\n      <!-- content -->\\n      <div id="content" \', escape=False)'
p2996
sI71
S'response.write(XML(style_content))'
p2997
sI72
S"response.write(' >\\n        ', escape=False)"
p2998
sI73
S"response.write('\\r\\n', escape=False)"
p2999
sI74
S'if alloweed:'
p3000
sI75
S'    response.write(\'\\r\\n        Aller, on va apprendre \\xc3\\xa0 uploader ;)<br /><br />\\r\\n\\r\\n        <b><u>Table des mati\\xc3\\xa8res</u><br />\\r\\n            <a href="#twitter">Twitter Account</a><br />\\r\\n        <a href="#param">Param\\xc3\\xa8tres du programme</a><br />\\r\\n        &nbsp;&nbsp;&nbsp;&nbsp;<a href="#twitpic">Twitpic Account</a><br />\\r\\n        &nbsp;&nbsp;&nbsp;&nbsp;<a href="#pictures">Pictures Folder</a><br />\\r\\n        </b><br /><br />\\r\\n\\r\\n\\r\\n        <h1><a name="twitter"></a>Twitter Account</h1>\\r\\n        Tout d\\\'abord, il nous faut un compte Twitter.<br />\\r\\n        Utilisez un <b>COMPTE TWITTER BIDON</b> que vous n\\\'utilisez pas, que vous allez cr\\xc3\\xa9er pour l\\\'occasion, <u>et changer de temps en temps</u>.<br />\\r\\n        Allez sur <a href="http://www.twitter.com" target="_blank">Twitter.com</a> et cr\\xc3\\xa9ez un compte bidon, avec une adresse de type <b>un_mail_bidon@yopmail.com</b>.<br />\\r\\n        <u>Exemple:</u><br />\\r\\n        <img src="http://content.screencast.com/users/Sp00ky31/folders/Jing/media/98ca5436-e535-481a-80f2-ee6d1a31fc65/2011-11-08_2213.png" /><br />\\r\\n        <img src="http://content.screencast.com/users/Sp00ky31/folders/Jing/media/e8d1824e-323d-42a8-a4f9-f76dba200c0e/2011-11-08_2214.png" /><br /><br />\\r\\n        Allez sur http://<b>un_mail_bidon</b>.yopmail.com (en remplacant un_mail_bidon par votre email yopmail sans le "@yopmail.com") et confirmez votre e-mail addresse.<br />\\r\\n        <img src="http://content.screencast.com/users/Sp00ky31/folders/Jing/media/80e86354-8ee4-428c-9c4a-9b594f2f2033/2011-11-08_2219.png" /><br /><br />\\r\\n        Votre compte Twitter est cr\\xc3\\xa9\\xc3\\xa9 et le mail confirm\\xc3\\xa9 !<br />\\r\\n        <img src="http://content.screencast.com/users/Sp00ky31/folders/Jing/media/e21c4f1c-fd1c-4627-845c-cc301de06bb2/2011-11-08_2221.png" /><br /><br />\\r\\n        Time to go sur <a href="http://www.twitpic.com">TwitPic</a> et de se connecter avec le compte Twitter fra\\xc3\\xaechement cr\\xc3\\xa9\\xc3\\xa9.<br />\\r\\n        <!-- copy and paste. Modify height and width if desired. --> <object id="scPlayer"  width="1215" height="845" type="application/x-shockwave-flash" data="http://content.screencast.com/users/Sp00ky31/folders/Jing/media/6df58711-7d88-4d3e-978c-58596e7e35ff/jingswfplayer.swf" > <param name="movie" value="http://content.screencast.com/users/Sp00ky31/folders/Jing/media/6df58711-7d88-4d3e-978c-58596e7e35ff/jingswfplayer.swf" /> <param name="quality" value="high" /> <param name="bgcolor" value="#FFFFFF" /> <param name="flashVars" value="thumb=http://content.screencast.com/users/Sp00ky31/folders/Jing/media/6df58711-7d88-4d3e-978c-58596e7e35ff/FirstFrame.jpg&containerwidth=1215&containerheight=845&content=http://content.screencast.com/users/Sp00ky31/folders/Jing/media/6df58711-7d88-4d3e-978c-58596e7e35ff/2011-11-08_2224.swf&blurover=false" /> <param name="allowFullScreen" value="true" /> <param name="scale" value="showall" /> <param name="allowScriptAccess" value="always" /> <param name="base" value="http://content.screencast.com/users/Sp00ky31/folders/Jing/media/6df58711-7d88-4d3e-978c-58596e7e35ff/" /> Unable to display content. Adobe Flash is required.</object>\\r\\n        <br /><br />\\r\\n        Si tout a bien fonctionn\\xc3\\xa9, vous \\xc3\\xaates connect\\xc3\\xa9 avec votre compte Twitter sous Twitpic, pr\\xc3\\xaat \\xc3\\xa0 utiliser ce compte pour uploader !<br />\\r\\n        <img src="http://content.screencast.com/users/Sp00ky31/folders/Jing/media/91cf414b-7557-403c-beaa-c21778aa2fb3/2011-11-08_2226.png" />\\r\\n<br /><br />\\r\\n        <h1><a name="param"></a>Param\\xc3\\xa8tres du programme</h1>\\r\\n        <h2><a name="twitpic"></a>Twitpic Account</h2>\\r\\n        \', escape=False)'
p3001
sI76
S"    response.write(tuto['start'])"
p3002
sI77
S'    response.write(\'<br />\\r\\n        <img src="/ddlagoon/static/images/tuto_upload/01.png" /><br /><br />\\r\\n        \', escape=False)'
p3003
sI78
S"    response.write(tuto['go_to_profile_pre'])"
p3004
sI79
S'    response.write(\' <a href="/ddlagoon/default/user/profile" target="_blank">\', escape=False)'
p3005
sI80
S"    response.write(tuto['profile'])"
p3006
sI81
S"    response.write('</a> ', escape=False)"
p3007
sI82
S"    response.write(tuto['go_to_profile_suf'])"
p3008
sI83
S"    response.write('<br /><br />\\r\\n        ', escape=False)"
p3009
sI84
S"    response.write(tuto['login'])"
p3010
ssg2983
S'()'
p3011
sg2985
S'<module>'
p3012
sasS'pyver'
p3013
S'Python 2.6.7: /usr/bin/python2.6'
p3014
sS'session'
p3015
g56
(g57
g58
NtRp3016
(dp3017
g61
(dp3018
sg63
(lp3019
g56
(g65
g58
NtRp3020
(dp3021
g61
(dp3022
g69
I5
ssg70
Nsg63
(lp3023
g56
(g72
g58
NtRp3024
(dp3025
g61
(dp3026
sg70
g3020
sg63
(lp3027
g56
(g77
g58
NtRp3028
(dp3029
g61
(dp3030
g81
g82
ssg70
g3024
sg63
(lp3031
S'auth'
p3032
asbag56
(g77
g58
NtRp3033
(dp3034
g61
(dp3035
g88
g89
ssg70
g3024
sg63
(lp3036
S':'
asbag56
(g77
g58
NtRp3037
(dp3038
g61
(dp3039
sg70
g3024
sg63
(lp3040
g56
(g57
g58
NtRp3041
(dp3042
g61
(dp3043
g69
I5
ssg70
g3037
sg63
(lp3044
g56
(g65
g58
NtRp3045
(dp3046
g61
(dp3047
g69
I4
ssg70
Nsg63
(lp3048
g56
(g72
g58
NtRp3049
(dp3050
g61
(dp3051
sg70
g3045
sg63
(lp3052
g56
(g77
g58
NtRp3053
(dp3054
g61
(dp3055
g81
g82
ssg70
g3049
sg63
(lp3056
S'expiration'
p3057
asbag56
(g77
g58
NtRp3058
(dp3059
g61
(dp3060
g88
g89
ssg70
g3049
sg63
(lp3061
S':'
asbag56
(g77
g58
NtRp3062
(dp3063
g61
(dp3064
sg70
g3049
sg63
(lp3065
g56
(g57
g58
NtRp3066
(dp3067
g61
(dp3068
g69
I4
ssg70
g3062
sg63
(lp3069
S'2592000'
p3070
asbasbasbag56
(g72
g58
NtRp3071
(dp3072
g61
(dp3073
sg70
g3045
sg63
(lp3074
g56
(g77
g58
NtRp3075
(dp3076
g61
(dp3077
g81
g82
ssg70
g3071
sg63
(lp3078
S'hmac_key'
p3079
asbag56
(g77
g58
NtRp3080
(dp3081
g61
(dp3082
g88
g89
ssg70
g3071
sg63
(lp3083
S':'
asbag56
(g77
g58
NtRp3084
(dp3085
g61
(dp3086
sg70
g3071
sg63
(lp3087
g56
(g57
g58
NtRp3088
(dp3089
g61
(dp3090
g69
I4
ssg70
g3084
sg63
(lp3091
S'0e2aa543-53e1-46ce-9e3b-2c35050c2362'
p3092
asbasbasbag56
(g72
g58
NtRp3093
(dp3094
g61
(dp3095
sg70
g3045
sg63
(lp3096
g56
(g77
g58
NtRp3097
(dp3098
g61
(dp3099
g81
g82
ssg70
g3093
sg63
(lp3100
S'last_visit'
p3101
asbag56
(g77
g58
NtRp3102
(dp3103
g61
(dp3104
g88
g89
ssg70
g3093
sg63
(lp3105
S':'
asbag56
(g77
g58
NtRp3106
(dp3107
g61
(dp3108
sg70
g3093
sg63
(lp3109
g56
(g57
g58
NtRp3110
(dp3111
g61
(dp3112
g69
I4
ssg70
g3106
sg63
(lp3113
S'datetime.datetime(2011, 11, 9, 10, 1, 38, 305909)'
p3114
asbasbasbag56
(g72
g58
NtRp3115
(dp3116
g61
(dp3117
sg70
g3045
sg63
(lp3118
g56
(g77
g58
NtRp3119
(dp3120
g61
(dp3121
g81
g82
ssg70
g3115
sg63
(lp3122
S'remember'
p3123
asbag56
(g77
g58
NtRp3124
(dp3125
g61
(dp3126
g88
g89
ssg70
g3115
sg63
(lp3127
S':'
asbag56
(g77
g58
NtRp3128
(dp3129
g61
(dp3130
sg70
g3115
sg63
(lp3131
g56
(g57
g58
NtRp3132
(dp3133
g61
(dp3134
g69
I4
ssg70
g3128
sg63
(lp3135
g99
asbasbasbag56
(g72
g58
NtRp3136
(dp3137
g61
(dp3138
sg70
g3045
sg63
(lp3139
g56
(g77
g58
NtRp3140
(dp3141
g61
(dp3142
g81
g82
ssg70
g3136
sg63
(lp3143
S'user'
p3144
asbag56
(g77
g58
NtRp3145
(dp3146
g61
(dp3147
g88
g89
ssg70
g3136
sg63
(lp3148
S':'
asbag56
(g77
g58
NtRp3149
(dp3150
g61
(dp3151
sg70
g3136
sg63
(lp3152
g56
(g57
g58
NtRp3153
(dp3154
g61
(dp3155
g69
I4
ssg70
g3149
sg63
(lp3156
g56
(g65
g58
NtRp3157
(dp3158
g61
(dp3159
g69
I3
ssg70
Nsg63
(lp3160
g56
(g72
g58
NtRp3161
(dp3162
g61
(dp3163
sg70
g3157
sg63
(lp3164
g56
(g77
g58
NtRp3165
(dp3166
g61
(dp3167
g81
g82
ssg70
g3161
sg63
(lp3168
S'allow_porn'
p3169
asbag56
(g77
g58
NtRp3170
(dp3171
g61
(dp3172
g88
g89
ssg70
g3161
sg63
(lp3173
S':'
asbag56
(g77
g58
NtRp3174
(dp3175
g61
(dp3176
sg70
g3161
sg63
(lp3177
g56
(g57
g58
NtRp3178
(dp3179
g61
(dp3180
g69
I3
ssg70
g3174
sg63
(lp3181
g99
asbasbasbag56
(g72
g58
NtRp3182
(dp3183
g61
(dp3184
sg70
g3157
sg63
(lp3185
g56
(g77
g58
NtRp3186
(dp3187
g61
(dp3188
g81
g82
ssg70
g3182
sg63
(lp3189
S'email'
p3190
asbag56
(g77
g58
NtRp3191
(dp3192
g61
(dp3193
g88
g89
ssg70
g3182
sg63
(lp3194
S':'
asbag56
(g77
g58
NtRp3195
(dp3196
g61
(dp3197
sg70
g3182
sg63
(lp3198
g56
(g57
g58
NtRp3199
(dp3200
g61
(dp3201
g69
I3
ssg70
g3195
sg63
(lp3202
S'thomas.dallagnese@gmail.com'
p3203
asbasbasbag56
(g72
g58
NtRp3204
(dp3205
g61
(dp3206
sg70
g3157
sg63
(lp3207
g56
(g77
g58
NtRp3208
(dp3209
g61
(dp3210
g81
g82
ssg70
g3204
sg63
(lp3211
S'first_name'
p3212
asbag56
(g77
g58
NtRp3213
(dp3214
g61
(dp3215
g88
g89
ssg70
g3204
sg63
(lp3216
S':'
asbag56
(g77
g58
NtRp3217
(dp3218
g61
(dp3219
sg70
g3204
sg63
(lp3220
g56
(g57
g58
NtRp3221
(dp3222
g61
(dp3223
g69
I3
ssg70
g3217
sg63
(lp3224
S'Thomas'
p3225
asbasbasbag56
(g72
g58
NtRp3226
(dp3227
g61
(dp3228
sg70
g3157
sg63
(lp3229
g56
(g77
g58
NtRp3230
(dp3231
g61
(dp3232
g81
g82
ssg70
g3226
sg63
(lp3233
S'id'
p3234
asbag56
(g77
g58
NtRp3235
(dp3236
g61
(dp3237
g88
g89
ssg70
g3226
sg63
(lp3238
S':'
asbag56
(g77
g58
NtRp3239
(dp3240
g61
(dp3241
sg70
g3226
sg63
(lp3242
g56
(g57
g58
NtRp3243
(dp3244
g61
(dp3245
g69
I3
ssg70
g3239
sg63
(lp3246
S'1'
asbasbasbag56
(g72
g58
NtRp3247
(dp3248
g61
(dp3249
sg70
g3157
sg63
(lp3250
g56
(g77
g58
NtRp3251
(dp3252
g61
(dp3253
g81
g82
ssg70
g3247
sg63
(lp3254
S'is_uploader'
p3255
asbag56
(g77
g58
NtRp3256
(dp3257
g61
(dp3258
g88
g89
ssg70
g3247
sg63
(lp3259
S':'
asbag56
(g77
g58
NtRp3260
(dp3261
g61
(dp3262
sg70
g3247
sg63
(lp3263
g56
(g57
g58
NtRp3264
(dp3265
g61
(dp3266
g69
I3
ssg70
g3260
sg63
(lp3267
g1656
asbasbasbag56
(g72
g58
NtRp3268
(dp3269
g61
(dp3270
sg70
g3157
sg63
(lp3271
g56
(g77
g58
NtRp3272
(dp3273
g61
(dp3274
g81
g82
ssg70
g3268
sg63
(lp3275
S'last_name'
p3276
asbag56
(g77
g58
NtRp3277
(dp3278
g61
(dp3279
g88
g89
ssg70
g3268
sg63
(lp3280
S':'
asbag56
(g77
g58
NtRp3281
(dp3282
g61
(dp3283
sg70
g3268
sg63
(lp3284
g56
(g57
g58
NtRp3285
(dp3286
g61
(dp3287
g69
I3
ssg70
g3281
sg63
(lp3288
S"Dall'Agnese"
p3289
asbasbasbag56
(g72
g58
NtRp3290
(dp3291
g61
(dp3292
sg70
g3157
sg63
(lp3293
g56
(g77
g58
NtRp3294
(dp3295
g61
(dp3296
g81
g82
ssg70
g3290
sg63
(lp3297
S'nickname'
p3298
asbag56
(g77
g58
NtRp3299
(dp3300
g61
(dp3301
g88
g89
ssg70
g3290
sg63
(lp3302
S':'
asbag56
(g77
g58
NtRp3303
(dp3304
g61
(dp3305
sg70
g3290
sg63
(lp3306
g56
(g57
g58
NtRp3307
(dp3308
g61
(dp3309
g69
I3
ssg70
g3303
sg63
(lp3310
S'$p00ky'
p3311
asbasbasbag56
(g72
g58
NtRp3312
(dp3313
g61
(dp3314
sg70
g3157
sg63
(lp3315
g56
(g77
g58
NtRp3316
(dp3317
g61
(dp3318
g81
g82
ssg70
g3312
sg63
(lp3319
S'password'
p3320
asbag56
(g77
g58
NtRp3321
(dp3322
g61
(dp3323
g88
g89
ssg70
g3312
sg63
(lp3324
S':'
asbag56
(g77
g58
NtRp3325
(dp3326
g61
(dp3327
sg70
g3312
sg63
(lp3328
g56
(g57
g58
NtRp3329
(dp3330
g61
(dp3331
g69
I3
ssg70
g3325
sg63
(lp3332
S'None'
p3333
asbasbasbag56
(g72
g58
NtRp3334
(dp3335
g61
(dp3336
sg70
g3157
sg63
(lp3337
g56
(g77
g58
NtRp3338
(dp3339
g61
(dp3340
g81
g82
ssg70
g3334
sg63
(lp3341
S'registration_key'
p3342
asbag56
(g77
g58
NtRp3343
(dp3344
g61
(dp3345
g88
g89
ssg70
g3334
sg63
(lp3346
S':'
asbag56
(g77
g58
NtRp3347
(dp3348
g61
(dp3349
sg70
g3334
sg63
(lp3350
g56
(g57
g58
NtRp3351
(dp3352
g61
(dp3353
g69
I3
ssg70
g3347
sg63
(lp3354
S''
asbasbasbag56
(g72
g58
NtRp3355
(dp3356
g61
(dp3357
sg70
g3157
sg63
(lp3358
g56
(g77
g58
NtRp3359
(dp3360
g61
(dp3361
g81
g82
ssg70
g3355
sg63
(lp3362
S'reset_password_key'
p3363
asbag56
(g77
g58
NtRp3364
(dp3365
g61
(dp3366
g88
g89
ssg70
g3355
sg63
(lp3367
S':'
asbag56
(g77
g58
NtRp3368
(dp3369
g61
(dp3370
sg70
g3355
sg63
(lp3371
g56
(g57
g58
NtRp3372
(dp3373
g61
(dp3374
g69
I3
ssg70
g3368
sg63
(lp3375
S''
asbasbasbag56
(g72
g58
NtRp3376
(dp3377
g61
(dp3378
sg70
g3157
sg63
(lp3379
g56
(g77
g58
NtRp3380
(dp3381
g61
(dp3382
g81
g82
ssg70
g3376
sg63
(lp3383
S'uploader_key'
p3384
asbag56
(g77
g58
NtRp3385
(dp3386
g61
(dp3387
g88
g89
ssg70
g3376
sg63
(lp3388
S':'
asbag56
(g77
g58
NtRp3389
(dp3390
g61
(dp3391
sg70
g3376
sg63
(lp3392
g56
(g57
g58
NtRp3393
(dp3394
g61
(dp3395
g69
I3
ssg70
g3389
sg63
(lp3396
S'50eced9b22d27bc6a9b28d6e600d34dc'
p3397
asbasbasbasbasbasbasbasbasbasbasbag56
(g72
g58
NtRp3398
(dp3399
g61
(dp3400
sg70
g3020
sg63
(lp3401
g56
(g77
g58
NtRp3402
(dp3403
g61
(dp3404
g81
g82
ssg70
g3398
sg63
(lp3405
S'last_query'
p3406
asbag56
(g77
g58
NtRp3407
(dp3408
g61
(dp3409
g88
g89
ssg70
g3398
sg63
(lp3410
S':'
asbag56
(g77
g58
NtRp3411
(dp3412
g61
(dp3413
sg70
g3398
sg63
(lp3414
g56
(g57
g58
NtRp3415
(dp3416
g61
(dp3417
g69
I5
ssg70
g3411
sg63
(lp3418
S'db.auth_user.id>0'
p3419
asbasbasbasbasbsS'etype'
p3420
S"<type 'exceptions.NameError'>"
p3421
sS'date'
p3422
S'Wed Nov  9 10:08:32 2011'
p3423
sS'response'
p3424
g56
(g57
g58
NtRp3425
(dp3426
g61
(dp3427
sg63
(lp3428
g56
(g65
g58
NtRp3429
(dp3430
g61
(dp3431
g69
I5
ssg70
Nsg63
(lp3432
g56
(g72
g58
NtRp3433
(dp3434
g61
(dp3435
sg70
g3429
sg63
(lp3436
g56
(g77
g58
NtRp3437
(dp3438
g61
(dp3439
g81
g82
ssg70
g3433
sg63
(lp3440
g154
asbag56
(g77
g58
NtRp3441
(dp3442
g61
(dp3443
g88
g89
ssg70
g3433
sg63
(lp3444
S':'
asbag56
(g77
g58
NtRp3445
(dp3446
g61
(dp3447
sg70
g3433
sg63
(lp3448
g56
(g57
g58
NtRp3449
(dp3450
g61
(dp3451
g69
I5
ssg70
g3445
sg63
(lp3452
S'<cStringIO.StringO object at 0x1ff7880>'
p3453
asbasbasbag56
(g72
g58
NtRp3454
(dp3455
g61
(dp3456
sg70
g3429
sg63
(lp3457
g56
(g77
g58
NtRp3458
(dp3459
g61
(dp3460
g81
g82
ssg70
g3454
sg63
(lp3461
g220
asbag56
(g77
g58
NtRp3462
(dp3463
g61
(dp3464
g88
g89
ssg70
g3454
sg63
(lp3465
S':'
asbag56
(g77
g58
NtRp3466
(dp3467
g61
(dp3468
sg70
g3454
sg63
(lp3469
g56
(g57
g58
NtRp3470
(dp3471
g61
(dp3472
g69
I5
ssg70
g3466
sg63
(lp3473
g56
(g65
g58
NtRp3474
(dp3475
g61
(dp3476
g69
I4
ssg70
Nsg63
(lp3477
g56
(g72
g58
NtRp3478
(dp3479
g61
(dp3480
sg70
g3474
sg63
(lp3481
g56
(g77
g58
NtRp3482
(dp3483
g61
(dp3484
g81
g82
ssg70
g3478
sg63
(lp3485
S'session_id_ddlagoon'
p3486
asbag56
(g77
g58
NtRp3487
(dp3488
g61
(dp3489
g88
g89
ssg70
g3478
sg63
(lp3490
S':'
asbag56
(g77
g58
NtRp3491
(dp3492
g61
(dp3493
sg70
g3478
sg63
(lp3494
g56
(g57
g58
NtRp3495
(dp3496
g61
(dp3497
g69
I4
ssg70
g3491
sg63
(lp3498
g56
(g65
g58
NtRp3499
(dp3500
g61
(dp3501
g69
I3
ssg70
Nsg63
(lp3502
g56
(g72
g58
NtRp3503
(dp3504
g61
(dp3505
sg70
g3499
sg63
(lp3506
g56
(g77
g58
NtRp3507
(dp3508
g61
(dp3509
g81
g82
ssg70
g3503
sg63
(lp3510
g270
asbag56
(g77
g58
NtRp3511
(dp3512
g61
(dp3513
g88
g89
ssg70
g3503
sg63
(lp3514
S':'
asbag56
(g77
g58
NtRp3515
(dp3516
g61
(dp3517
sg70
g3503
sg63
(lp3518
g56
(g57
g58
NtRp3519
(dp3520
g61
(dp3521
g69
I3
ssg70
g3515
sg63
(lp3522
S''
asbasbasbag56
(g72
g58
NtRp3523
(dp3524
g61
(dp3525
sg70
g3499
sg63
(lp3526
g56
(g77
g58
NtRp3527
(dp3528
g61
(dp3529
g81
g82
ssg70
g3523
sg63
(lp3530
g291
asbag56
(g77
g58
NtRp3531
(dp3532
g61
(dp3533
g88
g89
ssg70
g3523
sg63
(lp3534
S':'
asbag56
(g77
g58
NtRp3535
(dp3536
g61
(dp3537
sg70
g3523
sg63
(lp3538
g56
(g57
g58
NtRp3539
(dp3540
g61
(dp3541
g69
I3
ssg70
g3535
sg63
(lp3542
S''
asbasbasbag56
(g72
g58
NtRp3543
(dp3544
g61
(dp3545
sg70
g3499
sg63
(lp3546
g56
(g77
g58
NtRp3547
(dp3548
g61
(dp3549
g81
g82
ssg70
g3543
sg63
(lp3550
g312
asbag56
(g77
g58
NtRp3551
(dp3552
g61
(dp3553
g88
g89
ssg70
g3543
sg63
(lp3554
S':'
asbag56
(g77
g58
NtRp3555
(dp3556
g61
(dp3557
sg70
g3543
sg63
(lp3558
g56
(g57
g58
NtRp3559
(dp3560
g61
(dp3561
g69
I3
ssg70
g3555
sg63
(lp3562
S''
asbasbasbag56
(g72
g58
NtRp3563
(dp3564
g61
(dp3565
sg70
g3499
sg63
(lp3566
g56
(g77
g58
NtRp3567
(dp3568
g61
(dp3569
g81
g82
ssg70
g3563
sg63
(lp3570
g333
asbag56
(g77
g58
NtRp3571
(dp3572
g61
(dp3573
g88
g89
ssg70
g3563
sg63
(lp3574
S':'
asbag56
(g77
g58
NtRp3575
(dp3576
g61
(dp3577
sg70
g3563
sg63
(lp3578
g56
(g57
g58
NtRp3579
(dp3580
g61
(dp3581
g69
I3
ssg70
g3575
sg63
(lp3582
S''
asbasbasbag56
(g72
g58
NtRp3583
(dp3584
g61
(dp3585
sg70
g3499
sg63
(lp3586
g56
(g77
g58
NtRp3587
(dp3588
g61
(dp3589
g81
g82
ssg70
g3583
sg63
(lp3590
g354
asbag56
(g77
g58
NtRp3591
(dp3592
g61
(dp3593
g88
g89
ssg70
g3583
sg63
(lp3594
S':'
asbag56
(g77
g58
NtRp3595
(dp3596
g61
(dp3597
sg70
g3583
sg63
(lp3598
g56
(g57
g58
NtRp3599
(dp3600
g61
(dp3601
g69
I3
ssg70
g3595
sg63
(lp3602
S''
asbasbasbag56
(g72
g58
NtRp3603
(dp3604
g61
(dp3605
sg70
g3499
sg63
(lp3606
g56
(g77
g58
NtRp3607
(dp3608
g61
(dp3609
g81
g82
ssg70
g3603
sg63
(lp3610
g375
asbag56
(g77
g58
NtRp3611
(dp3612
g61
(dp3613
g88
g89
ssg70
g3603
sg63
(lp3614
S':'
asbag56
(g77
g58
NtRp3615
(dp3616
g61
(dp3617
sg70
g3603
sg63
(lp3618
g56
(g57
g58
NtRp3619
(dp3620
g61
(dp3621
g69
I3
ssg70
g3615
sg63
(lp3622
S'/'
asbasbasbag56
(g72
g58
NtRp3623
(dp3624
g61
(dp3625
sg70
g3499
sg63
(lp3626
g56
(g77
g58
NtRp3627
(dp3628
g61
(dp3629
g81
g82
ssg70
g3623
sg63
(lp3630
g396
asbag56
(g77
g58
NtRp3631
(dp3632
g61
(dp3633
g88
g89
ssg70
g3623
sg63
(lp3634
S':'
asbag56
(g77
g58
NtRp3635
(dp3636
g61
(dp3637
sg70
g3623
sg63
(lp3638
g56
(g57
g58
NtRp3639
(dp3640
g61
(dp3641
g69
I3
ssg70
g3635
sg63
(lp3642
S''
asbasbasbag56
(g72
g58
NtRp3643
(dp3644
g61
(dp3645
sg70
g3499
sg63
(lp3646
g56
(g77
g58
NtRp3647
(dp3648
g61
(dp3649
g81
g82
ssg70
g3643
sg63
(lp3650
g417
asbag56
(g77
g58
NtRp3651
(dp3652
g61
(dp3653
g88
g89
ssg70
g3643
sg63
(lp3654
S':'
asbag56
(g77
g58
NtRp3655
(dp3656
g61
(dp3657
sg70
g3643
sg63
(lp3658
g56
(g57
g58
NtRp3659
(dp3660
g61
(dp3661
g69
I3
ssg70
g3655
sg63
(lp3662
S''
asbasbasbasbasbasbasbasbasbasbasbag56
(g72
g58
NtRp3663
(dp3664
g61
(dp3665
sg70
g3429
sg63
(lp3666
g56
(g77
g58
NtRp3667
(dp3668
g61
(dp3669
g81
g82
ssg70
g3663
sg63
(lp3670
S'files'
p3671
asbag56
(g77
g58
NtRp3672
(dp3673
g61
(dp3674
g88
g89
ssg70
g3663
sg63
(lp3675
S':'
asbag56
(g77
g58
NtRp3676
(dp3677
g61
(dp3678
sg70
g3663
sg63
(lp3679
g56
(g57
g58
NtRp3680
(dp3681
g61
(dp3682
g69
I5
ssg70
g3676
sg63
(lp3683
g56
(g65
g58
NtRp3684
(dp3685
g61
(dp3686
g69
I4
ssg70
Nsg63
(lp3687
g56
(g72
g58
NtRp3688
(dp3689
g61
(dp3690
sg70
g3684
sg63
(lp3691
g56
(g77
g58
NtRp3692
(dp3693
g61
(dp3694
sg70
g3688
sg63
(lp3695
g56
(g57
g58
NtRp3696
(dp3697
g61
(dp3698
g69
I4
ssg70
g3692
sg63
(lp3699
S'/ddlagoon/static/js/jquery.js'
p3700
asbasbasbag56
(g72
g58
NtRp3701
(dp3702
g61
(dp3703
sg70
g3684
sg63
(lp3704
g56
(g77
g58
NtRp3705
(dp3706
g61
(dp3707
sg70
g3701
sg63
(lp3708
g56
(g57
g58
NtRp3709
(dp3710
g61
(dp3711
g69
I4
ssg70
g3705
sg63
(lp3712
S'/ddlagoon/static/css/anytime.css'
p3713
asbasbasbag56
(g72
g58
NtRp3714
(dp3715
g61
(dp3716
sg70
g3684
sg63
(lp3717
g56
(g77
g58
NtRp3718
(dp3719
g61
(dp3720
sg70
g3714
sg63
(lp3721
g56
(g57
g58
NtRp3722
(dp3723
g61
(dp3724
g69
I4
ssg70
g3718
sg63
(lp3725
S'/ddlagoon/static/js/anytime.js'
p3726
asbasbasbag56
(g72
g58
NtRp3727
(dp3728
g61
(dp3729
sg70
g3684
sg63
(lp3730
g56
(g77
g58
NtRp3731
(dp3732
g61
(dp3733
sg70
g3727
sg63
(lp3734
g56
(g57
g58
NtRp3735
(dp3736
g61
(dp3737
g69
I4
ssg70
g3731
sg63
(lp3738
S'/ddlagoon/static/css/base.css'
p3739
asbasbasbag56
(g72
g58
NtRp3740
(dp3741
g61
(dp3742
sg70
g3684
sg63
(lp3743
g56
(g77
g58
NtRp3744
(dp3745
g61
(dp3746
sg70
g3740
sg63
(lp3747
g56
(g57
g58
NtRp3748
(dp3749
g61
(dp3750
g69
I4
ssg70
g3744
sg63
(lp3751
S'/ddlagoon/static/css/superfish.css'
p3752
asbasbasbag56
(g72
g58
NtRp3753
(dp3754
g61
(dp3755
sg70
g3684
sg63
(lp3756
g56
(g77
g58
NtRp3757
(dp3758
g61
(dp3759
sg70
g3753
sg63
(lp3760
g56
(g57
g58
NtRp3761
(dp3762
g61
(dp3763
g69
I4
ssg70
g3757
sg63
(lp3764
S'/ddlagoon/static/js/superfish.js'
p3765
asbasbasbasbasbasbasbag56
(g72
g58
NtRp3766
(dp3767
g61
(dp3768
sg70
g3429
sg63
(lp3769
g56
(g77
g58
NtRp3770
(dp3771
g61
(dp3772
g81
g82
ssg70
g3766
sg63
(lp3773
S'flash'
p3774
asbag56
(g77
g58
NtRp3775
(dp3776
g61
(dp3777
g88
g89
ssg70
g3766
sg63
(lp3778
S':'
asbag56
(g77
g58
NtRp3779
(dp3780
g61
(dp3781
sg70
g3766
sg63
(lp3782
g56
(g57
g58
NtRp3783
(dp3784
g61
(dp3785
g69
I5
ssg70
g3779
sg63
(lp3786
S''
asbasbasbag56
(g72
g58
NtRp3787
(dp3788
g61
(dp3789
sg70
g3429
sg63
(lp3790
g56
(g77
g58
NtRp3791
(dp3792
g61
(dp3793
g81
g82
ssg70
g3787
sg63
(lp3794
S'generic_patterns'
p3795
asbag56
(g77
g58
NtRp3796
(dp3797
g61
(dp3798
g88
g89
ssg70
g3787
sg63
(lp3799
S':'
asbag56
(g77
g58
NtRp3800
(dp3801
g61
(dp3802
sg70
g3787
sg63
(lp3803
g56
(g57
g58
NtRp3804
(dp3805
g61
(dp3806
g69
I5
ssg70
g3800
sg63
(lp3807
g56
(g65
g58
NtRp3808
(dp3809
g61
(dp3810
g69
I4
ssg70
Nsg63
(lp3811
g56
(g72
g58
NtRp3812
(dp3813
g61
(dp3814
sg70
g3808
sg63
(lp3815
g56
(g77
g58
NtRp3816
(dp3817
g61
(dp3818
sg70
g3812
sg63
(lp3819
g56
(g57
g58
NtRp3820
(dp3821
g61
(dp3822
g69
I4
ssg70
g3816
sg63
(lp3823
S'*'
asbasbasbasbasbasbasbag56
(g72
g58
NtRp3824
(dp3825
g61
(dp3826
sg70
g3429
sg63
(lp3827
g56
(g77
g58
NtRp3828
(dp3829
g61
(dp3830
g81
g82
ssg70
g3824
sg63
(lp3831
S'headers'
p3832
asbag56
(g77
g58
NtRp3833
(dp3834
g61
(dp3835
g88
g89
ssg70
g3824
sg63
(lp3836
S':'
asbag56
(g77
g58
NtRp3837
(dp3838
g61
(dp3839
sg70
g3824
sg63
(lp3840
g56
(g57
g58
NtRp3841
(dp3842
g61
(dp3843
g69
I5
ssg70
g3837
sg63
(lp3844
g56
(g65
g58
NtRp3845
(dp3846
g61
(dp3847
g69
I4
ssg70
Nsg63
(lp3848
g56
(g72
g58
NtRp3849
(dp3850
g61
(dp3851
sg70
g3845
sg63
(lp3852
g56
(g77
g58
NtRp3853
(dp3854
g61
(dp3855
g81
g82
ssg70
g3849
sg63
(lp3856
S'Cache-Control'
p3857
asbag56
(g77
g58
NtRp3858
(dp3859
g61
(dp3860
g88
g89
ssg70
g3849
sg63
(lp3861
S':'
asbag56
(g77
g58
NtRp3862
(dp3863
g61
(dp3864
sg70
g3849
sg63
(lp3865
g56
(g57
g58
NtRp3866
(dp3867
g61
(dp3868
g69
I4
ssg70
g3862
sg63
(lp3869
S'no-store, no-cache, must-revalidate, post-check=0, pre-check=0'
p3870
asbasbasbag56
(g72
g58
NtRp3871
(dp3872
g61
(dp3873
sg70
g3845
sg63
(lp3874
g56
(g77
g58
NtRp3875
(dp3876
g61
(dp3877
g81
g82
ssg70
g3871
sg63
(lp3878
S'Content-Type'
p3879
asbag56
(g77
g58
NtRp3880
(dp3881
g61
(dp3882
g88
g89
ssg70
g3871
sg63
(lp3883
S':'
asbag56
(g77
g58
NtRp3884
(dp3885
g61
(dp3886
sg70
g3871
sg63
(lp3887
g56
(g57
g58
NtRp3888
(dp3889
g61
(dp3890
g69
I4
ssg70
g3884
sg63
(lp3891
S'text/html; charset=utf-8'
p3892
asbasbasbag56
(g72
g58
NtRp3893
(dp3894
g61
(dp3895
sg70
g3845
sg63
(lp3896
g56
(g77
g58
NtRp3897
(dp3898
g61
(dp3899
g81
g82
ssg70
g3893
sg63
(lp3900
S'Expires'
p3901
asbag56
(g77
g58
NtRp3902
(dp3903
g61
(dp3904
g88
g89
ssg70
g3893
sg63
(lp3905
S':'
asbag56
(g77
g58
NtRp3906
(dp3907
g61
(dp3908
sg70
g3893
sg63
(lp3909
g56
(g57
g58
NtRp3910
(dp3911
g61
(dp3912
g69
I4
ssg70
g3906
sg63
(lp3913
S'Wed, 09 Nov 2011 10:08:32 GMT'
p3914
asbasbasbag56
(g72
g58
NtRp3915
(dp3916
g61
(dp3917
sg70
g3845
sg63
(lp3918
g56
(g77
g58
NtRp3919
(dp3920
g61
(dp3921
g81
g82
ssg70
g3915
sg63
(lp3922
S'Pragma'
p3923
asbag56
(g77
g58
NtRp3924
(dp3925
g61
(dp3926
g88
g89
ssg70
g3915
sg63
(lp3927
S':'
asbag56
(g77
g58
NtRp3928
(dp3929
g61
(dp3930
sg70
g3915
sg63
(lp3931
g56
(g57
g58
NtRp3932
(dp3933
g61
(dp3934
g69
I4
ssg70
g3928
sg63
(lp3935
S'no-cache'
p3936
asbasbasbag56
(g72
g58
NtRp3937
(dp3938
g61
(dp3939
sg70
g3845
sg63
(lp3940
g56
(g77
g58
NtRp3941
(dp3942
g61
(dp3943
g81
g82
ssg70
g3937
sg63
(lp3944
S'X-Powered-By'
p3945
asbag56
(g77
g58
NtRp3946
(dp3947
g61
(dp3948
g88
g89
ssg70
g3937
sg63
(lp3949
S':'
asbag56
(g77
g58
NtRp3950
(dp3951
g61
(dp3952
sg70
g3937
sg63
(lp3953
g56
(g57
g58
NtRp3954
(dp3955
g61
(dp3956
g69
I4
ssg70
g3950
sg63
(lp3957
S'web2py'
p3958
asbasbasbasbasbasbasbag56
(g72
g58
NtRp3959
(dp3960
g61
(dp3961
sg70
g3429
sg63
(lp3962
g56
(g77
g58
NtRp3963
(dp3964
g61
(dp3965
g81
g82
ssg70
g3959
sg63
(lp3966
S'menu'
p3967
asbag56
(g77
g58
NtRp3968
(dp3969
g61
(dp3970
g88
g89
ssg70
g3959
sg63
(lp3971
S':'
asbag56
(g77
g58
NtRp3972
(dp3973
g61
(dp3974
sg70
g3959
sg63
(lp3975
g56
(g57
g58
NtRp3976
(dp3977
g61
(dp3978
g69
I5
ssg70
g3972
sg63
(lp3979
g56
(g65
g58
NtRp3980
(dp3981
g61
(dp3982
g69
I4
ssg70
Nsg63
(lp3983
g56
(g72
g58
NtRp3984
(dp3985
g61
(dp3986
sg70
g3980
sg63
(lp3987
g56
(g77
g58
NtRp3988
(dp3989
g61
(dp3990
sg70
g3984
sg63
(lp3991
g56
(g57
g58
NtRp3992
(dp3993
g61
(dp3994
g69
I4
ssg70
g3988
sg63
(lp3995
g56
(g65
g58
NtRp3996
(dp3997
g61
(dp3998
g69
I3
ssg70
Nsg63
(lp3999
g56
(g72
g58
NtRp4000
(dp4001
g61
(dp4002
sg70
g3996
sg63
(lp4003
g56
(g77
g58
NtRp4004
(dp4005
g61
(dp4006
sg70
g4000
sg63
(lp4007
g56
(g57
g58
NtRp4008
(dp4009
g61
(dp4010
g69
I3
ssg70
g4004
sg63
(lp4011
cgluon.languages
lazyT_unpickle
p4012
(S's\x04\x00\x00\x00Home'
tRp4013
asbasbasbag56
(g72
g58
NtRp4014
(dp4015
g61
(dp4016
sg70
g3996
sg63
(lp4017
g56
(g77
g58
NtRp4018
(dp4019
g61
(dp4020
sg70
g4014
sg63
(lp4021
g56
(g57
g58
NtRp4022
(dp4023
g61
(dp4024
g69
I3
ssg70
g4018
sg63
(lp4025
g99
asbasbasbag56
(g72
g58
NtRp4026
(dp4027
g61
(dp4028
sg70
g3996
sg63
(lp4029
g56
(g77
g58
NtRp4030
(dp4031
g61
(dp4032
sg70
g4026
sg63
(lp4033
g56
(g57
g58
NtRp4034
(dp4035
g61
(dp4036
g69
I3
ssg70
g4030
sg63
(lp4037
S'/ddlagoon/default/index'
p4038
asbasbasbag56
(g72
g58
NtRp4039
(dp4040
g61
(dp4041
sg70
g3996
sg63
(lp4042
g56
(g77
g58
NtRp4043
(dp4044
g61
(dp4045
sg70
g4039
sg63
(lp4046
g56
(g57
g58
NtRp4047
(dp4048
g61
(dp4049
g69
I3
ssg70
g4043
sg63
(lp4050
g56
(g65
g58
NtRp4051
(dp4052
g61
(dp4053
g69
I2
ssg70
Nsg63
(lp4054
sbasbasbasbasbasbasbasbag56
(g72
g58
NtRp4055
(dp4056
g61
(dp4057
sg70
g3980
sg63
(lp4058
g56
(g77
g58
NtRp4059
(dp4060
g61
(dp4061
sg70
g4055
sg63
(lp4062
g56
(g57
g58
NtRp4063
(dp4064
g61
(dp4065
g69
I4
ssg70
g4059
sg63
(lp4066
g56
(g65
g58
NtRp4067
(dp4068
g61
(dp4069
g69
I3
ssg70
Nsg63
(lp4070
g56
(g72
g58
NtRp4071
(dp4072
g61
(dp4073
sg70
g4067
sg63
(lp4074
g56
(g77
g58
NtRp4075
(dp4076
g61
(dp4077
sg70
g4071
sg63
(lp4078
g56
(g57
g58
NtRp4079
(dp4080
g61
(dp4081
g69
I3
ssg70
g4075
sg63
(lp4082
g4012
(S's\x08\x00\x00\x00This App'
tRp4083
asbasbasbag56
(g72
g58
NtRp4084
(dp4085
g61
(dp4086
sg70
g4067
sg63
(lp4087
g56
(g77
g58
NtRp4088
(dp4089
g61
(dp4090
sg70
g4084
sg63
(lp4091
g56
(g57
g58
NtRp4092
(dp4093
g61
(dp4094
g69
I3
ssg70
g4088
sg63
(lp4095
g99
asbasbasbag56
(g72
g58
NtRp4096
(dp4097
g61
(dp4098
sg70
g4067
sg63
(lp4099
g56
(g77
g58
NtRp4100
(dp4101
g61
(dp4102
sg70
g4096
sg63
(lp4103
g56
(g57
g58
NtRp4104
(dp4105
g61
(dp4106
g69
I3
ssg70
g4100
sg63
(lp4107
S'/admin/default/design/ddlagoon'
p4108
asbasbasbag56
(g72
g58
NtRp4109
(dp4110
g61
(dp4111
sg70
g4067
sg63
(lp4112
g56
(g77
g58
NtRp4113
(dp4114
g61
(dp4115
sg70
g4109
sg63
(lp4116
g56
(g57
g58
NtRp4117
(dp4118
g61
(dp4119
g69
I3
ssg70
g4113
sg63
(lp4120
g56
(g65
g58
NtRp4121
(dp4122
g61
(dp4123
g69
I2
ssg70
Nsg63
(lp4124
g56
(g72
g58
NtRp4125
(dp4126
g61
(dp4127
sg70
g4121
sg63
(lp4128
g56
(g77
g58
NtRp4129
(dp4130
g61
(dp4131
sg70
g4125
sg63
(lp4132
g56
(g57
g58
NtRp4133
(dp4134
g61
(dp4135
g69
I2
ssg70
g4129
sg63
(lp4136
g56
(g65
g58
NtRp4137
(dp4138
g61
(dp4139
g69
I1
ssg70
Nsg63
(lp4140
g56
(g72
g58
NtRp4141
(dp4142
g61
(dp4143
sg70
g4137
sg63
(lp4144
g56
(g77
g58
NtRp4145
(dp4146
g61
(dp4147
sg70
g4141
sg63
(lp4148
g56
(g57
g58
NtRp4149
(dp4150
g61
(dp4151
g69
I1
ssg70
g4145
sg63
(lp4152
g4012
(S's\n\x00\x00\x00Controller'
tRp4153
asbasbasbag56
(g72
g58
NtRp4154
(dp4155
g61
(dp4156
sg70
g4137
sg63
(lp4157
g56
(g77
g58
NtRp4158
(dp4159
g61
(dp4160
sg70
g4154
sg63
(lp4161
g56
(g57
g58
NtRp4162
(dp4163
g61
(dp4164
g69
I1
ssg70
g4158
sg63
(lp4165
I00
asbasbasbag56
(g72
g58
NtRp4166
(dp4167
g61
(dp4168
sg70
g4137
sg63
(lp4169
g56
(g77
g58
NtRp4170
(dp4171
g61
(dp4172
sg70
g4166
sg63
(lp4173
g56
(g57
g58
NtRp4174
(dp4175
g61
(dp4176
g69
I1
ssg70
g4170
sg63
(lp4177
S'/admin/default/edit/ddlagoon/controllers/default.py'
p4178
asbasbasbasbasbasbasbag56
(g72
g58
NtRp4179
(dp4180
g61
(dp4181
sg70
g4121
sg63
(lp4182
g56
(g77
g58
NtRp4183
(dp4184
g61
(dp4185
sg70
g4179
sg63
(lp4186
g56
(g57
g58
NtRp4187
(dp4188
g61
(dp4189
g69
I2
ssg70
g4183
sg63
(lp4190
g56
(g65
g58
NtRp4191
(dp4192
g61
(dp4193
g69
I1
ssg70
Nsg63
(lp4194
g56
(g72
g58
NtRp4195
(dp4196
g61
(dp4197
sg70
g4191
sg63
(lp4198
g56
(g77
g58
NtRp4199
(dp4200
g61
(dp4201
sg70
g4195
sg63
(lp4202
g56
(g57
g58
NtRp4203
(dp4204
g61
(dp4205
g69
I1
ssg70
g4199
sg63
(lp4206
g4012
(S's\x04\x00\x00\x00View'
tRp4207
asbasbasbag56
(g72
g58
NtRp4208
(dp4209
g61
(dp4210
sg70
g4191
sg63
(lp4211
g56
(g77
g58
NtRp4212
(dp4213
g61
(dp4214
sg70
g4208
sg63
(lp4215
g56
(g57
g58
NtRp4216
(dp4217
g61
(dp4218
g69
I1
ssg70
g4212
sg63
(lp4219
I00
asbasbasbag56
(g72
g58
NtRp4220
(dp4221
g61
(dp4222
sg70
g4191
sg63
(lp4223
g56
(g77
g58
NtRp4224
(dp4225
g61
(dp4226
sg70
g4220
sg63
(lp4227
g56
(g57
g58
NtRp4228
(dp4229
g61
(dp4230
g69
I1
ssg70
g4224
sg63
(lp4231
S'/admin/default/edit/ddlagoon/views/default/how_to_upload.html'
p4232
asbasbasbasbasbasbasbag56
(g72
g58
NtRp4233
(dp4234
g61
(dp4235
sg70
g4121
sg63
(lp4236
g56
(g77
g58
NtRp4237
(dp4238
g61
(dp4239
sg70
g4233
sg63
(lp4240
g56
(g57
g58
NtRp4241
(dp4242
g61
(dp4243
g69
I2
ssg70
g4237
sg63
(lp4244
g56
(g65
g58
NtRp4245
(dp4246
g61
(dp4247
g69
I1
ssg70
Nsg63
(lp4248
g56
(g72
g58
NtRp4249
(dp4250
g61
(dp4251
sg70
g4245
sg63
(lp4252
g56
(g77
g58
NtRp4253
(dp4254
g61
(dp4255
sg70
g4249
sg63
(lp4256
g56
(g57
g58
NtRp4257
(dp4258
g61
(dp4259
g69
I1
ssg70
g4253
sg63
(lp4260
g4012
(S's\x06\x00\x00\x00Layout'
tRp4261
asbasbasbag56
(g72
g58
NtRp4262
(dp4263
g61
(dp4264
sg70
g4245
sg63
(lp4265
g56
(g77
g58
NtRp4266
(dp4267
g61
(dp4268
sg70
g4262
sg63
(lp4269
g56
(g57
g58
NtRp4270
(dp4271
g61
(dp4272
g69
I1
ssg70
g4266
sg63
(lp4273
I00
asbasbasbag56
(g72
g58
NtRp4274
(dp4275
g61
(dp4276
sg70
g4245
sg63
(lp4277
g56
(g77
g58
NtRp4278
(dp4279
g61
(dp4280
sg70
g4274
sg63
(lp4281
g56
(g57
g58
NtRp4282
(dp4283
g61
(dp4284
g69
I1
ssg70
g4278
sg63
(lp4285
S'/admin/default/edit/ddlagoon/views/layout.html'
p4286
asbasbasbasbasbasbasbag56
(g72
g58
NtRp4287
(dp4288
g61
(dp4289
sg70
g4121
sg63
(lp4290
g56
(g77
g58
NtRp4291
(dp4292
g61
(dp4293
sg70
g4287
sg63
(lp4294
g56
(g57
g58
NtRp4295
(dp4296
g61
(dp4297
g69
I2
ssg70
g4291
sg63
(lp4298
g56
(g65
g58
NtRp4299
(dp4300
g61
(dp4301
g69
I1
ssg70
Nsg63
(lp4302
g56
(g72
g58
NtRp4303
(dp4304
g61
(dp4305
sg70
g4299
sg63
(lp4306
g56
(g77
g58
NtRp4307
(dp4308
g61
(dp4309
sg70
g4303
sg63
(lp4310
g56
(g57
g58
NtRp4311
(dp4312
g61
(dp4313
g69
I1
ssg70
g4307
sg63
(lp4314
g4012
(S's\n\x00\x00\x00Stylesheet'
tRp4315
asbasbasbag56
(g72
g58
NtRp4316
(dp4317
g61
(dp4318
sg70
g4299
sg63
(lp4319
g56
(g77
g58
NtRp4320
(dp4321
g61
(dp4322
sg70
g4316
sg63
(lp4323
g56
(g57
g58
NtRp4324
(dp4325
g61
(dp4326
g69
I1
ssg70
g4320
sg63
(lp4327
I00
asbasbasbag56
(g72
g58
NtRp4328
(dp4329
g61
(dp4330
sg70
g4299
sg63
(lp4331
g56
(g77
g58
NtRp4332
(dp4333
g61
(dp4334
sg70
g4328
sg63
(lp4335
g56
(g57
g58
NtRp4336
(dp4337
g61
(dp4338
g69
I1
ssg70
g4332
sg63
(lp4339
S'/admin/default/edit/ddlagoon/static/base.css'
p4340
asbasbasbasbasbasbasbag56
(g72
g58
NtRp4341
(dp4342
g61
(dp4343
sg70
g4121
sg63
(lp4344
g56
(g77
g58
NtRp4345
(dp4346
g61
(dp4347
sg70
g4341
sg63
(lp4348
g56
(g57
g58
NtRp4349
(dp4350
g61
(dp4351
g69
I2
ssg70
g4345
sg63
(lp4352
g56
(g65
g58
NtRp4353
(dp4354
g61
(dp4355
g69
I1
ssg70
Nsg63
(lp4356
g56
(g72
g58
NtRp4357
(dp4358
g61
(dp4359
sg70
g4353
sg63
(lp4360
g56
(g77
g58
NtRp4361
(dp4362
g61
(dp4363
sg70
g4357
sg63
(lp4364
g56
(g57
g58
NtRp4365
(dp4366
g61
(dp4367
g69
I1
ssg70
g4361
sg63
(lp4368
g4012
(S's\x08\x00\x00\x00DB Model'
tRp4369
asbasbasbag56
(g72
g58
NtRp4370
(dp4371
g61
(dp4372
sg70
g4353
sg63
(lp4373
g56
(g77
g58
NtRp4374
(dp4375
g61
(dp4376
sg70
g4370
sg63
(lp4377
g56
(g57
g58
NtRp4378
(dp4379
g61
(dp4380
g69
I1
ssg70
g4374
sg63
(lp4381
I00
asbasbasbag56
(g72
g58
NtRp4382
(dp4383
g61
(dp4384
sg70
g4353
sg63
(lp4385
g56
(g77
g58
NtRp4386
(dp4387
g61
(dp4388
sg70
g4382
sg63
(lp4389
g56
(g57
g58
NtRp4390
(dp4391
g61
(dp4392
g69
I1
ssg70
g4386
sg63
(lp4393
S'/admin/default/edit/ddlagoon/models/db.py'
p4394
asbasbasbasbasbasbasbag56
(g72
g58
NtRp4395
(dp4396
g61
(dp4397
sg70
g4121
sg63
(lp4398
g56
(g77
g58
NtRp4399
(dp4400
g61
(dp4401
sg70
g4395
sg63
(lp4402
g56
(g57
g58
NtRp4403
(dp4404
g61
(dp4405
g69
I2
ssg70
g4399
sg63
(lp4406
g56
(g65
g58
NtRp4407
(dp4408
g61
(dp4409
g69
I1
ssg70
Nsg63
(lp4410
g56
(g72
g58
NtRp4411
(dp4412
g61
(dp4413
sg70
g4407
sg63
(lp4414
g56
(g77
g58
NtRp4415
(dp4416
g61
(dp4417
sg70
g4411
sg63
(lp4418
g56
(g57
g58
NtRp4419
(dp4420
g61
(dp4421
g69
I1
ssg70
g4415
sg63
(lp4422
g4012
(S's\n\x00\x00\x00Menu Model'
tRp4423
asbasbasbag56
(g72
g58
NtRp4424
(dp4425
g61
(dp4426
sg70
g4407
sg63
(lp4427
g56
(g77
g58
NtRp4428
(dp4429
g61
(dp4430
sg70
g4424
sg63
(lp4431
g56
(g57
g58
NtRp4432
(dp4433
g61
(dp4434
g69
I1
ssg70
g4428
sg63
(lp4435
I00
asbasbasbag56
(g72
g58
NtRp4436
(dp4437
g61
(dp4438
sg70
g4407
sg63
(lp4439
g56
(g77
g58
NtRp4440
(dp4441
g61
(dp4442
sg70
g4436
sg63
(lp4443
g56
(g57
g58
NtRp4444
(dp4445
g61
(dp4446
g69
I1
ssg70
g4440
sg63
(lp4447
S'/admin/default/edit/ddlagoon/models/menu.py'
p4448
asbasbasbasbasbasbasbag56
(g72
g58
NtRp4449
(dp4450
g61
(dp4451
sg70
g4121
sg63
(lp4452
g56
(g77
g58
NtRp4453
(dp4454
g61
(dp4455
sg70
g4449
sg63
(lp4456
g56
(g57
g58
NtRp4457
(dp4458
g61
(dp4459
g69
I2
ssg70
g4453
sg63
(lp4460
g56
(g65
g58
NtRp4461
(dp4462
g61
(dp4463
g69
I1
ssg70
Nsg63
(lp4464
g56
(g72
g58
NtRp4465
(dp4466
g61
(dp4467
sg70
g4461
sg63
(lp4468
g56
(g77
g58
NtRp4469
(dp4470
g61
(dp4471
sg70
g4465
sg63
(lp4472
g56
(g57
g58
NtRp4473
(dp4474
g61
(dp4475
g69
I1
ssg70
g4469
sg63
(lp4476
g4012
(S's\x08\x00\x00\x00Database'
tRp4477
asbasbasbag56
(g72
g58
NtRp4478
(dp4479
g61
(dp4480
sg70
g4461
sg63
(lp4481
g56
(g77
g58
NtRp4482
(dp4483
g61
(dp4484
sg70
g4478
sg63
(lp4485
g56
(g57
g58
NtRp4486
(dp4487
g61
(dp4488
g69
I1
ssg70
g4482
sg63
(lp4489
I00
asbasbasbag56
(g72
g58
NtRp4490
(dp4491
g61
(dp4492
sg70
g4461
sg63
(lp4493
g56
(g77
g58
NtRp4494
(dp4495
g61
(dp4496
sg70
g4490
sg63
(lp4497
g56
(g57
g58
NtRp4498
(dp4499
g61
(dp4500
g69
I1
ssg70
g4494
sg63
(lp4501
S'/ddlagoon/appadmin/index'
p4502
asbasbasbasbasbasbasbag56
(g72
g58
NtRp4503
(dp4504
g61
(dp4505
sg70
g4121
sg63
(lp4506
g56
(g77
g58
NtRp4507
(dp4508
g61
(dp4509
sg70
g4503
sg63
(lp4510
g56
(g57
g58
NtRp4511
(dp4512
g61
(dp4513
g69
I2
ssg70
g4507
sg63
(lp4514
g56
(g65
g58
NtRp4515
(dp4516
g61
(dp4517
g69
I1
ssg70
Nsg63
(lp4518
g56
(g72
g58
NtRp4519
(dp4520
g61
(dp4521
sg70
g4515
sg63
(lp4522
g56
(g77
g58
NtRp4523
(dp4524
g61
(dp4525
sg70
g4519
sg63
(lp4526
g56
(g57
g58
NtRp4527
(dp4528
g61
(dp4529
g69
I1
ssg70
g4523
sg63
(lp4530
g4012
(S's\x06\x00\x00\x00Errors'
tRp4531
asbasbasbag56
(g72
g58
NtRp4532
(dp4533
g61
(dp4534
sg70
g4515
sg63
(lp4535
g56
(g77
g58
NtRp4536
(dp4537
g61
(dp4538
sg70
g4532
sg63
(lp4539
g56
(g57
g58
NtRp4540
(dp4541
g61
(dp4542
g69
I1
ssg70
g4536
sg63
(lp4543
I00
asbasbasbag56
(g72
g58
NtRp4544
(dp4545
g61
(dp4546
sg70
g4515
sg63
(lp4547
g56
(g77
g58
NtRp4548
(dp4549
g61
(dp4550
sg70
g4544
sg63
(lp4551
g56
(g57
g58
NtRp4552
(dp4553
g61
(dp4554
g69
I1
ssg70
g4548
sg63
(lp4555
S'/admin/default/errors/ddlagoon'
p4556
asbasbasbasbasbasbasbag56
(g72
g58
NtRp4557
(dp4558
g61
(dp4559
sg70
g4121
sg63
(lp4560
g56
(g77
g58
NtRp4561
(dp4562
g61
(dp4563
sg70
g4557
sg63
(lp4564
g56
(g57
g58
NtRp4565
(dp4566
g61
(dp4567
g69
I2
ssg70
g4561
sg63
(lp4568
g56
(g65
g58
NtRp4569
(dp4570
g61
(dp4571
g69
I1
ssg70
Nsg63
(lp4572
g56
(g72
g58
NtRp4573
(dp4574
g61
(dp4575
sg70
g4569
sg63
(lp4576
g56
(g77
g58
NtRp4577
(dp4578
g61
(dp4579
sg70
g4573
sg63
(lp4580
g56
(g57
g58
NtRp4581
(dp4582
g61
(dp4583
g69
I1
ssg70
g4577
sg63
(lp4584
g4012
(S's\x05\x00\x00\x00About'
tRp4585
asbasbasbag56
(g72
g58
NtRp4586
(dp4587
g61
(dp4588
sg70
g4569
sg63
(lp4589
g56
(g77
g58
NtRp4590
(dp4591
g61
(dp4592
sg70
g4586
sg63
(lp4593
g56
(g57
g58
NtRp4594
(dp4595
g61
(dp4596
g69
I1
ssg70
g4590
sg63
(lp4597
I00
asbasbasbag56
(g72
g58
NtRp4598
(dp4599
g61
(dp4600
sg70
g4569
sg63
(lp4601
g56
(g77
g58
NtRp4602
(dp4603
g61
(dp4604
sg70
g4598
sg63
(lp4605
g56
(g57
g58
NtRp4606
(dp4607
g61
(dp4608
g69
I1
ssg70
g4602
sg63
(lp4609
S'/admin/default/about/ddlagoon'
p4610
asbasbasbasbasbasbasbasbasbasbasbasbasbasbasbag56
(g72
g58
NtRp4611
(dp4612
g61
(dp4613
sg70
g3980
sg63
(lp4614
g56
(g77
g58
NtRp4615
(dp4616
g61
(dp4617
sg70
g4611
sg63
(lp4618
g56
(g57
g58
NtRp4619
(dp4620
g61
(dp4621
g69
I4
ssg70
g4615
sg63
(lp4622
g56
(g65
g58
NtRp4623
(dp4624
g61
(dp4625
g69
I3
ssg70
Nsg63
(lp4626
g56
(g72
g58
NtRp4627
(dp4628
g61
(dp4629
sg70
g4623
sg63
(lp4630
g56
(g77
g58
NtRp4631
(dp4632
g61
(dp4633
sg70
g4627
sg63
(lp4634
g56
(g57
g58
NtRp4635
(dp4636
g61
(dp4637
g69
I3
ssg70
g4631
sg63
(lp4638
g4012
(S's\t\x00\x00\x00Resources'
tRp4639
asbasbasbag56
(g72
g58
NtRp4640
(dp4641
g61
(dp4642
sg70
g4623
sg63
(lp4643
g56
(g77
g58
NtRp4644
(dp4645
g61
(dp4646
sg70
g4640
sg63
(lp4647
g56
(g57
g58
NtRp4648
(dp4649
g61
(dp4650
g69
I3
ssg70
g4644
sg63
(lp4651
g99
asbasbasbag56
(g72
g58
NtRp4652
(dp4653
g61
(dp4654
sg70
g4623
sg63
(lp4655
g56
(g77
g58
NtRp4656
(dp4657
g61
(dp4658
sg70
g4652
sg63
(lp4659
g56
(g57
g58
NtRp4660
(dp4661
g61
(dp4662
g69
I3
ssg70
g4656
sg63
(lp4663
S'None'
p4664
asbasbasbag56
(g72
g58
NtRp4665
(dp4666
g61
(dp4667
sg70
g4623
sg63
(lp4668
g56
(g77
g58
NtRp4669
(dp4670
g61
(dp4671
sg70
g4665
sg63
(lp4672
g56
(g57
g58
NtRp4673
(dp4674
g61
(dp4675
g69
I3
ssg70
g4669
sg63
(lp4676
g56
(g65
g58
NtRp4677
(dp4678
g61
(dp4679
g69
I2
ssg70
Nsg63
(lp4680
g56
(g72
g58
NtRp4681
(dp4682
g61
(dp4683
sg70
g4677
sg63
(lp4684
g56
(g77
g58
NtRp4685
(dp4686
g61
(dp4687
sg70
g4681
sg63
(lp4688
g56
(g57
g58
NtRp4689
(dp4690
g61
(dp4691
g69
I2
ssg70
g4685
sg63
(lp4692
g56
(g65
g58
NtRp4693
(dp4694
g61
(dp4695
g69
I1
ssg70
Nsg63
(lp4696
g56
(g72
g58
NtRp4697
(dp4698
g61
(dp4699
sg70
g4693
sg63
(lp4700
g56
(g77
g58
NtRp4701
(dp4702
g61
(dp4703
sg70
g4697
sg63
(lp4704
g56
(g57
g58
NtRp4705
(dp4706
g61
(dp4707
g69
I1
ssg70
g4701
sg63
(lp4708
g4012
(S's\r\x00\x00\x00Documentation'
tRp4709
asbasbasbag56
(g72
g58
NtRp4710
(dp4711
g61
(dp4712
sg70
g4693
sg63
(lp4713
g56
(g77
g58
NtRp4714
(dp4715
g61
(dp4716
sg70
g4710
sg63
(lp4717
g56
(g57
g58
NtRp4718
(dp4719
g61
(dp4720
g69
I1
ssg70
g4714
sg63
(lp4721
I00
asbasbasbag56
(g72
g58
NtRp4722
(dp4723
g61
(dp4724
sg70
g4693
sg63
(lp4725
g56
(g77
g58
NtRp4726
(dp4727
g61
(dp4728
sg70
g4722
sg63
(lp4729
g56
(g57
g58
NtRp4730
(dp4731
g61
(dp4732
g69
I1
ssg70
g4726
sg63
(lp4733
S'http://www.web2py.com/book'
p4734
asbasbasbag56
(g72
g58
NtRp4735
(dp4736
g61
(dp4737
sg70
g4693
sg63
(lp4738
g56
(g77
g58
NtRp4739
(dp4740
g61
(dp4741
sg70
g4735
sg63
(lp4742
g56
(g57
g58
NtRp4743
(dp4744
g61
(dp4745
g69
I1
ssg70
g4739
sg63
(lp4746
(lp4747
(g4012
(S's\x07\x00\x00\x00Preface'
tRp4748
I00
S'http://www.web2py.com/book/default/chapter/00'
p4749
tp4750
a(g4012
(S's\x0c\x00\x00\x00Introduction'
tRp4751
I00
S'http://www.web2py.com/book/default/chapter/01'
p4752
tp4753
a(g4012
(S's\x06\x00\x00\x00Python'
tRp4754
I00
S'http://www.web2py.com/book/default/chapter/02'
p4755
tp4756
a(g4012
(S's\x08\x00\x00\x00Overview'
tRp4757
I00
S'http://www.web2py.com/book/default/chapter/03'
p4758
tp4759
a(g4012
(S's\x08\x00\x00\x00The Core'
tRp4760
I00
S'http://www.web2py.com/book/default/chapter/04'
p4761
tp4762
a(g4012
(S's\t\x00\x00\x00The Views'
tRp4763
I00
S'http://www.web2py.com/book/default/chapter/05'
p4764
tp4765
a(g4012
(S's\x08\x00\x00\x00Database'
tRp4766
I00
S'http://www.web2py.com/book/default/chapter/06'
p4767
tp4768
a(g4012
(S's\x14\x00\x00\x00Forms and Validators'
tRp4769
I00
S'http://www.web2py.com/book/default/chapter/07'
p4770
tp4771
a(g4012
(S's\x0e\x00\x00\x00Access Control'
tRp4772
I00
S'http://www.web2py.com/book/default/chapter/08'
p4773
tp4774
a(g4012
(S's\x08\x00\x00\x00Services'
tRp4775
I00
S'http://www.web2py.com/book/default/chapter/09'
p4776
tp4777
a(g4012
(S's\x0c\x00\x00\x00Ajax Recipes'
tRp4778
I00
S'http://www.web2py.com/book/default/chapter/10'
p4779
tp4780
a(g4012
(S's\x12\x00\x00\x00Deployment Recipes'
tRp4781
I00
S'http://www.web2py.com/book/default/chapter/11'
p4782
tp4783
a(g4012
(S's\r\x00\x00\x00Other Recipes'
tRp4784
I00
S'http://www.web2py.com/book/default/chapter/12'
p4785
tp4786
a(g4012
(S's\r\x00\x00\x00Buy this book'
tRp4787
I00
S'http://stores.lulu.com/web2py'
p4788
tp4789
aasbasbasbasbasbasbasbag56
(g72
g58
NtRp4790
(dp4791
g61
(dp4792
sg70
g4677
sg63
(lp4793
g56
(g77
g58
NtRp4794
(dp4795
g61
(dp4796
sg70
g4790
sg63
(lp4797
g56
(g57
g58
NtRp4798
(dp4799
g61
(dp4800
g69
I2
ssg70
g4794
sg63
(lp4801
g56
(g65
g58
NtRp4802
(dp4803
g61
(dp4804
g69
I1
ssg70
Nsg63
(lp4805
g56
(g72
g58
NtRp4806
(dp4807
g61
(dp4808
sg70
g4802
sg63
(lp4809
g56
(g77
g58
NtRp4810
(dp4811
g61
(dp4812
sg70
g4806
sg63
(lp4813
g56
(g57
g58
NtRp4814
(dp4815
g61
(dp4816
g69
I1
ssg70
g4810
sg63
(lp4817
g4012
(S's\t\x00\x00\x00Community'
tRp4818
asbasbasbag56
(g72
g58
NtRp4819
(dp4820
g61
(dp4821
sg70
g4802
sg63
(lp4822
g56
(g77
g58
NtRp4823
(dp4824
g61
(dp4825
sg70
g4819
sg63
(lp4826
g56
(g57
g58
NtRp4827
(dp4828
g61
(dp4829
g69
I1
ssg70
g4823
sg63
(lp4830
I00
asbasbasbag56
(g72
g58
NtRp4831
(dp4832
g61
(dp4833
sg70
g4802
sg63
(lp4834
g56
(g77
g58
NtRp4835
(dp4836
g61
(dp4837
sg70
g4831
sg63
(lp4838
g56
(g57
g58
NtRp4839
(dp4840
g61
(dp4841
g69
I1
ssg70
g4835
sg63
(lp4842
Nasbasbasbag56
(g72
g58
NtRp4843
(dp4844
g61
(dp4845
sg70
g4802
sg63
(lp4846
g56
(g77
g58
NtRp4847
(dp4848
g61
(dp4849
sg70
g4843
sg63
(lp4850
g56
(g57
g58
NtRp4851
(dp4852
g61
(dp4853
g69
I1
ssg70
g4847
sg63
(lp4854
(lp4855
(g4012
(S's\x06\x00\x00\x00Groups'
tRp4856
I00
S'http://www.web2py.com/examples/default/usergroups'
p4857
tp4858
a(g4012
(S's\x07\x00\x00\x00Twitter'
tRp4859
I00
S'http://twitter.com/web2py'
p4860
tp4861
a(g4012
(S's\t\x00\x00\x00Live chat'
tRp4862
I00
S'http://mibbit.com/?channel=%23web2py&server=irc.mibbit.net'
p4863
tp4864
a(g4012
(S's\n\x00\x00\x00User Voice'
tRp4865
I00
S'http://web2py.uservoice.com/'
p4866
tp4867
aasbasbasbasbasbasbasbag56
(g72
g58
NtRp4868
(dp4869
g61
(dp4870
sg70
g4677
sg63
(lp4871
g56
(g77
g58
NtRp4872
(dp4873
g61
(dp4874
sg70
g4868
sg63
(lp4875
g56
(g57
g58
NtRp4876
(dp4877
g61
(dp4878
g69
I2
ssg70
g4872
sg63
(lp4879
g56
(g65
g58
NtRp4880
(dp4881
g61
(dp4882
g69
I1
ssg70
Nsg63
(lp4883
g56
(g72
g58
NtRp4884
(dp4885
g61
(dp4886
sg70
g4880
sg63
(lp4887
g56
(g77
g58
NtRp4888
(dp4889
g61
(dp4890
sg70
g4884
sg63
(lp4891
g56
(g57
g58
NtRp4892
(dp4893
g61
(dp4894
g69
I1
ssg70
g4888
sg63
(lp4895
g4012
(S's\x06\x00\x00\x00Web2py'
tRp4896
asbasbasbag56
(g72
g58
NtRp4897
(dp4898
g61
(dp4899
sg70
g4880
sg63
(lp4900
g56
(g77
g58
NtRp4901
(dp4902
g61
(dp4903
sg70
g4897
sg63
(lp4904
g56
(g57
g58
NtRp4905
(dp4906
g61
(dp4907
g69
I1
ssg70
g4901
sg63
(lp4908
I00
asbasbasbag56
(g72
g58
NtRp4909
(dp4910
g61
(dp4911
sg70
g4880
sg63
(lp4912
g56
(g77
g58
NtRp4913
(dp4914
g61
(dp4915
sg70
g4909
sg63
(lp4916
g56
(g57
g58
NtRp4917
(dp4918
g61
(dp4919
g69
I1
ssg70
g4913
sg63
(lp4920
S'http://www.web2py.com'
p4921
asbasbasbag56
(g72
g58
NtRp4922
(dp4923
g61
(dp4924
sg70
g4880
sg63
(lp4925
g56
(g77
g58
NtRp4926
(dp4927
g61
(dp4928
sg70
g4922
sg63
(lp4929
g56
(g57
g58
NtRp4930
(dp4931
g61
(dp4932
g69
I1
ssg70
g4926
sg63
(lp4933
(lp4934
(g4012
(S's\x08\x00\x00\x00Download'
tRp4935
I00
S'http://www.web2py.com/examples/default/download'
p4936
tp4937
a(g4012
(S's\x07\x00\x00\x00Support'
tRp4938
I00
S'http://www.web2py.com/examples/default/support'
p4939
tp4940
a(g4012
(S's\x0e\x00\x00\x00Quick Examples'
tRp4941
I00
S'http://web2py.com/examples/default/examples'
p4942
tp4943
a(g4012
(S's\x03\x00\x00\x00FAQ'
tRp4944
I00
S'http://web2py.com/AlterEgo'
p4945
tp4946
a(g4012
(S's\x11\x00\x00\x00Free Applications'
tRp4947
I00
S'http://web2py.com/appliances'
p4948
tp4949
a(g4012
(S's\x07\x00\x00\x00Plugins'
tRp4950
I00
S'http://web2py.com/plugins'
p4951
tp4952
a(g4012
(S's\x07\x00\x00\x00Recipes'
tRp4953
I00
S'http://web2pyslices.com/'
p4954
tp4955
a(g4012
(S's\x04\x00\x00\x00Demo'
tRp4956
I00
S'http://web2py.com/demo_admin'
p4957
tp4958
a(g4012
(S's\x08\x00\x00\x00Semantic'
tRp4959
I00
S'http://web2py.com/semantic'
p4960
tp4961
a(g4012
(S's\x07\x00\x00\x00Layouts'
tRp4962
I00
S'http://web2py.com/layouts'
p4963
tp4964
a(g4012
(S's\x06\x00\x00\x00Videos'
tRp4965
I00
S'http://www.web2py.com/examples/default/videos/'
p4966
tp4967
aasbasbasbasbasbasbasbasbasbasbasbasbasbasbasbasbasbasbasbag56
(g72
g58
NtRp4968
(dp4969
g61
(dp4970
sg70
g3429
sg63
(lp4971
g56
(g77
g58
NtRp4972
(dp4973
g61
(dp4974
g81
g82
ssg70
g4968
sg63
(lp4975
S'meta'
p4976
asbag56
(g77
g58
NtRp4977
(dp4978
g61
(dp4979
g88
g89
ssg70
g4968
sg63
(lp4980
S':'
asbag56
(g77
g58
NtRp4981
(dp4982
g61
(dp4983
sg70
g4968
sg63
(lp4984
g56
(g57
g58
NtRp4985
(dp4986
g61
(dp4987
g69
I5
ssg70
g4981
sg63
(lp4988
g56
(g65
g58
NtRp4989
(dp4990
g61
(dp4991
g69
I4
ssg70
Nsg63
(lp4992
g56
(g72
g58
NtRp4993
(dp4994
g61
(dp4995
sg70
g4989
sg63
(lp4996
g56
(g77
g58
NtRp4997
(dp4998
g61
(dp4999
g81
g82
ssg70
g4993
sg63
(lp5000
S'author'
p5001
asbag56
(g77
g58
NtRp5002
(dp5003
g61
(dp5004
g88
g89
ssg70
g4993
sg63
(lp5005
S':'
asbag56
(g77
g58
NtRp5006
(dp5007
g61
(dp5008
sg70
g4993
sg63
(lp5009
g56
(g57
g58
NtRp5010
(dp5011
g61
(dp5012
g69
I4
ssg70
g5006
sg63
(lp5013
S'Your Name <you@example.com>'
p5014
asbasbasbag56
(g72
g58
NtRp5015
(dp5016
g61
(dp5017
sg70
g4989
sg63
(lp5018
g56
(g77
g58
NtRp5019
(dp5020
g61
(dp5021
g81
g82
ssg70
g5015
sg63
(lp5022
S'copyright'
p5023
asbag56
(g77
g58
NtRp5024
(dp5025
g61
(dp5026
g88
g89
ssg70
g5015
sg63
(lp5027
S':'
asbag56
(g77
g58
NtRp5028
(dp5029
g61
(dp5030
sg70
g5015
sg63
(lp5031
g56
(g57
g58
NtRp5032
(dp5033
g61
(dp5034
g69
I4
ssg70
g5028
sg63
(lp5035
S'Copyright 2011'
p5036
asbasbasbag56
(g72
g58
NtRp5037
(dp5038
g61
(dp5039
sg70
g4989
sg63
(lp5040
g56
(g77
g58
NtRp5041
(dp5042
g61
(dp5043
g81
g82
ssg70
g5037
sg63
(lp5044
S'description'
p5045
asbag56
(g77
g58
NtRp5046
(dp5047
g61
(dp5048
g88
g89
ssg70
g5037
sg63
(lp5049
S':'
asbag56
(g77
g58
NtRp5050
(dp5051
g61
(dp5052
sg70
g5037
sg63
(lp5053
g56
(g57
g58
NtRp5054
(dp5055
g61
(dp5056
g69
I4
ssg70
g5050
sg63
(lp5057
S'a cool new app'
p5058
asbasbasbag56
(g72
g58
NtRp5059
(dp5060
g61
(dp5061
sg70
g4989
sg63
(lp5062
g56
(g77
g58
NtRp5063
(dp5064
g61
(dp5065
g81
g82
ssg70
g5059
sg63
(lp5066
S'generator'
p5067
asbag56
(g77
g58
NtRp5068
(dp5069
g61
(dp5070
g88
g89
ssg70
g5059
sg63
(lp5071
S':'
asbag56
(g77
g58
NtRp5072
(dp5073
g61
(dp5074
sg70
g5059
sg63
(lp5075
g56
(g57
g58
NtRp5076
(dp5077
g61
(dp5078
g69
I4
ssg70
g5072
sg63
(lp5079
S'Web2py Web Framework'
p5080
asbasbasbag56
(g72
g58
NtRp5081
(dp5082
g61
(dp5083
sg70
g4989
sg63
(lp5084
g56
(g77
g58
NtRp5085
(dp5086
g61
(dp5087
g81
g82
ssg70
g5081
sg63
(lp5088
S'keywords'
p5089
asbag56
(g77
g58
NtRp5090
(dp5091
g61
(dp5092
g88
g89
ssg70
g5081
sg63
(lp5093
S':'
asbag56
(g77
g58
NtRp5094
(dp5095
g61
(dp5096
sg70
g5081
sg63
(lp5097
g56
(g57
g58
NtRp5098
(dp5099
g61
(dp5100
g69
I4
ssg70
g5094
sg63
(lp5101
S'web2py, python, framework'
p5102
asbasbasbasbasbasbasbag56
(g72
g58
NtRp5103
(dp5104
g61
(dp5105
sg70
g3429
sg63
(lp5106
g56
(g77
g58
NtRp5107
(dp5108
g61
(dp5109
g81
g82
ssg70
g5103
sg63
(lp5110
S'postprocessing'
p5111
asbag56
(g77
g58
NtRp5112
(dp5113
g61
(dp5114
g88
g89
ssg70
g5103
sg63
(lp5115
S':'
asbag56
(g77
g58
NtRp5116
(dp5117
g61
(dp5118
sg70
g5103
sg63
(lp5119
g56
(g57
g58
NtRp5120
(dp5121
g61
(dp5122
g69
I5
ssg70
g5116
sg63
(lp5123
g56
(g65
g58
NtRp5124
(dp5125
g61
(dp5126
g69
I4
ssg70
Nsg63
(lp5127
sbasbasbasbag56
(g72
g58
NtRp5128
(dp5129
g61
(dp5130
sg70
g3429
sg63
(lp5131
g56
(g77
g58
NtRp5132
(dp5133
g61
(dp5134
g81
g82
ssg70
g5128
sg63
(lp5135
S'session_file'
p5136
asbag56
(g77
g58
NtRp5137
(dp5138
g61
(dp5139
g88
g89
ssg70
g5128
sg63
(lp5140
S':'
asbag56
(g77
g58
NtRp5141
(dp5142
g61
(dp5143
sg70
g5128
sg63
(lp5144
g56
(g57
g58
NtRp5145
(dp5146
g61
(dp5147
g69
I5
ssg70
g5141
sg63
(lp5148
S"<open file '/windows/Users/Thomas/Dropbox/appz/2011/ddlagoon/public_html/applications/ddlagoon/sessions/127.0.0.1-a8cd47ee-ccb5-4235-8c76-15b25c6b7c82', mode 'rb+' at 0x1dfc0c0>"
p5149
asbasbasbag56
(g72
g58
NtRp5150
(dp5151
g61
(dp5152
sg70
g3429
sg63
(lp5153
g56
(g77
g58
NtRp5154
(dp5155
g61
(dp5156
g81
g82
ssg70
g5150
sg63
(lp5157
S'session_filename'
p5158
asbag56
(g77
g58
NtRp5159
(dp5160
g61
(dp5161
g88
g89
ssg70
g5150
sg63
(lp5162
S':'
asbag56
(g77
g58
NtRp5163
(dp5164
g61
(dp5165
sg70
g5150
sg63
(lp5166
g56
(g57
g58
NtRp5167
(dp5168
g61
(dp5169
g69
I5
ssg70
g5163
sg63
(lp5170
S'/windows/Users/Thomas/Dropbox/appz/2011/ddlagoon/public_html/applications/ddlagoon/sessions/127.0.0.1-a8cd47ee-ccb5-4235-8c76-15b25c6b7c82'
p5171
asbasbasbag56
(g72
g58
NtRp5172
(dp5173
g61
(dp5174
sg70
g3429
sg63
(lp5175
g56
(g77
g58
NtRp5176
(dp5177
g61
(dp5178
g81
g82
ssg70
g5172
sg63
(lp5179
S'session_id'
p5180
asbag56
(g77
g58
NtRp5181
(dp5182
g61
(dp5183
g88
g89
ssg70
g5172
sg63
(lp5184
S':'
asbag56
(g77
g58
NtRp5185
(dp5186
g61
(dp5187
sg70
g5172
sg63
(lp5188
g56
(g57
g58
NtRp5189
(dp5190
g61
(dp5191
g69
I5
ssg70
g5185
sg63
(lp5192
S'127.0.0.1-a8cd47ee-ccb5-4235-8c76-15b25c6b7c82'
p5193
asbasbasbag56
(g72
g58
NtRp5194
(dp5195
g61
(dp5196
sg70
g3429
sg63
(lp5197
g56
(g77
g58
NtRp5198
(dp5199
g61
(dp5200
g81
g82
ssg70
g5194
sg63
(lp5201
S'session_id_name'
p5202
asbag56
(g77
g58
NtRp5203
(dp5204
g61
(dp5205
g88
g89
ssg70
g5194
sg63
(lp5206
S':'
asbag56
(g77
g58
NtRp5207
(dp5208
g61
(dp5209
sg70
g5194
sg63
(lp5210
g56
(g57
g58
NtRp5211
(dp5212
g61
(dp5213
g69
I5
ssg70
g5207
sg63
(lp5214
g3486
asbasbasbag56
(g72
g58
NtRp5215
(dp5216
g61
(dp5217
sg70
g3429
sg63
(lp5218
g56
(g77
g58
NtRp5219
(dp5220
g61
(dp5221
g81
g82
ssg70
g5215
sg63
(lp5222
S'session_locked'
p5223
asbag56
(g77
g58
NtRp5224
(dp5225
g61
(dp5226
g88
g89
ssg70
g5215
sg63
(lp5227
S':'
asbag56
(g77
g58
NtRp5228
(dp5229
g61
(dp5230
sg70
g5215
sg63
(lp5231
g56
(g57
g58
NtRp5232
(dp5233
g61
(dp5234
g69
I5
ssg70
g5228
sg63
(lp5235
g1656
asbasbasbag56
(g72
g58
NtRp5236
(dp5237
g61
(dp5238
sg70
g3429
sg63
(lp5239
g56
(g77
g58
NtRp5240
(dp5241
g61
(dp5242
g81
g82
ssg70
g5236
sg63
(lp5243
S'session_new'
p5244
asbag56
(g77
g58
NtRp5245
(dp5246
g61
(dp5247
g88
g89
ssg70
g5236
sg63
(lp5248
S':'
asbag56
(g77
g58
NtRp5249
(dp5250
g61
(dp5251
sg70
g5236
sg63
(lp5252
g56
(g57
g58
NtRp5253
(dp5254
g61
(dp5255
g69
I5
ssg70
g5249
sg63
(lp5256
g99
asbasbasbag56
(g72
g58
NtRp5257
(dp5258
g61
(dp5259
sg70
g3429
sg63
(lp5260
g56
(g77
g58
NtRp5261
(dp5262
g61
(dp5263
g81
g82
ssg70
g5257
sg63
(lp5264
S'status'
p5265
asbag56
(g77
g58
NtRp5266
(dp5267
g61
(dp5268
g88
g89
ssg70
g5257
sg63
(lp5269
S':'
asbag56
(g77
g58
NtRp5270
(dp5271
g61
(dp5272
sg70
g5257
sg63
(lp5273
g56
(g57
g58
NtRp5274
(dp5275
g61
(dp5276
g69
I5
ssg70
g5270
sg63
(lp5277
S'200'
p5278
asbasbasbag56
(g72
g58
NtRp5279
(dp5280
g61
(dp5281
sg70
g3429
sg63
(lp5282
g56
(g77
g58
NtRp5283
(dp5284
g61
(dp5285
g81
g82
ssg70
g5279
sg63
(lp5286
S'subtitle'
p5287
asbag56
(g77
g58
NtRp5288
(dp5289
g61
(dp5290
g88
g89
ssg70
g5279
sg63
(lp5291
S':'
asbag56
(g77
g58
NtRp5292
(dp5293
g61
(dp5294
sg70
g5279
sg63
(lp5295
g56
(g57
g58
NtRp5296
(dp5297
g61
(dp5298
g69
I5
ssg70
g5292
sg63
(lp5299
g4012
(S's\r\x00\x00\x00customize me!'
tRp5300
asbasbasbag56
(g72
g58
NtRp5301
(dp5302
g61
(dp5303
sg70
g3429
sg63
(lp5304
g56
(g77
g58
NtRp5305
(dp5306
g61
(dp5307
g81
g82
ssg70
g5301
sg63
(lp5308
S'title'
p5309
asbag56
(g77
g58
NtRp5310
(dp5311
g61
(dp5312
g88
g89
ssg70
g5301
sg63
(lp5313
S':'
asbag56
(g77
g58
NtRp5314
(dp5315
g61
(dp5316
sg70
g5301
sg63
(lp5317
g56
(g57
g58
NtRp5318
(dp5319
g61
(dp5320
g69
I5
ssg70
g5314
sg63
(lp5321
g121
asbasbasbag56
(g72
g58
NtRp5322
(dp5323
g61
(dp5324
sg70
g3429
sg63
(lp5325
g56
(g77
g58
NtRp5326
(dp5327
g61
(dp5328
g81
g82
ssg70
g5322
sg63
(lp5329
g2300
asbag56
(g77
g58
NtRp5330
(dp5331
g61
(dp5332
g88
g89
ssg70
g5322
sg63
(lp5333
S':'
asbag56
(g77
g58
NtRp5334
(dp5335
g61
(dp5336
sg70
g5322
sg63
(lp5337
g56
(g57
g58
NtRp5338
(dp5339
g61
(dp5340
g69
I5
ssg70
g5334
sg63
(lp5341
g2313
asbasbasbag56
(g72
g58
NtRp5342
(dp5343
g61
(dp5344
sg70
g3429
sg63
(lp5345
g56
(g77
g58
NtRp5346
(dp5347
g61
(dp5348
g81
g82
ssg70
g5342
sg63
(lp5349
S'view'
p5350
asbag56
(g77
g58
NtRp5351
(dp5352
g61
(dp5353
g88
g89
ssg70
g5342
sg63
(lp5354
S':'
asbag56
(g77
g58
NtRp5355
(dp5356
g61
(dp5357
sg70
g5342
sg63
(lp5358
g56
(g57
g58
NtRp5359
(dp5360
g61
(dp5361
g69
I5
ssg70
g5355
sg63
(lp5362
S'default/how_to_upload.html'
p5363
asbasbasbasbasbsS'locals'
p5364
(dp5365
S'Service'
p5366
S"<class 'gluon.tools.Service'>"
p5367
sS'OBJECT'
p5368
S"<class 'gluon.html.OBJECT'>"
p5369
sS'SQLDB'
p5370
S"<class 'gluon.dal.DAL'>"
p5371
sg3015
S"<Storage {'last_query': 'db.auth_user.id>0', '_f...xed\\xec\\x8am\\x15\\xbd\\n\\x83\\xa0\\xbf6+\\xa4zj\\x96'}>"
p5372
sS'LINK'
p5373
S"<class 'gluon.html.LINK'>"
p5374
sS'BR'
p5375
S"<class 'gluon.html.BR'>"
p5376
sS'local_import'
p5377
S'<function <lambda>>'
p5378
sS'OPTGROUP'
p5379
S"<class 'gluon.html.OPTGROUP'>"
p5380
sS'PRE'
p5381
S"<class 'gluon.html.PRE'>"
p5382
sS'IS_INT_IN_RANGE'
p5383
S"<class 'gluon.validators.IS_INT_IN_RANGE'>"
p5384
sS'left_sidebar_enabled'
p5385
g1656
sS'IS_LOWER'
p5386
S"<class 'gluon.validators.IS_LOWER'>"
p5387
sS'IS_STRONG'
p5388
S"<class 'gluon.validators.IS_STRONG'>"
p5389
sS'cache'
p5390
S'<gluon.cache.Cache object>'
p5391
sS'IS_IN_DB'
p5392
S"<class 'gluon.validators.IS_IN_DB'>"
p5393
sS'TAG'
p5394
S'<gluon.html.__TAG__ object>'
p5395
sS'SQLField'
p5396
S"<class 'gluon.dal.Field'>"
p5397
sS'mail'
p5398
S'<gluon.tools.Mail object>'
p5399
sS'BODY'
p5400
S"<class 'gluon.html.BODY'>"
p5401
sS'IS_DATE_IN_RANGE'
p5402
S"<class 'gluon.validators.IS_DATE_IN_RANGE'>"
p5403
sS'TH'
p5404
S"<class 'gluon.html.TH'>"
p5405
sS'tuto'
p5406
S"{'go_to_profile_pre': <lazyT 'Go to your'>, 'go_to_profile_suf': <lazyT 'to get your API key.'>, 'go_to_settings': <lazyT 'Go to the settings tab.'>, 'login': <lazyT 'Login with your username and password.'>, 'profile': <lazyT 'profile'>, 'start': <lazyT 'Start DDLagoon Uploader.'>}"
p5407
sS'URL'
p5408
S'<function URL>'
p5409
sS'__file__'
p5410
S"'/windows/Users/Thomas/Dropbox/appz/2011/ddlagoon...cations/ddlagoon/views/default/how_to_upload.html'"
p5411
sS'db'
p5412
S"<DAL {'auth_event': <Table {'origin': <gluon.dal..., 'id': <gluon.dal.Field object at 0x1f39910>}>}>"
p5413
sS'auth'
p5414
S'<gluon.tools.Auth object>'
p5415
sS'P'
S"<class 'gluon.html.P'>"
p5416
sS'TFOOT'
p5417
S"<class 'gluon.html.TFOOT'>"
p5418
sS'XHTML'
p5419
S"<class 'gluon.html.XHTML'>"
p5420
sS'ON'
p5421
g1656
sS'OL'
p5422
S"<class 'gluon.html.OL'>"
p5423
sS'TEXTAREA'
p5424
S"<class 'gluon.html.TEXTAREA'>"
p5425
sS'MENU'
p5426
S"<class 'gluon.html.MENU'>"
p5427
sS'IS_IMAGE'
p5428
S"<class 'gluon.validators.IS_IMAGE'>"
p5429
sS'LOAD'
p5430
S'<gluon.compileapp.LoadFactory object>'
p5431
sS'CODE'
p5432
S"<class 'gluon.html.CODE'>"
p5433
sS'HTTP'
p5434
S"<class 'gluon.http.HTTP'>"
p5435
sS'HR'
p5436
S"<class 'gluon.html.HR'>"
p5437
sS'IS_DATETIME'
p5438
S"<class 'gluon.validators.IS_DATETIME'>"
p5439
sS'HEAD'
p5440
S"<class 'gluon.html.HEAD'>"
p5441
sS'LABEL'
p5442
S"<class 'gluon.html.LABEL'>"
p5443
sS'META'
p5444
S"<class 'gluon.html.META'>"
p5445
sS'plugins'
p5446
S'<gluon.tools.PluginManager object>'
p5447
sS'SELECT'
p5448
S"<class 'gluon.html.SELECT'>"
p5449
sS'use_janrain'
p5450
S'<function use_janrain>'
p5451
sS'CENTER'
p5452
S"<class 'gluon.html.CENTER'>"
p5453
sS'prettydate'
p5454
S'<function prettydate>'
p5455
sS'Crud'
p5456
S"<class 'gluon.tools.Crud'>"
p5457
sS'Auth'
p5458
S"<class 'gluon.tools.Auth'>"
p5459
sS'IS_EQUAL_TO'
p5460
S"<class 'gluon.validators.IS_EQUAL_TO'>"
p5461
sS'HTML'
p5462
S"<class 'gluon.html.HTML'>"
p5463
sS'SQLFORM'
p5464
S"<class 'gluon.sqlhtml.SQLFORM'>"
p5465
sS'EM'
p5466
S"<class 'gluon.html.EM'>"
p5467
sS'redirect'
p5468
S'<function redirect>'
p5469
sS'FIELDSET'
p5470
S"<class 'gluon.html.FIELDSET'>"
p5471
sS'__builtins__'
p5472
S"{'ArithmeticError': <type 'exceptions.ArithmeticError'>, 'AssertionError': <type 'exceptions.AssertionError'>, 'AttributeError': <type 'exceptions.AttributeError'>, 'BaseException': <type 'exceptions.BaseException'>, 'BufferError': <type 'exceptions.BufferError'>, 'BytesWarning': <type 'exceptions.BytesWarning'>, 'DeprecationWarning': <type 'exceptions.DeprecationWarning'>, 'EOFError': <type 'exceptions.EOFError'>, 'Ellipsis': Ellipsis, 'EnvironmentError': <type 'exceptions.EnvironmentError'>, ...}"
p5473
sS'embed64'
p5474
S'<function embed64>'
p5475
sS'IS_LIST_OF'
p5476
S"<class 'gluon.validators.IS_LIST_OF'>"
p5477
sS'INPUT'
p5478
S"<class 'gluon.html.INPUT'>"
p5479
sS'EMBED'
p5480
S"<class 'gluon.html.EMBED'>"
p5481
sS'_'
S'<function _>'
p5482
sS'width_content'
p5483
S"'63%'"
p5484
sS'H2'
p5485
S"<class 'gluon.html.H2'>"
p5486
sS'H3'
p5487
S"<class 'gluon.html.H3'>"
p5488
sS'BUTTON'
p5489
S"<class 'gluon.html.BUTTON'>"
p5490
sS'H1'
p5491
S"<class 'gluon.html.H1'>"
p5492
sS'H6'
p5493
S"<class 'gluon.html.H6'>"
p5494
sS'H4'
p5495
S"<class 'gluon.html.H4'>"
p5496
sS'H5'
p5497
S"<class 'gluon.html.H5'>"
p5498
sS'UL'
p5499
S"<class 'gluon.html.UL'>"
p5500
sS'IS_UPPER'
p5501
S"<class 'gluon.validators.IS_UPPER'>"
p5502
sS'xmlescape'
p5503
S'<function xmlescape>'
p5504
sS'IS_TIME'
p5505
S"<class 'gluon.validators.IS_TIME'>"
p5506
sS'OPTION'
p5507
S"<class 'gluon.html.OPTION'>"
p5508
sS'TITLE'
p5509
S"<class 'gluon.html.TITLE'>"
p5510
sS'CRYPT'
p5511
S"<class 'gluon.validators.CRYPT'>"
p5512
sS'IS_EMPTY_OR'
p5513
S"<class 'gluon.validators.IS_EMPTY_OR'>"
p5514
sS'MARKMIN'
p5515
S"<class 'gluon.html.MARKMIN'>"
p5516
sS'COL'
p5517
S"<class 'gluon.html.COL'>"
p5518
sS'service'
p5519
S'<gluon.tools.Service object>'
p5520
sS'SCRIPT'
p5521
S"<class 'gluon.html.SCRIPT'>"
p5522
sS'getCurrentTime'
p5523
S'<function getCurrentTime>'
p5524
sS'TABLE'
p5525
S"<class 'gluon.html.TABLE'>"
p5526
sS'IS_IPV4'
p5527
S"<class 'gluon.validators.IS_IPV4'>"
p5528
sS'IS_LENGTH'
p5529
S"<class 'gluon.validators.IS_LENGTH'>"
p5530
sS'XML'
p5531
S"<class 'gluon.html.XML'>"
p5532
sS'B'
S"<class 'gluon.html.B'>"
p5533
sS'IMG'
p5534
S"<class 'gluon.html.IMG'>"
p5535
sS'SQLTABLE'
p5536
S"<class 'gluon.sqlhtml.SQLTABLE'>"
p5537
sS'IS_MATCH'
p5538
S"<class 'gluon.validators.IS_MATCH'>"
p5539
sS'IS_ALPHANUMERIC'
p5540
S"<class 'gluon.validators.IS_ALPHANUMERIC'>"
p5541
sS'SPAN'
p5542
S"<class 'gluon.html.SPAN'>"
p5543
sS'IS_SLUG'
p5544
S"<class 'gluon.validators.IS_SLUG'>"
p5545
sS'CLEANUP'
p5546
S"<class 'gluon.validators.CLEANUP'>"
p5547
sS'IS_DATE'
p5548
S"<class 'gluon.validators.IS_DATE'>"
p5549
sS'IS_EMAIL'
p5550
S"<class 'gluon.validators.IS_EMAIL'>"
p5551
sS'IS_NOT_EMPTY'
p5552
S"<class 'gluon.validators.IS_NOT_EMPTY'>"
p5553
sg55
S"<Storage {'body': <cStringIO.StringO object at 0..._vars': <Storage {}>, 'post_vars': <Storage {}>}>"
p5554
sS'BEAUTIFY'
p5555
S"<class 'gluon.html.BEAUTIFY'>"
p5556
sS'TBODY'
p5557
S"<class 'gluon.html.TBODY'>"
p5558
sS'CAT'
p5559
S"<class 'gluon.html.CAT'>"
p5560
sS'Field'
p5561
S"<class 'gluon.dal.Field'>"
p5562
sS'allowed'
p5563
g1656
sS'DIV'
p5564
S"<class 'gluon.html.DIV'>"
p5565
sS'LEGEND'
p5566
S"<class 'gluon.html.LEGEND'>"
p5567
sS'COLGROUP'
p5568
S"<class 'gluon.html.COLGROUP'>"
p5569
sS'DAL'
p5570
S"<class 'gluon.dal.DAL'>"
p5571
sS'pathutils'
p5572
S"<module 'applications.ddlagoon.pathutils' from 'applications/ddlagoon/pathutils.py'>"
p5573
sS'TT'
p5574
S"<class 'gluon.html.TT'>"
p5575
sS'TR'
p5576
S"<class 'gluon.html.TR'>"
p5577
sS'LI'
p5578
S"<class 'gluon.html.LI'>"
p5579
sS'right_sidebar_enabled'
p5580
g1656
sS'IFRAME'
p5581
S"<class 'gluon.html.IFRAME'>"
p5582
sS'TD'
p5583
S"<class 'gluon.html.TD'>"
p5584
sS'PluginManager'
p5585
S"<class 'gluon.tools.PluginManager'>"
p5586
sS'IS_URL'
p5587
S"<class 'gluon.validators.IS_URL'>"
p5588
sS'A'
S"<class 'gluon.html.A'>"
p5589
sS'STYLE'
p5590
S"<class 'gluon.html.STYLE'>"
p5591
sS'IS_DATETIME_IN_RANGE'
p5592
S"<class 'gluon.validators.IS_DATETIME_IN_RANGE'>"
p5593
sS'generateNickname'
p5594
S'<function generateNickname>'
p5595
sS'FORM'
p5596
S"<class 'gluon.html.FORM'>"
p5597
sS'I'
S"<class 'gluon.html.I'>"
p5598
sS'crud'
p5599
S'<gluon.tools.Crud object>'
p5600
sS'right_sidebar_style'
p5601
S'\'style="display: block;"\''
p5602
sS'IS_NOT_IN_DB'
p5603
S"<class 'gluon.validators.IS_NOT_IN_DB'>"
p5604
sg3424
S"<Storage {'body': <cStringIO.StringO object at 0...x2028f50>, 'view': 'default/how_to_upload.html'}>"
p5605
sS'THEAD'
p5606
S"<class 'gluon.html.THEAD'>"
p5607
sS'IS_NULL_OR'
p5608
S"<class 'gluon.validators.IS_EMPTY_OR'>"
p5609
sS'left_sidebar_style'
p5610
S'\'style="display: block;"\''
p5611
sS'generateUploaderKey'
p5612
S'<function generateUploaderKey>'
p5613
sS'IS_FLOAT_IN_RANGE'
p5614
S"<class 'gluon.validators.IS_FLOAT_IN_RANGE'>"
p5615
sS'IS_EXPR'
p5616
S"<class 'gluon.validators.IS_EXPR'>"
p5617
sS'T'
S'<gluon.languages.translator object>'
p5618
sS'IS_IN_SET'
p5619
S"<class 'gluon.validators.IS_IN_SET'>"
p5620
sS'IS_UPLOAD_FILENAME'
p5621
S"<class 'gluon.validators.IS_UPLOAD_FILENAME'>"
p5622
sS'style_content'
p5623
S'\'style="width: 63%"\''
p5624
sS're'
p5625
S"<module 're' from '/usr/lib/python2.6/re.pyc'>"
p5626
sS'IS_DECIMAL_IN_RANGE'
p5627
S"<class 'gluon.validators.IS_DECIMAL_IN_RANGE'>"
p5628
sssS'traceback'
p5629
S'Traceback (most recent call last):\n  File "/home/thomas/Dropbox/appz/2011/ddlagoon/public_html/gluon/restricted.py", line 194, in restricted\n    exec ccode in environment\n  File "/windows/Users/Thomas/Dropbox/appz/2011/ddlagoon/public_html/applications/ddlagoon/views/default/how_to_upload.html", line 74, in <module>\nNameError: name \'alloweed\' is not defined\n'
p5630
s.