(dp1
S'output'
p2
S''
sS'layer'
p3
S'/windows/Users/Thomas/Dropbox/appz/2011/GAE/ddl-lagoon/applications/ddlagoon/compiled/controllers_default_index.pyc'
p4
sS'code'
p5
S'<code object <module> at 0x7f80bc2b1198, file "/windows/Users/Thomas/Dropbox/appz/2011/GAE/ddl-lagoon/applications/ddlagoon/compiled/controllers_default_index.py", line 11>'
p6
sS'snapshot'
p7
(dp8
S'exception'
p9
(dp10
S'__hash__'
p11
S"<method-wrapper '__hash__' of exceptions.AttributeError object>"
p12
sS'__setattr__'
p13
S"<method-wrapper '__setattr__' of exceptions.AttributeError object>"
p14
sS'__reduce_ex__'
p15
S'<built-in method __reduce_ex__ of exceptions.AttributeError object>'
p16
sS'__getslice__'
p17
S"<method-wrapper '__getslice__' of exceptions.AttributeError object>"
p18
sS'__getitem__'
p19
S"<method-wrapper '__getitem__' of exceptions.AttributeError object>"
p20
sS'__setstate__'
p21
S'<built-in method __setstate__ of exceptions.AttributeError object>'
p22
sS'args'
p23
S'("\'DDLVirtualFields\' object has no attribute \'size\'",)'
p24
sS'__reduce__'
p25
S'<built-in method __reduce__ of exceptions.AttributeError object>'
p26
sS'__str__'
p27
S"<method-wrapper '__str__' of exceptions.AttributeError object>"
p28
sS'__format__'
p29
S'<built-in method __format__ of exceptions.AttributeError object>'
p30
sS'__getattribute__'
p31
S"<method-wrapper '__getattribute__' of exceptions.AttributeError object>"
p32
sS'__class__'
p33
S"<type 'exceptions.AttributeError'>"
p34
sS'__unicode__'
p35
S'<built-in method __unicode__ of exceptions.AttributeError object>'
p36
sS'__delattr__'
p37
S"<method-wrapper '__delattr__' of exceptions.AttributeError object>"
p38
sS'__subclasshook__'
p39
S'<built-in method __subclasshook__ of type object>'
p40
sS'__repr__'
p41
S"<method-wrapper '__repr__' of exceptions.AttributeError object>"
p42
sS'__dict__'
p43
S'{}'
p44
sS'__sizeof__'
p45
S'<built-in method __sizeof__ of exceptions.AttributeError object>'
p46
sS'__doc__'
p47
S"'Attribute not found.'"
p48
sS'__init__'
p49
S"<method-wrapper '__init__' of exceptions.AttributeError object>"
p50
sS'__new__'
p51
S'<built-in method __new__ of type object>'
p52
ssS'evalue'
p53
S"'DDLVirtualFields' object has no attribute 'size'"
p54
sS'request'
p55
ccopy_reg
_reconstructor
p56
(cgluon.html
BEAUTIFY
p57
c__builtin__
object
p58
NtRp59
(dp60
S'attributes'
p61
(dp62
sS'components'
p63
(lp64
g56
(cgluon.html
TABLE
p65
g58
NtRp66
(dp67
g61
(dp68
S'level'
p69
I5
ssS'parent'
p70
Nsg63
(lp71
g56
(cgluon.html
TR
p72
g58
NtRp73
(dp74
g61
(dp75
sg70
g66
sg63
(lp76
g56
(cgluon.html
TD
p77
g58
NtRp78
(dp79
g61
(dp80
S'_style'
p81
S'font-weight:bold;'
p82
ssg70
g73
sg63
(lp83
S'ajax'
p84
asbag56
(g77
g58
NtRp85
(dp86
g61
(dp87
S'_valign'
p88
S'top'
p89
ssg70
g73
sg63
(lp90
S':'
asbag56
(g77
g58
NtRp91
(dp92
g61
(dp93
sg70
g73
sg63
(lp94
g56
(g57
g58
NtRp95
(dp96
g61
(dp97
g69
I5
ssg70
g91
sg63
(lp98
S'False'
p99
asbasbasbag56
(g72
g58
NtRp100
(dp101
g61
(dp102
sg70
g66
sg63
(lp103
g56
(g77
g58
NtRp104
(dp105
g61
(dp106
g81
g82
ssg70
g100
sg63
(lp107
S'application'
p108
asbag56
(g77
g58
NtRp109
(dp110
g61
(dp111
g88
g89
ssg70
g100
sg63
(lp112
S':'
asbag56
(g77
g58
NtRp113
(dp114
g61
(dp115
sg70
g100
sg63
(lp116
g56
(g57
g58
NtRp117
(dp118
g61
(dp119
g69
I5
ssg70
g113
sg63
(lp120
S'ddlagoon'
p121
asbasbasbag56
(g72
g58
NtRp122
(dp123
g61
(dp124
sg70
g66
sg63
(lp125
g56
(g77
g58
NtRp126
(dp127
g61
(dp128
g81
g82
ssg70
g122
sg63
(lp129
g23
asbag56
(g77
g58
NtRp130
(dp131
g61
(dp132
g88
g89
ssg70
g122
sg63
(lp133
S':'
asbag56
(g77
g58
NtRp134
(dp135
g61
(dp136
sg70
g122
sg63
(lp137
g56
(g57
g58
NtRp138
(dp139
g61
(dp140
g69
I5
ssg70
g134
sg63
(lp141
g56
(g65
g58
NtRp142
(dp143
g61
(dp144
g69
I4
ssg70
Nsg63
(lp145
sbasbasbasbag56
(g72
g58
NtRp146
(dp147
g61
(dp148
sg70
g66
sg63
(lp149
g56
(g77
g58
NtRp150
(dp151
g61
(dp152
g81
g82
ssg70
g146
sg63
(lp153
S'body'
p154
asbag56
(g77
g58
NtRp155
(dp156
g61
(dp157
g88
g89
ssg70
g146
sg63
(lp158
S':'
asbag56
(g77
g58
NtRp159
(dp160
g61
(dp161
sg70
g146
sg63
(lp162
g56
(g57
g58
NtRp163
(dp164
g61
(dp165
g69
I5
ssg70
g159
sg63
(lp166
S'<cStringIO.StringO object at 0x7f80bc2b6d50>'
p167
asbasbasbag56
(g72
g58
NtRp168
(dp169
g61
(dp170
sg70
g66
sg63
(lp171
g56
(g77
g58
NtRp172
(dp173
g61
(dp174
g81
g82
ssg70
g168
sg63
(lp175
S'client'
p176
asbag56
(g77
g58
NtRp177
(dp178
g61
(dp179
g88
g89
ssg70
g168
sg63
(lp180
S':'
asbag56
(g77
g58
NtRp181
(dp182
g61
(dp183
sg70
g168
sg63
(lp184
g56
(g57
g58
NtRp185
(dp186
g61
(dp187
g69
I5
ssg70
g181
sg63
(lp188
S'127.0.0.1'
p189
asbasbasbag56
(g72
g58
NtRp190
(dp191
g61
(dp192
sg70
g66
sg63
(lp193
g56
(g77
g58
NtRp194
(dp195
g61
(dp196
g81
g82
ssg70
g190
sg63
(lp197
S'controller'
p198
asbag56
(g77
g58
NtRp199
(dp200
g61
(dp201
g88
g89
ssg70
g190
sg63
(lp202
S':'
asbag56
(g77
g58
NtRp203
(dp204
g61
(dp205
sg70
g190
sg63
(lp206
g56
(g57
g58
NtRp207
(dp208
g61
(dp209
g69
I5
ssg70
g203
sg63
(lp210
S'default'
p211
asbasbasbag56
(g72
g58
NtRp212
(dp213
g61
(dp214
sg70
g66
sg63
(lp215
g56
(g77
g58
NtRp216
(dp217
g61
(dp218
g81
g82
ssg70
g212
sg63
(lp219
S'cookies'
p220
asbag56
(g77
g58
NtRp221
(dp222
g61
(dp223
g88
g89
ssg70
g212
sg63
(lp224
S':'
asbag56
(g77
g58
NtRp225
(dp226
g61
(dp227
sg70
g212
sg63
(lp228
g56
(g57
g58
NtRp229
(dp230
g61
(dp231
g69
I5
ssg70
g225
sg63
(lp232
g56
(g65
g58
NtRp233
(dp234
g61
(dp235
g69
I4
ssg70
Nsg63
(lp236
g56
(g72
g58
NtRp237
(dp238
g61
(dp239
sg70
g233
sg63
(lp240
g56
(g77
g58
NtRp241
(dp242
g61
(dp243
g81
g82
ssg70
g237
sg63
(lp244
S'session_id_admin'
p245
asbag56
(g77
g58
NtRp246
(dp247
g61
(dp248
g88
g89
ssg70
g237
sg63
(lp249
S':'
asbag56
(g77
g58
NtRp250
(dp251
g61
(dp252
sg70
g237
sg63
(lp253
g56
(g57
g58
NtRp254
(dp255
g61
(dp256
g69
I4
ssg70
g250
sg63
(lp257
g56
(g65
g58
NtRp258
(dp259
g61
(dp260
g69
I3
ssg70
Nsg63
(lp261
g56
(g72
g58
NtRp262
(dp263
g61
(dp264
sg70
g258
sg63
(lp265
g56
(g77
g58
NtRp266
(dp267
g61
(dp268
g81
g82
ssg70
g262
sg63
(lp269
S'comment'
p270
asbag56
(g77
g58
NtRp271
(dp272
g61
(dp273
g88
g89
ssg70
g262
sg63
(lp274
S':'
asbag56
(g77
g58
NtRp275
(dp276
g61
(dp277
sg70
g262
sg63
(lp278
g56
(g57
g58
NtRp279
(dp280
g61
(dp281
g69
I3
ssg70
g275
sg63
(lp282
S''
asbasbasbag56
(g72
g58
NtRp283
(dp284
g61
(dp285
sg70
g258
sg63
(lp286
g56
(g77
g58
NtRp287
(dp288
g61
(dp289
g81
g82
ssg70
g283
sg63
(lp290
S'domain'
p291
asbag56
(g77
g58
NtRp292
(dp293
g61
(dp294
g88
g89
ssg70
g283
sg63
(lp295
S':'
asbag56
(g77
g58
NtRp296
(dp297
g61
(dp298
sg70
g283
sg63
(lp299
g56
(g57
g58
NtRp300
(dp301
g61
(dp302
g69
I3
ssg70
g296
sg63
(lp303
S''
asbasbasbag56
(g72
g58
NtRp304
(dp305
g61
(dp306
sg70
g258
sg63
(lp307
g56
(g77
g58
NtRp308
(dp309
g61
(dp310
g81
g82
ssg70
g304
sg63
(lp311
S'expires'
p312
asbag56
(g77
g58
NtRp313
(dp314
g61
(dp315
g88
g89
ssg70
g304
sg63
(lp316
S':'
asbag56
(g77
g58
NtRp317
(dp318
g61
(dp319
sg70
g304
sg63
(lp320
g56
(g57
g58
NtRp321
(dp322
g61
(dp323
g69
I3
ssg70
g317
sg63
(lp324
S''
asbasbasbag56
(g72
g58
NtRp325
(dp326
g61
(dp327
sg70
g258
sg63
(lp328
g56
(g77
g58
NtRp329
(dp330
g61
(dp331
g81
g82
ssg70
g325
sg63
(lp332
S'httponly'
p333
asbag56
(g77
g58
NtRp334
(dp335
g61
(dp336
g88
g89
ssg70
g325
sg63
(lp337
S':'
asbag56
(g77
g58
NtRp338
(dp339
g61
(dp340
sg70
g325
sg63
(lp341
g56
(g57
g58
NtRp342
(dp343
g61
(dp344
g69
I3
ssg70
g338
sg63
(lp345
S''
asbasbasbag56
(g72
g58
NtRp346
(dp347
g61
(dp348
sg70
g258
sg63
(lp349
g56
(g77
g58
NtRp350
(dp351
g61
(dp352
g81
g82
ssg70
g346
sg63
(lp353
S'max-age'
p354
asbag56
(g77
g58
NtRp355
(dp356
g61
(dp357
g88
g89
ssg70
g346
sg63
(lp358
S':'
asbag56
(g77
g58
NtRp359
(dp360
g61
(dp361
sg70
g346
sg63
(lp362
g56
(g57
g58
NtRp363
(dp364
g61
(dp365
g69
I3
ssg70
g359
sg63
(lp366
S''
asbasbasbag56
(g72
g58
NtRp367
(dp368
g61
(dp369
sg70
g258
sg63
(lp370
g56
(g77
g58
NtRp371
(dp372
g61
(dp373
g81
g82
ssg70
g367
sg63
(lp374
S'path'
p375
asbag56
(g77
g58
NtRp376
(dp377
g61
(dp378
g88
g89
ssg70
g367
sg63
(lp379
S':'
asbag56
(g77
g58
NtRp380
(dp381
g61
(dp382
sg70
g367
sg63
(lp383
g56
(g57
g58
NtRp384
(dp385
g61
(dp386
g69
I3
ssg70
g380
sg63
(lp387
S''
asbasbasbag56
(g72
g58
NtRp388
(dp389
g61
(dp390
sg70
g258
sg63
(lp391
g56
(g77
g58
NtRp392
(dp393
g61
(dp394
g81
g82
ssg70
g388
sg63
(lp395
S'secure'
p396
asbag56
(g77
g58
NtRp397
(dp398
g61
(dp399
g88
g89
ssg70
g388
sg63
(lp400
S':'
asbag56
(g77
g58
NtRp401
(dp402
g61
(dp403
sg70
g388
sg63
(lp404
g56
(g57
g58
NtRp405
(dp406
g61
(dp407
g69
I3
ssg70
g401
sg63
(lp408
S''
asbasbasbag56
(g72
g58
NtRp409
(dp410
g61
(dp411
sg70
g258
sg63
(lp412
g56
(g77
g58
NtRp413
(dp414
g61
(dp415
g81
g82
ssg70
g409
sg63
(lp416
S'version'
p417
asbag56
(g77
g58
NtRp418
(dp419
g61
(dp420
g88
g89
ssg70
g409
sg63
(lp421
S':'
asbag56
(g77
g58
NtRp422
(dp423
g61
(dp424
sg70
g409
sg63
(lp425
g56
(g57
g58
NtRp426
(dp427
g61
(dp428
g69
I3
ssg70
g422
sg63
(lp429
S''
asbasbasbasbasbasbasbag56
(g72
g58
NtRp430
(dp431
g61
(dp432
sg70
g233
sg63
(lp433
g56
(g77
g58
NtRp434
(dp435
g61
(dp436
g81
g82
ssg70
g430
sg63
(lp437
S'session_id_ddlagoon'
p438
asbag56
(g77
g58
NtRp439
(dp440
g61
(dp441
g88
g89
ssg70
g430
sg63
(lp442
S':'
asbag56
(g77
g58
NtRp443
(dp444
g61
(dp445
sg70
g430
sg63
(lp446
g56
(g57
g58
NtRp447
(dp448
g61
(dp449
g69
I4
ssg70
g443
sg63
(lp450
g56
(g65
g58
NtRp451
(dp452
g61
(dp453
g69
I3
ssg70
Nsg63
(lp454
g56
(g72
g58
NtRp455
(dp456
g61
(dp457
sg70
g451
sg63
(lp458
g56
(g77
g58
NtRp459
(dp460
g61
(dp461
g81
g82
ssg70
g455
sg63
(lp462
g270
asbag56
(g77
g58
NtRp463
(dp464
g61
(dp465
g88
g89
ssg70
g455
sg63
(lp466
S':'
asbag56
(g77
g58
NtRp467
(dp468
g61
(dp469
sg70
g455
sg63
(lp470
g56
(g57
g58
NtRp471
(dp472
g61
(dp473
g69
I3
ssg70
g467
sg63
(lp474
S''
asbasbasbag56
(g72
g58
NtRp475
(dp476
g61
(dp477
sg70
g451
sg63
(lp478
g56
(g77
g58
NtRp479
(dp480
g61
(dp481
g81
g82
ssg70
g475
sg63
(lp482
g291
asbag56
(g77
g58
NtRp483
(dp484
g61
(dp485
g88
g89
ssg70
g475
sg63
(lp486
S':'
asbag56
(g77
g58
NtRp487
(dp488
g61
(dp489
sg70
g475
sg63
(lp490
g56
(g57
g58
NtRp491
(dp492
g61
(dp493
g69
I3
ssg70
g487
sg63
(lp494
S''
asbasbasbag56
(g72
g58
NtRp495
(dp496
g61
(dp497
sg70
g451
sg63
(lp498
g56
(g77
g58
NtRp499
(dp500
g61
(dp501
g81
g82
ssg70
g495
sg63
(lp502
g312
asbag56
(g77
g58
NtRp503
(dp504
g61
(dp505
g88
g89
ssg70
g495
sg63
(lp506
S':'
asbag56
(g77
g58
NtRp507
(dp508
g61
(dp509
sg70
g495
sg63
(lp510
g56
(g57
g58
NtRp511
(dp512
g61
(dp513
g69
I3
ssg70
g507
sg63
(lp514
S''
asbasbasbag56
(g72
g58
NtRp515
(dp516
g61
(dp517
sg70
g451
sg63
(lp518
g56
(g77
g58
NtRp519
(dp520
g61
(dp521
g81
g82
ssg70
g515
sg63
(lp522
g333
asbag56
(g77
g58
NtRp523
(dp524
g61
(dp525
g88
g89
ssg70
g515
sg63
(lp526
S':'
asbag56
(g77
g58
NtRp527
(dp528
g61
(dp529
sg70
g515
sg63
(lp530
g56
(g57
g58
NtRp531
(dp532
g61
(dp533
g69
I3
ssg70
g527
sg63
(lp534
S''
asbasbasbag56
(g72
g58
NtRp535
(dp536
g61
(dp537
sg70
g451
sg63
(lp538
g56
(g77
g58
NtRp539
(dp540
g61
(dp541
g81
g82
ssg70
g535
sg63
(lp542
g354
asbag56
(g77
g58
NtRp543
(dp544
g61
(dp545
g88
g89
ssg70
g535
sg63
(lp546
S':'
asbag56
(g77
g58
NtRp547
(dp548
g61
(dp549
sg70
g535
sg63
(lp550
g56
(g57
g58
NtRp551
(dp552
g61
(dp553
g69
I3
ssg70
g547
sg63
(lp554
S''
asbasbasbag56
(g72
g58
NtRp555
(dp556
g61
(dp557
sg70
g451
sg63
(lp558
g56
(g77
g58
NtRp559
(dp560
g61
(dp561
g81
g82
ssg70
g555
sg63
(lp562
g375
asbag56
(g77
g58
NtRp563
(dp564
g61
(dp565
g88
g89
ssg70
g555
sg63
(lp566
S':'
asbag56
(g77
g58
NtRp567
(dp568
g61
(dp569
sg70
g555
sg63
(lp570
g56
(g57
g58
NtRp571
(dp572
g61
(dp573
g69
I3
ssg70
g567
sg63
(lp574
S''
asbasbasbag56
(g72
g58
NtRp575
(dp576
g61
(dp577
sg70
g451
sg63
(lp578
g56
(g77
g58
NtRp579
(dp580
g61
(dp581
g81
g82
ssg70
g575
sg63
(lp582
g396
asbag56
(g77
g58
NtRp583
(dp584
g61
(dp585
g88
g89
ssg70
g575
sg63
(lp586
S':'
asbag56
(g77
g58
NtRp587
(dp588
g61
(dp589
sg70
g575
sg63
(lp590
g56
(g57
g58
NtRp591
(dp592
g61
(dp593
g69
I3
ssg70
g587
sg63
(lp594
S''
asbasbasbag56
(g72
g58
NtRp595
(dp596
g61
(dp597
sg70
g451
sg63
(lp598
g56
(g77
g58
NtRp599
(dp600
g61
(dp601
g81
g82
ssg70
g595
sg63
(lp602
g417
asbag56
(g77
g58
NtRp603
(dp604
g61
(dp605
g88
g89
ssg70
g595
sg63
(lp606
S':'
asbag56
(g77
g58
NtRp607
(dp608
g61
(dp609
sg70
g595
sg63
(lp610
g56
(g57
g58
NtRp611
(dp612
g61
(dp613
g69
I3
ssg70
g607
sg63
(lp614
S''
asbasbasbasbasbasbasbag56
(g72
g58
NtRp615
(dp616
g61
(dp617
sg70
g233
sg63
(lp618
g56
(g77
g58
NtRp619
(dp620
g61
(dp621
g81
g82
ssg70
g615
sg63
(lp622
S'session_id_welcome'
p623
asbag56
(g77
g58
NtRp624
(dp625
g61
(dp626
g88
g89
ssg70
g615
sg63
(lp627
S':'
asbag56
(g77
g58
NtRp628
(dp629
g61
(dp630
sg70
g615
sg63
(lp631
g56
(g57
g58
NtRp632
(dp633
g61
(dp634
g69
I4
ssg70
g628
sg63
(lp635
g56
(g65
g58
NtRp636
(dp637
g61
(dp638
g69
I3
ssg70
Nsg63
(lp639
g56
(g72
g58
NtRp640
(dp641
g61
(dp642
sg70
g636
sg63
(lp643
g56
(g77
g58
NtRp644
(dp645
g61
(dp646
g81
g82
ssg70
g640
sg63
(lp647
g270
asbag56
(g77
g58
NtRp648
(dp649
g61
(dp650
g88
g89
ssg70
g640
sg63
(lp651
S':'
asbag56
(g77
g58
NtRp652
(dp653
g61
(dp654
sg70
g640
sg63
(lp655
g56
(g57
g58
NtRp656
(dp657
g61
(dp658
g69
I3
ssg70
g652
sg63
(lp659
S''
asbasbasbag56
(g72
g58
NtRp660
(dp661
g61
(dp662
sg70
g636
sg63
(lp663
g56
(g77
g58
NtRp664
(dp665
g61
(dp666
g81
g82
ssg70
g660
sg63
(lp667
g291
asbag56
(g77
g58
NtRp668
(dp669
g61
(dp670
g88
g89
ssg70
g660
sg63
(lp671
S':'
asbag56
(g77
g58
NtRp672
(dp673
g61
(dp674
sg70
g660
sg63
(lp675
g56
(g57
g58
NtRp676
(dp677
g61
(dp678
g69
I3
ssg70
g672
sg63
(lp679
S''
asbasbasbag56
(g72
g58
NtRp680
(dp681
g61
(dp682
sg70
g636
sg63
(lp683
g56
(g77
g58
NtRp684
(dp685
g61
(dp686
g81
g82
ssg70
g680
sg63
(lp687
g312
asbag56
(g77
g58
NtRp688
(dp689
g61
(dp690
g88
g89
ssg70
g680
sg63
(lp691
S':'
asbag56
(g77
g58
NtRp692
(dp693
g61
(dp694
sg70
g680
sg63
(lp695
g56
(g57
g58
NtRp696
(dp697
g61
(dp698
g69
I3
ssg70
g692
sg63
(lp699
S''
asbasbasbag56
(g72
g58
NtRp700
(dp701
g61
(dp702
sg70
g636
sg63
(lp703
g56
(g77
g58
NtRp704
(dp705
g61
(dp706
g81
g82
ssg70
g700
sg63
(lp707
g333
asbag56
(g77
g58
NtRp708
(dp709
g61
(dp710
g88
g89
ssg70
g700
sg63
(lp711
S':'
asbag56
(g77
g58
NtRp712
(dp713
g61
(dp714
sg70
g700
sg63
(lp715
g56
(g57
g58
NtRp716
(dp717
g61
(dp718
g69
I3
ssg70
g712
sg63
(lp719
S''
asbasbasbag56
(g72
g58
NtRp720
(dp721
g61
(dp722
sg70
g636
sg63
(lp723
g56
(g77
g58
NtRp724
(dp725
g61
(dp726
g81
g82
ssg70
g720
sg63
(lp727
g354
asbag56
(g77
g58
NtRp728
(dp729
g61
(dp730
g88
g89
ssg70
g720
sg63
(lp731
S':'
asbag56
(g77
g58
NtRp732
(dp733
g61
(dp734
sg70
g720
sg63
(lp735
g56
(g57
g58
NtRp736
(dp737
g61
(dp738
g69
I3
ssg70
g732
sg63
(lp739
S''
asbasbasbag56
(g72
g58
NtRp740
(dp741
g61
(dp742
sg70
g636
sg63
(lp743
g56
(g77
g58
NtRp744
(dp745
g61
(dp746
g81
g82
ssg70
g740
sg63
(lp747
g375
asbag56
(g77
g58
NtRp748
(dp749
g61
(dp750
g88
g89
ssg70
g740
sg63
(lp751
S':'
asbag56
(g77
g58
NtRp752
(dp753
g61
(dp754
sg70
g740
sg63
(lp755
g56
(g57
g58
NtRp756
(dp757
g61
(dp758
g69
I3
ssg70
g752
sg63
(lp759
S''
asbasbasbag56
(g72
g58
NtRp760
(dp761
g61
(dp762
sg70
g636
sg63
(lp763
g56
(g77
g58
NtRp764
(dp765
g61
(dp766
g81
g82
ssg70
g760
sg63
(lp767
g396
asbag56
(g77
g58
NtRp768
(dp769
g61
(dp770
g88
g89
ssg70
g760
sg63
(lp771
S':'
asbag56
(g77
g58
NtRp772
(dp773
g61
(dp774
sg70
g760
sg63
(lp775
g56
(g57
g58
NtRp776
(dp777
g61
(dp778
g69
I3
ssg70
g772
sg63
(lp779
S''
asbasbasbag56
(g72
g58
NtRp780
(dp781
g61
(dp782
sg70
g636
sg63
(lp783
g56
(g77
g58
NtRp784
(dp785
g61
(dp786
g81
g82
ssg70
g780
sg63
(lp787
g417
asbag56
(g77
g58
NtRp788
(dp789
g61
(dp790
g88
g89
ssg70
g780
sg63
(lp791
S':'
asbag56
(g77
g58
NtRp792
(dp793
g61
(dp794
sg70
g780
sg63
(lp795
g56
(g57
g58
NtRp796
(dp797
g61
(dp798
g69
I3
ssg70
g792
sg63
(lp799
S''
asbasbasbasbasbasbasbasbasbasbasbag56
(g72
g58
NtRp800
(dp801
g61
(dp802
sg70
g66
sg63
(lp803
g56
(g77
g58
NtRp804
(dp805
g61
(dp806
g81
g82
ssg70
g800
sg63
(lp807
S'env'
p808
asbag56
(g77
g58
NtRp809
(dp810
g61
(dp811
g88
g89
ssg70
g800
sg63
(lp812
S':'
asbag56
(g77
g58
NtRp813
(dp814
g61
(dp815
sg70
g800
sg63
(lp816
g56
(g57
g58
NtRp817
(dp818
g61
(dp819
g69
I5
ssg70
g813
sg63
(lp820
g56
(g65
g58
NtRp821
(dp822
g61
(dp823
g69
I4
ssg70
Nsg63
(lp824
g56
(g72
g58
NtRp825
(dp826
g61
(dp827
sg70
g821
sg63
(lp828
g56
(g77
g58
NtRp829
(dp830
g61
(dp831
g81
g82
ssg70
g825
sg63
(lp832
S'app_folders'
p833
asbag56
(g77
g58
NtRp834
(dp835
g61
(dp836
g88
g89
ssg70
g825
sg63
(lp837
S':'
asbag56
(g77
g58
NtRp838
(dp839
g61
(dp840
sg70
g825
sg63
(lp841
g56
(g57
g58
NtRp842
(dp843
g61
(dp844
g69
I4
ssg70
g838
sg63
(lp845
S"set(['/windows/Users/Thomas/Dropbox/appz/2011/GAE/ddl-lagoon/applications/ddlagoon/', '/windows/Users/Thomas/Dropbox/appz/2011/GAE/ddl-lagoon/applications/welcome/', '/windows/Users/Thomas/Dropbox/appz/2011/GAE/ddl-lagoon/applications/admin/'])"
p846
asbasbasbag56
(g72
g58
NtRp847
(dp848
g61
(dp849
sg70
g821
sg63
(lp850
g56
(g77
g58
NtRp851
(dp852
g61
(dp853
g81
g82
ssg70
g847
sg63
(lp854
S'applications_parent'
p855
asbag56
(g77
g58
NtRp856
(dp857
g61
(dp858
g88
g89
ssg70
g847
sg63
(lp859
S':'
asbag56
(g77
g58
NtRp860
(dp861
g61
(dp862
sg70
g847
sg63
(lp863
g56
(g57
g58
NtRp864
(dp865
g61
(dp866
g69
I4
ssg70
g860
sg63
(lp867
S'/windows/Users/Thomas/Dropbox/appz/2011/GAE/ddl-lagoon'
p868
asbasbasbag56
(g72
g58
NtRp869
(dp870
g61
(dp871
sg70
g821
sg63
(lp872
g56
(g77
g58
NtRp873
(dp874
g61
(dp875
g81
g82
ssg70
g869
sg63
(lp876
S'cmd_args'
p877
asbag56
(g77
g58
NtRp878
(dp879
g61
(dp880
g88
g89
ssg70
g869
sg63
(lp881
S':'
asbag56
(g77
g58
NtRp882
(dp883
g61
(dp884
sg70
g869
sg63
(lp885
g56
(g57
g58
NtRp886
(dp887
g61
(dp888
g69
I4
ssg70
g882
sg63
(lp889
g56
(g65
g58
NtRp890
(dp891
g61
(dp892
g69
I3
ssg70
Nsg63
(lp893
sbasbasbasbag56
(g72
g58
NtRp894
(dp895
g61
(dp896
sg70
g821
sg63
(lp897
g56
(g77
g58
NtRp898
(dp899
g61
(dp900
g81
g82
ssg70
g894
sg63
(lp901
S'cmd_options'
p902
asbag56
(g77
g58
NtRp903
(dp904
g61
(dp905
g88
g89
ssg70
g894
sg63
(lp906
S':'
asbag56
(g77
g58
NtRp907
(dp908
g61
(dp909
sg70
g894
sg63
(lp910
g56
(g57
g58
NtRp911
(dp912
g61
(dp913
g69
I4
ssg70
g907
sg63
(lp914
S"<Values at 0x2d4df38: {'verbose': False, 'ip': '127.0.0.1', 'shutdown_timeout': 5, 'taskbar': False, 'nocron': False, 'pid_filename': 'httpserver.pid', 'maxthreads': None, 'softcron': False, 'server_name': 'VPCF22AJ', 'bpython': False, 'nogui': False, 'port': 8000, 'extcron': False, 'debuglevel': 30, 'test': None, 'folder': '/windows/Users/Thomas/Dropbox/appz/2011/GAE/ddl-lagoon', 'config': '', 'import_models': False, 'winservice': '', 'shell': None, 'run': '', 'log_filename': 'httpserver.log', 'args': [''], 'ssl_ca_certificate': None, 'scheduler': None, 'profiler_filename': None, 'ssl_private_key': '', 'password': 'admin', 'request_queue_size': 5, 'ssl_certificate': '', 'cronjob': False, 'plain': False, 'quiet': False, 'interfaces': None, 'minthreads': None, 'timeout': 10, 'numthreads': None, 'nobanner': False}>"
p915
asbasbasbag56
(g72
g58
NtRp916
(dp917
g61
(dp918
sg70
g821
sg63
(lp919
g56
(g77
g58
NtRp920
(dp921
g61
(dp922
g81
g82
ssg70
g916
sg63
(lp923
S'db_sessions'
p924
asbag56
(g77
g58
NtRp925
(dp926
g61
(dp927
g88
g89
ssg70
g916
sg63
(lp928
S':'
asbag56
(g77
g58
NtRp929
(dp930
g61
(dp931
sg70
g916
sg63
(lp932
g56
(g57
g58
NtRp933
(dp934
g61
(dp935
g69
I4
ssg70
g929
sg63
(lp936
S'set([])'
p937
asbasbasbag56
(g72
g58
NtRp938
(dp939
g61
(dp940
sg70
g821
sg63
(lp941
g56
(g77
g58
NtRp942
(dp943
g61
(dp944
g81
g82
ssg70
g938
sg63
(lp945
S'debugging'
p946
asbag56
(g77
g58
NtRp947
(dp948
g61
(dp949
g88
g89
ssg70
g938
sg63
(lp950
S':'
asbag56
(g77
g58
NtRp951
(dp952
g61
(dp953
sg70
g938
sg63
(lp954
g56
(g57
g58
NtRp955
(dp956
g61
(dp957
g69
I4
ssg70
g951
sg63
(lp958
g99
asbasbasbag56
(g72
g58
NtRp959
(dp960
g61
(dp961
sg70
g821
sg63
(lp962
g56
(g77
g58
NtRp963
(dp964
g61
(dp965
g81
g82
ssg70
g959
sg63
(lp966
S'gluon_parent'
p967
asbag56
(g77
g58
NtRp968
(dp969
g61
(dp970
g88
g89
ssg70
g959
sg63
(lp971
S':'
asbag56
(g77
g58
NtRp972
(dp973
g61
(dp974
sg70
g959
sg63
(lp975
g56
(g57
g58
NtRp976
(dp977
g61
(dp978
g69
I4
ssg70
g972
sg63
(lp979
S'/windows/Users/Thomas/Dropbox/appz/2011/GAE/ddl-lagoon'
p980
asbasbasbag56
(g72
g58
NtRp981
(dp982
g61
(dp983
sg70
g821
sg63
(lp984
g56
(g77
g58
NtRp985
(dp986
g61
(dp987
g81
g82
ssg70
g981
sg63
(lp988
S'http_accept'
p989
asbag56
(g77
g58
NtRp990
(dp991
g61
(dp992
g88
g89
ssg70
g981
sg63
(lp993
S':'
asbag56
(g77
g58
NtRp994
(dp995
g61
(dp996
sg70
g981
sg63
(lp997
g56
(g57
g58
NtRp998
(dp999
g61
(dp1000
g69
I4
ssg70
g994
sg63
(lp1001
S'text/html,application/xhtml+xml,application/xml;q=0.9,*/*;q=0.8'
p1002
asbasbasbag56
(g72
g58
NtRp1003
(dp1004
g61
(dp1005
sg70
g821
sg63
(lp1006
g56
(g77
g58
NtRp1007
(dp1008
g61
(dp1009
g81
g82
ssg70
g1003
sg63
(lp1010
S'http_accept_charset'
p1011
asbag56
(g77
g58
NtRp1012
(dp1013
g61
(dp1014
g88
g89
ssg70
g1003
sg63
(lp1015
S':'
asbag56
(g77
g58
NtRp1016
(dp1017
g61
(dp1018
sg70
g1003
sg63
(lp1019
g56
(g57
g58
NtRp1020
(dp1021
g61
(dp1022
g69
I4
ssg70
g1016
sg63
(lp1023
S'ISO-8859-1,utf-8;q=0.7,*;q=0.3'
p1024
asbasbasbag56
(g72
g58
NtRp1025
(dp1026
g61
(dp1027
sg70
g821
sg63
(lp1028
g56
(g77
g58
NtRp1029
(dp1030
g61
(dp1031
g81
g82
ssg70
g1025
sg63
(lp1032
S'http_accept_encoding'
p1033
asbag56
(g77
g58
NtRp1034
(dp1035
g61
(dp1036
g88
g89
ssg70
g1025
sg63
(lp1037
S':'
asbag56
(g77
g58
NtRp1038
(dp1039
g61
(dp1040
sg70
g1025
sg63
(lp1041
g56
(g57
g58
NtRp1042
(dp1043
g61
(dp1044
g69
I4
ssg70
g1038
sg63
(lp1045
S'gzip,deflate,sdch'
p1046
asbasbasbag56
(g72
g58
NtRp1047
(dp1048
g61
(dp1049
sg70
g821
sg63
(lp1050
g56
(g77
g58
NtRp1051
(dp1052
g61
(dp1053
g81
g82
ssg70
g1047
sg63
(lp1054
S'http_accept_language'
p1055
asbag56
(g77
g58
NtRp1056
(dp1057
g61
(dp1058
g88
g89
ssg70
g1047
sg63
(lp1059
S':'
asbag56
(g77
g58
NtRp1060
(dp1061
g61
(dp1062
sg70
g1047
sg63
(lp1063
g56
(g57
g58
NtRp1064
(dp1065
g61
(dp1066
g69
I4
ssg70
g1060
sg63
(lp1067
S'en-US,en;q=0.8,fr;q=0.6'
p1068
asbasbasbag56
(g72
g58
NtRp1069
(dp1070
g61
(dp1071
sg70
g821
sg63
(lp1072
g56
(g77
g58
NtRp1073
(dp1074
g61
(dp1075
g81
g82
ssg70
g1069
sg63
(lp1076
S'http_connection'
p1077
asbag56
(g77
g58
NtRp1078
(dp1079
g61
(dp1080
g88
g89
ssg70
g1069
sg63
(lp1081
S':'
asbag56
(g77
g58
NtRp1082
(dp1083
g61
(dp1084
sg70
g1069
sg63
(lp1085
g56
(g57
g58
NtRp1086
(dp1087
g61
(dp1088
g69
I4
ssg70
g1082
sg63
(lp1089
S'keep-alive'
p1090
asbasbasbag56
(g72
g58
NtRp1091
(dp1092
g61
(dp1093
sg70
g821
sg63
(lp1094
g56
(g77
g58
NtRp1095
(dp1096
g61
(dp1097
g81
g82
ssg70
g1091
sg63
(lp1098
S'http_cookie'
p1099
asbag56
(g77
g58
NtRp1100
(dp1101
g61
(dp1102
g88
g89
ssg70
g1091
sg63
(lp1103
S':'
asbag56
(g77
g58
NtRp1104
(dp1105
g61
(dp1106
sg70
g1091
sg63
(lp1107
g56
(g57
g58
NtRp1108
(dp1109
g61
(dp1110
g69
I4
ssg70
g1104
sg63
(lp1111
S'__utma_a2a=6830991484.1350583772.1319026846.1319052270.1319052278.11; session_id_welcome=127.0.0.1-47f0e8b4-66ae-4fd0-bb0a-8a2d7a2027c4; session_id_admin=127.0.0.1-c4c6f676-274b-4970-ab2f-4415e39a2b0f; session_id_ddlagoon=127.0.0.1-5e218834-29d7-463f-9532-430775dc9bad'
p1112
asbasbasbag56
(g72
g58
NtRp1113
(dp1114
g61
(dp1115
sg70
g821
sg63
(lp1116
g56
(g77
g58
NtRp1117
(dp1118
g61
(dp1119
g81
g82
ssg70
g1113
sg63
(lp1120
S'http_host'
p1121
asbag56
(g77
g58
NtRp1122
(dp1123
g61
(dp1124
g88
g89
ssg70
g1113
sg63
(lp1125
S':'
asbag56
(g77
g58
NtRp1126
(dp1127
g61
(dp1128
sg70
g1113
sg63
(lp1129
g56
(g57
g58
NtRp1130
(dp1131
g61
(dp1132
g69
I4
ssg70
g1126
sg63
(lp1133
S'localhost:8000'
p1134
asbasbasbag56
(g72
g58
NtRp1135
(dp1136
g61
(dp1137
sg70
g821
sg63
(lp1138
g56
(g77
g58
NtRp1139
(dp1140
g61
(dp1141
g81
g82
ssg70
g1135
sg63
(lp1142
S'http_user_agent'
p1143
asbag56
(g77
g58
NtRp1144
(dp1145
g61
(dp1146
g88
g89
ssg70
g1135
sg63
(lp1147
S':'
asbag56
(g77
g58
NtRp1148
(dp1149
g61
(dp1150
sg70
g1135
sg63
(lp1151
g56
(g57
g58
NtRp1152
(dp1153
g61
(dp1154
g69
I4
ssg70
g1148
sg63
(lp1155
S'Mozilla/5.0 (X11; Linux x86_64) AppleWebKit/535.1 (KHTML, like Gecko) Chrome/14.0.835.202 Safari/535.1'
p1156
asbasbasbag56
(g72
g58
NtRp1157
(dp1158
g61
(dp1159
sg70
g821
sg63
(lp1160
g56
(g77
g58
NtRp1161
(dp1162
g61
(dp1163
g81
g82
ssg70
g1157
sg63
(lp1164
S'is_jython'
p1165
asbag56
(g77
g58
NtRp1166
(dp1167
g61
(dp1168
g88
g89
ssg70
g1157
sg63
(lp1169
S':'
asbag56
(g77
g58
NtRp1170
(dp1171
g61
(dp1172
sg70
g1157
sg63
(lp1173
g56
(g57
g58
NtRp1174
(dp1175
g61
(dp1176
g69
I4
ssg70
g1170
sg63
(lp1177
g99
asbasbasbag56
(g72
g58
NtRp1178
(dp1179
g61
(dp1180
sg70
g821
sg63
(lp1181
g56
(g77
g58
NtRp1182
(dp1183
g61
(dp1184
g81
g82
ssg70
g1178
sg63
(lp1185
S'path_info'
p1186
asbag56
(g77
g58
NtRp1187
(dp1188
g61
(dp1189
g88
g89
ssg70
g1178
sg63
(lp1190
S':'
asbag56
(g77
g58
NtRp1191
(dp1192
g61
(dp1193
sg70
g1178
sg63
(lp1194
g56
(g57
g58
NtRp1195
(dp1196
g61
(dp1197
g69
I4
ssg70
g1191
sg63
(lp1198
S'/ddlagoon/default'
p1199
asbasbasbag56
(g72
g58
NtRp1200
(dp1201
g61
(dp1202
sg70
g821
sg63
(lp1203
g56
(g77
g58
NtRp1204
(dp1205
g61
(dp1206
g81
g82
ssg70
g1200
sg63
(lp1207
S'query_string'
p1208
asbag56
(g77
g58
NtRp1209
(dp1210
g61
(dp1211
g88
g89
ssg70
g1200
sg63
(lp1212
S':'
asbag56
(g77
g58
NtRp1213
(dp1214
g61
(dp1215
sg70
g1200
sg63
(lp1216
g56
(g57
g58
NtRp1217
(dp1218
g61
(dp1219
g69
I4
ssg70
g1213
sg63
(lp1220
S''
asbasbasbag56
(g72
g58
NtRp1221
(dp1222
g61
(dp1223
sg70
g821
sg63
(lp1224
g56
(g77
g58
NtRp1225
(dp1226
g61
(dp1227
g81
g82
ssg70
g1221
sg63
(lp1228
S'remote_addr'
p1229
asbag56
(g77
g58
NtRp1230
(dp1231
g61
(dp1232
g88
g89
ssg70
g1221
sg63
(lp1233
S':'
asbag56
(g77
g58
NtRp1234
(dp1235
g61
(dp1236
sg70
g1221
sg63
(lp1237
g56
(g57
g58
NtRp1238
(dp1239
g61
(dp1240
g69
I4
ssg70
g1234
sg63
(lp1241
g189
asbasbasbag56
(g72
g58
NtRp1242
(dp1243
g61
(dp1244
sg70
g821
sg63
(lp1245
g56
(g77
g58
NtRp1246
(dp1247
g61
(dp1248
g81
g82
ssg70
g1242
sg63
(lp1249
S'remote_port'
p1250
asbag56
(g77
g58
NtRp1251
(dp1252
g61
(dp1253
g88
g89
ssg70
g1242
sg63
(lp1254
S':'
asbag56
(g77
g58
NtRp1255
(dp1256
g61
(dp1257
sg70
g1242
sg63
(lp1258
g56
(g57
g58
NtRp1259
(dp1260
g61
(dp1261
g69
I4
ssg70
g1255
sg63
(lp1262
S'35127'
p1263
asbasbasbag56
(g72
g58
NtRp1264
(dp1265
g61
(dp1266
sg70
g821
sg63
(lp1267
g56
(g77
g58
NtRp1268
(dp1269
g61
(dp1270
g81
g82
ssg70
g1264
sg63
(lp1271
S'request_method'
p1272
asbag56
(g77
g58
NtRp1273
(dp1274
g61
(dp1275
g88
g89
ssg70
g1264
sg63
(lp1276
S':'
asbag56
(g77
g58
NtRp1277
(dp1278
g61
(dp1279
sg70
g1264
sg63
(lp1280
g56
(g57
g58
NtRp1281
(dp1282
g61
(dp1283
g69
I4
ssg70
g1277
sg63
(lp1284
S'GET'
p1285
asbasbasbag56
(g72
g58
NtRp1286
(dp1287
g61
(dp1288
sg70
g821
sg63
(lp1289
g56
(g77
g58
NtRp1290
(dp1291
g61
(dp1292
g81
g82
ssg70
g1286
sg63
(lp1293
S'request_uri'
p1294
asbag56
(g77
g58
NtRp1295
(dp1296
g61
(dp1297
g88
g89
ssg70
g1286
sg63
(lp1298
S':'
asbag56
(g77
g58
NtRp1299
(dp1300
g61
(dp1301
sg70
g1286
sg63
(lp1302
g56
(g57
g58
NtRp1303
(dp1304
g61
(dp1305
g69
I4
ssg70
g1299
sg63
(lp1306
g1199
asbasbasbag56
(g72
g58
NtRp1307
(dp1308
g61
(dp1309
sg70
g821
sg63
(lp1310
g56
(g77
g58
NtRp1311
(dp1312
g61
(dp1313
g81
g82
ssg70
g1307
sg63
(lp1314
S'script_name'
p1315
asbag56
(g77
g58
NtRp1316
(dp1317
g61
(dp1318
g88
g89
ssg70
g1307
sg63
(lp1319
S':'
asbag56
(g77
g58
NtRp1320
(dp1321
g61
(dp1322
sg70
g1307
sg63
(lp1323
g56
(g57
g58
NtRp1324
(dp1325
g61
(dp1326
g69
I4
ssg70
g1320
sg63
(lp1327
S''
asbasbasbag56
(g72
g58
NtRp1328
(dp1329
g61
(dp1330
sg70
g821
sg63
(lp1331
g56
(g77
g58
NtRp1332
(dp1333
g61
(dp1334
g81
g82
ssg70
g1328
sg63
(lp1335
S'server_name'
p1336
asbag56
(g77
g58
NtRp1337
(dp1338
g61
(dp1339
g88
g89
ssg70
g1328
sg63
(lp1340
S':'
asbag56
(g77
g58
NtRp1341
(dp1342
g61
(dp1343
sg70
g1328
sg63
(lp1344
g56
(g57
g58
NtRp1345
(dp1346
g61
(dp1347
g69
I4
ssg70
g1341
sg63
(lp1348
S'VPCF22AJ'
p1349
asbasbasbag56
(g72
g58
NtRp1350
(dp1351
g61
(dp1352
sg70
g821
sg63
(lp1353
g56
(g77
g58
NtRp1354
(dp1355
g61
(dp1356
g81
g82
ssg70
g1350
sg63
(lp1357
S'server_port'
p1358
asbag56
(g77
g58
NtRp1359
(dp1360
g61
(dp1361
g88
g89
ssg70
g1350
sg63
(lp1362
S':'
asbag56
(g77
g58
NtRp1363
(dp1364
g61
(dp1365
sg70
g1350
sg63
(lp1366
g56
(g57
g58
NtRp1367
(dp1368
g61
(dp1369
g69
I4
ssg70
g1363
sg63
(lp1370
S'8000'
p1371
asbasbasbag56
(g72
g58
NtRp1372
(dp1373
g61
(dp1374
sg70
g821
sg63
(lp1375
g56
(g77
g58
NtRp1376
(dp1377
g61
(dp1378
g81
g82
ssg70
g1372
sg63
(lp1379
S'server_protocol'
p1380
asbag56
(g77
g58
NtRp1381
(dp1382
g61
(dp1383
g88
g89
ssg70
g1372
sg63
(lp1384
S':'
asbag56
(g77
g58
NtRp1385
(dp1386
g61
(dp1387
sg70
g1372
sg63
(lp1388
g56
(g57
g58
NtRp1389
(dp1390
g61
(dp1391
g69
I4
ssg70
g1385
sg63
(lp1392
S'HTTP/1.1'
p1393
asbasbasbag56
(g72
g58
NtRp1394
(dp1395
g61
(dp1396
sg70
g821
sg63
(lp1397
g56
(g77
g58
NtRp1398
(dp1399
g61
(dp1400
g81
g82
ssg70
g1394
sg63
(lp1401
S'server_software'
p1402
asbag56
(g77
g58
NtRp1403
(dp1404
g61
(dp1405
g88
g89
ssg70
g1394
sg63
(lp1406
S':'
asbag56
(g77
g58
NtRp1407
(dp1408
g61
(dp1409
sg70
g1394
sg63
(lp1410
g56
(g57
g58
NtRp1411
(dp1412
g61
(dp1413
g69
I4
ssg70
g1407
sg63
(lp1414
S'Rocket 1.2.4'
p1415
asbasbasbag56
(g72
g58
NtRp1416
(dp1417
g61
(dp1418
sg70
g821
sg63
(lp1419
g56
(g77
g58
NtRp1420
(dp1421
g61
(dp1422
g81
g82
ssg70
g1416
sg63
(lp1423
S'web2py_crontype'
p1424
asbag56
(g77
g58
NtRp1425
(dp1426
g61
(dp1427
g88
g89
ssg70
g1416
sg63
(lp1428
S':'
asbag56
(g77
g58
NtRp1429
(dp1430
g61
(dp1431
sg70
g1416
sg63
(lp1432
g56
(g57
g58
NtRp1433
(dp1434
g61
(dp1435
g69
I4
ssg70
g1429
sg63
(lp1436
S'hard'
p1437
asbasbasbag56
(g72
g58
NtRp1438
(dp1439
g61
(dp1440
sg70
g821
sg63
(lp1441
g56
(g77
g58
NtRp1442
(dp1443
g61
(dp1444
g81
g82
ssg70
g1438
sg63
(lp1445
S'web2py_original_uri'
p1446
asbag56
(g77
g58
NtRp1447
(dp1448
g61
(dp1449
g88
g89
ssg70
g1438
sg63
(lp1450
S':'
asbag56
(g77
g58
NtRp1451
(dp1452
g61
(dp1453
sg70
g1438
sg63
(lp1454
g56
(g57
g58
NtRp1455
(dp1456
g61
(dp1457
g69
I4
ssg70
g1451
sg63
(lp1458
g1199
asbasbasbag56
(g72
g58
NtRp1459
(dp1460
g61
(dp1461
sg70
g821
sg63
(lp1462
g56
(g77
g58
NtRp1463
(dp1464
g61
(dp1465
g81
g82
ssg70
g1459
sg63
(lp1466
S'web2py_path'
p1467
asbag56
(g77
g58
NtRp1468
(dp1469
g61
(dp1470
g88
g89
ssg70
g1459
sg63
(lp1471
S':'
asbag56
(g77
g58
NtRp1472
(dp1473
g61
(dp1474
sg70
g1459
sg63
(lp1475
g56
(g57
g58
NtRp1476
(dp1477
g61
(dp1478
g69
I4
ssg70
g1472
sg63
(lp1479
g868
asbasbasbag56
(g72
g58
NtRp1480
(dp1481
g61
(dp1482
sg70
g821
sg63
(lp1483
g56
(g77
g58
NtRp1484
(dp1485
g61
(dp1486
g81
g82
ssg70
g1480
sg63
(lp1487
S'web2py_version'
p1488
asbag56
(g77
g58
NtRp1489
(dp1490
g61
(dp1491
g88
g89
ssg70
g1480
sg63
(lp1492
S':'
asbag56
(g77
g58
NtRp1493
(dp1494
g61
(dp1495
sg70
g1480
sg63
(lp1496
g56
(g57
g58
NtRp1497
(dp1498
g61
(dp1499
g69
I4
ssg70
g1493
sg63
(lp1500
g56
(g65
g58
NtRp1501
(dp1502
g61
(dp1503
g69
I3
ssg70
Nsg63
(lp1504
g56
(g72
g58
NtRp1505
(dp1506
g61
(dp1507
sg70
g1501
sg63
(lp1508
g56
(g77
g58
NtRp1509
(dp1510
g61
(dp1511
sg70
g1505
sg63
(lp1512
g56
(g57
g58
NtRp1513
(dp1514
g61
(dp1515
g69
I3
ssg70
g1509
sg63
(lp1516
S'1'
asbasbasbag56
(g72
g58
NtRp1517
(dp1518
g61
(dp1519
sg70
g1501
sg63
(lp1520
g56
(g77
g58
NtRp1521
(dp1522
g61
(dp1523
sg70
g1517
sg63
(lp1524
g56
(g57
g58
NtRp1525
(dp1526
g61
(dp1527
g69
I3
ssg70
g1521
sg63
(lp1528
S'99'
p1529
asbasbasbag56
(g72
g58
NtRp1530
(dp1531
g61
(dp1532
sg70
g1501
sg63
(lp1533
g56
(g77
g58
NtRp1534
(dp1535
g61
(dp1536
sg70
g1530
sg63
(lp1537
g56
(g57
g58
NtRp1538
(dp1539
g61
(dp1540
g69
I3
ssg70
g1534
sg63
(lp1541
S'2'
asbasbasbag56
(g72
g58
NtRp1542
(dp1543
g61
(dp1544
sg70
g1501
sg63
(lp1545
g56
(g77
g58
NtRp1546
(dp1547
g61
(dp1548
sg70
g1542
sg63
(lp1549
g56
(g57
g58
NtRp1550
(dp1551
g61
(dp1552
g69
I3
ssg70
g1546
sg63
(lp1553
S'datetime.datetime(2011, 9, 26, 6, 55, 33)'
p1554
asbasbasbag56
(g72
g58
NtRp1555
(dp1556
g61
(dp1557
sg70
g1501
sg63
(lp1558
g56
(g77
g58
NtRp1559
(dp1560
g61
(dp1561
sg70
g1555
sg63
(lp1562
g56
(g57
g58
NtRp1563
(dp1564
g61
(dp1565
g69
I3
ssg70
g1559
sg63
(lp1566
S'stable'
p1567
asbasbasbasbasbasbasbag56
(g72
g58
NtRp1568
(dp1569
g61
(dp1570
sg70
g821
sg63
(lp1571
g56
(g77
g58
NtRp1572
(dp1573
g61
(dp1574
g81
g82
ssg70
g1568
sg63
(lp1575
S'wsgi_errors'
p1576
asbag56
(g77
g58
NtRp1577
(dp1578
g61
(dp1579
g88
g89
ssg70
g1568
sg63
(lp1580
S':'
asbag56
(g77
g58
NtRp1581
(dp1582
g61
(dp1583
sg70
g1568
sg63
(lp1584
g56
(g57
g58
NtRp1585
(dp1586
g61
(dp1587
g69
I4
ssg70
g1581
sg63
(lp1588
S"<open file '<stderr>', mode 'w' at 0x7f80c77741e0>"
p1589
asbasbasbag56
(g72
g58
NtRp1590
(dp1591
g61
(dp1592
sg70
g821
sg63
(lp1593
g56
(g77
g58
NtRp1594
(dp1595
g61
(dp1596
g81
g82
ssg70
g1590
sg63
(lp1597
S'wsgi_file_wrapper'
p1598
asbag56
(g77
g58
NtRp1599
(dp1600
g61
(dp1601
g88
g89
ssg70
g1590
sg63
(lp1602
S':'
asbag56
(g77
g58
NtRp1603
(dp1604
g61
(dp1605
sg70
g1590
sg63
(lp1606
g56
(g57
g58
NtRp1607
(dp1608
g61
(dp1609
g69
I4
ssg70
g1603
sg63
(lp1610
S'<class wsgiref.util.FileWrapper at 0x2789590>'
p1611
asbasbasbag56
(g72
g58
NtRp1612
(dp1613
g61
(dp1614
sg70
g821
sg63
(lp1615
g56
(g77
g58
NtRp1616
(dp1617
g61
(dp1618
g81
g82
ssg70
g1612
sg63
(lp1619
S'wsgi_input'
p1620
asbag56
(g77
g58
NtRp1621
(dp1622
g61
(dp1623
g88
g89
ssg70
g1612
sg63
(lp1624
S':'
asbag56
(g77
g58
NtRp1625
(dp1626
g61
(dp1627
sg70
g1612
sg63
(lp1628
g56
(g57
g58
NtRp1629
(dp1630
g61
(dp1631
g69
I4
ssg70
g1625
sg63
(lp1632
S'<socket._fileobject object at 0x35ca1d0>'
p1633
asbasbasbag56
(g72
g58
NtRp1634
(dp1635
g61
(dp1636
sg70
g821
sg63
(lp1637
g56
(g77
g58
NtRp1638
(dp1639
g61
(dp1640
g81
g82
ssg70
g1634
sg63
(lp1641
S'wsgi_multiprocess'
p1642
asbag56
(g77
g58
NtRp1643
(dp1644
g61
(dp1645
g88
g89
ssg70
g1634
sg63
(lp1646
S':'
asbag56
(g77
g58
NtRp1647
(dp1648
g61
(dp1649
sg70
g1634
sg63
(lp1650
g56
(g57
g58
NtRp1651
(dp1652
g61
(dp1653
g69
I4
ssg70
g1647
sg63
(lp1654
g99
asbasbasbag56
(g72
g58
NtRp1655
(dp1656
g61
(dp1657
sg70
g821
sg63
(lp1658
g56
(g77
g58
NtRp1659
(dp1660
g61
(dp1661
g81
g82
ssg70
g1655
sg63
(lp1662
S'wsgi_multithread'
p1663
asbag56
(g77
g58
NtRp1664
(dp1665
g61
(dp1666
g88
g89
ssg70
g1655
sg63
(lp1667
S':'
asbag56
(g77
g58
NtRp1668
(dp1669
g61
(dp1670
sg70
g1655
sg63
(lp1671
g56
(g57
g58
NtRp1672
(dp1673
g61
(dp1674
g69
I4
ssg70
g1668
sg63
(lp1675
S'True'
p1676
asbasbasbag56
(g72
g58
NtRp1677
(dp1678
g61
(dp1679
sg70
g821
sg63
(lp1680
g56
(g77
g58
NtRp1681
(dp1682
g61
(dp1683
g81
g82
ssg70
g1677
sg63
(lp1684
S'wsgi_run_once'
p1685
asbag56
(g77
g58
NtRp1686
(dp1687
g61
(dp1688
g88
g89
ssg70
g1677
sg63
(lp1689
S':'
asbag56
(g77
g58
NtRp1690
(dp1691
g61
(dp1692
sg70
g1677
sg63
(lp1693
g56
(g57
g58
NtRp1694
(dp1695
g61
(dp1696
g69
I4
ssg70
g1690
sg63
(lp1697
g99
asbasbasbag56
(g72
g58
NtRp1698
(dp1699
g61
(dp1700
sg70
g821
sg63
(lp1701
g56
(g77
g58
NtRp1702
(dp1703
g61
(dp1704
g81
g82
ssg70
g1698
sg63
(lp1705
S'wsgi_url_scheme'
p1706
asbag56
(g77
g58
NtRp1707
(dp1708
g61
(dp1709
g88
g89
ssg70
g1698
sg63
(lp1710
S':'
asbag56
(g77
g58
NtRp1711
(dp1712
g61
(dp1713
sg70
g1698
sg63
(lp1714
g56
(g57
g58
NtRp1715
(dp1716
g61
(dp1717
g69
I4
ssg70
g1711
sg63
(lp1718
S'http'
p1719
asbasbasbag56
(g72
g58
NtRp1720
(dp1721
g61
(dp1722
sg70
g821
sg63
(lp1723
g56
(g77
g58
NtRp1724
(dp1725
g61
(dp1726
g81
g82
ssg70
g1720
sg63
(lp1727
S'wsgi_version'
p1728
asbag56
(g77
g58
NtRp1729
(dp1730
g61
(dp1731
g88
g89
ssg70
g1720
sg63
(lp1732
S':'
asbag56
(g77
g58
NtRp1733
(dp1734
g61
(dp1735
sg70
g1720
sg63
(lp1736
g56
(g57
g58
NtRp1737
(dp1738
g61
(dp1739
g69
I4
ssg70
g1733
sg63
(lp1740
g56
(g65
g58
NtRp1741
(dp1742
g61
(dp1743
g69
I3
ssg70
Nsg63
(lp1744
g56
(g72
g58
NtRp1745
(dp1746
g61
(dp1747
sg70
g1741
sg63
(lp1748
g56
(g77
g58
NtRp1749
(dp1750
g61
(dp1751
sg70
g1745
sg63
(lp1752
g56
(g57
g58
NtRp1753
(dp1754
g61
(dp1755
g69
I3
ssg70
g1749
sg63
(lp1756
S'1'
asbasbasbag56
(g72
g58
NtRp1757
(dp1758
g61
(dp1759
sg70
g1741
sg63
(lp1760
g56
(g77
g58
NtRp1761
(dp1762
g61
(dp1763
sg70
g1757
sg63
(lp1764
g56
(g57
g58
NtRp1765
(dp1766
g61
(dp1767
g69
I3
ssg70
g1761
sg63
(lp1768
S'0'
asbasbasbasbasbasbasbasbasbasbasbag56
(g72
g58
NtRp1769
(dp1770
g61
(dp1771
sg70
g66
sg63
(lp1772
g56
(g77
g58
NtRp1773
(dp1774
g61
(dp1775
g81
g82
ssg70
g1769
sg63
(lp1776
S'extension'
p1777
asbag56
(g77
g58
NtRp1778
(dp1779
g61
(dp1780
g88
g89
ssg70
g1769
sg63
(lp1781
S':'
asbag56
(g77
g58
NtRp1782
(dp1783
g61
(dp1784
sg70
g1769
sg63
(lp1785
g56
(g57
g58
NtRp1786
(dp1787
g61
(dp1788
g69
I5
ssg70
g1782
sg63
(lp1789
S'html'
p1790
asbasbasbag56
(g72
g58
NtRp1791
(dp1792
g61
(dp1793
sg70
g66
sg63
(lp1794
g56
(g77
g58
NtRp1795
(dp1796
g61
(dp1797
g81
g82
ssg70
g1791
sg63
(lp1798
S'folder'
p1799
asbag56
(g77
g58
NtRp1800
(dp1801
g61
(dp1802
g88
g89
ssg70
g1791
sg63
(lp1803
S':'
asbag56
(g77
g58
NtRp1804
(dp1805
g61
(dp1806
sg70
g1791
sg63
(lp1807
g56
(g57
g58
NtRp1808
(dp1809
g61
(dp1810
g69
I5
ssg70
g1804
sg63
(lp1811
S'/windows/Users/Thomas/Dropbox/appz/2011/GAE/ddl-lagoon/applications/ddlagoon/'
p1812
asbasbasbag56
(g72
g58
NtRp1813
(dp1814
g61
(dp1815
sg70
g66
sg63
(lp1816
g56
(g77
g58
NtRp1817
(dp1818
g61
(dp1819
g81
g82
ssg70
g1813
sg63
(lp1820
S'function'
p1821
asbag56
(g77
g58
NtRp1822
(dp1823
g61
(dp1824
g88
g89
ssg70
g1813
sg63
(lp1825
S':'
asbag56
(g77
g58
NtRp1826
(dp1827
g61
(dp1828
sg70
g1813
sg63
(lp1829
g56
(g57
g58
NtRp1830
(dp1831
g61
(dp1832
g69
I5
ssg70
g1826
sg63
(lp1833
S'index'
p1834
asbasbasbag56
(g72
g58
NtRp1835
(dp1836
g61
(dp1837
sg70
g66
sg63
(lp1838
g56
(g77
g58
NtRp1839
(dp1840
g61
(dp1841
g81
g82
ssg70
g1835
sg63
(lp1842
S'get_vars'
p1843
asbag56
(g77
g58
NtRp1844
(dp1845
g61
(dp1846
g88
g89
ssg70
g1835
sg63
(lp1847
S':'
asbag56
(g77
g58
NtRp1848
(dp1849
g61
(dp1850
sg70
g1835
sg63
(lp1851
g56
(g57
g58
NtRp1852
(dp1853
g61
(dp1854
g69
I5
ssg70
g1848
sg63
(lp1855
g56
(g65
g58
NtRp1856
(dp1857
g61
(dp1858
g69
I4
ssg70
Nsg63
(lp1859
sbasbasbasbag56
(g72
g58
NtRp1860
(dp1861
g61
(dp1862
sg70
g66
sg63
(lp1863
g56
(g77
g58
NtRp1864
(dp1865
g61
(dp1866
g81
g82
ssg70
g1860
sg63
(lp1867
S'global_settings'
p1868
asbag56
(g77
g58
NtRp1869
(dp1870
g61
(dp1871
g88
g89
ssg70
g1860
sg63
(lp1872
S':'
asbag56
(g77
g58
NtRp1873
(dp1874
g61
(dp1875
sg70
g1860
sg63
(lp1876
g56
(g57
g58
NtRp1877
(dp1878
g61
(dp1879
g69
I5
ssg70
g1873
sg63
(lp1880
g56
(g65
g58
NtRp1881
(dp1882
g61
(dp1883
g69
I4
ssg70
Nsg63
(lp1884
g56
(g72
g58
NtRp1885
(dp1886
g61
(dp1887
sg70
g1881
sg63
(lp1888
g56
(g77
g58
NtRp1889
(dp1890
g61
(dp1891
g81
g82
ssg70
g1885
sg63
(lp1892
g833
asbag56
(g77
g58
NtRp1893
(dp1894
g61
(dp1895
g88
g89
ssg70
g1885
sg63
(lp1896
S':'
asbag56
(g77
g58
NtRp1897
(dp1898
g61
(dp1899
sg70
g1885
sg63
(lp1900
g56
(g57
g58
NtRp1901
(dp1902
g61
(dp1903
g69
I4
ssg70
g1897
sg63
(lp1904
S"set(['/windows/Users/Thomas/Dropbox/appz/2011/GAE/ddl-lagoon/applications/ddlagoon/', '/windows/Users/Thomas/Dropbox/appz/2011/GAE/ddl-lagoon/applications/welcome/', '/windows/Users/Thomas/Dropbox/appz/2011/GAE/ddl-lagoon/applications/admin/'])"
p1905
asbasbasbag56
(g72
g58
NtRp1906
(dp1907
g61
(dp1908
sg70
g1881
sg63
(lp1909
g56
(g77
g58
NtRp1910
(dp1911
g61
(dp1912
g81
g82
ssg70
g1906
sg63
(lp1913
g855
asbag56
(g77
g58
NtRp1914
(dp1915
g61
(dp1916
g88
g89
ssg70
g1906
sg63
(lp1917
S':'
asbag56
(g77
g58
NtRp1918
(dp1919
g61
(dp1920
sg70
g1906
sg63
(lp1921
g56
(g57
g58
NtRp1922
(dp1923
g61
(dp1924
g69
I4
ssg70
g1918
sg63
(lp1925
g868
asbasbasbag56
(g72
g58
NtRp1926
(dp1927
g61
(dp1928
sg70
g1881
sg63
(lp1929
g56
(g77
g58
NtRp1930
(dp1931
g61
(dp1932
g81
g82
ssg70
g1926
sg63
(lp1933
g877
asbag56
(g77
g58
NtRp1934
(dp1935
g61
(dp1936
g88
g89
ssg70
g1926
sg63
(lp1937
S':'
asbag56
(g77
g58
NtRp1938
(dp1939
g61
(dp1940
sg70
g1926
sg63
(lp1941
g56
(g57
g58
NtRp1942
(dp1943
g61
(dp1944
g69
I4
ssg70
g1938
sg63
(lp1945
g56
(g65
g58
NtRp1946
(dp1947
g61
(dp1948
g69
I3
ssg70
Nsg63
(lp1949
sbasbasbasbag56
(g72
g58
NtRp1950
(dp1951
g61
(dp1952
sg70
g1881
sg63
(lp1953
g56
(g77
g58
NtRp1954
(dp1955
g61
(dp1956
g81
g82
ssg70
g1950
sg63
(lp1957
g902
asbag56
(g77
g58
NtRp1958
(dp1959
g61
(dp1960
g88
g89
ssg70
g1950
sg63
(lp1961
S':'
asbag56
(g77
g58
NtRp1962
(dp1963
g61
(dp1964
sg70
g1950
sg63
(lp1965
g56
(g57
g58
NtRp1966
(dp1967
g61
(dp1968
g69
I4
ssg70
g1962
sg63
(lp1969
S"<Values at 0x2d4df38: {'verbose': False, 'ip': '127.0.0.1', 'shutdown_timeout': 5, 'taskbar': False, 'nocron': False, 'pid_filename': 'httpserver.pid', 'maxthreads': None, 'softcron': False, 'server_name': 'VPCF22AJ', 'bpython': False, 'nogui': False, 'port': 8000, 'extcron': False, 'debuglevel': 30, 'test': None, 'folder': '/windows/Users/Thomas/Dropbox/appz/2011/GAE/ddl-lagoon', 'config': '', 'import_models': False, 'winservice': '', 'shell': None, 'run': '', 'log_filename': 'httpserver.log', 'args': [''], 'ssl_ca_certificate': None, 'scheduler': None, 'profiler_filename': None, 'ssl_private_key': '', 'password': 'admin', 'request_queue_size': 5, 'ssl_certificate': '', 'cronjob': False, 'plain': False, 'quiet': False, 'interfaces': None, 'minthreads': None, 'timeout': 10, 'numthreads': None, 'nobanner': False}>"
p1970
asbasbasbag56
(g72
g58
NtRp1971
(dp1972
g61
(dp1973
sg70
g1881
sg63
(lp1974
g56
(g77
g58
NtRp1975
(dp1976
g61
(dp1977
g81
g82
ssg70
g1971
sg63
(lp1978
g924
asbag56
(g77
g58
NtRp1979
(dp1980
g61
(dp1981
g88
g89
ssg70
g1971
sg63
(lp1982
S':'
asbag56
(g77
g58
NtRp1983
(dp1984
g61
(dp1985
sg70
g1971
sg63
(lp1986
g56
(g57
g58
NtRp1987
(dp1988
g61
(dp1989
g69
I4
ssg70
g1983
sg63
(lp1990
S'set([])'
p1991
asbasbasbag56
(g72
g58
NtRp1992
(dp1993
g61
(dp1994
sg70
g1881
sg63
(lp1995
g56
(g77
g58
NtRp1996
(dp1997
g61
(dp1998
g81
g82
ssg70
g1992
sg63
(lp1999
g946
asbag56
(g77
g58
NtRp2000
(dp2001
g61
(dp2002
g88
g89
ssg70
g1992
sg63
(lp2003
S':'
asbag56
(g77
g58
NtRp2004
(dp2005
g61
(dp2006
sg70
g1992
sg63
(lp2007
g56
(g57
g58
NtRp2008
(dp2009
g61
(dp2010
g69
I4
ssg70
g2004
sg63
(lp2011
g99
asbasbasbag56
(g72
g58
NtRp2012
(dp2013
g61
(dp2014
sg70
g1881
sg63
(lp2015
g56
(g77
g58
NtRp2016
(dp2017
g61
(dp2018
g81
g82
ssg70
g2012
sg63
(lp2019
g967
asbag56
(g77
g58
NtRp2020
(dp2021
g61
(dp2022
g88
g89
ssg70
g2012
sg63
(lp2023
S':'
asbag56
(g77
g58
NtRp2024
(dp2025
g61
(dp2026
sg70
g2012
sg63
(lp2027
g56
(g57
g58
NtRp2028
(dp2029
g61
(dp2030
g69
I4
ssg70
g2024
sg63
(lp2031
g980
asbasbasbag56
(g72
g58
NtRp2032
(dp2033
g61
(dp2034
sg70
g1881
sg63
(lp2035
g56
(g77
g58
NtRp2036
(dp2037
g61
(dp2038
g81
g82
ssg70
g2032
sg63
(lp2039
g1165
asbag56
(g77
g58
NtRp2040
(dp2041
g61
(dp2042
g88
g89
ssg70
g2032
sg63
(lp2043
S':'
asbag56
(g77
g58
NtRp2044
(dp2045
g61
(dp2046
sg70
g2032
sg63
(lp2047
g56
(g57
g58
NtRp2048
(dp2049
g61
(dp2050
g69
I4
ssg70
g2044
sg63
(lp2051
g99
asbasbasbag56
(g72
g58
NtRp2052
(dp2053
g61
(dp2054
sg70
g1881
sg63
(lp2055
g56
(g77
g58
NtRp2056
(dp2057
g61
(dp2058
g81
g82
ssg70
g2052
sg63
(lp2059
g1424
asbag56
(g77
g58
NtRp2060
(dp2061
g61
(dp2062
g88
g89
ssg70
g2052
sg63
(lp2063
S':'
asbag56
(g77
g58
NtRp2064
(dp2065
g61
(dp2066
sg70
g2052
sg63
(lp2067
g56
(g57
g58
NtRp2068
(dp2069
g61
(dp2070
g69
I4
ssg70
g2064
sg63
(lp2071
g1437
asbasbasbag56
(g72
g58
NtRp2072
(dp2073
g61
(dp2074
sg70
g1881
sg63
(lp2075
g56
(g77
g58
NtRp2076
(dp2077
g61
(dp2078
g81
g82
ssg70
g2072
sg63
(lp2079
g1488
asbag56
(g77
g58
NtRp2080
(dp2081
g61
(dp2082
g88
g89
ssg70
g2072
sg63
(lp2083
S':'
asbag56
(g77
g58
NtRp2084
(dp2085
g61
(dp2086
sg70
g2072
sg63
(lp2087
g56
(g57
g58
NtRp2088
(dp2089
g61
(dp2090
g69
I4
ssg70
g2084
sg63
(lp2091
g56
(g65
g58
NtRp2092
(dp2093
g61
(dp2094
g69
I3
ssg70
Nsg63
(lp2095
g56
(g72
g58
NtRp2096
(dp2097
g61
(dp2098
sg70
g2092
sg63
(lp2099
g56
(g77
g58
NtRp2100
(dp2101
g61
(dp2102
sg70
g2096
sg63
(lp2103
g56
(g57
g58
NtRp2104
(dp2105
g61
(dp2106
g69
I3
ssg70
g2100
sg63
(lp2107
S'1'
asbasbasbag56
(g72
g58
NtRp2108
(dp2109
g61
(dp2110
sg70
g2092
sg63
(lp2111
g56
(g77
g58
NtRp2112
(dp2113
g61
(dp2114
sg70
g2108
sg63
(lp2115
g56
(g57
g58
NtRp2116
(dp2117
g61
(dp2118
g69
I3
ssg70
g2112
sg63
(lp2119
S'99'
p2120
asbasbasbag56
(g72
g58
NtRp2121
(dp2122
g61
(dp2123
sg70
g2092
sg63
(lp2124
g56
(g77
g58
NtRp2125
(dp2126
g61
(dp2127
sg70
g2121
sg63
(lp2128
g56
(g57
g58
NtRp2129
(dp2130
g61
(dp2131
g69
I3
ssg70
g2125
sg63
(lp2132
S'2'
asbasbasbag56
(g72
g58
NtRp2133
(dp2134
g61
(dp2135
sg70
g2092
sg63
(lp2136
g56
(g77
g58
NtRp2137
(dp2138
g61
(dp2139
sg70
g2133
sg63
(lp2140
g56
(g57
g58
NtRp2141
(dp2142
g61
(dp2143
g69
I3
ssg70
g2137
sg63
(lp2144
S'datetime.datetime(2011, 9, 26, 6, 55, 33)'
p2145
asbasbasbag56
(g72
g58
NtRp2146
(dp2147
g61
(dp2148
sg70
g2092
sg63
(lp2149
g56
(g77
g58
NtRp2150
(dp2151
g61
(dp2152
sg70
g2146
sg63
(lp2153
g56
(g57
g58
NtRp2154
(dp2155
g61
(dp2156
g69
I3
ssg70
g2150
sg63
(lp2157
g1567
asbasbasbasbasbasbasbasbasbasbasbag56
(g72
g58
NtRp2158
(dp2159
g61
(dp2160
sg70
g66
sg63
(lp2161
g56
(g77
g58
NtRp2162
(dp2163
g61
(dp2164
g81
g82
ssg70
g2158
sg63
(lp2165
S'is_https'
p2166
asbag56
(g77
g58
NtRp2167
(dp2168
g61
(dp2169
g88
g89
ssg70
g2158
sg63
(lp2170
S':'
asbag56
(g77
g58
NtRp2171
(dp2172
g61
(dp2173
sg70
g2158
sg63
(lp2174
g56
(g57
g58
NtRp2175
(dp2176
g61
(dp2177
g69
I5
ssg70
g2171
sg63
(lp2178
g99
asbasbasbag56
(g72
g58
NtRp2179
(dp2180
g61
(dp2181
sg70
g66
sg63
(lp2182
g56
(g77
g58
NtRp2183
(dp2184
g61
(dp2185
g81
g82
ssg70
g2179
sg63
(lp2186
S'is_local'
p2187
asbag56
(g77
g58
NtRp2188
(dp2189
g61
(dp2190
g88
g89
ssg70
g2179
sg63
(lp2191
S':'
asbag56
(g77
g58
NtRp2192
(dp2193
g61
(dp2194
sg70
g2179
sg63
(lp2195
g56
(g57
g58
NtRp2196
(dp2197
g61
(dp2198
g69
I5
ssg70
g2192
sg63
(lp2199
g1676
asbasbasbag56
(g72
g58
NtRp2200
(dp2201
g61
(dp2202
sg70
g66
sg63
(lp2203
g56
(g77
g58
NtRp2204
(dp2205
g61
(dp2206
g81
g82
ssg70
g2200
sg63
(lp2207
S'is_restful'
p2208
asbag56
(g77
g58
NtRp2209
(dp2210
g61
(dp2211
g88
g89
ssg70
g2200
sg63
(lp2212
S':'
asbag56
(g77
g58
NtRp2213
(dp2214
g61
(dp2215
sg70
g2200
sg63
(lp2216
g56
(g57
g58
NtRp2217
(dp2218
g61
(dp2219
g69
I5
ssg70
g2213
sg63
(lp2220
g99
asbasbasbag56
(g72
g58
NtRp2221
(dp2222
g61
(dp2223
sg70
g66
sg63
(lp2224
g56
(g77
g58
NtRp2225
(dp2226
g61
(dp2227
g81
g82
ssg70
g2221
sg63
(lp2228
S'now'
p2229
asbag56
(g77
g58
NtRp2230
(dp2231
g61
(dp2232
g88
g89
ssg70
g2221
sg63
(lp2233
S':'
asbag56
(g77
g58
NtRp2234
(dp2235
g61
(dp2236
sg70
g2221
sg63
(lp2237
g56
(g57
g58
NtRp2238
(dp2239
g61
(dp2240
g69
I5
ssg70
g2234
sg63
(lp2241
S'datetime.datetime(2011, 10, 26, 22, 11, 44, 937262)'
p2242
asbasbasbag56
(g72
g58
NtRp2243
(dp2244
g61
(dp2245
sg70
g66
sg63
(lp2246
g56
(g77
g58
NtRp2247
(dp2248
g61
(dp2249
g81
g82
ssg70
g2243
sg63
(lp2250
S'post_vars'
p2251
asbag56
(g77
g58
NtRp2252
(dp2253
g61
(dp2254
g88
g89
ssg70
g2243
sg63
(lp2255
S':'
asbag56
(g77
g58
NtRp2256
(dp2257
g61
(dp2258
sg70
g2243
sg63
(lp2259
g56
(g57
g58
NtRp2260
(dp2261
g61
(dp2262
g69
I5
ssg70
g2256
sg63
(lp2263
g56
(g65
g58
NtRp2264
(dp2265
g61
(dp2266
g69
I4
ssg70
Nsg63
(lp2267
sbasbasbasbag56
(g72
g58
NtRp2268
(dp2269
g61
(dp2270
sg70
g66
sg63
(lp2271
g56
(g77
g58
NtRp2272
(dp2273
g61
(dp2274
g81
g82
ssg70
g2268
sg63
(lp2275
S'url'
p2276
asbag56
(g77
g58
NtRp2277
(dp2278
g61
(dp2279
g88
g89
ssg70
g2268
sg63
(lp2280
S':'
asbag56
(g77
g58
NtRp2281
(dp2282
g61
(dp2283
sg70
g2268
sg63
(lp2284
g56
(g57
g58
NtRp2285
(dp2286
g61
(dp2287
g69
I5
ssg70
g2281
sg63
(lp2288
S'/ddlagoon/default/index'
p2289
asbasbasbag56
(g72
g58
NtRp2290
(dp2291
g61
(dp2292
sg70
g66
sg63
(lp2293
g56
(g77
g58
NtRp2294
(dp2295
g61
(dp2296
g81
g82
ssg70
g2290
sg63
(lp2297
S'utcnow'
p2298
asbag56
(g77
g58
NtRp2299
(dp2300
g61
(dp2301
g88
g89
ssg70
g2290
sg63
(lp2302
S':'
asbag56
(g77
g58
NtRp2303
(dp2304
g61
(dp2305
sg70
g2290
sg63
(lp2306
g56
(g57
g58
NtRp2307
(dp2308
g61
(dp2309
g69
I5
ssg70
g2303
sg63
(lp2310
S'datetime.datetime(2011, 10, 26, 21, 11, 44, 937278)'
p2311
asbasbasbag56
(g72
g58
NtRp2312
(dp2313
g61
(dp2314
sg70
g66
sg63
(lp2315
g56
(g77
g58
NtRp2316
(dp2317
g61
(dp2318
g81
g82
ssg70
g2312
sg63
(lp2319
S'uuid'
p2320
asbag56
(g77
g58
NtRp2321
(dp2322
g61
(dp2323
g88
g89
ssg70
g2312
sg63
(lp2324
S':'
asbag56
(g77
g58
NtRp2325
(dp2326
g61
(dp2327
sg70
g2312
sg63
(lp2328
g56
(g57
g58
NtRp2329
(dp2330
g61
(dp2331
g69
I5
ssg70
g2325
sg63
(lp2332
S'ddlagoon/127.0.0.1.2011-10-26.22-11-44.ce407f63-d6ac-47b8-a1fc-1539309488bf'
p2333
asbasbasbag56
(g72
g58
NtRp2334
(dp2335
g61
(dp2336
sg70
g66
sg63
(lp2337
g56
(g77
g58
NtRp2338
(dp2339
g61
(dp2340
g81
g82
ssg70
g2334
sg63
(lp2341
S'vars'
p2342
asbag56
(g77
g58
NtRp2343
(dp2344
g61
(dp2345
g88
g89
ssg70
g2334
sg63
(lp2346
S':'
asbag56
(g77
g58
NtRp2347
(dp2348
g61
(dp2349
sg70
g2334
sg63
(lp2350
g56
(g57
g58
NtRp2351
(dp2352
g61
(dp2353
g69
I5
ssg70
g2347
sg63
(lp2354
g56
(g65
g58
NtRp2355
(dp2356
g61
(dp2357
g69
I4
ssg70
Nsg63
(lp2358
sbasbasbasbag56
(g72
g58
NtRp2359
(dp2360
g61
(dp2361
sg70
g66
sg63
(lp2362
g56
(g77
g58
NtRp2363
(dp2364
g61
(dp2365
g81
g82
ssg70
g2359
sg63
(lp2366
S'wsgi'
p2367
asbag56
(g77
g58
NtRp2368
(dp2369
g61
(dp2370
g88
g89
ssg70
g2359
sg63
(lp2371
S':'
asbag56
(g77
g58
NtRp2372
(dp2373
g61
(dp2374
sg70
g2359
sg63
(lp2375
g56
(g57
g58
NtRp2376
(dp2377
g61
(dp2378
g69
I5
ssg70
g2372
sg63
(lp2379
g56
(g65
g58
NtRp2380
(dp2381
g61
(dp2382
g69
I4
ssg70
Nsg63
(lp2383
g56
(g72
g58
NtRp2384
(dp2385
g61
(dp2386
sg70
g2380
sg63
(lp2387
g56
(g77
g58
NtRp2388
(dp2389
g61
(dp2390
g81
g82
ssg70
g2384
sg63
(lp2391
S'environ'
p2392
asbag56
(g77
g58
NtRp2393
(dp2394
g61
(dp2395
g88
g89
ssg70
g2384
sg63
(lp2396
S':'
asbag56
(g77
g58
NtRp2397
(dp2398
g61
(dp2399
sg70
g2384
sg63
(lp2400
g56
(g57
g58
NtRp2401
(dp2402
g61
(dp2403
g69
I4
ssg70
g2397
sg63
(lp2404
g56
(g65
g58
NtRp2405
(dp2406
g61
(dp2407
g69
I3
ssg70
Nsg63
(lp2408
g56
(g72
g58
NtRp2409
(dp2410
g61
(dp2411
sg70
g2405
sg63
(lp2412
g56
(g77
g58
NtRp2413
(dp2414
g61
(dp2415
g81
g82
ssg70
g2409
sg63
(lp2416
S'HTTP_ACCEPT'
p2417
asbag56
(g77
g58
NtRp2418
(dp2419
g61
(dp2420
g88
g89
ssg70
g2409
sg63
(lp2421
S':'
asbag56
(g77
g58
NtRp2422
(dp2423
g61
(dp2424
sg70
g2409
sg63
(lp2425
g56
(g57
g58
NtRp2426
(dp2427
g61
(dp2428
g69
I3
ssg70
g2422
sg63
(lp2429
g1002
asbasbasbag56
(g72
g58
NtRp2430
(dp2431
g61
(dp2432
sg70
g2405
sg63
(lp2433
g56
(g77
g58
NtRp2434
(dp2435
g61
(dp2436
g81
g82
ssg70
g2430
sg63
(lp2437
S'HTTP_ACCEPT_CHARSET'
p2438
asbag56
(g77
g58
NtRp2439
(dp2440
g61
(dp2441
g88
g89
ssg70
g2430
sg63
(lp2442
S':'
asbag56
(g77
g58
NtRp2443
(dp2444
g61
(dp2445
sg70
g2430
sg63
(lp2446
g56
(g57
g58
NtRp2447
(dp2448
g61
(dp2449
g69
I3
ssg70
g2443
sg63
(lp2450
g1024
asbasbasbag56
(g72
g58
NtRp2451
(dp2452
g61
(dp2453
sg70
g2405
sg63
(lp2454
g56
(g77
g58
NtRp2455
(dp2456
g61
(dp2457
g81
g82
ssg70
g2451
sg63
(lp2458
S'HTTP_ACCEPT_ENCODING'
p2459
asbag56
(g77
g58
NtRp2460
(dp2461
g61
(dp2462
g88
g89
ssg70
g2451
sg63
(lp2463
S':'
asbag56
(g77
g58
NtRp2464
(dp2465
g61
(dp2466
sg70
g2451
sg63
(lp2467
g56
(g57
g58
NtRp2468
(dp2469
g61
(dp2470
g69
I3
ssg70
g2464
sg63
(lp2471
g1046
asbasbasbag56
(g72
g58
NtRp2472
(dp2473
g61
(dp2474
sg70
g2405
sg63
(lp2475
g56
(g77
g58
NtRp2476
(dp2477
g61
(dp2478
g81
g82
ssg70
g2472
sg63
(lp2479
S'HTTP_ACCEPT_LANGUAGE'
p2480
asbag56
(g77
g58
NtRp2481
(dp2482
g61
(dp2483
g88
g89
ssg70
g2472
sg63
(lp2484
S':'
asbag56
(g77
g58
NtRp2485
(dp2486
g61
(dp2487
sg70
g2472
sg63
(lp2488
g56
(g57
g58
NtRp2489
(dp2490
g61
(dp2491
g69
I3
ssg70
g2485
sg63
(lp2492
g1068
asbasbasbag56
(g72
g58
NtRp2493
(dp2494
g61
(dp2495
sg70
g2405
sg63
(lp2496
g56
(g77
g58
NtRp2497
(dp2498
g61
(dp2499
g81
g82
ssg70
g2493
sg63
(lp2500
S'HTTP_CONNECTION'
p2501
asbag56
(g77
g58
NtRp2502
(dp2503
g61
(dp2504
g88
g89
ssg70
g2493
sg63
(lp2505
S':'
asbag56
(g77
g58
NtRp2506
(dp2507
g61
(dp2508
sg70
g2493
sg63
(lp2509
g56
(g57
g58
NtRp2510
(dp2511
g61
(dp2512
g69
I3
ssg70
g2506
sg63
(lp2513
g1090
asbasbasbag56
(g72
g58
NtRp2514
(dp2515
g61
(dp2516
sg70
g2405
sg63
(lp2517
g56
(g77
g58
NtRp2518
(dp2519
g61
(dp2520
g81
g82
ssg70
g2514
sg63
(lp2521
S'HTTP_COOKIE'
p2522
asbag56
(g77
g58
NtRp2523
(dp2524
g61
(dp2525
g88
g89
ssg70
g2514
sg63
(lp2526
S':'
asbag56
(g77
g58
NtRp2527
(dp2528
g61
(dp2529
sg70
g2514
sg63
(lp2530
g56
(g57
g58
NtRp2531
(dp2532
g61
(dp2533
g69
I3
ssg70
g2527
sg63
(lp2534
g1112
asbasbasbag56
(g72
g58
NtRp2535
(dp2536
g61
(dp2537
sg70
g2405
sg63
(lp2538
g56
(g77
g58
NtRp2539
(dp2540
g61
(dp2541
g81
g82
ssg70
g2535
sg63
(lp2542
S'HTTP_HOST'
p2543
asbag56
(g77
g58
NtRp2544
(dp2545
g61
(dp2546
g88
g89
ssg70
g2535
sg63
(lp2547
S':'
asbag56
(g77
g58
NtRp2548
(dp2549
g61
(dp2550
sg70
g2535
sg63
(lp2551
g56
(g57
g58
NtRp2552
(dp2553
g61
(dp2554
g69
I3
ssg70
g2548
sg63
(lp2555
g1134
asbasbasbag56
(g72
g58
NtRp2556
(dp2557
g61
(dp2558
sg70
g2405
sg63
(lp2559
g56
(g77
g58
NtRp2560
(dp2561
g61
(dp2562
g81
g82
ssg70
g2556
sg63
(lp2563
S'HTTP_USER_AGENT'
p2564
asbag56
(g77
g58
NtRp2565
(dp2566
g61
(dp2567
g88
g89
ssg70
g2556
sg63
(lp2568
S':'
asbag56
(g77
g58
NtRp2569
(dp2570
g61
(dp2571
sg70
g2556
sg63
(lp2572
g56
(g57
g58
NtRp2573
(dp2574
g61
(dp2575
g69
I3
ssg70
g2569
sg63
(lp2576
g1156
asbasbasbag56
(g72
g58
NtRp2577
(dp2578
g61
(dp2579
sg70
g2405
sg63
(lp2580
g56
(g77
g58
NtRp2581
(dp2582
g61
(dp2583
g81
g82
ssg70
g2577
sg63
(lp2584
S'PATH_INFO'
p2585
asbag56
(g77
g58
NtRp2586
(dp2587
g61
(dp2588
g88
g89
ssg70
g2577
sg63
(lp2589
S':'
asbag56
(g77
g58
NtRp2590
(dp2591
g61
(dp2592
sg70
g2577
sg63
(lp2593
g56
(g57
g58
NtRp2594
(dp2595
g61
(dp2596
g69
I3
ssg70
g2590
sg63
(lp2597
g1199
asbasbasbag56
(g72
g58
NtRp2598
(dp2599
g61
(dp2600
sg70
g2405
sg63
(lp2601
g56
(g77
g58
NtRp2602
(dp2603
g61
(dp2604
g81
g82
ssg70
g2598
sg63
(lp2605
S'QUERY_STRING'
p2606
asbag56
(g77
g58
NtRp2607
(dp2608
g61
(dp2609
g88
g89
ssg70
g2598
sg63
(lp2610
S':'
asbag56
(g77
g58
NtRp2611
(dp2612
g61
(dp2613
sg70
g2598
sg63
(lp2614
g56
(g57
g58
NtRp2615
(dp2616
g61
(dp2617
g69
I3
ssg70
g2611
sg63
(lp2618
S''
asbasbasbag56
(g72
g58
NtRp2619
(dp2620
g61
(dp2621
sg70
g2405
sg63
(lp2622
g56
(g77
g58
NtRp2623
(dp2624
g61
(dp2625
g81
g82
ssg70
g2619
sg63
(lp2626
S'REMOTE_ADDR'
p2627
asbag56
(g77
g58
NtRp2628
(dp2629
g61
(dp2630
g88
g89
ssg70
g2619
sg63
(lp2631
S':'
asbag56
(g77
g58
NtRp2632
(dp2633
g61
(dp2634
sg70
g2619
sg63
(lp2635
g56
(g57
g58
NtRp2636
(dp2637
g61
(dp2638
g69
I3
ssg70
g2632
sg63
(lp2639
g189
asbasbasbag56
(g72
g58
NtRp2640
(dp2641
g61
(dp2642
sg70
g2405
sg63
(lp2643
g56
(g77
g58
NtRp2644
(dp2645
g61
(dp2646
g81
g82
ssg70
g2640
sg63
(lp2647
S'REMOTE_PORT'
p2648
asbag56
(g77
g58
NtRp2649
(dp2650
g61
(dp2651
g88
g89
ssg70
g2640
sg63
(lp2652
S':'
asbag56
(g77
g58
NtRp2653
(dp2654
g61
(dp2655
sg70
g2640
sg63
(lp2656
g56
(g57
g58
NtRp2657
(dp2658
g61
(dp2659
g69
I3
ssg70
g2653
sg63
(lp2660
g1263
asbasbasbag56
(g72
g58
NtRp2661
(dp2662
g61
(dp2663
sg70
g2405
sg63
(lp2664
g56
(g77
g58
NtRp2665
(dp2666
g61
(dp2667
g81
g82
ssg70
g2661
sg63
(lp2668
S'REQUEST_METHOD'
p2669
asbag56
(g77
g58
NtRp2670
(dp2671
g61
(dp2672
g88
g89
ssg70
g2661
sg63
(lp2673
S':'
asbag56
(g77
g58
NtRp2674
(dp2675
g61
(dp2676
sg70
g2661
sg63
(lp2677
g56
(g57
g58
NtRp2678
(dp2679
g61
(dp2680
g69
I3
ssg70
g2674
sg63
(lp2681
g1285
asbasbasbag56
(g72
g58
NtRp2682
(dp2683
g61
(dp2684
sg70
g2405
sg63
(lp2685
g56
(g77
g58
NtRp2686
(dp2687
g61
(dp2688
g81
g82
ssg70
g2682
sg63
(lp2689
S'REQUEST_URI'
p2690
asbag56
(g77
g58
NtRp2691
(dp2692
g61
(dp2693
g88
g89
ssg70
g2682
sg63
(lp2694
S':'
asbag56
(g77
g58
NtRp2695
(dp2696
g61
(dp2697
sg70
g2682
sg63
(lp2698
g56
(g57
g58
NtRp2699
(dp2700
g61
(dp2701
g69
I3
ssg70
g2695
sg63
(lp2702
g1199
asbasbasbag56
(g72
g58
NtRp2703
(dp2704
g61
(dp2705
sg70
g2405
sg63
(lp2706
g56
(g77
g58
NtRp2707
(dp2708
g61
(dp2709
g81
g82
ssg70
g2703
sg63
(lp2710
S'SCRIPT_NAME'
p2711
asbag56
(g77
g58
NtRp2712
(dp2713
g61
(dp2714
g88
g89
ssg70
g2703
sg63
(lp2715
S':'
asbag56
(g77
g58
NtRp2716
(dp2717
g61
(dp2718
sg70
g2703
sg63
(lp2719
g56
(g57
g58
NtRp2720
(dp2721
g61
(dp2722
g69
I3
ssg70
g2716
sg63
(lp2723
S''
asbasbasbag56
(g72
g58
NtRp2724
(dp2725
g61
(dp2726
sg70
g2405
sg63
(lp2727
g56
(g77
g58
NtRp2728
(dp2729
g61
(dp2730
g81
g82
ssg70
g2724
sg63
(lp2731
S'SERVER_NAME'
p2732
asbag56
(g77
g58
NtRp2733
(dp2734
g61
(dp2735
g88
g89
ssg70
g2724
sg63
(lp2736
S':'
asbag56
(g77
g58
NtRp2737
(dp2738
g61
(dp2739
sg70
g2724
sg63
(lp2740
g56
(g57
g58
NtRp2741
(dp2742
g61
(dp2743
g69
I3
ssg70
g2737
sg63
(lp2744
g1349
asbasbasbag56
(g72
g58
NtRp2745
(dp2746
g61
(dp2747
sg70
g2405
sg63
(lp2748
g56
(g77
g58
NtRp2749
(dp2750
g61
(dp2751
g81
g82
ssg70
g2745
sg63
(lp2752
S'SERVER_PORT'
p2753
asbag56
(g77
g58
NtRp2754
(dp2755
g61
(dp2756
g88
g89
ssg70
g2745
sg63
(lp2757
S':'
asbag56
(g77
g58
NtRp2758
(dp2759
g61
(dp2760
sg70
g2745
sg63
(lp2761
g56
(g57
g58
NtRp2762
(dp2763
g61
(dp2764
g69
I3
ssg70
g2758
sg63
(lp2765
g1371
asbasbasbag56
(g72
g58
NtRp2766
(dp2767
g61
(dp2768
sg70
g2405
sg63
(lp2769
g56
(g77
g58
NtRp2770
(dp2771
g61
(dp2772
g81
g82
ssg70
g2766
sg63
(lp2773
S'SERVER_PROTOCOL'
p2774
asbag56
(g77
g58
NtRp2775
(dp2776
g61
(dp2777
g88
g89
ssg70
g2766
sg63
(lp2778
S':'
asbag56
(g77
g58
NtRp2779
(dp2780
g61
(dp2781
sg70
g2766
sg63
(lp2782
g56
(g57
g58
NtRp2783
(dp2784
g61
(dp2785
g69
I3
ssg70
g2779
sg63
(lp2786
g1393
asbasbasbag56
(g72
g58
NtRp2787
(dp2788
g61
(dp2789
sg70
g2405
sg63
(lp2790
g56
(g77
g58
NtRp2791
(dp2792
g61
(dp2793
g81
g82
ssg70
g2787
sg63
(lp2794
S'SERVER_SOFTWARE'
p2795
asbag56
(g77
g58
NtRp2796
(dp2797
g61
(dp2798
g88
g89
ssg70
g2787
sg63
(lp2799
S':'
asbag56
(g77
g58
NtRp2800
(dp2801
g61
(dp2802
sg70
g2787
sg63
(lp2803
g56
(g57
g58
NtRp2804
(dp2805
g61
(dp2806
g69
I3
ssg70
g2800
sg63
(lp2807
g1415
asbasbasbag56
(g72
g58
NtRp2808
(dp2809
g61
(dp2810
sg70
g2405
sg63
(lp2811
g56
(g77
g58
NtRp2812
(dp2813
g61
(dp2814
g81
g82
ssg70
g2808
sg63
(lp2815
S'WEB2PY_ORIGINAL_URI'
p2816
asbag56
(g77
g58
NtRp2817
(dp2818
g61
(dp2819
g88
g89
ssg70
g2808
sg63
(lp2820
S':'
asbag56
(g77
g58
NtRp2821
(dp2822
g61
(dp2823
sg70
g2808
sg63
(lp2824
g56
(g57
g58
NtRp2825
(dp2826
g61
(dp2827
g69
I3
ssg70
g2821
sg63
(lp2828
g1199
asbasbasbag56
(g72
g58
NtRp2829
(dp2830
g61
(dp2831
sg70
g2405
sg63
(lp2832
g56
(g77
g58
NtRp2833
(dp2834
g61
(dp2835
g81
g82
ssg70
g2829
sg63
(lp2836
S'wsgi.errors'
p2837
asbag56
(g77
g58
NtRp2838
(dp2839
g61
(dp2840
g88
g89
ssg70
g2829
sg63
(lp2841
S':'
asbag56
(g77
g58
NtRp2842
(dp2843
g61
(dp2844
sg70
g2829
sg63
(lp2845
g56
(g57
g58
NtRp2846
(dp2847
g61
(dp2848
g69
I3
ssg70
g2842
sg63
(lp2849
S"<open file '<stderr>', mode 'w' at 0x7f80c77741e0>"
p2850
asbasbasbag56
(g72
g58
NtRp2851
(dp2852
g61
(dp2853
sg70
g2405
sg63
(lp2854
g56
(g77
g58
NtRp2855
(dp2856
g61
(dp2857
g81
g82
ssg70
g2851
sg63
(lp2858
S'wsgi.file_wrapper'
p2859
asbag56
(g77
g58
NtRp2860
(dp2861
g61
(dp2862
g88
g89
ssg70
g2851
sg63
(lp2863
S':'
asbag56
(g77
g58
NtRp2864
(dp2865
g61
(dp2866
sg70
g2851
sg63
(lp2867
g56
(g57
g58
NtRp2868
(dp2869
g61
(dp2870
g69
I3
ssg70
g2864
sg63
(lp2871
S'<class wsgiref.util.FileWrapper at 0x2789590>'
p2872
asbasbasbag56
(g72
g58
NtRp2873
(dp2874
g61
(dp2875
sg70
g2405
sg63
(lp2876
g56
(g77
g58
NtRp2877
(dp2878
g61
(dp2879
g81
g82
ssg70
g2873
sg63
(lp2880
S'wsgi.input'
p2881
asbag56
(g77
g58
NtRp2882
(dp2883
g61
(dp2884
g88
g89
ssg70
g2873
sg63
(lp2885
S':'
asbag56
(g77
g58
NtRp2886
(dp2887
g61
(dp2888
sg70
g2873
sg63
(lp2889
g56
(g57
g58
NtRp2890
(dp2891
g61
(dp2892
g69
I3
ssg70
g2886
sg63
(lp2893
S'<cStringIO.StringO object at 0x7f80bc2b6d50>'
p2894
asbasbasbag56
(g72
g58
NtRp2895
(dp2896
g61
(dp2897
sg70
g2405
sg63
(lp2898
g56
(g77
g58
NtRp2899
(dp2900
g61
(dp2901
g81
g82
ssg70
g2895
sg63
(lp2902
S'wsgi.multiprocess'
p2903
asbag56
(g77
g58
NtRp2904
(dp2905
g61
(dp2906
g88
g89
ssg70
g2895
sg63
(lp2907
S':'
asbag56
(g77
g58
NtRp2908
(dp2909
g61
(dp2910
sg70
g2895
sg63
(lp2911
g56
(g57
g58
NtRp2912
(dp2913
g61
(dp2914
g69
I3
ssg70
g2908
sg63
(lp2915
g99
asbasbasbag56
(g72
g58
NtRp2916
(dp2917
g61
(dp2918
sg70
g2405
sg63
(lp2919
g56
(g77
g58
NtRp2920
(dp2921
g61
(dp2922
g81
g82
ssg70
g2916
sg63
(lp2923
S'wsgi.multithread'
p2924
asbag56
(g77
g58
NtRp2925
(dp2926
g61
(dp2927
g88
g89
ssg70
g2916
sg63
(lp2928
S':'
asbag56
(g77
g58
NtRp2929
(dp2930
g61
(dp2931
sg70
g2916
sg63
(lp2932
g56
(g57
g58
NtRp2933
(dp2934
g61
(dp2935
g69
I3
ssg70
g2929
sg63
(lp2936
g1676
asbasbasbag56
(g72
g58
NtRp2937
(dp2938
g61
(dp2939
sg70
g2405
sg63
(lp2940
g56
(g77
g58
NtRp2941
(dp2942
g61
(dp2943
g81
g82
ssg70
g2937
sg63
(lp2944
S'wsgi.run_once'
p2945
asbag56
(g77
g58
NtRp2946
(dp2947
g61
(dp2948
g88
g89
ssg70
g2937
sg63
(lp2949
S':'
asbag56
(g77
g58
NtRp2950
(dp2951
g61
(dp2952
sg70
g2937
sg63
(lp2953
g56
(g57
g58
NtRp2954
(dp2955
g61
(dp2956
g69
I3
ssg70
g2950
sg63
(lp2957
g99
asbasbasbag56
(g72
g58
NtRp2958
(dp2959
g61
(dp2960
sg70
g2405
sg63
(lp2961
g56
(g77
g58
NtRp2962
(dp2963
g61
(dp2964
g81
g82
ssg70
g2958
sg63
(lp2965
S'wsgi.url_scheme'
p2966
asbag56
(g77
g58
NtRp2967
(dp2968
g61
(dp2969
g88
g89
ssg70
g2958
sg63
(lp2970
S':'
asbag56
(g77
g58
NtRp2971
(dp2972
g61
(dp2973
sg70
g2958
sg63
(lp2974
g56
(g57
g58
NtRp2975
(dp2976
g61
(dp2977
g69
I3
ssg70
g2971
sg63
(lp2978
g1719
asbasbasbag56
(g72
g58
NtRp2979
(dp2980
g61
(dp2981
sg70
g2405
sg63
(lp2982
g56
(g77
g58
NtRp2983
(dp2984
g61
(dp2985
g81
g82
ssg70
g2979
sg63
(lp2986
S'wsgi.version'
p2987
asbag56
(g77
g58
NtRp2988
(dp2989
g61
(dp2990
g88
g89
ssg70
g2979
sg63
(lp2991
S':'
asbag56
(g77
g58
NtRp2992
(dp2993
g61
(dp2994
sg70
g2979
sg63
(lp2995
g56
(g57
g58
NtRp2996
(dp2997
g61
(dp2998
g69
I3
ssg70
g2992
sg63
(lp2999
S'1'
asbasbasbasbasbasbasbasbasbasbasbasbasbsS'frames'
p3000
(lp3001
(dp3002
S'file'
p3003
S'/windows/Users/Thomas/Dropbox/appz/2011/GAE/ddl-lagoon/gluon/restricted.py'
p3004
sS'dump'
p3005
(dp3006
S'environment'
p3007
S"{'A': <class 'gluon.html.A'>, 'Auth': <class 'gluon.tools.Auth'>, 'B': <class 'gluon.html.B'>, 'BEAUTIFY': <class 'gluon.html.BEAUTIFY'>, 'BODY': <class 'gluon.html.BODY'>, 'BR': <class 'gluon.html.BR'>, 'BUTTON': <class 'gluon.html.BUTTON'>, 'CAT': <class 'gluon.html.CAT'>, 'CENTER': <class 'gluon.html.CENTER'>, 'CLEANUP': <class 'gluon.validators.CLEANUP'>, ...}"
p3008
sS'ccode'
p3009
S'<code object <module> at 0x7f80bc2b1198, file "/.../compiled/controllers_default_index.py", line 11>'
p3010
ssS'lnum'
p3011
I194
sS'lines'
p3012
(dp3013
I192
S'        else:'
p3014
sI193
S'            ccode = compile2(code,layer)'
p3015
sI194
S'        exec ccode in environment'
p3016
sI195
S'    except HTTP:'
p3017
sI196
S'        raise'
p3018
sI197
S'    except Exception, error:'
p3019
sI198
S'        # XXX Show exception in Wing IDE if running in debugger'
p3020
sI189
S'    try:'
p3021
sI190
S'        if type(code) == types.CodeType:'
p3022
sI191
S'            ccode = code'
p3023
ssS'call'
p3024
S'(code=<code object <module> at 0x7f80bc2b1198, file "/.../compiled/controllers_default_index.py", line 11>, environment={\'A\': <class \'gluon.html.A\'>, \'Auth\': <class \'gluon.tools.Auth\'>, \'B\': <class \'gluon.html.B\'>, \'BEAUTIFY\': <class \'gluon.html.BEAUTIFY\'>, \'BODY\': <class \'gluon.html.BODY\'>, \'BR\': <class \'gluon.html.BR\'>, \'BUTTON\': <class \'gluon.html.BUTTON\'>, \'CAT\': <class \'gluon.html.CAT\'>, \'CENTER\': <class \'gluon.html.CENTER\'>, \'CLEANUP\': <class \'gluon.validators.CLEANUP\'>, ...}, layer=\'/windows/Users/Thomas/Dropbox/appz/2011/GAE/ddl-...s/ddlagoon/compiled/controllers_default_index.pyc\')'
p3025
sS'func'
p3026
S'restricted'
p3027
sa(dp3028
g3003
S'/windows/Users/Thomas/Dropbox/appz/2011/GAE/ddl-lagoon/applications/ddlagoon/compiled/controllers_default_index.py'
p3029
sg3005
(dp3030
sg3011
I279
sg3012
(dp3031
sg3024
S'()'
p3032
sg3026
S'<module>'
p3033
sa(dp3034
g3003
S'/windows/Users/Thomas/Dropbox/appz/2011/GAE/ddl-lagoon/gluon/globals.py'
p3035
sg3005
(dp3036
S'self'
p3037
S'undefined'
p3038
sS'f'
S'<function index>'
p3039
ssg3011
I149
sg3012
(dp3040
I144
S'        self.meta = Storage()      # used by web2py_ajax.html'
p3041
sI145
S'        self.menu = []             # used by the default view layout'
p3042
sI146
S'        self.files = []            # used by web2py_ajax.html'
p3043
sI147
S'        self.generic_patterns = [] # patterns to allow generic views'
p3044
sI148
S'        self._vars = None'
p3045
sI149
S'        self._caller = lambda f: f()'
p3046
sI150
S'        self._view_environment = None'
p3047
sI151
S'        self._custom_commit = None'
p3048
sI152
S'        self._custom_rollback = None'
p3049
sI153
S''
ssg3024
S'(f=<function index>)'
p3050
sg3026
S'<lambda>'
p3051
sa(dp3052
g3003
S'/windows/Users/Thomas/Dropbox/appz/2011/GAE/ddl-lagoon/applications/ddlagoon/compiled/controllers_default_index.py'
p3053
sg3005
(dp3054
sg3011
I47
sg3012
(dp3055
sg3024
S'()'
p3056
sg3026
g1834
sa(dp3057
g3003
S'/windows/Users/Thomas/Dropbox/appz/2011/GAE/ddl-lagoon/gluon/dal.py'
p3058
sg3005
(dp3059
S'box'
p3060
S"<Row {'last_time_downloaded': None, 'version': 1...1, 10, 26, 20, 54, 22), 'web_description': None}>"
p3061
sS'attribute'
p3062
S"'size_readable'"
p3063
sS'method'
p3064
S'<bound method DDLVirtualFields.size_readable of <DDLVirtualFields object>>'
p3065
ssg3011
I5841
sg3012
(dp3066
I5836
S'                            box[attribute]=VirtualCommand(method,row)'
p3067
sI5837
S'                        elif type(method)==types.MethodType:'
p3068
sI5838
S'                            if not updated:'
p3069
sI5839
S'                                virtualfields.__dict__.update(row)'
p3070
sI5840
S'                                updated = True'
p3071
sI5841
S'                            box[attribute]=method()'
p3072
sI5842
S'        return self'
p3073
sI5843
S''
sI5844
S'    def __and__(self,other):'
p3074
sI5845
S"        if self.colnames!=other.colnames: raise Exception, 'Cannot & incompatible Rows objects'"
p3075
ssg3024
S"(self=<gluon.dal.Rows object>, **keyed_virtualfields={'ddl': <DDLVirtualFields object>})"
p3076
sg3026
S'setvirtualfields'
p3077
sa(dp3078
g3003
S'/windows/Users/Thomas/Dropbox/appz/2011/GAE/ddl-lagoon/applications/ddlagoon/compiled/controllers_default_index.py'
p3079
sg3005
(dp3080
sg3011
I46
sg3012
(dp3081
sg3024
S'(self=<DDLVirtualFields object>)'
p3082
sg3026
S'size_readable'
p3083
sasS'pyver'
p3084
S'Python 2.6.7: /usr/bin/python2.6'
p3085
sS'session'
p3086
g56
(g57
g58
NtRp3087
(dp3088
g61
(dp3089
sg63
(lp3090
g56
(g65
g58
NtRp3091
(dp3092
g61
(dp3093
g69
I5
ssg70
Nsg63
(lp3094
sbasbsS'etype'
p3095
S"<type 'exceptions.AttributeError'>"
p3096
sS'date'
p3097
S'Wed Oct 26 22:11:45 2011'
p3098
sS'response'
p3099
g56
(g57
g58
NtRp3100
(dp3101
g61
(dp3102
sg63
(lp3103
g56
(g65
g58
NtRp3104
(dp3105
g61
(dp3106
g69
I5
ssg70
Nsg63
(lp3107
g56
(g72
g58
NtRp3108
(dp3109
g61
(dp3110
sg70
g3104
sg63
(lp3111
g56
(g77
g58
NtRp3112
(dp3113
g61
(dp3114
g81
g82
ssg70
g3108
sg63
(lp3115
g154
asbag56
(g77
g58
NtRp3116
(dp3117
g61
(dp3118
g88
g89
ssg70
g3108
sg63
(lp3119
S':'
asbag56
(g77
g58
NtRp3120
(dp3121
g61
(dp3122
sg70
g3108
sg63
(lp3123
g56
(g57
g58
NtRp3124
(dp3125
g61
(dp3126
g69
I5
ssg70
g3120
sg63
(lp3127
S'<cStringIO.StringO object at 0x35c9068>'
p3128
asbasbasbag56
(g72
g58
NtRp3129
(dp3130
g61
(dp3131
sg70
g3104
sg63
(lp3132
g56
(g77
g58
NtRp3133
(dp3134
g61
(dp3135
g81
g82
ssg70
g3129
sg63
(lp3136
g220
asbag56
(g77
g58
NtRp3137
(dp3138
g61
(dp3139
g88
g89
ssg70
g3129
sg63
(lp3140
S':'
asbag56
(g77
g58
NtRp3141
(dp3142
g61
(dp3143
sg70
g3129
sg63
(lp3144
g56
(g57
g58
NtRp3145
(dp3146
g61
(dp3147
g69
I5
ssg70
g3141
sg63
(lp3148
g56
(g65
g58
NtRp3149
(dp3150
g61
(dp3151
g69
I4
ssg70
Nsg63
(lp3152
g56
(g72
g58
NtRp3153
(dp3154
g61
(dp3155
sg70
g3149
sg63
(lp3156
g56
(g77
g58
NtRp3157
(dp3158
g61
(dp3159
g81
g82
ssg70
g3153
sg63
(lp3160
S'session_id_ddlagoon'
p3161
asbag56
(g77
g58
NtRp3162
(dp3163
g61
(dp3164
g88
g89
ssg70
g3153
sg63
(lp3165
S':'
asbag56
(g77
g58
NtRp3166
(dp3167
g61
(dp3168
sg70
g3153
sg63
(lp3169
g56
(g57
g58
NtRp3170
(dp3171
g61
(dp3172
g69
I4
ssg70
g3166
sg63
(lp3173
g56
(g65
g58
NtRp3174
(dp3175
g61
(dp3176
g69
I3
ssg70
Nsg63
(lp3177
g56
(g72
g58
NtRp3178
(dp3179
g61
(dp3180
sg70
g3174
sg63
(lp3181
g56
(g77
g58
NtRp3182
(dp3183
g61
(dp3184
g81
g82
ssg70
g3178
sg63
(lp3185
g270
asbag56
(g77
g58
NtRp3186
(dp3187
g61
(dp3188
g88
g89
ssg70
g3178
sg63
(lp3189
S':'
asbag56
(g77
g58
NtRp3190
(dp3191
g61
(dp3192
sg70
g3178
sg63
(lp3193
g56
(g57
g58
NtRp3194
(dp3195
g61
(dp3196
g69
I3
ssg70
g3190
sg63
(lp3197
S''
asbasbasbag56
(g72
g58
NtRp3198
(dp3199
g61
(dp3200
sg70
g3174
sg63
(lp3201
g56
(g77
g58
NtRp3202
(dp3203
g61
(dp3204
g81
g82
ssg70
g3198
sg63
(lp3205
g291
asbag56
(g77
g58
NtRp3206
(dp3207
g61
(dp3208
g88
g89
ssg70
g3198
sg63
(lp3209
S':'
asbag56
(g77
g58
NtRp3210
(dp3211
g61
(dp3212
sg70
g3198
sg63
(lp3213
g56
(g57
g58
NtRp3214
(dp3215
g61
(dp3216
g69
I3
ssg70
g3210
sg63
(lp3217
S''
asbasbasbag56
(g72
g58
NtRp3218
(dp3219
g61
(dp3220
sg70
g3174
sg63
(lp3221
g56
(g77
g58
NtRp3222
(dp3223
g61
(dp3224
g81
g82
ssg70
g3218
sg63
(lp3225
g312
asbag56
(g77
g58
NtRp3226
(dp3227
g61
(dp3228
g88
g89
ssg70
g3218
sg63
(lp3229
S':'
asbag56
(g77
g58
NtRp3230
(dp3231
g61
(dp3232
sg70
g3218
sg63
(lp3233
g56
(g57
g58
NtRp3234
(dp3235
g61
(dp3236
g69
I3
ssg70
g3230
sg63
(lp3237
S''
asbasbasbag56
(g72
g58
NtRp3238
(dp3239
g61
(dp3240
sg70
g3174
sg63
(lp3241
g56
(g77
g58
NtRp3242
(dp3243
g61
(dp3244
g81
g82
ssg70
g3238
sg63
(lp3245
g333
asbag56
(g77
g58
NtRp3246
(dp3247
g61
(dp3248
g88
g89
ssg70
g3238
sg63
(lp3249
S':'
asbag56
(g77
g58
NtRp3250
(dp3251
g61
(dp3252
sg70
g3238
sg63
(lp3253
g56
(g57
g58
NtRp3254
(dp3255
g61
(dp3256
g69
I3
ssg70
g3250
sg63
(lp3257
S''
asbasbasbag56
(g72
g58
NtRp3258
(dp3259
g61
(dp3260
sg70
g3174
sg63
(lp3261
g56
(g77
g58
NtRp3262
(dp3263
g61
(dp3264
g81
g82
ssg70
g3258
sg63
(lp3265
g354
asbag56
(g77
g58
NtRp3266
(dp3267
g61
(dp3268
g88
g89
ssg70
g3258
sg63
(lp3269
S':'
asbag56
(g77
g58
NtRp3270
(dp3271
g61
(dp3272
sg70
g3258
sg63
(lp3273
g56
(g57
g58
NtRp3274
(dp3275
g61
(dp3276
g69
I3
ssg70
g3270
sg63
(lp3277
S''
asbasbasbag56
(g72
g58
NtRp3278
(dp3279
g61
(dp3280
sg70
g3174
sg63
(lp3281
g56
(g77
g58
NtRp3282
(dp3283
g61
(dp3284
g81
g82
ssg70
g3278
sg63
(lp3285
g375
asbag56
(g77
g58
NtRp3286
(dp3287
g61
(dp3288
g88
g89
ssg70
g3278
sg63
(lp3289
S':'
asbag56
(g77
g58
NtRp3290
(dp3291
g61
(dp3292
sg70
g3278
sg63
(lp3293
g56
(g57
g58
NtRp3294
(dp3295
g61
(dp3296
g69
I3
ssg70
g3290
sg63
(lp3297
S'/'
asbasbasbag56
(g72
g58
NtRp3298
(dp3299
g61
(dp3300
sg70
g3174
sg63
(lp3301
g56
(g77
g58
NtRp3302
(dp3303
g61
(dp3304
g81
g82
ssg70
g3298
sg63
(lp3305
g396
asbag56
(g77
g58
NtRp3306
(dp3307
g61
(dp3308
g88
g89
ssg70
g3298
sg63
(lp3309
S':'
asbag56
(g77
g58
NtRp3310
(dp3311
g61
(dp3312
sg70
g3298
sg63
(lp3313
g56
(g57
g58
NtRp3314
(dp3315
g61
(dp3316
g69
I3
ssg70
g3310
sg63
(lp3317
S''
asbasbasbag56
(g72
g58
NtRp3318
(dp3319
g61
(dp3320
sg70
g3174
sg63
(lp3321
g56
(g77
g58
NtRp3322
(dp3323
g61
(dp3324
g81
g82
ssg70
g3318
sg63
(lp3325
g417
asbag56
(g77
g58
NtRp3326
(dp3327
g61
(dp3328
g88
g89
ssg70
g3318
sg63
(lp3329
S':'
asbag56
(g77
g58
NtRp3330
(dp3331
g61
(dp3332
sg70
g3318
sg63
(lp3333
g56
(g57
g58
NtRp3334
(dp3335
g61
(dp3336
g69
I3
ssg70
g3330
sg63
(lp3337
S''
asbasbasbasbasbasbasbasbasbasbasbag56
(g72
g58
NtRp3338
(dp3339
g61
(dp3340
sg70
g3104
sg63
(lp3341
g56
(g77
g58
NtRp3342
(dp3343
g61
(dp3344
g81
g82
ssg70
g3338
sg63
(lp3345
S'files'
p3346
asbag56
(g77
g58
NtRp3347
(dp3348
g61
(dp3349
g88
g89
ssg70
g3338
sg63
(lp3350
S':'
asbag56
(g77
g58
NtRp3351
(dp3352
g61
(dp3353
sg70
g3338
sg63
(lp3354
g56
(g57
g58
NtRp3355
(dp3356
g61
(dp3357
g69
I5
ssg70
g3351
sg63
(lp3358
g56
(g65
g58
NtRp3359
(dp3360
g61
(dp3361
g69
I4
ssg70
Nsg63
(lp3362
sbasbasbasbag56
(g72
g58
NtRp3363
(dp3364
g61
(dp3365
sg70
g3104
sg63
(lp3366
g56
(g77
g58
NtRp3367
(dp3368
g61
(dp3369
g81
g82
ssg70
g3363
sg63
(lp3370
S'flash'
p3371
asbag56
(g77
g58
NtRp3372
(dp3373
g61
(dp3374
g88
g89
ssg70
g3363
sg63
(lp3375
S':'
asbag56
(g77
g58
NtRp3376
(dp3377
g61
(dp3378
sg70
g3363
sg63
(lp3379
g56
(g57
g58
NtRp3380
(dp3381
g61
(dp3382
g69
I5
ssg70
g3376
sg63
(lp3383
S''
asbasbasbag56
(g72
g58
NtRp3384
(dp3385
g61
(dp3386
sg70
g3104
sg63
(lp3387
g56
(g77
g58
NtRp3388
(dp3389
g61
(dp3390
g81
g82
ssg70
g3384
sg63
(lp3391
S'generic_patterns'
p3392
asbag56
(g77
g58
NtRp3393
(dp3394
g61
(dp3395
g88
g89
ssg70
g3384
sg63
(lp3396
S':'
asbag56
(g77
g58
NtRp3397
(dp3398
g61
(dp3399
sg70
g3384
sg63
(lp3400
g56
(g57
g58
NtRp3401
(dp3402
g61
(dp3403
g69
I5
ssg70
g3397
sg63
(lp3404
g56
(g65
g58
NtRp3405
(dp3406
g61
(dp3407
g69
I4
ssg70
Nsg63
(lp3408
g56
(g72
g58
NtRp3409
(dp3410
g61
(dp3411
sg70
g3405
sg63
(lp3412
g56
(g77
g58
NtRp3413
(dp3414
g61
(dp3415
sg70
g3409
sg63
(lp3416
g56
(g57
g58
NtRp3417
(dp3418
g61
(dp3419
g69
I4
ssg70
g3413
sg63
(lp3420
S'*'
asbasbasbasbasbasbasbag56
(g72
g58
NtRp3421
(dp3422
g61
(dp3423
sg70
g3104
sg63
(lp3424
g56
(g77
g58
NtRp3425
(dp3426
g61
(dp3427
g81
g82
ssg70
g3421
sg63
(lp3428
S'headers'
p3429
asbag56
(g77
g58
NtRp3430
(dp3431
g61
(dp3432
g88
g89
ssg70
g3421
sg63
(lp3433
S':'
asbag56
(g77
g58
NtRp3434
(dp3435
g61
(dp3436
sg70
g3421
sg63
(lp3437
g56
(g57
g58
NtRp3438
(dp3439
g61
(dp3440
g69
I5
ssg70
g3434
sg63
(lp3441
g56
(g65
g58
NtRp3442
(dp3443
g61
(dp3444
g69
I4
ssg70
Nsg63
(lp3445
g56
(g72
g58
NtRp3446
(dp3447
g61
(dp3448
sg70
g3442
sg63
(lp3449
g56
(g77
g58
NtRp3450
(dp3451
g61
(dp3452
g81
g82
ssg70
g3446
sg63
(lp3453
S'Cache-Control'
p3454
asbag56
(g77
g58
NtRp3455
(dp3456
g61
(dp3457
g88
g89
ssg70
g3446
sg63
(lp3458
S':'
asbag56
(g77
g58
NtRp3459
(dp3460
g61
(dp3461
sg70
g3446
sg63
(lp3462
g56
(g57
g58
NtRp3463
(dp3464
g61
(dp3465
g69
I4
ssg70
g3459
sg63
(lp3466
S'no-store, no-cache, must-revalidate, post-check=0, pre-check=0'
p3467
asbasbasbag56
(g72
g58
NtRp3468
(dp3469
g61
(dp3470
sg70
g3442
sg63
(lp3471
g56
(g77
g58
NtRp3472
(dp3473
g61
(dp3474
g81
g82
ssg70
g3468
sg63
(lp3475
S'Content-Type'
p3476
asbag56
(g77
g58
NtRp3477
(dp3478
g61
(dp3479
g88
g89
ssg70
g3468
sg63
(lp3480
S':'
asbag56
(g77
g58
NtRp3481
(dp3482
g61
(dp3483
sg70
g3468
sg63
(lp3484
g56
(g57
g58
NtRp3485
(dp3486
g61
(dp3487
g69
I4
ssg70
g3481
sg63
(lp3488
S'text/html; charset=utf-8'
p3489
asbasbasbag56
(g72
g58
NtRp3490
(dp3491
g61
(dp3492
sg70
g3442
sg63
(lp3493
g56
(g77
g58
NtRp3494
(dp3495
g61
(dp3496
g81
g82
ssg70
g3490
sg63
(lp3497
S'Expires'
p3498
asbag56
(g77
g58
NtRp3499
(dp3500
g61
(dp3501
g88
g89
ssg70
g3490
sg63
(lp3502
S':'
asbag56
(g77
g58
NtRp3503
(dp3504
g61
(dp3505
sg70
g3490
sg63
(lp3506
g56
(g57
g58
NtRp3507
(dp3508
g61
(dp3509
g69
I4
ssg70
g3503
sg63
(lp3510
S'Wed, 26 Oct 2011 21:11:44 GMT'
p3511
asbasbasbag56
(g72
g58
NtRp3512
(dp3513
g61
(dp3514
sg70
g3442
sg63
(lp3515
g56
(g77
g58
NtRp3516
(dp3517
g61
(dp3518
g81
g82
ssg70
g3512
sg63
(lp3519
S'Pragma'
p3520
asbag56
(g77
g58
NtRp3521
(dp3522
g61
(dp3523
g88
g89
ssg70
g3512
sg63
(lp3524
S':'
asbag56
(g77
g58
NtRp3525
(dp3526
g61
(dp3527
sg70
g3512
sg63
(lp3528
g56
(g57
g58
NtRp3529
(dp3530
g61
(dp3531
g69
I4
ssg70
g3525
sg63
(lp3532
S'no-cache'
p3533
asbasbasbag56
(g72
g58
NtRp3534
(dp3535
g61
(dp3536
sg70
g3442
sg63
(lp3537
g56
(g77
g58
NtRp3538
(dp3539
g61
(dp3540
g81
g82
ssg70
g3534
sg63
(lp3541
S'X-Powered-By'
p3542
asbag56
(g77
g58
NtRp3543
(dp3544
g61
(dp3545
g88
g89
ssg70
g3534
sg63
(lp3546
S':'
asbag56
(g77
g58
NtRp3547
(dp3548
g61
(dp3549
sg70
g3534
sg63
(lp3550
g56
(g57
g58
NtRp3551
(dp3552
g61
(dp3553
g69
I4
ssg70
g3547
sg63
(lp3554
S'web2py'
p3555
asbasbasbasbasbasbasbag56
(g72
g58
NtRp3556
(dp3557
g61
(dp3558
sg70
g3104
sg63
(lp3559
g56
(g77
g58
NtRp3560
(dp3561
g61
(dp3562
g81
g82
ssg70
g3556
sg63
(lp3563
S'menu'
p3564
asbag56
(g77
g58
NtRp3565
(dp3566
g61
(dp3567
g88
g89
ssg70
g3556
sg63
(lp3568
S':'
asbag56
(g77
g58
NtRp3569
(dp3570
g61
(dp3571
sg70
g3556
sg63
(lp3572
g56
(g57
g58
NtRp3573
(dp3574
g61
(dp3575
g69
I5
ssg70
g3569
sg63
(lp3576
g56
(g65
g58
NtRp3577
(dp3578
g61
(dp3579
g69
I4
ssg70
Nsg63
(lp3580
g56
(g72
g58
NtRp3581
(dp3582
g61
(dp3583
sg70
g3577
sg63
(lp3584
g56
(g77
g58
NtRp3585
(dp3586
g61
(dp3587
sg70
g3581
sg63
(lp3588
g56
(g57
g58
NtRp3589
(dp3590
g61
(dp3591
g69
I4
ssg70
g3585
sg63
(lp3592
g56
(g65
g58
NtRp3593
(dp3594
g61
(dp3595
g69
I3
ssg70
Nsg63
(lp3596
g56
(g72
g58
NtRp3597
(dp3598
g61
(dp3599
sg70
g3593
sg63
(lp3600
g56
(g77
g58
NtRp3601
(dp3602
g61
(dp3603
sg70
g3597
sg63
(lp3604
g56
(g57
g58
NtRp3605
(dp3606
g61
(dp3607
g69
I3
ssg70
g3601
sg63
(lp3608
cgluon.languages
lazyT_unpickle
p3609
(S's\x04\x00\x00\x00Home'
tRp3610
asbasbasbag56
(g72
g58
NtRp3611
(dp3612
g61
(dp3613
sg70
g3593
sg63
(lp3614
g56
(g77
g58
NtRp3615
(dp3616
g61
(dp3617
sg70
g3611
sg63
(lp3618
g56
(g57
g58
NtRp3619
(dp3620
g61
(dp3621
g69
I3
ssg70
g3615
sg63
(lp3622
g99
asbasbasbag56
(g72
g58
NtRp3623
(dp3624
g61
(dp3625
sg70
g3593
sg63
(lp3626
g56
(g77
g58
NtRp3627
(dp3628
g61
(dp3629
sg70
g3623
sg63
(lp3630
g56
(g57
g58
NtRp3631
(dp3632
g61
(dp3633
g69
I3
ssg70
g3627
sg63
(lp3634
S'/ddlagoon/default/index'
p3635
asbasbasbag56
(g72
g58
NtRp3636
(dp3637
g61
(dp3638
sg70
g3593
sg63
(lp3639
g56
(g77
g58
NtRp3640
(dp3641
g61
(dp3642
sg70
g3636
sg63
(lp3643
g56
(g57
g58
NtRp3644
(dp3645
g61
(dp3646
g69
I3
ssg70
g3640
sg63
(lp3647
g56
(g65
g58
NtRp3648
(dp3649
g61
(dp3650
g69
I2
ssg70
Nsg63
(lp3651
sbasbasbasbasbasbasbasbag56
(g72
g58
NtRp3652
(dp3653
g61
(dp3654
sg70
g3577
sg63
(lp3655
g56
(g77
g58
NtRp3656
(dp3657
g61
(dp3658
sg70
g3652
sg63
(lp3659
g56
(g57
g58
NtRp3660
(dp3661
g61
(dp3662
g69
I4
ssg70
g3656
sg63
(lp3663
g56
(g65
g58
NtRp3664
(dp3665
g61
(dp3666
g69
I3
ssg70
Nsg63
(lp3667
g56
(g72
g58
NtRp3668
(dp3669
g61
(dp3670
sg70
g3664
sg63
(lp3671
g56
(g77
g58
NtRp3672
(dp3673
g61
(dp3674
sg70
g3668
sg63
(lp3675
g56
(g57
g58
NtRp3676
(dp3677
g61
(dp3678
g69
I3
ssg70
g3672
sg63
(lp3679
g3609
(S's\x08\x00\x00\x00This App'
tRp3680
asbasbasbag56
(g72
g58
NtRp3681
(dp3682
g61
(dp3683
sg70
g3664
sg63
(lp3684
g56
(g77
g58
NtRp3685
(dp3686
g61
(dp3687
sg70
g3681
sg63
(lp3688
g56
(g57
g58
NtRp3689
(dp3690
g61
(dp3691
g69
I3
ssg70
g3685
sg63
(lp3692
g99
asbasbasbag56
(g72
g58
NtRp3693
(dp3694
g61
(dp3695
sg70
g3664
sg63
(lp3696
g56
(g77
g58
NtRp3697
(dp3698
g61
(dp3699
sg70
g3693
sg63
(lp3700
g56
(g57
g58
NtRp3701
(dp3702
g61
(dp3703
g69
I3
ssg70
g3697
sg63
(lp3704
S'/admin/default/design/ddlagoon'
p3705
asbasbasbag56
(g72
g58
NtRp3706
(dp3707
g61
(dp3708
sg70
g3664
sg63
(lp3709
g56
(g77
g58
NtRp3710
(dp3711
g61
(dp3712
sg70
g3706
sg63
(lp3713
g56
(g57
g58
NtRp3714
(dp3715
g61
(dp3716
g69
I3
ssg70
g3710
sg63
(lp3717
g56
(g65
g58
NtRp3718
(dp3719
g61
(dp3720
g69
I2
ssg70
Nsg63
(lp3721
g56
(g72
g58
NtRp3722
(dp3723
g61
(dp3724
sg70
g3718
sg63
(lp3725
g56
(g77
g58
NtRp3726
(dp3727
g61
(dp3728
sg70
g3722
sg63
(lp3729
g56
(g57
g58
NtRp3730
(dp3731
g61
(dp3732
g69
I2
ssg70
g3726
sg63
(lp3733
g56
(g65
g58
NtRp3734
(dp3735
g61
(dp3736
g69
I1
ssg70
Nsg63
(lp3737
g56
(g72
g58
NtRp3738
(dp3739
g61
(dp3740
sg70
g3734
sg63
(lp3741
g56
(g77
g58
NtRp3742
(dp3743
g61
(dp3744
sg70
g3738
sg63
(lp3745
g56
(g57
g58
NtRp3746
(dp3747
g61
(dp3748
g69
I1
ssg70
g3742
sg63
(lp3749
g3609
(S's\n\x00\x00\x00Controller'
tRp3750
asbasbasbag56
(g72
g58
NtRp3751
(dp3752
g61
(dp3753
sg70
g3734
sg63
(lp3754
g56
(g77
g58
NtRp3755
(dp3756
g61
(dp3757
sg70
g3751
sg63
(lp3758
g56
(g57
g58
NtRp3759
(dp3760
g61
(dp3761
g69
I1
ssg70
g3755
sg63
(lp3762
I00
asbasbasbag56
(g72
g58
NtRp3763
(dp3764
g61
(dp3765
sg70
g3734
sg63
(lp3766
g56
(g77
g58
NtRp3767
(dp3768
g61
(dp3769
sg70
g3763
sg63
(lp3770
g56
(g57
g58
NtRp3771
(dp3772
g61
(dp3773
g69
I1
ssg70
g3767
sg63
(lp3774
S'/admin/default/edit/ddlagoon/controllers/default.py'
p3775
asbasbasbasbasbasbasbag56
(g72
g58
NtRp3776
(dp3777
g61
(dp3778
sg70
g3718
sg63
(lp3779
g56
(g77
g58
NtRp3780
(dp3781
g61
(dp3782
sg70
g3776
sg63
(lp3783
g56
(g57
g58
NtRp3784
(dp3785
g61
(dp3786
g69
I2
ssg70
g3780
sg63
(lp3787
g56
(g65
g58
NtRp3788
(dp3789
g61
(dp3790
g69
I1
ssg70
Nsg63
(lp3791
g56
(g72
g58
NtRp3792
(dp3793
g61
(dp3794
sg70
g3788
sg63
(lp3795
g56
(g77
g58
NtRp3796
(dp3797
g61
(dp3798
sg70
g3792
sg63
(lp3799
g56
(g57
g58
NtRp3800
(dp3801
g61
(dp3802
g69
I1
ssg70
g3796
sg63
(lp3803
g3609
(S's\x04\x00\x00\x00View'
tRp3804
asbasbasbag56
(g72
g58
NtRp3805
(dp3806
g61
(dp3807
sg70
g3788
sg63
(lp3808
g56
(g77
g58
NtRp3809
(dp3810
g61
(dp3811
sg70
g3805
sg63
(lp3812
g56
(g57
g58
NtRp3813
(dp3814
g61
(dp3815
g69
I1
ssg70
g3809
sg63
(lp3816
I00
asbasbasbag56
(g72
g58
NtRp3817
(dp3818
g61
(dp3819
sg70
g3788
sg63
(lp3820
g56
(g77
g58
NtRp3821
(dp3822
g61
(dp3823
sg70
g3817
sg63
(lp3824
g56
(g57
g58
NtRp3825
(dp3826
g61
(dp3827
g69
I1
ssg70
g3821
sg63
(lp3828
S'/admin/default/edit/ddlagoon/views/default/index.html'
p3829
asbasbasbasbasbasbasbag56
(g72
g58
NtRp3830
(dp3831
g61
(dp3832
sg70
g3718
sg63
(lp3833
g56
(g77
g58
NtRp3834
(dp3835
g61
(dp3836
sg70
g3830
sg63
(lp3837
g56
(g57
g58
NtRp3838
(dp3839
g61
(dp3840
g69
I2
ssg70
g3834
sg63
(lp3841
g56
(g65
g58
NtRp3842
(dp3843
g61
(dp3844
g69
I1
ssg70
Nsg63
(lp3845
g56
(g72
g58
NtRp3846
(dp3847
g61
(dp3848
sg70
g3842
sg63
(lp3849
g56
(g77
g58
NtRp3850
(dp3851
g61
(dp3852
sg70
g3846
sg63
(lp3853
g56
(g57
g58
NtRp3854
(dp3855
g61
(dp3856
g69
I1
ssg70
g3850
sg63
(lp3857
g3609
(S's\x06\x00\x00\x00Layout'
tRp3858
asbasbasbag56
(g72
g58
NtRp3859
(dp3860
g61
(dp3861
sg70
g3842
sg63
(lp3862
g56
(g77
g58
NtRp3863
(dp3864
g61
(dp3865
sg70
g3859
sg63
(lp3866
g56
(g57
g58
NtRp3867
(dp3868
g61
(dp3869
g69
I1
ssg70
g3863
sg63
(lp3870
I00
asbasbasbag56
(g72
g58
NtRp3871
(dp3872
g61
(dp3873
sg70
g3842
sg63
(lp3874
g56
(g77
g58
NtRp3875
(dp3876
g61
(dp3877
sg70
g3871
sg63
(lp3878
g56
(g57
g58
NtRp3879
(dp3880
g61
(dp3881
g69
I1
ssg70
g3875
sg63
(lp3882
S'/admin/default/edit/ddlagoon/views/layout.html'
p3883
asbasbasbasbasbasbasbag56
(g72
g58
NtRp3884
(dp3885
g61
(dp3886
sg70
g3718
sg63
(lp3887
g56
(g77
g58
NtRp3888
(dp3889
g61
(dp3890
sg70
g3884
sg63
(lp3891
g56
(g57
g58
NtRp3892
(dp3893
g61
(dp3894
g69
I2
ssg70
g3888
sg63
(lp3895
g56
(g65
g58
NtRp3896
(dp3897
g61
(dp3898
g69
I1
ssg70
Nsg63
(lp3899
g56
(g72
g58
NtRp3900
(dp3901
g61
(dp3902
sg70
g3896
sg63
(lp3903
g56
(g77
g58
NtRp3904
(dp3905
g61
(dp3906
sg70
g3900
sg63
(lp3907
g56
(g57
g58
NtRp3908
(dp3909
g61
(dp3910
g69
I1
ssg70
g3904
sg63
(lp3911
g3609
(S's\n\x00\x00\x00Stylesheet'
tRp3912
asbasbasbag56
(g72
g58
NtRp3913
(dp3914
g61
(dp3915
sg70
g3896
sg63
(lp3916
g56
(g77
g58
NtRp3917
(dp3918
g61
(dp3919
sg70
g3913
sg63
(lp3920
g56
(g57
g58
NtRp3921
(dp3922
g61
(dp3923
g69
I1
ssg70
g3917
sg63
(lp3924
I00
asbasbasbag56
(g72
g58
NtRp3925
(dp3926
g61
(dp3927
sg70
g3896
sg63
(lp3928
g56
(g77
g58
NtRp3929
(dp3930
g61
(dp3931
sg70
g3925
sg63
(lp3932
g56
(g57
g58
NtRp3933
(dp3934
g61
(dp3935
g69
I1
ssg70
g3929
sg63
(lp3936
S'/admin/default/edit/ddlagoon/static/base.css'
p3937
asbasbasbasbasbasbasbag56
(g72
g58
NtRp3938
(dp3939
g61
(dp3940
sg70
g3718
sg63
(lp3941
g56
(g77
g58
NtRp3942
(dp3943
g61
(dp3944
sg70
g3938
sg63
(lp3945
g56
(g57
g58
NtRp3946
(dp3947
g61
(dp3948
g69
I2
ssg70
g3942
sg63
(lp3949
g56
(g65
g58
NtRp3950
(dp3951
g61
(dp3952
g69
I1
ssg70
Nsg63
(lp3953
g56
(g72
g58
NtRp3954
(dp3955
g61
(dp3956
sg70
g3950
sg63
(lp3957
g56
(g77
g58
NtRp3958
(dp3959
g61
(dp3960
sg70
g3954
sg63
(lp3961
g56
(g57
g58
NtRp3962
(dp3963
g61
(dp3964
g69
I1
ssg70
g3958
sg63
(lp3965
g3609
(S's\x08\x00\x00\x00DB Model'
tRp3966
asbasbasbag56
(g72
g58
NtRp3967
(dp3968
g61
(dp3969
sg70
g3950
sg63
(lp3970
g56
(g77
g58
NtRp3971
(dp3972
g61
(dp3973
sg70
g3967
sg63
(lp3974
g56
(g57
g58
NtRp3975
(dp3976
g61
(dp3977
g69
I1
ssg70
g3971
sg63
(lp3978
I00
asbasbasbag56
(g72
g58
NtRp3979
(dp3980
g61
(dp3981
sg70
g3950
sg63
(lp3982
g56
(g77
g58
NtRp3983
(dp3984
g61
(dp3985
sg70
g3979
sg63
(lp3986
g56
(g57
g58
NtRp3987
(dp3988
g61
(dp3989
g69
I1
ssg70
g3983
sg63
(lp3990
S'/admin/default/edit/ddlagoon/models/db.py'
p3991
asbasbasbasbasbasbasbag56
(g72
g58
NtRp3992
(dp3993
g61
(dp3994
sg70
g3718
sg63
(lp3995
g56
(g77
g58
NtRp3996
(dp3997
g61
(dp3998
sg70
g3992
sg63
(lp3999
g56
(g57
g58
NtRp4000
(dp4001
g61
(dp4002
g69
I2
ssg70
g3996
sg63
(lp4003
g56
(g65
g58
NtRp4004
(dp4005
g61
(dp4006
g69
I1
ssg70
Nsg63
(lp4007
g56
(g72
g58
NtRp4008
(dp4009
g61
(dp4010
sg70
g4004
sg63
(lp4011
g56
(g77
g58
NtRp4012
(dp4013
g61
(dp4014
sg70
g4008
sg63
(lp4015
g56
(g57
g58
NtRp4016
(dp4017
g61
(dp4018
g69
I1
ssg70
g4012
sg63
(lp4019
g3609
(S's\n\x00\x00\x00Menu Model'
tRp4020
asbasbasbag56
(g72
g58
NtRp4021
(dp4022
g61
(dp4023
sg70
g4004
sg63
(lp4024
g56
(g77
g58
NtRp4025
(dp4026
g61
(dp4027
sg70
g4021
sg63
(lp4028
g56
(g57
g58
NtRp4029
(dp4030
g61
(dp4031
g69
I1
ssg70
g4025
sg63
(lp4032
I00
asbasbasbag56
(g72
g58
NtRp4033
(dp4034
g61
(dp4035
sg70
g4004
sg63
(lp4036
g56
(g77
g58
NtRp4037
(dp4038
g61
(dp4039
sg70
g4033
sg63
(lp4040
g56
(g57
g58
NtRp4041
(dp4042
g61
(dp4043
g69
I1
ssg70
g4037
sg63
(lp4044
S'/admin/default/edit/ddlagoon/models/menu.py'
p4045
asbasbasbasbasbasbasbag56
(g72
g58
NtRp4046
(dp4047
g61
(dp4048
sg70
g3718
sg63
(lp4049
g56
(g77
g58
NtRp4050
(dp4051
g61
(dp4052
sg70
g4046
sg63
(lp4053
g56
(g57
g58
NtRp4054
(dp4055
g61
(dp4056
g69
I2
ssg70
g4050
sg63
(lp4057
g56
(g65
g58
NtRp4058
(dp4059
g61
(dp4060
g69
I1
ssg70
Nsg63
(lp4061
g56
(g72
g58
NtRp4062
(dp4063
g61
(dp4064
sg70
g4058
sg63
(lp4065
g56
(g77
g58
NtRp4066
(dp4067
g61
(dp4068
sg70
g4062
sg63
(lp4069
g56
(g57
g58
NtRp4070
(dp4071
g61
(dp4072
g69
I1
ssg70
g4066
sg63
(lp4073
g3609
(S's\x08\x00\x00\x00Database'
tRp4074
asbasbasbag56
(g72
g58
NtRp4075
(dp4076
g61
(dp4077
sg70
g4058
sg63
(lp4078
g56
(g77
g58
NtRp4079
(dp4080
g61
(dp4081
sg70
g4075
sg63
(lp4082
g56
(g57
g58
NtRp4083
(dp4084
g61
(dp4085
g69
I1
ssg70
g4079
sg63
(lp4086
I00
asbasbasbag56
(g72
g58
NtRp4087
(dp4088
g61
(dp4089
sg70
g4058
sg63
(lp4090
g56
(g77
g58
NtRp4091
(dp4092
g61
(dp4093
sg70
g4087
sg63
(lp4094
g56
(g57
g58
NtRp4095
(dp4096
g61
(dp4097
g69
I1
ssg70
g4091
sg63
(lp4098
S'/ddlagoon/appadmin/index'
p4099
asbasbasbasbasbasbasbag56
(g72
g58
NtRp4100
(dp4101
g61
(dp4102
sg70
g3718
sg63
(lp4103
g56
(g77
g58
NtRp4104
(dp4105
g61
(dp4106
sg70
g4100
sg63
(lp4107
g56
(g57
g58
NtRp4108
(dp4109
g61
(dp4110
g69
I2
ssg70
g4104
sg63
(lp4111
g56
(g65
g58
NtRp4112
(dp4113
g61
(dp4114
g69
I1
ssg70
Nsg63
(lp4115
g56
(g72
g58
NtRp4116
(dp4117
g61
(dp4118
sg70
g4112
sg63
(lp4119
g56
(g77
g58
NtRp4120
(dp4121
g61
(dp4122
sg70
g4116
sg63
(lp4123
g56
(g57
g58
NtRp4124
(dp4125
g61
(dp4126
g69
I1
ssg70
g4120
sg63
(lp4127
g3609
(S's\x06\x00\x00\x00Errors'
tRp4128
asbasbasbag56
(g72
g58
NtRp4129
(dp4130
g61
(dp4131
sg70
g4112
sg63
(lp4132
g56
(g77
g58
NtRp4133
(dp4134
g61
(dp4135
sg70
g4129
sg63
(lp4136
g56
(g57
g58
NtRp4137
(dp4138
g61
(dp4139
g69
I1
ssg70
g4133
sg63
(lp4140
I00
asbasbasbag56
(g72
g58
NtRp4141
(dp4142
g61
(dp4143
sg70
g4112
sg63
(lp4144
g56
(g77
g58
NtRp4145
(dp4146
g61
(dp4147
sg70
g4141
sg63
(lp4148
g56
(g57
g58
NtRp4149
(dp4150
g61
(dp4151
g69
I1
ssg70
g4145
sg63
(lp4152
S'/admin/default/errors/ddlagoon'
p4153
asbasbasbasbasbasbasbag56
(g72
g58
NtRp4154
(dp4155
g61
(dp4156
sg70
g3718
sg63
(lp4157
g56
(g77
g58
NtRp4158
(dp4159
g61
(dp4160
sg70
g4154
sg63
(lp4161
g56
(g57
g58
NtRp4162
(dp4163
g61
(dp4164
g69
I2
ssg70
g4158
sg63
(lp4165
g56
(g65
g58
NtRp4166
(dp4167
g61
(dp4168
g69
I1
ssg70
Nsg63
(lp4169
g56
(g72
g58
NtRp4170
(dp4171
g61
(dp4172
sg70
g4166
sg63
(lp4173
g56
(g77
g58
NtRp4174
(dp4175
g61
(dp4176
sg70
g4170
sg63
(lp4177
g56
(g57
g58
NtRp4178
(dp4179
g61
(dp4180
g69
I1
ssg70
g4174
sg63
(lp4181
g3609
(S's\x05\x00\x00\x00About'
tRp4182
asbasbasbag56
(g72
g58
NtRp4183
(dp4184
g61
(dp4185
sg70
g4166
sg63
(lp4186
g56
(g77
g58
NtRp4187
(dp4188
g61
(dp4189
sg70
g4183
sg63
(lp4190
g56
(g57
g58
NtRp4191
(dp4192
g61
(dp4193
g69
I1
ssg70
g4187
sg63
(lp4194
I00
asbasbasbag56
(g72
g58
NtRp4195
(dp4196
g61
(dp4197
sg70
g4166
sg63
(lp4198
g56
(g77
g58
NtRp4199
(dp4200
g61
(dp4201
sg70
g4195
sg63
(lp4202
g56
(g57
g58
NtRp4203
(dp4204
g61
(dp4205
g69
I1
ssg70
g4199
sg63
(lp4206
S'/admin/default/about/ddlagoon'
p4207
asbasbasbasbasbasbasbasbasbasbasbasbasbasbasbag56
(g72
g58
NtRp4208
(dp4209
g61
(dp4210
sg70
g3577
sg63
(lp4211
g56
(g77
g58
NtRp4212
(dp4213
g61
(dp4214
sg70
g4208
sg63
(lp4215
g56
(g57
g58
NtRp4216
(dp4217
g61
(dp4218
g69
I4
ssg70
g4212
sg63
(lp4219
g56
(g65
g58
NtRp4220
(dp4221
g61
(dp4222
g69
I3
ssg70
Nsg63
(lp4223
g56
(g72
g58
NtRp4224
(dp4225
g61
(dp4226
sg70
g4220
sg63
(lp4227
g56
(g77
g58
NtRp4228
(dp4229
g61
(dp4230
sg70
g4224
sg63
(lp4231
g56
(g57
g58
NtRp4232
(dp4233
g61
(dp4234
g69
I3
ssg70
g4228
sg63
(lp4235
g3609
(S's\t\x00\x00\x00Resources'
tRp4236
asbasbasbag56
(g72
g58
NtRp4237
(dp4238
g61
(dp4239
sg70
g4220
sg63
(lp4240
g56
(g77
g58
NtRp4241
(dp4242
g61
(dp4243
sg70
g4237
sg63
(lp4244
g56
(g57
g58
NtRp4245
(dp4246
g61
(dp4247
g69
I3
ssg70
g4241
sg63
(lp4248
g99
asbasbasbag56
(g72
g58
NtRp4249
(dp4250
g61
(dp4251
sg70
g4220
sg63
(lp4252
g56
(g77
g58
NtRp4253
(dp4254
g61
(dp4255
sg70
g4249
sg63
(lp4256
g56
(g57
g58
NtRp4257
(dp4258
g61
(dp4259
g69
I3
ssg70
g4253
sg63
(lp4260
S'None'
p4261
asbasbasbag56
(g72
g58
NtRp4262
(dp4263
g61
(dp4264
sg70
g4220
sg63
(lp4265
g56
(g77
g58
NtRp4266
(dp4267
g61
(dp4268
sg70
g4262
sg63
(lp4269
g56
(g57
g58
NtRp4270
(dp4271
g61
(dp4272
g69
I3
ssg70
g4266
sg63
(lp4273
g56
(g65
g58
NtRp4274
(dp4275
g61
(dp4276
g69
I2
ssg70
Nsg63
(lp4277
g56
(g72
g58
NtRp4278
(dp4279
g61
(dp4280
sg70
g4274
sg63
(lp4281
g56
(g77
g58
NtRp4282
(dp4283
g61
(dp4284
sg70
g4278
sg63
(lp4285
g56
(g57
g58
NtRp4286
(dp4287
g61
(dp4288
g69
I2
ssg70
g4282
sg63
(lp4289
g56
(g65
g58
NtRp4290
(dp4291
g61
(dp4292
g69
I1
ssg70
Nsg63
(lp4293
g56
(g72
g58
NtRp4294
(dp4295
g61
(dp4296
sg70
g4290
sg63
(lp4297
g56
(g77
g58
NtRp4298
(dp4299
g61
(dp4300
sg70
g4294
sg63
(lp4301
g56
(g57
g58
NtRp4302
(dp4303
g61
(dp4304
g69
I1
ssg70
g4298
sg63
(lp4305
g3609
(S's\r\x00\x00\x00Documentation'
tRp4306
asbasbasbag56
(g72
g58
NtRp4307
(dp4308
g61
(dp4309
sg70
g4290
sg63
(lp4310
g56
(g77
g58
NtRp4311
(dp4312
g61
(dp4313
sg70
g4307
sg63
(lp4314
g56
(g57
g58
NtRp4315
(dp4316
g61
(dp4317
g69
I1
ssg70
g4311
sg63
(lp4318
I00
asbasbasbag56
(g72
g58
NtRp4319
(dp4320
g61
(dp4321
sg70
g4290
sg63
(lp4322
g56
(g77
g58
NtRp4323
(dp4324
g61
(dp4325
sg70
g4319
sg63
(lp4326
g56
(g57
g58
NtRp4327
(dp4328
g61
(dp4329
g69
I1
ssg70
g4323
sg63
(lp4330
S'http://www.web2py.com/book'
p4331
asbasbasbag56
(g72
g58
NtRp4332
(dp4333
g61
(dp4334
sg70
g4290
sg63
(lp4335
g56
(g77
g58
NtRp4336
(dp4337
g61
(dp4338
sg70
g4332
sg63
(lp4339
g56
(g57
g58
NtRp4340
(dp4341
g61
(dp4342
g69
I1
ssg70
g4336
sg63
(lp4343
(lp4344
(g3609
(S's\x07\x00\x00\x00Preface'
tRp4345
I00
S'http://www.web2py.com/book/default/chapter/00'
p4346
tp4347
a(g3609
(S's\x0c\x00\x00\x00Introduction'
tRp4348
I00
S'http://www.web2py.com/book/default/chapter/01'
p4349
tp4350
a(g3609
(S's\x06\x00\x00\x00Python'
tRp4351
I00
S'http://www.web2py.com/book/default/chapter/02'
p4352
tp4353
a(g3609
(S's\x08\x00\x00\x00Overview'
tRp4354
I00
S'http://www.web2py.com/book/default/chapter/03'
p4355
tp4356
a(g3609
(S's\x08\x00\x00\x00The Core'
tRp4357
I00
S'http://www.web2py.com/book/default/chapter/04'
p4358
tp4359
a(g3609
(S's\t\x00\x00\x00The Views'
tRp4360
I00
S'http://www.web2py.com/book/default/chapter/05'
p4361
tp4362
a(g3609
(S's\x08\x00\x00\x00Database'
tRp4363
I00
S'http://www.web2py.com/book/default/chapter/06'
p4364
tp4365
a(g3609
(S's\x14\x00\x00\x00Forms and Validators'
tRp4366
I00
S'http://www.web2py.com/book/default/chapter/07'
p4367
tp4368
a(g3609
(S's\x0e\x00\x00\x00Access Control'
tRp4369
I00
S'http://www.web2py.com/book/default/chapter/08'
p4370
tp4371
a(g3609
(S's\x08\x00\x00\x00Services'
tRp4372
I00
S'http://www.web2py.com/book/default/chapter/09'
p4373
tp4374
a(g3609
(S's\x0c\x00\x00\x00Ajax Recipes'
tRp4375
I00
S'http://www.web2py.com/book/default/chapter/10'
p4376
tp4377
a(g3609
(S's\x12\x00\x00\x00Deployment Recipes'
tRp4378
I00
S'http://www.web2py.com/book/default/chapter/11'
p4379
tp4380
a(g3609
(S's\r\x00\x00\x00Other Recipes'
tRp4381
I00
S'http://www.web2py.com/book/default/chapter/12'
p4382
tp4383
a(g3609
(S's\r\x00\x00\x00Buy this book'
tRp4384
I00
S'http://stores.lulu.com/web2py'
p4385
tp4386
aasbasbasbasbasbasbasbag56
(g72
g58
NtRp4387
(dp4388
g61
(dp4389
sg70
g4274
sg63
(lp4390
g56
(g77
g58
NtRp4391
(dp4392
g61
(dp4393
sg70
g4387
sg63
(lp4394
g56
(g57
g58
NtRp4395
(dp4396
g61
(dp4397
g69
I2
ssg70
g4391
sg63
(lp4398
g56
(g65
g58
NtRp4399
(dp4400
g61
(dp4401
g69
I1
ssg70
Nsg63
(lp4402
g56
(g72
g58
NtRp4403
(dp4404
g61
(dp4405
sg70
g4399
sg63
(lp4406
g56
(g77
g58
NtRp4407
(dp4408
g61
(dp4409
sg70
g4403
sg63
(lp4410
g56
(g57
g58
NtRp4411
(dp4412
g61
(dp4413
g69
I1
ssg70
g4407
sg63
(lp4414
g3609
(S's\t\x00\x00\x00Community'
tRp4415
asbasbasbag56
(g72
g58
NtRp4416
(dp4417
g61
(dp4418
sg70
g4399
sg63
(lp4419
g56
(g77
g58
NtRp4420
(dp4421
g61
(dp4422
sg70
g4416
sg63
(lp4423
g56
(g57
g58
NtRp4424
(dp4425
g61
(dp4426
g69
I1
ssg70
g4420
sg63
(lp4427
I00
asbasbasbag56
(g72
g58
NtRp4428
(dp4429
g61
(dp4430
sg70
g4399
sg63
(lp4431
g56
(g77
g58
NtRp4432
(dp4433
g61
(dp4434
sg70
g4428
sg63
(lp4435
g56
(g57
g58
NtRp4436
(dp4437
g61
(dp4438
g69
I1
ssg70
g4432
sg63
(lp4439
Nasbasbasbag56
(g72
g58
NtRp4440
(dp4441
g61
(dp4442
sg70
g4399
sg63
(lp4443
g56
(g77
g58
NtRp4444
(dp4445
g61
(dp4446
sg70
g4440
sg63
(lp4447
g56
(g57
g58
NtRp4448
(dp4449
g61
(dp4450
g69
I1
ssg70
g4444
sg63
(lp4451
(lp4452
(g3609
(S's\x06\x00\x00\x00Groups'
tRp4453
I00
S'http://www.web2py.com/examples/default/usergroups'
p4454
tp4455
a(g3609
(S's\x07\x00\x00\x00Twitter'
tRp4456
I00
S'http://twitter.com/web2py'
p4457
tp4458
a(g3609
(S's\t\x00\x00\x00Live chat'
tRp4459
I00
S'http://mibbit.com/?channel=%23web2py&server=irc.mibbit.net'
p4460
tp4461
a(g3609
(S's\n\x00\x00\x00User Voice'
tRp4462
I00
S'http://web2py.uservoice.com/'
p4463
tp4464
aasbasbasbasbasbasbasbag56
(g72
g58
NtRp4465
(dp4466
g61
(dp4467
sg70
g4274
sg63
(lp4468
g56
(g77
g58
NtRp4469
(dp4470
g61
(dp4471
sg70
g4465
sg63
(lp4472
g56
(g57
g58
NtRp4473
(dp4474
g61
(dp4475
g69
I2
ssg70
g4469
sg63
(lp4476
g56
(g65
g58
NtRp4477
(dp4478
g61
(dp4479
g69
I1
ssg70
Nsg63
(lp4480
g56
(g72
g58
NtRp4481
(dp4482
g61
(dp4483
sg70
g4477
sg63
(lp4484
g56
(g77
g58
NtRp4485
(dp4486
g61
(dp4487
sg70
g4481
sg63
(lp4488
g56
(g57
g58
NtRp4489
(dp4490
g61
(dp4491
g69
I1
ssg70
g4485
sg63
(lp4492
g3609
(S's\x06\x00\x00\x00Web2py'
tRp4493
asbasbasbag56
(g72
g58
NtRp4494
(dp4495
g61
(dp4496
sg70
g4477
sg63
(lp4497
g56
(g77
g58
NtRp4498
(dp4499
g61
(dp4500
sg70
g4494
sg63
(lp4501
g56
(g57
g58
NtRp4502
(dp4503
g61
(dp4504
g69
I1
ssg70
g4498
sg63
(lp4505
I00
asbasbasbag56
(g72
g58
NtRp4506
(dp4507
g61
(dp4508
sg70
g4477
sg63
(lp4509
g56
(g77
g58
NtRp4510
(dp4511
g61
(dp4512
sg70
g4506
sg63
(lp4513
g56
(g57
g58
NtRp4514
(dp4515
g61
(dp4516
g69
I1
ssg70
g4510
sg63
(lp4517
S'http://www.web2py.com'
p4518
asbasbasbag56
(g72
g58
NtRp4519
(dp4520
g61
(dp4521
sg70
g4477
sg63
(lp4522
g56
(g77
g58
NtRp4523
(dp4524
g61
(dp4525
sg70
g4519
sg63
(lp4526
g56
(g57
g58
NtRp4527
(dp4528
g61
(dp4529
g69
I1
ssg70
g4523
sg63
(lp4530
(lp4531
(g3609
(S's\x08\x00\x00\x00Download'
tRp4532
I00
S'http://www.web2py.com/examples/default/download'
p4533
tp4534
a(g3609
(S's\x07\x00\x00\x00Support'
tRp4535
I00
S'http://www.web2py.com/examples/default/support'
p4536
tp4537
a(g3609
(S's\x0e\x00\x00\x00Quick Examples'
tRp4538
I00
S'http://web2py.com/examples/default/examples'
p4539
tp4540
a(g3609
(S's\x03\x00\x00\x00FAQ'
tRp4541
I00
S'http://web2py.com/AlterEgo'
p4542
tp4543
a(g3609
(S's\x11\x00\x00\x00Free Applications'
tRp4544
I00
S'http://web2py.com/appliances'
p4545
tp4546
a(g3609
(S's\x07\x00\x00\x00Plugins'
tRp4547
I00
S'http://web2py.com/plugins'
p4548
tp4549
a(g3609
(S's\x07\x00\x00\x00Recipes'
tRp4550
I00
S'http://web2pyslices.com/'
p4551
tp4552
a(g3609
(S's\x04\x00\x00\x00Demo'
tRp4553
I00
S'http://web2py.com/demo_admin'
p4554
tp4555
a(g3609
(S's\x08\x00\x00\x00Semantic'
tRp4556
I00
S'http://web2py.com/semantic'
p4557
tp4558
a(g3609
(S's\x07\x00\x00\x00Layouts'
tRp4559
I00
S'http://web2py.com/layouts'
p4560
tp4561
a(g3609
(S's\x06\x00\x00\x00Videos'
tRp4562
I00
S'http://www.web2py.com/examples/default/videos/'
p4563
tp4564
aasbasbasbasbasbasbasbasbasbasbasbasbasbasbasbasbasbasbasbag56
(g72
g58
NtRp4565
(dp4566
g61
(dp4567
sg70
g3104
sg63
(lp4568
g56
(g77
g58
NtRp4569
(dp4570
g61
(dp4571
g81
g82
ssg70
g4565
sg63
(lp4572
S'meta'
p4573
asbag56
(g77
g58
NtRp4574
(dp4575
g61
(dp4576
g88
g89
ssg70
g4565
sg63
(lp4577
S':'
asbag56
(g77
g58
NtRp4578
(dp4579
g61
(dp4580
sg70
g4565
sg63
(lp4581
g56
(g57
g58
NtRp4582
(dp4583
g61
(dp4584
g69
I5
ssg70
g4578
sg63
(lp4585
g56
(g65
g58
NtRp4586
(dp4587
g61
(dp4588
g69
I4
ssg70
Nsg63
(lp4589
g56
(g72
g58
NtRp4590
(dp4591
g61
(dp4592
sg70
g4586
sg63
(lp4593
g56
(g77
g58
NtRp4594
(dp4595
g61
(dp4596
g81
g82
ssg70
g4590
sg63
(lp4597
S'author'
p4598
asbag56
(g77
g58
NtRp4599
(dp4600
g61
(dp4601
g88
g89
ssg70
g4590
sg63
(lp4602
S':'
asbag56
(g77
g58
NtRp4603
(dp4604
g61
(dp4605
sg70
g4590
sg63
(lp4606
g56
(g57
g58
NtRp4607
(dp4608
g61
(dp4609
g69
I4
ssg70
g4603
sg63
(lp4610
S'Your Name <you@example.com>'
p4611
asbasbasbag56
(g72
g58
NtRp4612
(dp4613
g61
(dp4614
sg70
g4586
sg63
(lp4615
g56
(g77
g58
NtRp4616
(dp4617
g61
(dp4618
g81
g82
ssg70
g4612
sg63
(lp4619
S'copyright'
p4620
asbag56
(g77
g58
NtRp4621
(dp4622
g61
(dp4623
g88
g89
ssg70
g4612
sg63
(lp4624
S':'
asbag56
(g77
g58
NtRp4625
(dp4626
g61
(dp4627
sg70
g4612
sg63
(lp4628
g56
(g57
g58
NtRp4629
(dp4630
g61
(dp4631
g69
I4
ssg70
g4625
sg63
(lp4632
S'Copyright 2011'
p4633
asbasbasbag56
(g72
g58
NtRp4634
(dp4635
g61
(dp4636
sg70
g4586
sg63
(lp4637
g56
(g77
g58
NtRp4638
(dp4639
g61
(dp4640
g81
g82
ssg70
g4634
sg63
(lp4641
S'description'
p4642
asbag56
(g77
g58
NtRp4643
(dp4644
g61
(dp4645
g88
g89
ssg70
g4634
sg63
(lp4646
S':'
asbag56
(g77
g58
NtRp4647
(dp4648
g61
(dp4649
sg70
g4634
sg63
(lp4650
g56
(g57
g58
NtRp4651
(dp4652
g61
(dp4653
g69
I4
ssg70
g4647
sg63
(lp4654
S'a cool new app'
p4655
asbasbasbag56
(g72
g58
NtRp4656
(dp4657
g61
(dp4658
sg70
g4586
sg63
(lp4659
g56
(g77
g58
NtRp4660
(dp4661
g61
(dp4662
g81
g82
ssg70
g4656
sg63
(lp4663
S'generator'
p4664
asbag56
(g77
g58
NtRp4665
(dp4666
g61
(dp4667
g88
g89
ssg70
g4656
sg63
(lp4668
S':'
asbag56
(g77
g58
NtRp4669
(dp4670
g61
(dp4671
sg70
g4656
sg63
(lp4672
g56
(g57
g58
NtRp4673
(dp4674
g61
(dp4675
g69
I4
ssg70
g4669
sg63
(lp4676
S'Web2py Web Framework'
p4677
asbasbasbag56
(g72
g58
NtRp4678
(dp4679
g61
(dp4680
sg70
g4586
sg63
(lp4681
g56
(g77
g58
NtRp4682
(dp4683
g61
(dp4684
g81
g82
ssg70
g4678
sg63
(lp4685
S'keywords'
p4686
asbag56
(g77
g58
NtRp4687
(dp4688
g61
(dp4689
g88
g89
ssg70
g4678
sg63
(lp4690
S':'
asbag56
(g77
g58
NtRp4691
(dp4692
g61
(dp4693
sg70
g4678
sg63
(lp4694
g56
(g57
g58
NtRp4695
(dp4696
g61
(dp4697
g69
I4
ssg70
g4691
sg63
(lp4698
S'web2py, python, framework'
p4699
asbasbasbasbasbasbasbag56
(g72
g58
NtRp4700
(dp4701
g61
(dp4702
sg70
g3104
sg63
(lp4703
g56
(g77
g58
NtRp4704
(dp4705
g61
(dp4706
g81
g82
ssg70
g4700
sg63
(lp4707
S'postprocessing'
p4708
asbag56
(g77
g58
NtRp4709
(dp4710
g61
(dp4711
g88
g89
ssg70
g4700
sg63
(lp4712
S':'
asbag56
(g77
g58
NtRp4713
(dp4714
g61
(dp4715
sg70
g4700
sg63
(lp4716
g56
(g57
g58
NtRp4717
(dp4718
g61
(dp4719
g69
I5
ssg70
g4713
sg63
(lp4720
g56
(g65
g58
NtRp4721
(dp4722
g61
(dp4723
g69
I4
ssg70
Nsg63
(lp4724
sbasbasbasbag56
(g72
g58
NtRp4725
(dp4726
g61
(dp4727
sg70
g3104
sg63
(lp4728
g56
(g77
g58
NtRp4729
(dp4730
g61
(dp4731
g81
g82
ssg70
g4725
sg63
(lp4732
S'session_filename'
p4733
asbag56
(g77
g58
NtRp4734
(dp4735
g61
(dp4736
g88
g89
ssg70
g4725
sg63
(lp4737
S':'
asbag56
(g77
g58
NtRp4738
(dp4739
g61
(dp4740
sg70
g4725
sg63
(lp4741
g56
(g57
g58
NtRp4742
(dp4743
g61
(dp4744
g69
I5
ssg70
g4738
sg63
(lp4745
S'/windows/Users/Thomas/Dropbox/appz/2011/GAE/ddl-lagoon/applications/ddlagoon/sessions/127.0.0.1-fd846339-b500-40a0-b8b3-7307c2e6af89'
p4746
asbasbasbag56
(g72
g58
NtRp4747
(dp4748
g61
(dp4749
sg70
g3104
sg63
(lp4750
g56
(g77
g58
NtRp4751
(dp4752
g61
(dp4753
g81
g82
ssg70
g4747
sg63
(lp4754
S'session_id'
p4755
asbag56
(g77
g58
NtRp4756
(dp4757
g61
(dp4758
g88
g89
ssg70
g4747
sg63
(lp4759
S':'
asbag56
(g77
g58
NtRp4760
(dp4761
g61
(dp4762
sg70
g4747
sg63
(lp4763
g56
(g57
g58
NtRp4764
(dp4765
g61
(dp4766
g69
I5
ssg70
g4760
sg63
(lp4767
S'127.0.0.1-fd846339-b500-40a0-b8b3-7307c2e6af89'
p4768
asbasbasbag56
(g72
g58
NtRp4769
(dp4770
g61
(dp4771
sg70
g3104
sg63
(lp4772
g56
(g77
g58
NtRp4773
(dp4774
g61
(dp4775
g81
g82
ssg70
g4769
sg63
(lp4776
S'session_id_name'
p4777
asbag56
(g77
g58
NtRp4778
(dp4779
g61
(dp4780
g88
g89
ssg70
g4769
sg63
(lp4781
S':'
asbag56
(g77
g58
NtRp4782
(dp4783
g61
(dp4784
sg70
g4769
sg63
(lp4785
g56
(g57
g58
NtRp4786
(dp4787
g61
(dp4788
g69
I5
ssg70
g4782
sg63
(lp4789
g3161
asbasbasbag56
(g72
g58
NtRp4790
(dp4791
g61
(dp4792
sg70
g3104
sg63
(lp4793
g56
(g77
g58
NtRp4794
(dp4795
g61
(dp4796
g81
g82
ssg70
g4790
sg63
(lp4797
S'session_new'
p4798
asbag56
(g77
g58
NtRp4799
(dp4800
g61
(dp4801
g88
g89
ssg70
g4790
sg63
(lp4802
S':'
asbag56
(g77
g58
NtRp4803
(dp4804
g61
(dp4805
sg70
g4790
sg63
(lp4806
g56
(g57
g58
NtRp4807
(dp4808
g61
(dp4809
g69
I5
ssg70
g4803
sg63
(lp4810
g1676
asbasbasbag56
(g72
g58
NtRp4811
(dp4812
g61
(dp4813
sg70
g3104
sg63
(lp4814
g56
(g77
g58
NtRp4815
(dp4816
g61
(dp4817
g81
g82
ssg70
g4811
sg63
(lp4818
S'status'
p4819
asbag56
(g77
g58
NtRp4820
(dp4821
g61
(dp4822
g88
g89
ssg70
g4811
sg63
(lp4823
S':'
asbag56
(g77
g58
NtRp4824
(dp4825
g61
(dp4826
sg70
g4811
sg63
(lp4827
g56
(g57
g58
NtRp4828
(dp4829
g61
(dp4830
g69
I5
ssg70
g4824
sg63
(lp4831
S'200'
p4832
asbasbasbag56
(g72
g58
NtRp4833
(dp4834
g61
(dp4835
sg70
g3104
sg63
(lp4836
g56
(g77
g58
NtRp4837
(dp4838
g61
(dp4839
g81
g82
ssg70
g4833
sg63
(lp4840
S'subtitle'
p4841
asbag56
(g77
g58
NtRp4842
(dp4843
g61
(dp4844
g88
g89
ssg70
g4833
sg63
(lp4845
S':'
asbag56
(g77
g58
NtRp4846
(dp4847
g61
(dp4848
sg70
g4833
sg63
(lp4849
g56
(g57
g58
NtRp4850
(dp4851
g61
(dp4852
g69
I5
ssg70
g4846
sg63
(lp4853
g3609
(S's\r\x00\x00\x00customize me!'
tRp4854
asbasbasbag56
(g72
g58
NtRp4855
(dp4856
g61
(dp4857
sg70
g3104
sg63
(lp4858
g56
(g77
g58
NtRp4859
(dp4860
g61
(dp4861
g81
g82
ssg70
g4855
sg63
(lp4862
S'title'
p4863
asbag56
(g77
g58
NtRp4864
(dp4865
g61
(dp4866
g88
g89
ssg70
g4855
sg63
(lp4867
S':'
asbag56
(g77
g58
NtRp4868
(dp4869
g61
(dp4870
sg70
g4855
sg63
(lp4871
g56
(g57
g58
NtRp4872
(dp4873
g61
(dp4874
g69
I5
ssg70
g4868
sg63
(lp4875
g121
asbasbasbag56
(g72
g58
NtRp4876
(dp4877
g61
(dp4878
sg70
g3104
sg63
(lp4879
g56
(g77
g58
NtRp4880
(dp4881
g61
(dp4882
g81
g82
ssg70
g4876
sg63
(lp4883
g2320
asbag56
(g77
g58
NtRp4884
(dp4885
g61
(dp4886
g88
g89
ssg70
g4876
sg63
(lp4887
S':'
asbag56
(g77
g58
NtRp4888
(dp4889
g61
(dp4890
sg70
g4876
sg63
(lp4891
g56
(g57
g58
NtRp4892
(dp4893
g61
(dp4894
g69
I5
ssg70
g4888
sg63
(lp4895
g2333
asbasbasbag56
(g72
g58
NtRp4896
(dp4897
g61
(dp4898
sg70
g3104
sg63
(lp4899
g56
(g77
g58
NtRp4900
(dp4901
g61
(dp4902
g81
g82
ssg70
g4896
sg63
(lp4903
S'view'
p4904
asbag56
(g77
g58
NtRp4905
(dp4906
g61
(dp4907
g88
g89
ssg70
g4896
sg63
(lp4908
S':'
asbag56
(g77
g58
NtRp4909
(dp4910
g61
(dp4911
sg70
g4896
sg63
(lp4912
g56
(g57
g58
NtRp4913
(dp4914
g61
(dp4915
g69
I5
ssg70
g4909
sg63
(lp4916
S'default/index.html'
p4917
asbasbasbasbasbsS'locals'
p4918
(dp4919
S'self'
p4920
S'<DDLVirtualFields object>'
p4921
sssS'traceback'
p4922
S'Traceback (most recent call last):\n  File "/windows/Users/Thomas/Dropbox/appz/2011/GAE/ddl-lagoon/gluon/restricted.py", line 194, in restricted\n    exec ccode in environment\n  File "/windows/Users/Thomas/Dropbox/appz/2011/GAE/ddl-lagoon/applications/ddlagoon/compiled/controllers_default_index.py", line 279, in <module>\n  File "/windows/Users/Thomas/Dropbox/appz/2011/GAE/ddl-lagoon/gluon/globals.py", line 149, in <lambda>\n    self._caller = lambda f: f()\n  File "/windows/Users/Thomas/Dropbox/appz/2011/GAE/ddl-lagoon/applications/ddlagoon/compiled/controllers_default_index.py", line 47, in index\n  File "/windows/Users/Thomas/Dropbox/appz/2011/GAE/ddl-lagoon/gluon/dal.py", line 5841, in setvirtualfields\n    box[attribute]=method()\n  File "/windows/Users/Thomas/Dropbox/appz/2011/GAE/ddl-lagoon/applications/ddlagoon/compiled/controllers_default_index.py", line 46, in size_readable\nAttributeError: \'DDLVirtualFields\' object has no attribute \'size\'\n'
p4923
s.