(dp1
S'output'
p2
S''
sS'layer'
p3
S'/windows/Users/Thomas/Dropbox/appz/2011/GAE/ddl-lagoon/applications/ddlagoon/controllers/default.py'
p4
sS'code'
p5
S'# -*- coding: utf-8 -*-\n# this file is released under public domain and you can use without limitations\n\n#########################################################################\n## This is a samples controller\n## - index is the default action of any application\n## - user is required for authentication and authorization\n## - download is for downloading files uploaded in the db (does streaming)\n## - call exposes all registered services (none by default)\n#########################################################################\nfrom datetime import datetime\n#from applications.ddlagoon import pathutils\n\n__version__ = 1.5\n\nfrom Crypto.PublicKey import RSA\n#from Crypto.Random import random\nimport random\nimport base64, hashlib\nimport gluon.contrib.simplejson as json\ndef sha512(n):\n    return hashlib.sha512(str(n)).digest()\ndef sha256(n):\n    return hashlib.sha256(str(n)).digest()\ndef compute(n):\n    return 61*long(n)**3-54*long(n)**2+8942*long(n)*3\ndef chunks(s, n):\n    """Produce `n`-character chunks from `s`."""\n    for start in range(0, len(s), n):\n        yield s[start:start+n]\n\nif False:\n    from gluon.contrib import *\n    from re import T\n    from applications.ddlagoon.models.db import db, service, auth\n    from gluon.contrib.pysimplesoap.server import request\n\ndef pluralize(number, text):\n    output = str(number) + " " + text\n    if number>1:\n        output += "s"\n    return output\n\ndef getTimeDelta(weeks, days, hours, minutes, seconds):\n    output=""\n    if weeks>0:\n        return pluralize(weeks)\n    elif days>0:\n        return pluralize(days)\n    elif hours>0:\n        return pluralize(hours)\n    elif minutes>0:\n        return pluralize(minutes)\n    elif seconds>0:\n        return pluralize(seconds)\n\ndef index():\n    """\n    example action using the internationalization operator T and flash\n    rendered by views/default/index.html or views/generic.html\n    """\n    rows= db(db.ddl.id>0).select()\n    ddlz=[]\n    for row in rows:\n        difference = datetime.now()-row[\'date_added\']\n        weeks, days = divmod(difference.days, 7)\n        minutes, seconds = divmod(difference.seconds, 60)\n        hours, minutes = divmod(minutes, 60)\n        row[\'timedelta\']= getTimeDelta(weeks, days, hours, minutes, seconds)\n    return dict(message=T(\'Hello World\'),ddlz=ddlz)\n\ndef user():\n    """\n    exposes:\n    http://..../[app]/default/user/login\n    http://..../[app]/default/user/logout\n    http://..../[app]/default/user/register\n    http://..../[app]/default/user/profile\n    http://..../[app]/default/user/retrieve_password\n    http://..../[app]/default/user/change_password\n    use @auth.requires_login()\n        @auth.requires_membership(\'group name\')\n        @auth.requires_permission(\'read\',\'table name\',record_id)\n    to decorate functions that need access control\n    """\n    return dict(form=auth())\n\n@auth.requires_login()\ndef profile():\n    return dict(nickname=auth.user.nickname,\n                uploader_key=auth.user.uploader_key,\n                is_uploader=auth.user.is_uploader)\n\ndef download():\n    """\n    allows downloading of uploaded files\n    http://..../[app]/default/download/[filename]\n    """\n    return response.download(request,db)\n\n@auth.requires_login()\ndef uploadDDL():\n    return service()\n\ndef call():\n    """\n    exposes services. for example:\n    http://..../[app]/default/call/jsonrpc\n    decorate with @services.jsonrpc the functions to expose\n    supports xml, json, xmlrpc, jsonrpc, amfrpc, rss, csv\n    """\n    return service()\n\n@service.xmlrpc\n@service.json\n@service.xml\ndef receiveDDL(encryptedText):\n    returnCode=-1\n    message="Unknown Error"\n    try:\n        decryptedMsg= decryptFromClient(encryptedText)\n    except:\n        returnCode=-1\n        message= "Error decrypting the DDL"\n    else:\n        try:\n            dataFromClient = json.loads(decryptedMsg)\n        except :\n            returnCode= -1\n            message="Error reading the DDL"\n        else:\n            # prepare a DDL from the received information\n            uploader= db(db.auth_user.nickname==dataFromClient[\'nickname\']).select().first()\n            ddl = dataFromClient[\'ddl\']\n            # remove previous DDL, if present\n            db((db.ddl.filename==ddl[\'filename\']) & (db.ddl.uploader==uploader.id)).delete()\n            db.ddl.insert(\n                uploader=uploader.id\n                , filename=ddl[\'filename\']\n                , description=ddl[\'description\'],\n                size=ddl[\'size\'],\n                hash=ddl[\'hash\'],\n                parts=ddl[\'parts\'],\n                service=ddl[\'service\'],\n                links="|".join(ddl[\'links\']),\n                version=ddl[\'version\']\n                #, date_created=datetime.fromtimestamp(ddl[\'time\'])\n            )\n            returnCode= 0\n            message="Upload done!"\n    dataToSend = {\n        \'returnCode\' : returnCode,\n        \'message\' : message\n    }\n    return json.dumps(dataToSend, sort_keys=True, indent=4)\n\n@service.json\n@service.xmlrpc\n@service.xml\ndef concat(a,b):\n    return dict(test=a+b)\n\ndef loginTest(nickname, uploaderKey):\n    returnCode = -1\n    message = ""\n    try:\n        record = db(db.auth_user.nickname==nickname).select().first()\n    except:\n        pass\n    else:\n        if not record:\n            returnCode= -1\n            message= "Who is %s?" % nickname\n        else:\n            if not record.uploader_key==uploaderKey:\n                returnCode= -1\n                message= "Wrong API Key"\n            else:\n                if record.is_uploader:\n                    # login the user\n                    #session.nickname= nickname\n                    returnCode=0\n                else:\n                    returnCode= -1\n                    message= "You are not allowed to upload"\n    return returnCode, message\n\n\ndef decryptFromClient(encryptedMsg):\n    decryptedMsg = ""\n    private_json = {\n        "d": 23787079891404684333685400978249298094378954863672776929346845102263722750088918762338764266712467553502811192479791825128333774826784684125489823193368527161074577530140077392439136510635896140296132025922882984837588521257841050129145633510814630843053674301016823808612405445927946023993959147765325630609,\n        "e": 65537,\n        "n": 113857278326248086267655574343523535583648376051747208707172377115619164320229146138430878888952306898474564499090572366596232150220784972504544737264372878940265396864770701575284749329394957815581364039447123399430603091303935702146927576939090729428557897918935408150236788311903915427199939052963176280397,\n        "p": 9580774579539128121039431812737453710839471771236942870475012323041145011884745445780348665996631786895791139388698030648995797187661607074610865997962403,\n        "q": 11883932492202009053507786643172605523535663521769572031030078443728388902717320133755150294842235771246601522313496536316374989301635407931585896758667599,\n        "u": 1517576679209673870508661373022611765046783829884979500337395070156130858916802958093981514472423096659658057726899513257360280724233068450029128365828499\n    }\n    private_key = RSA.construct((long(private_json[\'n\']), long(private_json[\'e\']),\n                             long(private_json[\'d\']), long(private_json[\'p\']),\n                             long(private_json[\'q\']), long(private_json[\'u\'])))\n    try:\n        for p in encryptedMsg.split("@"):\n            decryptedMsg += private_key.decrypt(base64.b16decode(p))\n    except:\n        pass\n    \n    return decryptedMsg\n\n@service.json\n@service.xmlrpc\n@service.xml\ndef checkLogin(encryptedMsg):\n    # decrypt the message with the private key\n    returnCode = -1\n    message = \'\'\n    computedNb = 0\n    decryptedMsg = decryptFromClient(encryptedMsg)\n    dataFromClient = ()\n    if not len(decryptedMsg)>0:\n        returnCode = -1\n        message = \'Server Decrypt Error\'\n    else:\n        # try to load into a json\n        try:\n            dataFromClient = json.loads(decryptedMsg)\n        except:\n            returnCode = -1\n            message = \'Server Load Error\'\n        else:\n            toFind = [\'nickname\',\'version\',\'uploaderKey\',\'n\',\'e\',\'randomNb\']\n            error = False\n            for e in toFind:\n                if e not in dataFromClient:\n                    error = True\n                    returnCode = -1\n                    message = \'Server Elements Missing\'\n            if not error:\n                # check if the client is using the last version\n                if float(dataFromClient[\'version\'])>=__version__:\n                    returnCode, message = loginTest(dataFromClient[\'nickname\'],dataFromClient[\'uploaderKey\'])\n                    computedNb = base64.b16encode(sha512(sha256(str(compute(dataFromClient[\'randomNb\'])))))\n                else:\n                    returnCode=1\n                    message="A new version of Bobpic is available.\\nYou need to upgrade."\n\n    # prepare a json\n    dataToSend = {\n        \'returnCode\' : returnCode,\n        \'message\' : message,\n        \'computedNb\' : computedNb\n    }\n    # encrypt the json with the dynamic public key of the client\n    # TODO /!\\ If no DataFromClient, submit raw data\n    try:\n        client_pub_key = RSA.construct((long(dataFromClient[\'n\']), long(dataFromClient[\'e\'])))\n        # TODO chunks!!!\n        encryptedMsg = list()\n        dataToSendStr = str(json.dumps(dataToSend, sort_keys=True, indent=4))\n        randomK = long(random.getrandbits(random.randint(128, 256)))\n        for part in chunks(dataToSendStr,127):\n            encryptedData = client_pub_key.encrypt(part, randomK)\n            coded = base64.b16encode(encryptedData[0])\n            encryptedMsg.append(coded)\n        data = "@".join(encryptedMsg)\n    except :\n        dataToSend = {\n            \'returnCode\' : -2,\n            \'message\' : message\n        }\n        return json.dumps(dataToSend, sort_keys=True, indent=4)\n    else:\n        return data\n\n#def checkLogin(username, key):\n#    users = db.auth_user\n#    q = users.nickname==username\n#    s = db(q)\n#    if s.select():\n#        return dict(test=username+key)\n#    else:\n#        return "get out"\n\n@auth.requires_signature()\ndef data():\n    """\n    http://..../[app]/default/data/tables\n    http://..../[app]/default/data/create/[table]\n    http://..../[app]/default/data/read/[table]/[id]\n    http://..../[app]/default/data/update/[table]/[id]\n    http://..../[app]/default/data/delete/[table]/[id]\n    http://..../[app]/default/data/select/[table]\n    http://..../[app]/default/data/search/[table]\n    but URLs bust be signed, i.e. linked with\n      A(\'table\',_href=URL(\'data/tables\',user_signature=True))\n    or with the signed load operator\n      LOAD(\'default\',\'data.load\',args=\'tables\',ajax=True,user_signature=True)\n    """\n    return dict(form=crud())\n\nresponse._vars=response._caller(index)\n'
p6
sS'snapshot'
p7
(dp8
S'exception'
p9
(dp10
S'__hash__'
p11
S"<method-wrapper '__hash__' of exceptions.TypeError object>"
p12
sS'__setattr__'
p13
S"<method-wrapper '__setattr__' of exceptions.TypeError object>"
p14
sS'__reduce_ex__'
p15
S'<built-in method __reduce_ex__ of exceptions.TypeError object>'
p16
sS'__getslice__'
p17
S"<method-wrapper '__getslice__' of exceptions.TypeError object>"
p18
sS'__getitem__'
p19
S"<method-wrapper '__getitem__' of exceptions.TypeError object>"
p20
sS'__setstate__'
p21
S'<built-in method __setstate__ of exceptions.TypeError object>'
p22
sS'args'
p23
S"('pluralize() takes exactly 2 arguments (1 given)',)"
p24
sS'__reduce__'
p25
S'<built-in method __reduce__ of exceptions.TypeError object>'
p26
sS'__str__'
p27
S"<method-wrapper '__str__' of exceptions.TypeError object>"
p28
sS'__format__'
p29
S'<built-in method __format__ of exceptions.TypeError object>'
p30
sS'__getattribute__'
p31
S"<method-wrapper '__getattribute__' of exceptions.TypeError object>"
p32
sS'__class__'
p33
S"<type 'exceptions.TypeError'>"
p34
sS'__unicode__'
p35
S'<built-in method __unicode__ of exceptions.TypeError object>'
p36
sS'__delattr__'
p37
S"<method-wrapper '__delattr__' of exceptions.TypeError object>"
p38
sS'__subclasshook__'
p39
S'<built-in method __subclasshook__ of type object>'
p40
sS'__repr__'
p41
S"<method-wrapper '__repr__' of exceptions.TypeError object>"
p42
sS'__dict__'
p43
S'{}'
p44
sS'__sizeof__'
p45
S'<built-in method __sizeof__ of exceptions.TypeError object>'
p46
sS'__doc__'
p47
S"'Inappropriate argument type.'"
p48
sS'__init__'
p49
S"<method-wrapper '__init__' of exceptions.TypeError object>"
p50
sS'__new__'
p51
S'<built-in method __new__ of type object>'
p52
ssS'evalue'
p53
S'pluralize() takes exactly 2 arguments (1 given)'
p54
sS'request'
p55
ccopy_reg
_reconstructor
p56
(cgluon.html
BEAUTIFY
p57
c__builtin__
object
p58
NtRp59
(dp60
S'attributes'
p61
(dp62
sS'components'
p63
(lp64
g56
(cgluon.html
TABLE
p65
g58
NtRp66
(dp67
g61
(dp68
S'level'
p69
I5
ssS'parent'
p70
Nsg63
(lp71
g56
(cgluon.html
TR
p72
g58
NtRp73
(dp74
g61
(dp75
sg70
g66
sg63
(lp76
g56
(cgluon.html
TD
p77
g58
NtRp78
(dp79
g61
(dp80
S'_style'
p81
S'font-weight:bold;'
p82
ssg70
g73
sg63
(lp83
S'ajax'
p84
asbag56
(g77
g58
NtRp85
(dp86
g61
(dp87
S'_valign'
p88
S'top'
p89
ssg70
g73
sg63
(lp90
S':'
asbag56
(g77
g58
NtRp91
(dp92
g61
(dp93
sg70
g73
sg63
(lp94
g56
(g57
g58
NtRp95
(dp96
g61
(dp97
g69
I5
ssg70
g91
sg63
(lp98
S'False'
p99
asbasbasbag56
(g72
g58
NtRp100
(dp101
g61
(dp102
sg70
g66
sg63
(lp103
g56
(g77
g58
NtRp104
(dp105
g61
(dp106
g81
g82
ssg70
g100
sg63
(lp107
S'application'
p108
asbag56
(g77
g58
NtRp109
(dp110
g61
(dp111
g88
g89
ssg70
g100
sg63
(lp112
S':'
asbag56
(g77
g58
NtRp113
(dp114
g61
(dp115
sg70
g100
sg63
(lp116
g56
(g57
g58
NtRp117
(dp118
g61
(dp119
g69
I5
ssg70
g113
sg63
(lp120
S'ddlagoon'
p121
asbasbasbag56
(g72
g58
NtRp122
(dp123
g61
(dp124
sg70
g66
sg63
(lp125
g56
(g77
g58
NtRp126
(dp127
g61
(dp128
g81
g82
ssg70
g122
sg63
(lp129
g23
asbag56
(g77
g58
NtRp130
(dp131
g61
(dp132
g88
g89
ssg70
g122
sg63
(lp133
S':'
asbag56
(g77
g58
NtRp134
(dp135
g61
(dp136
sg70
g122
sg63
(lp137
g56
(g57
g58
NtRp138
(dp139
g61
(dp140
g69
I5
ssg70
g134
sg63
(lp141
g56
(g65
g58
NtRp142
(dp143
g61
(dp144
g69
I4
ssg70
Nsg63
(lp145
sbasbasbasbag56
(g72
g58
NtRp146
(dp147
g61
(dp148
sg70
g66
sg63
(lp149
g56
(g77
g58
NtRp150
(dp151
g61
(dp152
g81
g82
ssg70
g146
sg63
(lp153
S'body'
p154
asbag56
(g77
g58
NtRp155
(dp156
g61
(dp157
g88
g89
ssg70
g146
sg63
(lp158
S':'
asbag56
(g77
g58
NtRp159
(dp160
g61
(dp161
sg70
g146
sg63
(lp162
g56
(g57
g58
NtRp163
(dp164
g61
(dp165
g69
I5
ssg70
g159
sg63
(lp166
S'<cStringIO.StringO object at 0x308d260>'
p167
asbasbasbag56
(g72
g58
NtRp168
(dp169
g61
(dp170
sg70
g66
sg63
(lp171
g56
(g77
g58
NtRp172
(dp173
g61
(dp174
g81
g82
ssg70
g168
sg63
(lp175
S'client'
p176
asbag56
(g77
g58
NtRp177
(dp178
g61
(dp179
g88
g89
ssg70
g168
sg63
(lp180
S':'
asbag56
(g77
g58
NtRp181
(dp182
g61
(dp183
sg70
g168
sg63
(lp184
g56
(g57
g58
NtRp185
(dp186
g61
(dp187
g69
I5
ssg70
g181
sg63
(lp188
S'127.0.0.1'
p189
asbasbasbag56
(g72
g58
NtRp190
(dp191
g61
(dp192
sg70
g66
sg63
(lp193
g56
(g77
g58
NtRp194
(dp195
g61
(dp196
g81
g82
ssg70
g190
sg63
(lp197
S'controller'
p198
asbag56
(g77
g58
NtRp199
(dp200
g61
(dp201
g88
g89
ssg70
g190
sg63
(lp202
S':'
asbag56
(g77
g58
NtRp203
(dp204
g61
(dp205
sg70
g190
sg63
(lp206
g56
(g57
g58
NtRp207
(dp208
g61
(dp209
g69
I5
ssg70
g203
sg63
(lp210
S'default'
p211
asbasbasbag56
(g72
g58
NtRp212
(dp213
g61
(dp214
sg70
g66
sg63
(lp215
g56
(g77
g58
NtRp216
(dp217
g61
(dp218
g81
g82
ssg70
g212
sg63
(lp219
S'cookies'
p220
asbag56
(g77
g58
NtRp221
(dp222
g61
(dp223
g88
g89
ssg70
g212
sg63
(lp224
S':'
asbag56
(g77
g58
NtRp225
(dp226
g61
(dp227
sg70
g212
sg63
(lp228
g56
(g57
g58
NtRp229
(dp230
g61
(dp231
g69
I5
ssg70
g225
sg63
(lp232
g56
(g65
g58
NtRp233
(dp234
g61
(dp235
g69
I4
ssg70
Nsg63
(lp236
g56
(g72
g58
NtRp237
(dp238
g61
(dp239
sg70
g233
sg63
(lp240
g56
(g77
g58
NtRp241
(dp242
g61
(dp243
g81
g82
ssg70
g237
sg63
(lp244
S'session_id_admin'
p245
asbag56
(g77
g58
NtRp246
(dp247
g61
(dp248
g88
g89
ssg70
g237
sg63
(lp249
S':'
asbag56
(g77
g58
NtRp250
(dp251
g61
(dp252
sg70
g237
sg63
(lp253
g56
(g57
g58
NtRp254
(dp255
g61
(dp256
g69
I4
ssg70
g250
sg63
(lp257
g56
(g65
g58
NtRp258
(dp259
g61
(dp260
g69
I3
ssg70
Nsg63
(lp261
g56
(g72
g58
NtRp262
(dp263
g61
(dp264
sg70
g258
sg63
(lp265
g56
(g77
g58
NtRp266
(dp267
g61
(dp268
g81
g82
ssg70
g262
sg63
(lp269
S'comment'
p270
asbag56
(g77
g58
NtRp271
(dp272
g61
(dp273
g88
g89
ssg70
g262
sg63
(lp274
S':'
asbag56
(g77
g58
NtRp275
(dp276
g61
(dp277
sg70
g262
sg63
(lp278
g56
(g57
g58
NtRp279
(dp280
g61
(dp281
g69
I3
ssg70
g275
sg63
(lp282
S''
asbasbasbag56
(g72
g58
NtRp283
(dp284
g61
(dp285
sg70
g258
sg63
(lp286
g56
(g77
g58
NtRp287
(dp288
g61
(dp289
g81
g82
ssg70
g283
sg63
(lp290
S'domain'
p291
asbag56
(g77
g58
NtRp292
(dp293
g61
(dp294
g88
g89
ssg70
g283
sg63
(lp295
S':'
asbag56
(g77
g58
NtRp296
(dp297
g61
(dp298
sg70
g283
sg63
(lp299
g56
(g57
g58
NtRp300
(dp301
g61
(dp302
g69
I3
ssg70
g296
sg63
(lp303
S''
asbasbasbag56
(g72
g58
NtRp304
(dp305
g61
(dp306
sg70
g258
sg63
(lp307
g56
(g77
g58
NtRp308
(dp309
g61
(dp310
g81
g82
ssg70
g304
sg63
(lp311
S'expires'
p312
asbag56
(g77
g58
NtRp313
(dp314
g61
(dp315
g88
g89
ssg70
g304
sg63
(lp316
S':'
asbag56
(g77
g58
NtRp317
(dp318
g61
(dp319
sg70
g304
sg63
(lp320
g56
(g57
g58
NtRp321
(dp322
g61
(dp323
g69
I3
ssg70
g317
sg63
(lp324
S''
asbasbasbag56
(g72
g58
NtRp325
(dp326
g61
(dp327
sg70
g258
sg63
(lp328
g56
(g77
g58
NtRp329
(dp330
g61
(dp331
g81
g82
ssg70
g325
sg63
(lp332
S'httponly'
p333
asbag56
(g77
g58
NtRp334
(dp335
g61
(dp336
g88
g89
ssg70
g325
sg63
(lp337
S':'
asbag56
(g77
g58
NtRp338
(dp339
g61
(dp340
sg70
g325
sg63
(lp341
g56
(g57
g58
NtRp342
(dp343
g61
(dp344
g69
I3
ssg70
g338
sg63
(lp345
S''
asbasbasbag56
(g72
g58
NtRp346
(dp347
g61
(dp348
sg70
g258
sg63
(lp349
g56
(g77
g58
NtRp350
(dp351
g61
(dp352
g81
g82
ssg70
g346
sg63
(lp353
S'max-age'
p354
asbag56
(g77
g58
NtRp355
(dp356
g61
(dp357
g88
g89
ssg70
g346
sg63
(lp358
S':'
asbag56
(g77
g58
NtRp359
(dp360
g61
(dp361
sg70
g346
sg63
(lp362
g56
(g57
g58
NtRp363
(dp364
g61
(dp365
g69
I3
ssg70
g359
sg63
(lp366
S''
asbasbasbag56
(g72
g58
NtRp367
(dp368
g61
(dp369
sg70
g258
sg63
(lp370
g56
(g77
g58
NtRp371
(dp372
g61
(dp373
g81
g82
ssg70
g367
sg63
(lp374
S'path'
p375
asbag56
(g77
g58
NtRp376
(dp377
g61
(dp378
g88
g89
ssg70
g367
sg63
(lp379
S':'
asbag56
(g77
g58
NtRp380
(dp381
g61
(dp382
sg70
g367
sg63
(lp383
g56
(g57
g58
NtRp384
(dp385
g61
(dp386
g69
I3
ssg70
g380
sg63
(lp387
S''
asbasbasbag56
(g72
g58
NtRp388
(dp389
g61
(dp390
sg70
g258
sg63
(lp391
g56
(g77
g58
NtRp392
(dp393
g61
(dp394
g81
g82
ssg70
g388
sg63
(lp395
S'secure'
p396
asbag56
(g77
g58
NtRp397
(dp398
g61
(dp399
g88
g89
ssg70
g388
sg63
(lp400
S':'
asbag56
(g77
g58
NtRp401
(dp402
g61
(dp403
sg70
g388
sg63
(lp404
g56
(g57
g58
NtRp405
(dp406
g61
(dp407
g69
I3
ssg70
g401
sg63
(lp408
S''
asbasbasbag56
(g72
g58
NtRp409
(dp410
g61
(dp411
sg70
g258
sg63
(lp412
g56
(g77
g58
NtRp413
(dp414
g61
(dp415
g81
g82
ssg70
g409
sg63
(lp416
S'version'
p417
asbag56
(g77
g58
NtRp418
(dp419
g61
(dp420
g88
g89
ssg70
g409
sg63
(lp421
S':'
asbag56
(g77
g58
NtRp422
(dp423
g61
(dp424
sg70
g409
sg63
(lp425
g56
(g57
g58
NtRp426
(dp427
g61
(dp428
g69
I3
ssg70
g422
sg63
(lp429
S''
asbasbasbasbasbasbasbag56
(g72
g58
NtRp430
(dp431
g61
(dp432
sg70
g233
sg63
(lp433
g56
(g77
g58
NtRp434
(dp435
g61
(dp436
g81
g82
ssg70
g430
sg63
(lp437
S'session_id_welcome'
p438
asbag56
(g77
g58
NtRp439
(dp440
g61
(dp441
g88
g89
ssg70
g430
sg63
(lp442
S':'
asbag56
(g77
g58
NtRp443
(dp444
g61
(dp445
sg70
g430
sg63
(lp446
g56
(g57
g58
NtRp447
(dp448
g61
(dp449
g69
I4
ssg70
g443
sg63
(lp450
g56
(g65
g58
NtRp451
(dp452
g61
(dp453
g69
I3
ssg70
Nsg63
(lp454
g56
(g72
g58
NtRp455
(dp456
g61
(dp457
sg70
g451
sg63
(lp458
g56
(g77
g58
NtRp459
(dp460
g61
(dp461
g81
g82
ssg70
g455
sg63
(lp462
g270
asbag56
(g77
g58
NtRp463
(dp464
g61
(dp465
g88
g89
ssg70
g455
sg63
(lp466
S':'
asbag56
(g77
g58
NtRp467
(dp468
g61
(dp469
sg70
g455
sg63
(lp470
g56
(g57
g58
NtRp471
(dp472
g61
(dp473
g69
I3
ssg70
g467
sg63
(lp474
S''
asbasbasbag56
(g72
g58
NtRp475
(dp476
g61
(dp477
sg70
g451
sg63
(lp478
g56
(g77
g58
NtRp479
(dp480
g61
(dp481
g81
g82
ssg70
g475
sg63
(lp482
g291
asbag56
(g77
g58
NtRp483
(dp484
g61
(dp485
g88
g89
ssg70
g475
sg63
(lp486
S':'
asbag56
(g77
g58
NtRp487
(dp488
g61
(dp489
sg70
g475
sg63
(lp490
g56
(g57
g58
NtRp491
(dp492
g61
(dp493
g69
I3
ssg70
g487
sg63
(lp494
S''
asbasbasbag56
(g72
g58
NtRp495
(dp496
g61
(dp497
sg70
g451
sg63
(lp498
g56
(g77
g58
NtRp499
(dp500
g61
(dp501
g81
g82
ssg70
g495
sg63
(lp502
g312
asbag56
(g77
g58
NtRp503
(dp504
g61
(dp505
g88
g89
ssg70
g495
sg63
(lp506
S':'
asbag56
(g77
g58
NtRp507
(dp508
g61
(dp509
sg70
g495
sg63
(lp510
g56
(g57
g58
NtRp511
(dp512
g61
(dp513
g69
I3
ssg70
g507
sg63
(lp514
S''
asbasbasbag56
(g72
g58
NtRp515
(dp516
g61
(dp517
sg70
g451
sg63
(lp518
g56
(g77
g58
NtRp519
(dp520
g61
(dp521
g81
g82
ssg70
g515
sg63
(lp522
g333
asbag56
(g77
g58
NtRp523
(dp524
g61
(dp525
g88
g89
ssg70
g515
sg63
(lp526
S':'
asbag56
(g77
g58
NtRp527
(dp528
g61
(dp529
sg70
g515
sg63
(lp530
g56
(g57
g58
NtRp531
(dp532
g61
(dp533
g69
I3
ssg70
g527
sg63
(lp534
S''
asbasbasbag56
(g72
g58
NtRp535
(dp536
g61
(dp537
sg70
g451
sg63
(lp538
g56
(g77
g58
NtRp539
(dp540
g61
(dp541
g81
g82
ssg70
g535
sg63
(lp542
g354
asbag56
(g77
g58
NtRp543
(dp544
g61
(dp545
g88
g89
ssg70
g535
sg63
(lp546
S':'
asbag56
(g77
g58
NtRp547
(dp548
g61
(dp549
sg70
g535
sg63
(lp550
g56
(g57
g58
NtRp551
(dp552
g61
(dp553
g69
I3
ssg70
g547
sg63
(lp554
S''
asbasbasbag56
(g72
g58
NtRp555
(dp556
g61
(dp557
sg70
g451
sg63
(lp558
g56
(g77
g58
NtRp559
(dp560
g61
(dp561
g81
g82
ssg70
g555
sg63
(lp562
g375
asbag56
(g77
g58
NtRp563
(dp564
g61
(dp565
g88
g89
ssg70
g555
sg63
(lp566
S':'
asbag56
(g77
g58
NtRp567
(dp568
g61
(dp569
sg70
g555
sg63
(lp570
g56
(g57
g58
NtRp571
(dp572
g61
(dp573
g69
I3
ssg70
g567
sg63
(lp574
S''
asbasbasbag56
(g72
g58
NtRp575
(dp576
g61
(dp577
sg70
g451
sg63
(lp578
g56
(g77
g58
NtRp579
(dp580
g61
(dp581
g81
g82
ssg70
g575
sg63
(lp582
g396
asbag56
(g77
g58
NtRp583
(dp584
g61
(dp585
g88
g89
ssg70
g575
sg63
(lp586
S':'
asbag56
(g77
g58
NtRp587
(dp588
g61
(dp589
sg70
g575
sg63
(lp590
g56
(g57
g58
NtRp591
(dp592
g61
(dp593
g69
I3
ssg70
g587
sg63
(lp594
S''
asbasbasbag56
(g72
g58
NtRp595
(dp596
g61
(dp597
sg70
g451
sg63
(lp598
g56
(g77
g58
NtRp599
(dp600
g61
(dp601
g81
g82
ssg70
g595
sg63
(lp602
g417
asbag56
(g77
g58
NtRp603
(dp604
g61
(dp605
g88
g89
ssg70
g595
sg63
(lp606
S':'
asbag56
(g77
g58
NtRp607
(dp608
g61
(dp609
sg70
g595
sg63
(lp610
g56
(g57
g58
NtRp611
(dp612
g61
(dp613
g69
I3
ssg70
g607
sg63
(lp614
S''
asbasbasbasbasbasbasbasbasbasbasbag56
(g72
g58
NtRp615
(dp616
g61
(dp617
sg70
g66
sg63
(lp618
g56
(g77
g58
NtRp619
(dp620
g61
(dp621
g81
g82
ssg70
g615
sg63
(lp622
S'env'
p623
asbag56
(g77
g58
NtRp624
(dp625
g61
(dp626
g88
g89
ssg70
g615
sg63
(lp627
S':'
asbag56
(g77
g58
NtRp628
(dp629
g61
(dp630
sg70
g615
sg63
(lp631
g56
(g57
g58
NtRp632
(dp633
g61
(dp634
g69
I5
ssg70
g628
sg63
(lp635
g56
(g65
g58
NtRp636
(dp637
g61
(dp638
g69
I4
ssg70
Nsg63
(lp639
g56
(g72
g58
NtRp640
(dp641
g61
(dp642
sg70
g636
sg63
(lp643
g56
(g77
g58
NtRp644
(dp645
g61
(dp646
g81
g82
ssg70
g640
sg63
(lp647
S'app_folders'
p648
asbag56
(g77
g58
NtRp649
(dp650
g61
(dp651
g88
g89
ssg70
g640
sg63
(lp652
S':'
asbag56
(g77
g58
NtRp653
(dp654
g61
(dp655
sg70
g640
sg63
(lp656
g56
(g57
g58
NtRp657
(dp658
g61
(dp659
g69
I4
ssg70
g653
sg63
(lp660
S"set(['/windows/Users/Thomas/Dropbox/appz/2011/GAE/ddl-lagoon/applications/ddlagoon/', '/windows/Users/Thomas/Dropbox/appz/2011/GAE/ddl-lagoon/applications/welcome/', '/windows/Users/Thomas/Dropbox/appz/2011/GAE/ddl-lagoon/applications/admin/'])"
p661
asbasbasbag56
(g72
g58
NtRp662
(dp663
g61
(dp664
sg70
g636
sg63
(lp665
g56
(g77
g58
NtRp666
(dp667
g61
(dp668
g81
g82
ssg70
g662
sg63
(lp669
S'applications_parent'
p670
asbag56
(g77
g58
NtRp671
(dp672
g61
(dp673
g88
g89
ssg70
g662
sg63
(lp674
S':'
asbag56
(g77
g58
NtRp675
(dp676
g61
(dp677
sg70
g662
sg63
(lp678
g56
(g57
g58
NtRp679
(dp680
g61
(dp681
g69
I4
ssg70
g675
sg63
(lp682
S'/windows/Users/Thomas/Dropbox/appz/2011/GAE/ddl-lagoon'
p683
asbasbasbag56
(g72
g58
NtRp684
(dp685
g61
(dp686
sg70
g636
sg63
(lp687
g56
(g77
g58
NtRp688
(dp689
g61
(dp690
g81
g82
ssg70
g684
sg63
(lp691
S'cmd_args'
p692
asbag56
(g77
g58
NtRp693
(dp694
g61
(dp695
g88
g89
ssg70
g684
sg63
(lp696
S':'
asbag56
(g77
g58
NtRp697
(dp698
g61
(dp699
sg70
g684
sg63
(lp700
g56
(g57
g58
NtRp701
(dp702
g61
(dp703
g69
I4
ssg70
g697
sg63
(lp704
g56
(g65
g58
NtRp705
(dp706
g61
(dp707
g69
I3
ssg70
Nsg63
(lp708
sbasbasbasbag56
(g72
g58
NtRp709
(dp710
g61
(dp711
sg70
g636
sg63
(lp712
g56
(g77
g58
NtRp713
(dp714
g61
(dp715
g81
g82
ssg70
g709
sg63
(lp716
S'cmd_options'
p717
asbag56
(g77
g58
NtRp718
(dp719
g61
(dp720
g88
g89
ssg70
g709
sg63
(lp721
S':'
asbag56
(g77
g58
NtRp722
(dp723
g61
(dp724
sg70
g709
sg63
(lp725
g56
(g57
g58
NtRp726
(dp727
g61
(dp728
g69
I4
ssg70
g722
sg63
(lp729
S"<Values at 0x2569cf8: {'verbose': False, 'ip': '127.0.0.1', 'shutdown_timeout': 5, 'taskbar': False, 'nocron': False, 'pid_filename': 'httpserver.pid', 'maxthreads': None, 'softcron': False, 'server_name': 'VPCF22AJ', 'bpython': False, 'nogui': False, 'port': 8000, 'extcron': False, 'debuglevel': 30, 'test': None, 'folder': '/windows/Users/Thomas/Dropbox/appz/2011/GAE/ddl-lagoon', 'config': '', 'import_models': False, 'winservice': '', 'shell': None, 'run': '', 'log_filename': 'httpserver.log', 'args': [''], 'ssl_ca_certificate': None, 'scheduler': None, 'profiler_filename': None, 'ssl_private_key': '', 'password': 'admin', 'request_queue_size': 5, 'ssl_certificate': '', 'cronjob': False, 'plain': False, 'quiet': False, 'interfaces': None, 'minthreads': None, 'timeout': 10, 'numthreads': None, 'nobanner': False}>"
p730
asbasbasbag56
(g72
g58
NtRp731
(dp732
g61
(dp733
sg70
g636
sg63
(lp734
g56
(g77
g58
NtRp735
(dp736
g61
(dp737
g81
g82
ssg70
g731
sg63
(lp738
S'db_sessions'
p739
asbag56
(g77
g58
NtRp740
(dp741
g61
(dp742
g88
g89
ssg70
g731
sg63
(lp743
S':'
asbag56
(g77
g58
NtRp744
(dp745
g61
(dp746
sg70
g731
sg63
(lp747
g56
(g57
g58
NtRp748
(dp749
g61
(dp750
g69
I4
ssg70
g744
sg63
(lp751
S'set([])'
p752
asbasbasbag56
(g72
g58
NtRp753
(dp754
g61
(dp755
sg70
g636
sg63
(lp756
g56
(g77
g58
NtRp757
(dp758
g61
(dp759
g81
g82
ssg70
g753
sg63
(lp760
S'debugging'
p761
asbag56
(g77
g58
NtRp762
(dp763
g61
(dp764
g88
g89
ssg70
g753
sg63
(lp765
S':'
asbag56
(g77
g58
NtRp766
(dp767
g61
(dp768
sg70
g753
sg63
(lp769
g56
(g57
g58
NtRp770
(dp771
g61
(dp772
g69
I4
ssg70
g766
sg63
(lp773
g99
asbasbasbag56
(g72
g58
NtRp774
(dp775
g61
(dp776
sg70
g636
sg63
(lp777
g56
(g77
g58
NtRp778
(dp779
g61
(dp780
g81
g82
ssg70
g774
sg63
(lp781
S'gluon_parent'
p782
asbag56
(g77
g58
NtRp783
(dp784
g61
(dp785
g88
g89
ssg70
g774
sg63
(lp786
S':'
asbag56
(g77
g58
NtRp787
(dp788
g61
(dp789
sg70
g774
sg63
(lp790
g56
(g57
g58
NtRp791
(dp792
g61
(dp793
g69
I4
ssg70
g787
sg63
(lp794
S'/windows/Users/Thomas/Dropbox/appz/2011/GAE/ddl-lagoon'
p795
asbasbasbag56
(g72
g58
NtRp796
(dp797
g61
(dp798
sg70
g636
sg63
(lp799
g56
(g77
g58
NtRp800
(dp801
g61
(dp802
g81
g82
ssg70
g796
sg63
(lp803
S'http_accept'
p804
asbag56
(g77
g58
NtRp805
(dp806
g61
(dp807
g88
g89
ssg70
g796
sg63
(lp808
S':'
asbag56
(g77
g58
NtRp809
(dp810
g61
(dp811
sg70
g796
sg63
(lp812
g56
(g57
g58
NtRp813
(dp814
g61
(dp815
g69
I4
ssg70
g809
sg63
(lp816
S'text/html,application/xhtml+xml,application/xml;q=0.9,*/*;q=0.8'
p817
asbasbasbag56
(g72
g58
NtRp818
(dp819
g61
(dp820
sg70
g636
sg63
(lp821
g56
(g77
g58
NtRp822
(dp823
g61
(dp824
g81
g82
ssg70
g818
sg63
(lp825
S'http_accept_charset'
p826
asbag56
(g77
g58
NtRp827
(dp828
g61
(dp829
g88
g89
ssg70
g818
sg63
(lp830
S':'
asbag56
(g77
g58
NtRp831
(dp832
g61
(dp833
sg70
g818
sg63
(lp834
g56
(g57
g58
NtRp835
(dp836
g61
(dp837
g69
I4
ssg70
g831
sg63
(lp838
S'ISO-8859-1,utf-8;q=0.7,*;q=0.3'
p839
asbasbasbag56
(g72
g58
NtRp840
(dp841
g61
(dp842
sg70
g636
sg63
(lp843
g56
(g77
g58
NtRp844
(dp845
g61
(dp846
g81
g82
ssg70
g840
sg63
(lp847
S'http_accept_encoding'
p848
asbag56
(g77
g58
NtRp849
(dp850
g61
(dp851
g88
g89
ssg70
g840
sg63
(lp852
S':'
asbag56
(g77
g58
NtRp853
(dp854
g61
(dp855
sg70
g840
sg63
(lp856
g56
(g57
g58
NtRp857
(dp858
g61
(dp859
g69
I4
ssg70
g853
sg63
(lp860
S'gzip,deflate,sdch'
p861
asbasbasbag56
(g72
g58
NtRp862
(dp863
g61
(dp864
sg70
g636
sg63
(lp865
g56
(g77
g58
NtRp866
(dp867
g61
(dp868
g81
g82
ssg70
g862
sg63
(lp869
S'http_accept_language'
p870
asbag56
(g77
g58
NtRp871
(dp872
g61
(dp873
g88
g89
ssg70
g862
sg63
(lp874
S':'
asbag56
(g77
g58
NtRp875
(dp876
g61
(dp877
sg70
g862
sg63
(lp878
g56
(g57
g58
NtRp879
(dp880
g61
(dp881
g69
I4
ssg70
g875
sg63
(lp882
S'en-US,en;q=0.8,fr;q=0.6'
p883
asbasbasbag56
(g72
g58
NtRp884
(dp885
g61
(dp886
sg70
g636
sg63
(lp887
g56
(g77
g58
NtRp888
(dp889
g61
(dp890
g81
g82
ssg70
g884
sg63
(lp891
S'http_cache_control'
p892
asbag56
(g77
g58
NtRp893
(dp894
g61
(dp895
g88
g89
ssg70
g884
sg63
(lp896
S':'
asbag56
(g77
g58
NtRp897
(dp898
g61
(dp899
sg70
g884
sg63
(lp900
g56
(g57
g58
NtRp901
(dp902
g61
(dp903
g69
I4
ssg70
g897
sg63
(lp904
S'max-age=0'
p905
asbasbasbag56
(g72
g58
NtRp906
(dp907
g61
(dp908
sg70
g636
sg63
(lp909
g56
(g77
g58
NtRp910
(dp911
g61
(dp912
g81
g82
ssg70
g906
sg63
(lp913
S'http_connection'
p914
asbag56
(g77
g58
NtRp915
(dp916
g61
(dp917
g88
g89
ssg70
g906
sg63
(lp918
S':'
asbag56
(g77
g58
NtRp919
(dp920
g61
(dp921
sg70
g906
sg63
(lp922
g56
(g57
g58
NtRp923
(dp924
g61
(dp925
g69
I4
ssg70
g919
sg63
(lp926
S'keep-alive'
p927
asbasbasbag56
(g72
g58
NtRp928
(dp929
g61
(dp930
sg70
g636
sg63
(lp931
g56
(g77
g58
NtRp932
(dp933
g61
(dp934
g81
g82
ssg70
g928
sg63
(lp935
S'http_cookie'
p936
asbag56
(g77
g58
NtRp937
(dp938
g61
(dp939
g88
g89
ssg70
g928
sg63
(lp940
S':'
asbag56
(g77
g58
NtRp941
(dp942
g61
(dp943
sg70
g928
sg63
(lp944
g56
(g57
g58
NtRp945
(dp946
g61
(dp947
g69
I4
ssg70
g941
sg63
(lp948
S'__utma_a2a=5510587673.1349489975.1317933049.1319659660.1319659660.47; session_id_welcome=127.0.0.1-f7fb4a09-ce09-4815-abcc-fca1d9093faf; session_id_admin=127.0.0.1-975d2e86-8c26-4bdc-8b21-2f846f38d507'
p949
asbasbasbag56
(g72
g58
NtRp950
(dp951
g61
(dp952
sg70
g636
sg63
(lp953
g56
(g77
g58
NtRp954
(dp955
g61
(dp956
g81
g82
ssg70
g950
sg63
(lp957
S'http_host'
p958
asbag56
(g77
g58
NtRp959
(dp960
g61
(dp961
g88
g89
ssg70
g950
sg63
(lp962
S':'
asbag56
(g77
g58
NtRp963
(dp964
g61
(dp965
sg70
g950
sg63
(lp966
g56
(g57
g58
NtRp967
(dp968
g61
(dp969
g69
I4
ssg70
g963
sg63
(lp970
S'127.0.0.1:8000'
p971
asbasbasbag56
(g72
g58
NtRp972
(dp973
g61
(dp974
sg70
g636
sg63
(lp975
g56
(g77
g58
NtRp976
(dp977
g61
(dp978
g81
g82
ssg70
g972
sg63
(lp979
S'http_user_agent'
p980
asbag56
(g77
g58
NtRp981
(dp982
g61
(dp983
g88
g89
ssg70
g972
sg63
(lp984
S':'
asbag56
(g77
g58
NtRp985
(dp986
g61
(dp987
sg70
g972
sg63
(lp988
g56
(g57
g58
NtRp989
(dp990
g61
(dp991
g69
I4
ssg70
g985
sg63
(lp992
S'Mozilla/5.0 (X11; Linux x86_64) AppleWebKit/535.2 (KHTML, like Gecko) Chrome/15.0.874.106 Safari/535.2'
p993
asbasbasbag56
(g72
g58
NtRp994
(dp995
g61
(dp996
sg70
g636
sg63
(lp997
g56
(g77
g58
NtRp998
(dp999
g61
(dp1000
g81
g82
ssg70
g994
sg63
(lp1001
S'is_jython'
p1002
asbag56
(g77
g58
NtRp1003
(dp1004
g61
(dp1005
g88
g89
ssg70
g994
sg63
(lp1006
S':'
asbag56
(g77
g58
NtRp1007
(dp1008
g61
(dp1009
sg70
g994
sg63
(lp1010
g56
(g57
g58
NtRp1011
(dp1012
g61
(dp1013
g69
I4
ssg70
g1007
sg63
(lp1014
g99
asbasbasbag56
(g72
g58
NtRp1015
(dp1016
g61
(dp1017
sg70
g636
sg63
(lp1018
g56
(g77
g58
NtRp1019
(dp1020
g61
(dp1021
g81
g82
ssg70
g1015
sg63
(lp1022
S'path_info'
p1023
asbag56
(g77
g58
NtRp1024
(dp1025
g61
(dp1026
g88
g89
ssg70
g1015
sg63
(lp1027
S':'
asbag56
(g77
g58
NtRp1028
(dp1029
g61
(dp1030
sg70
g1015
sg63
(lp1031
g56
(g57
g58
NtRp1032
(dp1033
g61
(dp1034
g69
I4
ssg70
g1028
sg63
(lp1035
S'/ddlagoon/default'
p1036
asbasbasbag56
(g72
g58
NtRp1037
(dp1038
g61
(dp1039
sg70
g636
sg63
(lp1040
g56
(g77
g58
NtRp1041
(dp1042
g61
(dp1043
g81
g82
ssg70
g1037
sg63
(lp1044
S'query_string'
p1045
asbag56
(g77
g58
NtRp1046
(dp1047
g61
(dp1048
g88
g89
ssg70
g1037
sg63
(lp1049
S':'
asbag56
(g77
g58
NtRp1050
(dp1051
g61
(dp1052
sg70
g1037
sg63
(lp1053
g56
(g57
g58
NtRp1054
(dp1055
g61
(dp1056
g69
I4
ssg70
g1050
sg63
(lp1057
S''
asbasbasbag56
(g72
g58
NtRp1058
(dp1059
g61
(dp1060
sg70
g636
sg63
(lp1061
g56
(g77
g58
NtRp1062
(dp1063
g61
(dp1064
g81
g82
ssg70
g1058
sg63
(lp1065
S'remote_addr'
p1066
asbag56
(g77
g58
NtRp1067
(dp1068
g61
(dp1069
g88
g89
ssg70
g1058
sg63
(lp1070
S':'
asbag56
(g77
g58
NtRp1071
(dp1072
g61
(dp1073
sg70
g1058
sg63
(lp1074
g56
(g57
g58
NtRp1075
(dp1076
g61
(dp1077
g69
I4
ssg70
g1071
sg63
(lp1078
g189
asbasbasbag56
(g72
g58
NtRp1079
(dp1080
g61
(dp1081
sg70
g636
sg63
(lp1082
g56
(g77
g58
NtRp1083
(dp1084
g61
(dp1085
g81
g82
ssg70
g1079
sg63
(lp1086
S'remote_port'
p1087
asbag56
(g77
g58
NtRp1088
(dp1089
g61
(dp1090
g88
g89
ssg70
g1079
sg63
(lp1091
S':'
asbag56
(g77
g58
NtRp1092
(dp1093
g61
(dp1094
sg70
g1079
sg63
(lp1095
g56
(g57
g58
NtRp1096
(dp1097
g61
(dp1098
g69
I4
ssg70
g1092
sg63
(lp1099
S'44527'
p1100
asbasbasbag56
(g72
g58
NtRp1101
(dp1102
g61
(dp1103
sg70
g636
sg63
(lp1104
g56
(g77
g58
NtRp1105
(dp1106
g61
(dp1107
g81
g82
ssg70
g1101
sg63
(lp1108
S'request_method'
p1109
asbag56
(g77
g58
NtRp1110
(dp1111
g61
(dp1112
g88
g89
ssg70
g1101
sg63
(lp1113
S':'
asbag56
(g77
g58
NtRp1114
(dp1115
g61
(dp1116
sg70
g1101
sg63
(lp1117
g56
(g57
g58
NtRp1118
(dp1119
g61
(dp1120
g69
I4
ssg70
g1114
sg63
(lp1121
S'GET'
p1122
asbasbasbag56
(g72
g58
NtRp1123
(dp1124
g61
(dp1125
sg70
g636
sg63
(lp1126
g56
(g77
g58
NtRp1127
(dp1128
g61
(dp1129
g81
g82
ssg70
g1123
sg63
(lp1130
S'request_uri'
p1131
asbag56
(g77
g58
NtRp1132
(dp1133
g61
(dp1134
g88
g89
ssg70
g1123
sg63
(lp1135
S':'
asbag56
(g77
g58
NtRp1136
(dp1137
g61
(dp1138
sg70
g1123
sg63
(lp1139
g56
(g57
g58
NtRp1140
(dp1141
g61
(dp1142
g69
I4
ssg70
g1136
sg63
(lp1143
g1036
asbasbasbag56
(g72
g58
NtRp1144
(dp1145
g61
(dp1146
sg70
g636
sg63
(lp1147
g56
(g77
g58
NtRp1148
(dp1149
g61
(dp1150
g81
g82
ssg70
g1144
sg63
(lp1151
S'script_name'
p1152
asbag56
(g77
g58
NtRp1153
(dp1154
g61
(dp1155
g88
g89
ssg70
g1144
sg63
(lp1156
S':'
asbag56
(g77
g58
NtRp1157
(dp1158
g61
(dp1159
sg70
g1144
sg63
(lp1160
g56
(g57
g58
NtRp1161
(dp1162
g61
(dp1163
g69
I4
ssg70
g1157
sg63
(lp1164
S''
asbasbasbag56
(g72
g58
NtRp1165
(dp1166
g61
(dp1167
sg70
g636
sg63
(lp1168
g56
(g77
g58
NtRp1169
(dp1170
g61
(dp1171
g81
g82
ssg70
g1165
sg63
(lp1172
S'server_name'
p1173
asbag56
(g77
g58
NtRp1174
(dp1175
g61
(dp1176
g88
g89
ssg70
g1165
sg63
(lp1177
S':'
asbag56
(g77
g58
NtRp1178
(dp1179
g61
(dp1180
sg70
g1165
sg63
(lp1181
g56
(g57
g58
NtRp1182
(dp1183
g61
(dp1184
g69
I4
ssg70
g1178
sg63
(lp1185
S'VPCF22AJ'
p1186
asbasbasbag56
(g72
g58
NtRp1187
(dp1188
g61
(dp1189
sg70
g636
sg63
(lp1190
g56
(g77
g58
NtRp1191
(dp1192
g61
(dp1193
g81
g82
ssg70
g1187
sg63
(lp1194
S'server_port'
p1195
asbag56
(g77
g58
NtRp1196
(dp1197
g61
(dp1198
g88
g89
ssg70
g1187
sg63
(lp1199
S':'
asbag56
(g77
g58
NtRp1200
(dp1201
g61
(dp1202
sg70
g1187
sg63
(lp1203
g56
(g57
g58
NtRp1204
(dp1205
g61
(dp1206
g69
I4
ssg70
g1200
sg63
(lp1207
S'8000'
p1208
asbasbasbag56
(g72
g58
NtRp1209
(dp1210
g61
(dp1211
sg70
g636
sg63
(lp1212
g56
(g77
g58
NtRp1213
(dp1214
g61
(dp1215
g81
g82
ssg70
g1209
sg63
(lp1216
S'server_protocol'
p1217
asbag56
(g77
g58
NtRp1218
(dp1219
g61
(dp1220
g88
g89
ssg70
g1209
sg63
(lp1221
S':'
asbag56
(g77
g58
NtRp1222
(dp1223
g61
(dp1224
sg70
g1209
sg63
(lp1225
g56
(g57
g58
NtRp1226
(dp1227
g61
(dp1228
g69
I4
ssg70
g1222
sg63
(lp1229
S'HTTP/1.1'
p1230
asbasbasbag56
(g72
g58
NtRp1231
(dp1232
g61
(dp1233
sg70
g636
sg63
(lp1234
g56
(g77
g58
NtRp1235
(dp1236
g61
(dp1237
g81
g82
ssg70
g1231
sg63
(lp1238
S'server_software'
p1239
asbag56
(g77
g58
NtRp1240
(dp1241
g61
(dp1242
g88
g89
ssg70
g1231
sg63
(lp1243
S':'
asbag56
(g77
g58
NtRp1244
(dp1245
g61
(dp1246
sg70
g1231
sg63
(lp1247
g56
(g57
g58
NtRp1248
(dp1249
g61
(dp1250
g69
I4
ssg70
g1244
sg63
(lp1251
S'Rocket 1.2.4'
p1252
asbasbasbag56
(g72
g58
NtRp1253
(dp1254
g61
(dp1255
sg70
g636
sg63
(lp1256
g56
(g77
g58
NtRp1257
(dp1258
g61
(dp1259
g81
g82
ssg70
g1253
sg63
(lp1260
S'web2py_crontype'
p1261
asbag56
(g77
g58
NtRp1262
(dp1263
g61
(dp1264
g88
g89
ssg70
g1253
sg63
(lp1265
S':'
asbag56
(g77
g58
NtRp1266
(dp1267
g61
(dp1268
sg70
g1253
sg63
(lp1269
g56
(g57
g58
NtRp1270
(dp1271
g61
(dp1272
g69
I4
ssg70
g1266
sg63
(lp1273
S'hard'
p1274
asbasbasbag56
(g72
g58
NtRp1275
(dp1276
g61
(dp1277
sg70
g636
sg63
(lp1278
g56
(g77
g58
NtRp1279
(dp1280
g61
(dp1281
g81
g82
ssg70
g1275
sg63
(lp1282
S'web2py_original_uri'
p1283
asbag56
(g77
g58
NtRp1284
(dp1285
g61
(dp1286
g88
g89
ssg70
g1275
sg63
(lp1287
S':'
asbag56
(g77
g58
NtRp1288
(dp1289
g61
(dp1290
sg70
g1275
sg63
(lp1291
g56
(g57
g58
NtRp1292
(dp1293
g61
(dp1294
g69
I4
ssg70
g1288
sg63
(lp1295
g1036
asbasbasbag56
(g72
g58
NtRp1296
(dp1297
g61
(dp1298
sg70
g636
sg63
(lp1299
g56
(g77
g58
NtRp1300
(dp1301
g61
(dp1302
g81
g82
ssg70
g1296
sg63
(lp1303
S'web2py_path'
p1304
asbag56
(g77
g58
NtRp1305
(dp1306
g61
(dp1307
g88
g89
ssg70
g1296
sg63
(lp1308
S':'
asbag56
(g77
g58
NtRp1309
(dp1310
g61
(dp1311
sg70
g1296
sg63
(lp1312
g56
(g57
g58
NtRp1313
(dp1314
g61
(dp1315
g69
I4
ssg70
g1309
sg63
(lp1316
g683
asbasbasbag56
(g72
g58
NtRp1317
(dp1318
g61
(dp1319
sg70
g636
sg63
(lp1320
g56
(g77
g58
NtRp1321
(dp1322
g61
(dp1323
g81
g82
ssg70
g1317
sg63
(lp1324
S'web2py_version'
p1325
asbag56
(g77
g58
NtRp1326
(dp1327
g61
(dp1328
g88
g89
ssg70
g1317
sg63
(lp1329
S':'
asbag56
(g77
g58
NtRp1330
(dp1331
g61
(dp1332
sg70
g1317
sg63
(lp1333
g56
(g57
g58
NtRp1334
(dp1335
g61
(dp1336
g69
I4
ssg70
g1330
sg63
(lp1337
g56
(g65
g58
NtRp1338
(dp1339
g61
(dp1340
g69
I3
ssg70
Nsg63
(lp1341
g56
(g72
g58
NtRp1342
(dp1343
g61
(dp1344
sg70
g1338
sg63
(lp1345
g56
(g77
g58
NtRp1346
(dp1347
g61
(dp1348
sg70
g1342
sg63
(lp1349
g56
(g57
g58
NtRp1350
(dp1351
g61
(dp1352
g69
I3
ssg70
g1346
sg63
(lp1353
S'1'
asbasbasbag56
(g72
g58
NtRp1354
(dp1355
g61
(dp1356
sg70
g1338
sg63
(lp1357
g56
(g77
g58
NtRp1358
(dp1359
g61
(dp1360
sg70
g1354
sg63
(lp1361
g56
(g57
g58
NtRp1362
(dp1363
g61
(dp1364
g69
I3
ssg70
g1358
sg63
(lp1365
S'99'
p1366
asbasbasbag56
(g72
g58
NtRp1367
(dp1368
g61
(dp1369
sg70
g1338
sg63
(lp1370
g56
(g77
g58
NtRp1371
(dp1372
g61
(dp1373
sg70
g1367
sg63
(lp1374
g56
(g57
g58
NtRp1375
(dp1376
g61
(dp1377
g69
I3
ssg70
g1371
sg63
(lp1378
S'2'
asbasbasbag56
(g72
g58
NtRp1379
(dp1380
g61
(dp1381
sg70
g1338
sg63
(lp1382
g56
(g77
g58
NtRp1383
(dp1384
g61
(dp1385
sg70
g1379
sg63
(lp1386
g56
(g57
g58
NtRp1387
(dp1388
g61
(dp1389
g69
I3
ssg70
g1383
sg63
(lp1390
S'datetime.datetime(2011, 9, 26, 6, 55, 33)'
p1391
asbasbasbag56
(g72
g58
NtRp1392
(dp1393
g61
(dp1394
sg70
g1338
sg63
(lp1395
g56
(g77
g58
NtRp1396
(dp1397
g61
(dp1398
sg70
g1392
sg63
(lp1399
g56
(g57
g58
NtRp1400
(dp1401
g61
(dp1402
g69
I3
ssg70
g1396
sg63
(lp1403
S'stable'
p1404
asbasbasbasbasbasbasbag56
(g72
g58
NtRp1405
(dp1406
g61
(dp1407
sg70
g636
sg63
(lp1408
g56
(g77
g58
NtRp1409
(dp1410
g61
(dp1411
g81
g82
ssg70
g1405
sg63
(lp1412
S'wsgi_errors'
p1413
asbag56
(g77
g58
NtRp1414
(dp1415
g61
(dp1416
g88
g89
ssg70
g1405
sg63
(lp1417
S':'
asbag56
(g77
g58
NtRp1418
(dp1419
g61
(dp1420
sg70
g1405
sg63
(lp1421
g56
(g57
g58
NtRp1422
(dp1423
g61
(dp1424
g69
I4
ssg70
g1418
sg63
(lp1425
S"<open file '<stderr>', mode 'w' at 0x7f0d1464c1e0>"
p1426
asbasbasbag56
(g72
g58
NtRp1427
(dp1428
g61
(dp1429
sg70
g636
sg63
(lp1430
g56
(g77
g58
NtRp1431
(dp1432
g61
(dp1433
g81
g82
ssg70
g1427
sg63
(lp1434
S'wsgi_file_wrapper'
p1435
asbag56
(g77
g58
NtRp1436
(dp1437
g61
(dp1438
g88
g89
ssg70
g1427
sg63
(lp1439
S':'
asbag56
(g77
g58
NtRp1440
(dp1441
g61
(dp1442
sg70
g1427
sg63
(lp1443
g56
(g57
g58
NtRp1444
(dp1445
g61
(dp1446
g69
I4
ssg70
g1440
sg63
(lp1447
S'<class wsgiref.util.FileWrapper at 0x24c5110>'
p1448
asbasbasbag56
(g72
g58
NtRp1449
(dp1450
g61
(dp1451
sg70
g636
sg63
(lp1452
g56
(g77
g58
NtRp1453
(dp1454
g61
(dp1455
g81
g82
ssg70
g1449
sg63
(lp1456
S'wsgi_input'
p1457
asbag56
(g77
g58
NtRp1458
(dp1459
g61
(dp1460
g88
g89
ssg70
g1449
sg63
(lp1461
S':'
asbag56
(g77
g58
NtRp1462
(dp1463
g61
(dp1464
sg70
g1449
sg63
(lp1465
g56
(g57
g58
NtRp1466
(dp1467
g61
(dp1468
g69
I4
ssg70
g1462
sg63
(lp1469
S'<socket._fileobject object at 0x2ddbed0>'
p1470
asbasbasbag56
(g72
g58
NtRp1471
(dp1472
g61
(dp1473
sg70
g636
sg63
(lp1474
g56
(g77
g58
NtRp1475
(dp1476
g61
(dp1477
g81
g82
ssg70
g1471
sg63
(lp1478
S'wsgi_multiprocess'
p1479
asbag56
(g77
g58
NtRp1480
(dp1481
g61
(dp1482
g88
g89
ssg70
g1471
sg63
(lp1483
S':'
asbag56
(g77
g58
NtRp1484
(dp1485
g61
(dp1486
sg70
g1471
sg63
(lp1487
g56
(g57
g58
NtRp1488
(dp1489
g61
(dp1490
g69
I4
ssg70
g1484
sg63
(lp1491
g99
asbasbasbag56
(g72
g58
NtRp1492
(dp1493
g61
(dp1494
sg70
g636
sg63
(lp1495
g56
(g77
g58
NtRp1496
(dp1497
g61
(dp1498
g81
g82
ssg70
g1492
sg63
(lp1499
S'wsgi_multithread'
p1500
asbag56
(g77
g58
NtRp1501
(dp1502
g61
(dp1503
g88
g89
ssg70
g1492
sg63
(lp1504
S':'
asbag56
(g77
g58
NtRp1505
(dp1506
g61
(dp1507
sg70
g1492
sg63
(lp1508
g56
(g57
g58
NtRp1509
(dp1510
g61
(dp1511
g69
I4
ssg70
g1505
sg63
(lp1512
S'True'
p1513
asbasbasbag56
(g72
g58
NtRp1514
(dp1515
g61
(dp1516
sg70
g636
sg63
(lp1517
g56
(g77
g58
NtRp1518
(dp1519
g61
(dp1520
g81
g82
ssg70
g1514
sg63
(lp1521
S'wsgi_run_once'
p1522
asbag56
(g77
g58
NtRp1523
(dp1524
g61
(dp1525
g88
g89
ssg70
g1514
sg63
(lp1526
S':'
asbag56
(g77
g58
NtRp1527
(dp1528
g61
(dp1529
sg70
g1514
sg63
(lp1530
g56
(g57
g58
NtRp1531
(dp1532
g61
(dp1533
g69
I4
ssg70
g1527
sg63
(lp1534
g99
asbasbasbag56
(g72
g58
NtRp1535
(dp1536
g61
(dp1537
sg70
g636
sg63
(lp1538
g56
(g77
g58
NtRp1539
(dp1540
g61
(dp1541
g81
g82
ssg70
g1535
sg63
(lp1542
S'wsgi_url_scheme'
p1543
asbag56
(g77
g58
NtRp1544
(dp1545
g61
(dp1546
g88
g89
ssg70
g1535
sg63
(lp1547
S':'
asbag56
(g77
g58
NtRp1548
(dp1549
g61
(dp1550
sg70
g1535
sg63
(lp1551
g56
(g57
g58
NtRp1552
(dp1553
g61
(dp1554
g69
I4
ssg70
g1548
sg63
(lp1555
S'http'
p1556
asbasbasbag56
(g72
g58
NtRp1557
(dp1558
g61
(dp1559
sg70
g636
sg63
(lp1560
g56
(g77
g58
NtRp1561
(dp1562
g61
(dp1563
g81
g82
ssg70
g1557
sg63
(lp1564
S'wsgi_version'
p1565
asbag56
(g77
g58
NtRp1566
(dp1567
g61
(dp1568
g88
g89
ssg70
g1557
sg63
(lp1569
S':'
asbag56
(g77
g58
NtRp1570
(dp1571
g61
(dp1572
sg70
g1557
sg63
(lp1573
g56
(g57
g58
NtRp1574
(dp1575
g61
(dp1576
g69
I4
ssg70
g1570
sg63
(lp1577
g56
(g65
g58
NtRp1578
(dp1579
g61
(dp1580
g69
I3
ssg70
Nsg63
(lp1581
g56
(g72
g58
NtRp1582
(dp1583
g61
(dp1584
sg70
g1578
sg63
(lp1585
g56
(g77
g58
NtRp1586
(dp1587
g61
(dp1588
sg70
g1582
sg63
(lp1589
g56
(g57
g58
NtRp1590
(dp1591
g61
(dp1592
g69
I3
ssg70
g1586
sg63
(lp1593
S'1'
asbasbasbag56
(g72
g58
NtRp1594
(dp1595
g61
(dp1596
sg70
g1578
sg63
(lp1597
g56
(g77
g58
NtRp1598
(dp1599
g61
(dp1600
sg70
g1594
sg63
(lp1601
g56
(g57
g58
NtRp1602
(dp1603
g61
(dp1604
g69
I3
ssg70
g1598
sg63
(lp1605
S'0'
asbasbasbasbasbasbasbasbasbasbasbag56
(g72
g58
NtRp1606
(dp1607
g61
(dp1608
sg70
g66
sg63
(lp1609
g56
(g77
g58
NtRp1610
(dp1611
g61
(dp1612
g81
g82
ssg70
g1606
sg63
(lp1613
S'extension'
p1614
asbag56
(g77
g58
NtRp1615
(dp1616
g61
(dp1617
g88
g89
ssg70
g1606
sg63
(lp1618
S':'
asbag56
(g77
g58
NtRp1619
(dp1620
g61
(dp1621
sg70
g1606
sg63
(lp1622
g56
(g57
g58
NtRp1623
(dp1624
g61
(dp1625
g69
I5
ssg70
g1619
sg63
(lp1626
S'html'
p1627
asbasbasbag56
(g72
g58
NtRp1628
(dp1629
g61
(dp1630
sg70
g66
sg63
(lp1631
g56
(g77
g58
NtRp1632
(dp1633
g61
(dp1634
g81
g82
ssg70
g1628
sg63
(lp1635
S'folder'
p1636
asbag56
(g77
g58
NtRp1637
(dp1638
g61
(dp1639
g88
g89
ssg70
g1628
sg63
(lp1640
S':'
asbag56
(g77
g58
NtRp1641
(dp1642
g61
(dp1643
sg70
g1628
sg63
(lp1644
g56
(g57
g58
NtRp1645
(dp1646
g61
(dp1647
g69
I5
ssg70
g1641
sg63
(lp1648
S'/windows/Users/Thomas/Dropbox/appz/2011/GAE/ddl-lagoon/applications/ddlagoon/'
p1649
asbasbasbag56
(g72
g58
NtRp1650
(dp1651
g61
(dp1652
sg70
g66
sg63
(lp1653
g56
(g77
g58
NtRp1654
(dp1655
g61
(dp1656
g81
g82
ssg70
g1650
sg63
(lp1657
S'function'
p1658
asbag56
(g77
g58
NtRp1659
(dp1660
g61
(dp1661
g88
g89
ssg70
g1650
sg63
(lp1662
S':'
asbag56
(g77
g58
NtRp1663
(dp1664
g61
(dp1665
sg70
g1650
sg63
(lp1666
g56
(g57
g58
NtRp1667
(dp1668
g61
(dp1669
g69
I5
ssg70
g1663
sg63
(lp1670
S'index'
p1671
asbasbasbag56
(g72
g58
NtRp1672
(dp1673
g61
(dp1674
sg70
g66
sg63
(lp1675
g56
(g77
g58
NtRp1676
(dp1677
g61
(dp1678
g81
g82
ssg70
g1672
sg63
(lp1679
S'get_vars'
p1680
asbag56
(g77
g58
NtRp1681
(dp1682
g61
(dp1683
g88
g89
ssg70
g1672
sg63
(lp1684
S':'
asbag56
(g77
g58
NtRp1685
(dp1686
g61
(dp1687
sg70
g1672
sg63
(lp1688
g56
(g57
g58
NtRp1689
(dp1690
g61
(dp1691
g69
I5
ssg70
g1685
sg63
(lp1692
g56
(g65
g58
NtRp1693
(dp1694
g61
(dp1695
g69
I4
ssg70
Nsg63
(lp1696
sbasbasbasbag56
(g72
g58
NtRp1697
(dp1698
g61
(dp1699
sg70
g66
sg63
(lp1700
g56
(g77
g58
NtRp1701
(dp1702
g61
(dp1703
g81
g82
ssg70
g1697
sg63
(lp1704
S'global_settings'
p1705
asbag56
(g77
g58
NtRp1706
(dp1707
g61
(dp1708
g88
g89
ssg70
g1697
sg63
(lp1709
S':'
asbag56
(g77
g58
NtRp1710
(dp1711
g61
(dp1712
sg70
g1697
sg63
(lp1713
g56
(g57
g58
NtRp1714
(dp1715
g61
(dp1716
g69
I5
ssg70
g1710
sg63
(lp1717
g56
(g65
g58
NtRp1718
(dp1719
g61
(dp1720
g69
I4
ssg70
Nsg63
(lp1721
g56
(g72
g58
NtRp1722
(dp1723
g61
(dp1724
sg70
g1718
sg63
(lp1725
g56
(g77
g58
NtRp1726
(dp1727
g61
(dp1728
g81
g82
ssg70
g1722
sg63
(lp1729
g648
asbag56
(g77
g58
NtRp1730
(dp1731
g61
(dp1732
g88
g89
ssg70
g1722
sg63
(lp1733
S':'
asbag56
(g77
g58
NtRp1734
(dp1735
g61
(dp1736
sg70
g1722
sg63
(lp1737
g56
(g57
g58
NtRp1738
(dp1739
g61
(dp1740
g69
I4
ssg70
g1734
sg63
(lp1741
S"set(['/windows/Users/Thomas/Dropbox/appz/2011/GAE/ddl-lagoon/applications/ddlagoon/', '/windows/Users/Thomas/Dropbox/appz/2011/GAE/ddl-lagoon/applications/welcome/', '/windows/Users/Thomas/Dropbox/appz/2011/GAE/ddl-lagoon/applications/admin/'])"
p1742
asbasbasbag56
(g72
g58
NtRp1743
(dp1744
g61
(dp1745
sg70
g1718
sg63
(lp1746
g56
(g77
g58
NtRp1747
(dp1748
g61
(dp1749
g81
g82
ssg70
g1743
sg63
(lp1750
g670
asbag56
(g77
g58
NtRp1751
(dp1752
g61
(dp1753
g88
g89
ssg70
g1743
sg63
(lp1754
S':'
asbag56
(g77
g58
NtRp1755
(dp1756
g61
(dp1757
sg70
g1743
sg63
(lp1758
g56
(g57
g58
NtRp1759
(dp1760
g61
(dp1761
g69
I4
ssg70
g1755
sg63
(lp1762
g683
asbasbasbag56
(g72
g58
NtRp1763
(dp1764
g61
(dp1765
sg70
g1718
sg63
(lp1766
g56
(g77
g58
NtRp1767
(dp1768
g61
(dp1769
g81
g82
ssg70
g1763
sg63
(lp1770
g692
asbag56
(g77
g58
NtRp1771
(dp1772
g61
(dp1773
g88
g89
ssg70
g1763
sg63
(lp1774
S':'
asbag56
(g77
g58
NtRp1775
(dp1776
g61
(dp1777
sg70
g1763
sg63
(lp1778
g56
(g57
g58
NtRp1779
(dp1780
g61
(dp1781
g69
I4
ssg70
g1775
sg63
(lp1782
g56
(g65
g58
NtRp1783
(dp1784
g61
(dp1785
g69
I3
ssg70
Nsg63
(lp1786
sbasbasbasbag56
(g72
g58
NtRp1787
(dp1788
g61
(dp1789
sg70
g1718
sg63
(lp1790
g56
(g77
g58
NtRp1791
(dp1792
g61
(dp1793
g81
g82
ssg70
g1787
sg63
(lp1794
g717
asbag56
(g77
g58
NtRp1795
(dp1796
g61
(dp1797
g88
g89
ssg70
g1787
sg63
(lp1798
S':'
asbag56
(g77
g58
NtRp1799
(dp1800
g61
(dp1801
sg70
g1787
sg63
(lp1802
g56
(g57
g58
NtRp1803
(dp1804
g61
(dp1805
g69
I4
ssg70
g1799
sg63
(lp1806
S"<Values at 0x2569cf8: {'verbose': False, 'ip': '127.0.0.1', 'shutdown_timeout': 5, 'taskbar': False, 'nocron': False, 'pid_filename': 'httpserver.pid', 'maxthreads': None, 'softcron': False, 'server_name': 'VPCF22AJ', 'bpython': False, 'nogui': False, 'port': 8000, 'extcron': False, 'debuglevel': 30, 'test': None, 'folder': '/windows/Users/Thomas/Dropbox/appz/2011/GAE/ddl-lagoon', 'config': '', 'import_models': False, 'winservice': '', 'shell': None, 'run': '', 'log_filename': 'httpserver.log', 'args': [''], 'ssl_ca_certificate': None, 'scheduler': None, 'profiler_filename': None, 'ssl_private_key': '', 'password': 'admin', 'request_queue_size': 5, 'ssl_certificate': '', 'cronjob': False, 'plain': False, 'quiet': False, 'interfaces': None, 'minthreads': None, 'timeout': 10, 'numthreads': None, 'nobanner': False}>"
p1807
asbasbasbag56
(g72
g58
NtRp1808
(dp1809
g61
(dp1810
sg70
g1718
sg63
(lp1811
g56
(g77
g58
NtRp1812
(dp1813
g61
(dp1814
g81
g82
ssg70
g1808
sg63
(lp1815
g739
asbag56
(g77
g58
NtRp1816
(dp1817
g61
(dp1818
g88
g89
ssg70
g1808
sg63
(lp1819
S':'
asbag56
(g77
g58
NtRp1820
(dp1821
g61
(dp1822
sg70
g1808
sg63
(lp1823
g56
(g57
g58
NtRp1824
(dp1825
g61
(dp1826
g69
I4
ssg70
g1820
sg63
(lp1827
S'set([])'
p1828
asbasbasbag56
(g72
g58
NtRp1829
(dp1830
g61
(dp1831
sg70
g1718
sg63
(lp1832
g56
(g77
g58
NtRp1833
(dp1834
g61
(dp1835
g81
g82
ssg70
g1829
sg63
(lp1836
g761
asbag56
(g77
g58
NtRp1837
(dp1838
g61
(dp1839
g88
g89
ssg70
g1829
sg63
(lp1840
S':'
asbag56
(g77
g58
NtRp1841
(dp1842
g61
(dp1843
sg70
g1829
sg63
(lp1844
g56
(g57
g58
NtRp1845
(dp1846
g61
(dp1847
g69
I4
ssg70
g1841
sg63
(lp1848
g99
asbasbasbag56
(g72
g58
NtRp1849
(dp1850
g61
(dp1851
sg70
g1718
sg63
(lp1852
g56
(g77
g58
NtRp1853
(dp1854
g61
(dp1855
g81
g82
ssg70
g1849
sg63
(lp1856
g782
asbag56
(g77
g58
NtRp1857
(dp1858
g61
(dp1859
g88
g89
ssg70
g1849
sg63
(lp1860
S':'
asbag56
(g77
g58
NtRp1861
(dp1862
g61
(dp1863
sg70
g1849
sg63
(lp1864
g56
(g57
g58
NtRp1865
(dp1866
g61
(dp1867
g69
I4
ssg70
g1861
sg63
(lp1868
g795
asbasbasbag56
(g72
g58
NtRp1869
(dp1870
g61
(dp1871
sg70
g1718
sg63
(lp1872
g56
(g77
g58
NtRp1873
(dp1874
g61
(dp1875
g81
g82
ssg70
g1869
sg63
(lp1876
g1002
asbag56
(g77
g58
NtRp1877
(dp1878
g61
(dp1879
g88
g89
ssg70
g1869
sg63
(lp1880
S':'
asbag56
(g77
g58
NtRp1881
(dp1882
g61
(dp1883
sg70
g1869
sg63
(lp1884
g56
(g57
g58
NtRp1885
(dp1886
g61
(dp1887
g69
I4
ssg70
g1881
sg63
(lp1888
g99
asbasbasbag56
(g72
g58
NtRp1889
(dp1890
g61
(dp1891
sg70
g1718
sg63
(lp1892
g56
(g77
g58
NtRp1893
(dp1894
g61
(dp1895
g81
g82
ssg70
g1889
sg63
(lp1896
g1261
asbag56
(g77
g58
NtRp1897
(dp1898
g61
(dp1899
g88
g89
ssg70
g1889
sg63
(lp1900
S':'
asbag56
(g77
g58
NtRp1901
(dp1902
g61
(dp1903
sg70
g1889
sg63
(lp1904
g56
(g57
g58
NtRp1905
(dp1906
g61
(dp1907
g69
I4
ssg70
g1901
sg63
(lp1908
g1274
asbasbasbag56
(g72
g58
NtRp1909
(dp1910
g61
(dp1911
sg70
g1718
sg63
(lp1912
g56
(g77
g58
NtRp1913
(dp1914
g61
(dp1915
g81
g82
ssg70
g1909
sg63
(lp1916
g1325
asbag56
(g77
g58
NtRp1917
(dp1918
g61
(dp1919
g88
g89
ssg70
g1909
sg63
(lp1920
S':'
asbag56
(g77
g58
NtRp1921
(dp1922
g61
(dp1923
sg70
g1909
sg63
(lp1924
g56
(g57
g58
NtRp1925
(dp1926
g61
(dp1927
g69
I4
ssg70
g1921
sg63
(lp1928
g56
(g65
g58
NtRp1929
(dp1930
g61
(dp1931
g69
I3
ssg70
Nsg63
(lp1932
g56
(g72
g58
NtRp1933
(dp1934
g61
(dp1935
sg70
g1929
sg63
(lp1936
g56
(g77
g58
NtRp1937
(dp1938
g61
(dp1939
sg70
g1933
sg63
(lp1940
g56
(g57
g58
NtRp1941
(dp1942
g61
(dp1943
g69
I3
ssg70
g1937
sg63
(lp1944
S'1'
asbasbasbag56
(g72
g58
NtRp1945
(dp1946
g61
(dp1947
sg70
g1929
sg63
(lp1948
g56
(g77
g58
NtRp1949
(dp1950
g61
(dp1951
sg70
g1945
sg63
(lp1952
g56
(g57
g58
NtRp1953
(dp1954
g61
(dp1955
g69
I3
ssg70
g1949
sg63
(lp1956
S'99'
p1957
asbasbasbag56
(g72
g58
NtRp1958
(dp1959
g61
(dp1960
sg70
g1929
sg63
(lp1961
g56
(g77
g58
NtRp1962
(dp1963
g61
(dp1964
sg70
g1958
sg63
(lp1965
g56
(g57
g58
NtRp1966
(dp1967
g61
(dp1968
g69
I3
ssg70
g1962
sg63
(lp1969
S'2'
asbasbasbag56
(g72
g58
NtRp1970
(dp1971
g61
(dp1972
sg70
g1929
sg63
(lp1973
g56
(g77
g58
NtRp1974
(dp1975
g61
(dp1976
sg70
g1970
sg63
(lp1977
g56
(g57
g58
NtRp1978
(dp1979
g61
(dp1980
g69
I3
ssg70
g1974
sg63
(lp1981
S'datetime.datetime(2011, 9, 26, 6, 55, 33)'
p1982
asbasbasbag56
(g72
g58
NtRp1983
(dp1984
g61
(dp1985
sg70
g1929
sg63
(lp1986
g56
(g77
g58
NtRp1987
(dp1988
g61
(dp1989
sg70
g1983
sg63
(lp1990
g56
(g57
g58
NtRp1991
(dp1992
g61
(dp1993
g69
I3
ssg70
g1987
sg63
(lp1994
g1404
asbasbasbasbasbasbasbasbasbasbasbag56
(g72
g58
NtRp1995
(dp1996
g61
(dp1997
sg70
g66
sg63
(lp1998
g56
(g77
g58
NtRp1999
(dp2000
g61
(dp2001
g81
g82
ssg70
g1995
sg63
(lp2002
S'is_https'
p2003
asbag56
(g77
g58
NtRp2004
(dp2005
g61
(dp2006
g88
g89
ssg70
g1995
sg63
(lp2007
S':'
asbag56
(g77
g58
NtRp2008
(dp2009
g61
(dp2010
sg70
g1995
sg63
(lp2011
g56
(g57
g58
NtRp2012
(dp2013
g61
(dp2014
g69
I5
ssg70
g2008
sg63
(lp2015
g99
asbasbasbag56
(g72
g58
NtRp2016
(dp2017
g61
(dp2018
sg70
g66
sg63
(lp2019
g56
(g77
g58
NtRp2020
(dp2021
g61
(dp2022
g81
g82
ssg70
g2016
sg63
(lp2023
S'is_local'
p2024
asbag56
(g77
g58
NtRp2025
(dp2026
g61
(dp2027
g88
g89
ssg70
g2016
sg63
(lp2028
S':'
asbag56
(g77
g58
NtRp2029
(dp2030
g61
(dp2031
sg70
g2016
sg63
(lp2032
g56
(g57
g58
NtRp2033
(dp2034
g61
(dp2035
g69
I5
ssg70
g2029
sg63
(lp2036
g1513
asbasbasbag56
(g72
g58
NtRp2037
(dp2038
g61
(dp2039
sg70
g66
sg63
(lp2040
g56
(g77
g58
NtRp2041
(dp2042
g61
(dp2043
g81
g82
ssg70
g2037
sg63
(lp2044
S'is_restful'
p2045
asbag56
(g77
g58
NtRp2046
(dp2047
g61
(dp2048
g88
g89
ssg70
g2037
sg63
(lp2049
S':'
asbag56
(g77
g58
NtRp2050
(dp2051
g61
(dp2052
sg70
g2037
sg63
(lp2053
g56
(g57
g58
NtRp2054
(dp2055
g61
(dp2056
g69
I5
ssg70
g2050
sg63
(lp2057
g99
asbasbasbag56
(g72
g58
NtRp2058
(dp2059
g61
(dp2060
sg70
g66
sg63
(lp2061
g56
(g77
g58
NtRp2062
(dp2063
g61
(dp2064
g81
g82
ssg70
g2058
sg63
(lp2065
S'now'
p2066
asbag56
(g77
g58
NtRp2067
(dp2068
g61
(dp2069
g88
g89
ssg70
g2058
sg63
(lp2070
S':'
asbag56
(g77
g58
NtRp2071
(dp2072
g61
(dp2073
sg70
g2058
sg63
(lp2074
g56
(g57
g58
NtRp2075
(dp2076
g61
(dp2077
g69
I5
ssg70
g2071
sg63
(lp2078
S'datetime.datetime(2011, 10, 27, 9, 14, 37, 722680)'
p2079
asbasbasbag56
(g72
g58
NtRp2080
(dp2081
g61
(dp2082
sg70
g66
sg63
(lp2083
g56
(g77
g58
NtRp2084
(dp2085
g61
(dp2086
g81
g82
ssg70
g2080
sg63
(lp2087
S'post_vars'
p2088
asbag56
(g77
g58
NtRp2089
(dp2090
g61
(dp2091
g88
g89
ssg70
g2080
sg63
(lp2092
S':'
asbag56
(g77
g58
NtRp2093
(dp2094
g61
(dp2095
sg70
g2080
sg63
(lp2096
g56
(g57
g58
NtRp2097
(dp2098
g61
(dp2099
g69
I5
ssg70
g2093
sg63
(lp2100
g56
(g65
g58
NtRp2101
(dp2102
g61
(dp2103
g69
I4
ssg70
Nsg63
(lp2104
sbasbasbasbag56
(g72
g58
NtRp2105
(dp2106
g61
(dp2107
sg70
g66
sg63
(lp2108
g56
(g77
g58
NtRp2109
(dp2110
g61
(dp2111
g81
g82
ssg70
g2105
sg63
(lp2112
S'url'
p2113
asbag56
(g77
g58
NtRp2114
(dp2115
g61
(dp2116
g88
g89
ssg70
g2105
sg63
(lp2117
S':'
asbag56
(g77
g58
NtRp2118
(dp2119
g61
(dp2120
sg70
g2105
sg63
(lp2121
g56
(g57
g58
NtRp2122
(dp2123
g61
(dp2124
g69
I5
ssg70
g2118
sg63
(lp2125
S'/ddlagoon/default/index'
p2126
asbasbasbag56
(g72
g58
NtRp2127
(dp2128
g61
(dp2129
sg70
g66
sg63
(lp2130
g56
(g77
g58
NtRp2131
(dp2132
g61
(dp2133
g81
g82
ssg70
g2127
sg63
(lp2134
S'utcnow'
p2135
asbag56
(g77
g58
NtRp2136
(dp2137
g61
(dp2138
g88
g89
ssg70
g2127
sg63
(lp2139
S':'
asbag56
(g77
g58
NtRp2140
(dp2141
g61
(dp2142
sg70
g2127
sg63
(lp2143
g56
(g57
g58
NtRp2144
(dp2145
g61
(dp2146
g69
I5
ssg70
g2140
sg63
(lp2147
S'datetime.datetime(2011, 10, 27, 8, 14, 37, 722695)'
p2148
asbasbasbag56
(g72
g58
NtRp2149
(dp2150
g61
(dp2151
sg70
g66
sg63
(lp2152
g56
(g77
g58
NtRp2153
(dp2154
g61
(dp2155
g81
g82
ssg70
g2149
sg63
(lp2156
S'uuid'
p2157
asbag56
(g77
g58
NtRp2158
(dp2159
g61
(dp2160
g88
g89
ssg70
g2149
sg63
(lp2161
S':'
asbag56
(g77
g58
NtRp2162
(dp2163
g61
(dp2164
sg70
g2149
sg63
(lp2165
g56
(g57
g58
NtRp2166
(dp2167
g61
(dp2168
g69
I5
ssg70
g2162
sg63
(lp2169
S'ddlagoon/127.0.0.1.2011-10-27.09-14-37.d614903a-1287-4e41-87bb-0e26d316be08'
p2170
asbasbasbag56
(g72
g58
NtRp2171
(dp2172
g61
(dp2173
sg70
g66
sg63
(lp2174
g56
(g77
g58
NtRp2175
(dp2176
g61
(dp2177
g81
g82
ssg70
g2171
sg63
(lp2178
S'vars'
p2179
asbag56
(g77
g58
NtRp2180
(dp2181
g61
(dp2182
g88
g89
ssg70
g2171
sg63
(lp2183
S':'
asbag56
(g77
g58
NtRp2184
(dp2185
g61
(dp2186
sg70
g2171
sg63
(lp2187
g56
(g57
g58
NtRp2188
(dp2189
g61
(dp2190
g69
I5
ssg70
g2184
sg63
(lp2191
g56
(g65
g58
NtRp2192
(dp2193
g61
(dp2194
g69
I4
ssg70
Nsg63
(lp2195
sbasbasbasbag56
(g72
g58
NtRp2196
(dp2197
g61
(dp2198
sg70
g66
sg63
(lp2199
g56
(g77
g58
NtRp2200
(dp2201
g61
(dp2202
g81
g82
ssg70
g2196
sg63
(lp2203
S'wsgi'
p2204
asbag56
(g77
g58
NtRp2205
(dp2206
g61
(dp2207
g88
g89
ssg70
g2196
sg63
(lp2208
S':'
asbag56
(g77
g58
NtRp2209
(dp2210
g61
(dp2211
sg70
g2196
sg63
(lp2212
g56
(g57
g58
NtRp2213
(dp2214
g61
(dp2215
g69
I5
ssg70
g2209
sg63
(lp2216
g56
(g65
g58
NtRp2217
(dp2218
g61
(dp2219
g69
I4
ssg70
Nsg63
(lp2220
g56
(g72
g58
NtRp2221
(dp2222
g61
(dp2223
sg70
g2217
sg63
(lp2224
g56
(g77
g58
NtRp2225
(dp2226
g61
(dp2227
g81
g82
ssg70
g2221
sg63
(lp2228
S'environ'
p2229
asbag56
(g77
g58
NtRp2230
(dp2231
g61
(dp2232
g88
g89
ssg70
g2221
sg63
(lp2233
S':'
asbag56
(g77
g58
NtRp2234
(dp2235
g61
(dp2236
sg70
g2221
sg63
(lp2237
g56
(g57
g58
NtRp2238
(dp2239
g61
(dp2240
g69
I4
ssg70
g2234
sg63
(lp2241
g56
(g65
g58
NtRp2242
(dp2243
g61
(dp2244
g69
I3
ssg70
Nsg63
(lp2245
g56
(g72
g58
NtRp2246
(dp2247
g61
(dp2248
sg70
g2242
sg63
(lp2249
g56
(g77
g58
NtRp2250
(dp2251
g61
(dp2252
g81
g82
ssg70
g2246
sg63
(lp2253
S'HTTP_ACCEPT'
p2254
asbag56
(g77
g58
NtRp2255
(dp2256
g61
(dp2257
g88
g89
ssg70
g2246
sg63
(lp2258
S':'
asbag56
(g77
g58
NtRp2259
(dp2260
g61
(dp2261
sg70
g2246
sg63
(lp2262
g56
(g57
g58
NtRp2263
(dp2264
g61
(dp2265
g69
I3
ssg70
g2259
sg63
(lp2266
g817
asbasbasbag56
(g72
g58
NtRp2267
(dp2268
g61
(dp2269
sg70
g2242
sg63
(lp2270
g56
(g77
g58
NtRp2271
(dp2272
g61
(dp2273
g81
g82
ssg70
g2267
sg63
(lp2274
S'HTTP_ACCEPT_CHARSET'
p2275
asbag56
(g77
g58
NtRp2276
(dp2277
g61
(dp2278
g88
g89
ssg70
g2267
sg63
(lp2279
S':'
asbag56
(g77
g58
NtRp2280
(dp2281
g61
(dp2282
sg70
g2267
sg63
(lp2283
g56
(g57
g58
NtRp2284
(dp2285
g61
(dp2286
g69
I3
ssg70
g2280
sg63
(lp2287
g839
asbasbasbag56
(g72
g58
NtRp2288
(dp2289
g61
(dp2290
sg70
g2242
sg63
(lp2291
g56
(g77
g58
NtRp2292
(dp2293
g61
(dp2294
g81
g82
ssg70
g2288
sg63
(lp2295
S'HTTP_ACCEPT_ENCODING'
p2296
asbag56
(g77
g58
NtRp2297
(dp2298
g61
(dp2299
g88
g89
ssg70
g2288
sg63
(lp2300
S':'
asbag56
(g77
g58
NtRp2301
(dp2302
g61
(dp2303
sg70
g2288
sg63
(lp2304
g56
(g57
g58
NtRp2305
(dp2306
g61
(dp2307
g69
I3
ssg70
g2301
sg63
(lp2308
g861
asbasbasbag56
(g72
g58
NtRp2309
(dp2310
g61
(dp2311
sg70
g2242
sg63
(lp2312
g56
(g77
g58
NtRp2313
(dp2314
g61
(dp2315
g81
g82
ssg70
g2309
sg63
(lp2316
S'HTTP_ACCEPT_LANGUAGE'
p2317
asbag56
(g77
g58
NtRp2318
(dp2319
g61
(dp2320
g88
g89
ssg70
g2309
sg63
(lp2321
S':'
asbag56
(g77
g58
NtRp2322
(dp2323
g61
(dp2324
sg70
g2309
sg63
(lp2325
g56
(g57
g58
NtRp2326
(dp2327
g61
(dp2328
g69
I3
ssg70
g2322
sg63
(lp2329
g883
asbasbasbag56
(g72
g58
NtRp2330
(dp2331
g61
(dp2332
sg70
g2242
sg63
(lp2333
g56
(g77
g58
NtRp2334
(dp2335
g61
(dp2336
g81
g82
ssg70
g2330
sg63
(lp2337
S'HTTP_CACHE_CONTROL'
p2338
asbag56
(g77
g58
NtRp2339
(dp2340
g61
(dp2341
g88
g89
ssg70
g2330
sg63
(lp2342
S':'
asbag56
(g77
g58
NtRp2343
(dp2344
g61
(dp2345
sg70
g2330
sg63
(lp2346
g56
(g57
g58
NtRp2347
(dp2348
g61
(dp2349
g69
I3
ssg70
g2343
sg63
(lp2350
g905
asbasbasbag56
(g72
g58
NtRp2351
(dp2352
g61
(dp2353
sg70
g2242
sg63
(lp2354
g56
(g77
g58
NtRp2355
(dp2356
g61
(dp2357
g81
g82
ssg70
g2351
sg63
(lp2358
S'HTTP_CONNECTION'
p2359
asbag56
(g77
g58
NtRp2360
(dp2361
g61
(dp2362
g88
g89
ssg70
g2351
sg63
(lp2363
S':'
asbag56
(g77
g58
NtRp2364
(dp2365
g61
(dp2366
sg70
g2351
sg63
(lp2367
g56
(g57
g58
NtRp2368
(dp2369
g61
(dp2370
g69
I3
ssg70
g2364
sg63
(lp2371
g927
asbasbasbag56
(g72
g58
NtRp2372
(dp2373
g61
(dp2374
sg70
g2242
sg63
(lp2375
g56
(g77
g58
NtRp2376
(dp2377
g61
(dp2378
g81
g82
ssg70
g2372
sg63
(lp2379
S'HTTP_COOKIE'
p2380
asbag56
(g77
g58
NtRp2381
(dp2382
g61
(dp2383
g88
g89
ssg70
g2372
sg63
(lp2384
S':'
asbag56
(g77
g58
NtRp2385
(dp2386
g61
(dp2387
sg70
g2372
sg63
(lp2388
g56
(g57
g58
NtRp2389
(dp2390
g61
(dp2391
g69
I3
ssg70
g2385
sg63
(lp2392
g949
asbasbasbag56
(g72
g58
NtRp2393
(dp2394
g61
(dp2395
sg70
g2242
sg63
(lp2396
g56
(g77
g58
NtRp2397
(dp2398
g61
(dp2399
g81
g82
ssg70
g2393
sg63
(lp2400
S'HTTP_HOST'
p2401
asbag56
(g77
g58
NtRp2402
(dp2403
g61
(dp2404
g88
g89
ssg70
g2393
sg63
(lp2405
S':'
asbag56
(g77
g58
NtRp2406
(dp2407
g61
(dp2408
sg70
g2393
sg63
(lp2409
g56
(g57
g58
NtRp2410
(dp2411
g61
(dp2412
g69
I3
ssg70
g2406
sg63
(lp2413
g971
asbasbasbag56
(g72
g58
NtRp2414
(dp2415
g61
(dp2416
sg70
g2242
sg63
(lp2417
g56
(g77
g58
NtRp2418
(dp2419
g61
(dp2420
g81
g82
ssg70
g2414
sg63
(lp2421
S'HTTP_USER_AGENT'
p2422
asbag56
(g77
g58
NtRp2423
(dp2424
g61
(dp2425
g88
g89
ssg70
g2414
sg63
(lp2426
S':'
asbag56
(g77
g58
NtRp2427
(dp2428
g61
(dp2429
sg70
g2414
sg63
(lp2430
g56
(g57
g58
NtRp2431
(dp2432
g61
(dp2433
g69
I3
ssg70
g2427
sg63
(lp2434
g993
asbasbasbag56
(g72
g58
NtRp2435
(dp2436
g61
(dp2437
sg70
g2242
sg63
(lp2438
g56
(g77
g58
NtRp2439
(dp2440
g61
(dp2441
g81
g82
ssg70
g2435
sg63
(lp2442
S'PATH_INFO'
p2443
asbag56
(g77
g58
NtRp2444
(dp2445
g61
(dp2446
g88
g89
ssg70
g2435
sg63
(lp2447
S':'
asbag56
(g77
g58
NtRp2448
(dp2449
g61
(dp2450
sg70
g2435
sg63
(lp2451
g56
(g57
g58
NtRp2452
(dp2453
g61
(dp2454
g69
I3
ssg70
g2448
sg63
(lp2455
g1036
asbasbasbag56
(g72
g58
NtRp2456
(dp2457
g61
(dp2458
sg70
g2242
sg63
(lp2459
g56
(g77
g58
NtRp2460
(dp2461
g61
(dp2462
g81
g82
ssg70
g2456
sg63
(lp2463
S'QUERY_STRING'
p2464
asbag56
(g77
g58
NtRp2465
(dp2466
g61
(dp2467
g88
g89
ssg70
g2456
sg63
(lp2468
S':'
asbag56
(g77
g58
NtRp2469
(dp2470
g61
(dp2471
sg70
g2456
sg63
(lp2472
g56
(g57
g58
NtRp2473
(dp2474
g61
(dp2475
g69
I3
ssg70
g2469
sg63
(lp2476
S''
asbasbasbag56
(g72
g58
NtRp2477
(dp2478
g61
(dp2479
sg70
g2242
sg63
(lp2480
g56
(g77
g58
NtRp2481
(dp2482
g61
(dp2483
g81
g82
ssg70
g2477
sg63
(lp2484
S'REMOTE_ADDR'
p2485
asbag56
(g77
g58
NtRp2486
(dp2487
g61
(dp2488
g88
g89
ssg70
g2477
sg63
(lp2489
S':'
asbag56
(g77
g58
NtRp2490
(dp2491
g61
(dp2492
sg70
g2477
sg63
(lp2493
g56
(g57
g58
NtRp2494
(dp2495
g61
(dp2496
g69
I3
ssg70
g2490
sg63
(lp2497
g189
asbasbasbag56
(g72
g58
NtRp2498
(dp2499
g61
(dp2500
sg70
g2242
sg63
(lp2501
g56
(g77
g58
NtRp2502
(dp2503
g61
(dp2504
g81
g82
ssg70
g2498
sg63
(lp2505
S'REMOTE_PORT'
p2506
asbag56
(g77
g58
NtRp2507
(dp2508
g61
(dp2509
g88
g89
ssg70
g2498
sg63
(lp2510
S':'
asbag56
(g77
g58
NtRp2511
(dp2512
g61
(dp2513
sg70
g2498
sg63
(lp2514
g56
(g57
g58
NtRp2515
(dp2516
g61
(dp2517
g69
I3
ssg70
g2511
sg63
(lp2518
g1100
asbasbasbag56
(g72
g58
NtRp2519
(dp2520
g61
(dp2521
sg70
g2242
sg63
(lp2522
g56
(g77
g58
NtRp2523
(dp2524
g61
(dp2525
g81
g82
ssg70
g2519
sg63
(lp2526
S'REQUEST_METHOD'
p2527
asbag56
(g77
g58
NtRp2528
(dp2529
g61
(dp2530
g88
g89
ssg70
g2519
sg63
(lp2531
S':'
asbag56
(g77
g58
NtRp2532
(dp2533
g61
(dp2534
sg70
g2519
sg63
(lp2535
g56
(g57
g58
NtRp2536
(dp2537
g61
(dp2538
g69
I3
ssg70
g2532
sg63
(lp2539
g1122
asbasbasbag56
(g72
g58
NtRp2540
(dp2541
g61
(dp2542
sg70
g2242
sg63
(lp2543
g56
(g77
g58
NtRp2544
(dp2545
g61
(dp2546
g81
g82
ssg70
g2540
sg63
(lp2547
S'REQUEST_URI'
p2548
asbag56
(g77
g58
NtRp2549
(dp2550
g61
(dp2551
g88
g89
ssg70
g2540
sg63
(lp2552
S':'
asbag56
(g77
g58
NtRp2553
(dp2554
g61
(dp2555
sg70
g2540
sg63
(lp2556
g56
(g57
g58
NtRp2557
(dp2558
g61
(dp2559
g69
I3
ssg70
g2553
sg63
(lp2560
g1036
asbasbasbag56
(g72
g58
NtRp2561
(dp2562
g61
(dp2563
sg70
g2242
sg63
(lp2564
g56
(g77
g58
NtRp2565
(dp2566
g61
(dp2567
g81
g82
ssg70
g2561
sg63
(lp2568
S'SCRIPT_NAME'
p2569
asbag56
(g77
g58
NtRp2570
(dp2571
g61
(dp2572
g88
g89
ssg70
g2561
sg63
(lp2573
S':'
asbag56
(g77
g58
NtRp2574
(dp2575
g61
(dp2576
sg70
g2561
sg63
(lp2577
g56
(g57
g58
NtRp2578
(dp2579
g61
(dp2580
g69
I3
ssg70
g2574
sg63
(lp2581
S''
asbasbasbag56
(g72
g58
NtRp2582
(dp2583
g61
(dp2584
sg70
g2242
sg63
(lp2585
g56
(g77
g58
NtRp2586
(dp2587
g61
(dp2588
g81
g82
ssg70
g2582
sg63
(lp2589
S'SERVER_NAME'
p2590
asbag56
(g77
g58
NtRp2591
(dp2592
g61
(dp2593
g88
g89
ssg70
g2582
sg63
(lp2594
S':'
asbag56
(g77
g58
NtRp2595
(dp2596
g61
(dp2597
sg70
g2582
sg63
(lp2598
g56
(g57
g58
NtRp2599
(dp2600
g61
(dp2601
g69
I3
ssg70
g2595
sg63
(lp2602
g1186
asbasbasbag56
(g72
g58
NtRp2603
(dp2604
g61
(dp2605
sg70
g2242
sg63
(lp2606
g56
(g77
g58
NtRp2607
(dp2608
g61
(dp2609
g81
g82
ssg70
g2603
sg63
(lp2610
S'SERVER_PORT'
p2611
asbag56
(g77
g58
NtRp2612
(dp2613
g61
(dp2614
g88
g89
ssg70
g2603
sg63
(lp2615
S':'
asbag56
(g77
g58
NtRp2616
(dp2617
g61
(dp2618
sg70
g2603
sg63
(lp2619
g56
(g57
g58
NtRp2620
(dp2621
g61
(dp2622
g69
I3
ssg70
g2616
sg63
(lp2623
g1208
asbasbasbag56
(g72
g58
NtRp2624
(dp2625
g61
(dp2626
sg70
g2242
sg63
(lp2627
g56
(g77
g58
NtRp2628
(dp2629
g61
(dp2630
g81
g82
ssg70
g2624
sg63
(lp2631
S'SERVER_PROTOCOL'
p2632
asbag56
(g77
g58
NtRp2633
(dp2634
g61
(dp2635
g88
g89
ssg70
g2624
sg63
(lp2636
S':'
asbag56
(g77
g58
NtRp2637
(dp2638
g61
(dp2639
sg70
g2624
sg63
(lp2640
g56
(g57
g58
NtRp2641
(dp2642
g61
(dp2643
g69
I3
ssg70
g2637
sg63
(lp2644
g1230
asbasbasbag56
(g72
g58
NtRp2645
(dp2646
g61
(dp2647
sg70
g2242
sg63
(lp2648
g56
(g77
g58
NtRp2649
(dp2650
g61
(dp2651
g81
g82
ssg70
g2645
sg63
(lp2652
S'SERVER_SOFTWARE'
p2653
asbag56
(g77
g58
NtRp2654
(dp2655
g61
(dp2656
g88
g89
ssg70
g2645
sg63
(lp2657
S':'
asbag56
(g77
g58
NtRp2658
(dp2659
g61
(dp2660
sg70
g2645
sg63
(lp2661
g56
(g57
g58
NtRp2662
(dp2663
g61
(dp2664
g69
I3
ssg70
g2658
sg63
(lp2665
g1252
asbasbasbag56
(g72
g58
NtRp2666
(dp2667
g61
(dp2668
sg70
g2242
sg63
(lp2669
g56
(g77
g58
NtRp2670
(dp2671
g61
(dp2672
g81
g82
ssg70
g2666
sg63
(lp2673
S'WEB2PY_ORIGINAL_URI'
p2674
asbag56
(g77
g58
NtRp2675
(dp2676
g61
(dp2677
g88
g89
ssg70
g2666
sg63
(lp2678
S':'
asbag56
(g77
g58
NtRp2679
(dp2680
g61
(dp2681
sg70
g2666
sg63
(lp2682
g56
(g57
g58
NtRp2683
(dp2684
g61
(dp2685
g69
I3
ssg70
g2679
sg63
(lp2686
g1036
asbasbasbag56
(g72
g58
NtRp2687
(dp2688
g61
(dp2689
sg70
g2242
sg63
(lp2690
g56
(g77
g58
NtRp2691
(dp2692
g61
(dp2693
g81
g82
ssg70
g2687
sg63
(lp2694
S'wsgi.errors'
p2695
asbag56
(g77
g58
NtRp2696
(dp2697
g61
(dp2698
g88
g89
ssg70
g2687
sg63
(lp2699
S':'
asbag56
(g77
g58
NtRp2700
(dp2701
g61
(dp2702
sg70
g2687
sg63
(lp2703
g56
(g57
g58
NtRp2704
(dp2705
g61
(dp2706
g69
I3
ssg70
g2700
sg63
(lp2707
S"<open file '<stderr>', mode 'w' at 0x7f0d1464c1e0>"
p2708
asbasbasbag56
(g72
g58
NtRp2709
(dp2710
g61
(dp2711
sg70
g2242
sg63
(lp2712
g56
(g77
g58
NtRp2713
(dp2714
g61
(dp2715
g81
g82
ssg70
g2709
sg63
(lp2716
S'wsgi.file_wrapper'
p2717
asbag56
(g77
g58
NtRp2718
(dp2719
g61
(dp2720
g88
g89
ssg70
g2709
sg63
(lp2721
S':'
asbag56
(g77
g58
NtRp2722
(dp2723
g61
(dp2724
sg70
g2709
sg63
(lp2725
g56
(g57
g58
NtRp2726
(dp2727
g61
(dp2728
g69
I3
ssg70
g2722
sg63
(lp2729
S'<class wsgiref.util.FileWrapper at 0x24c5110>'
p2730
asbasbasbag56
(g72
g58
NtRp2731
(dp2732
g61
(dp2733
sg70
g2242
sg63
(lp2734
g56
(g77
g58
NtRp2735
(dp2736
g61
(dp2737
g81
g82
ssg70
g2731
sg63
(lp2738
S'wsgi.input'
p2739
asbag56
(g77
g58
NtRp2740
(dp2741
g61
(dp2742
g88
g89
ssg70
g2731
sg63
(lp2743
S':'
asbag56
(g77
g58
NtRp2744
(dp2745
g61
(dp2746
sg70
g2731
sg63
(lp2747
g56
(g57
g58
NtRp2748
(dp2749
g61
(dp2750
g69
I3
ssg70
g2744
sg63
(lp2751
S'<cStringIO.StringO object at 0x308d260>'
p2752
asbasbasbag56
(g72
g58
NtRp2753
(dp2754
g61
(dp2755
sg70
g2242
sg63
(lp2756
g56
(g77
g58
NtRp2757
(dp2758
g61
(dp2759
g81
g82
ssg70
g2753
sg63
(lp2760
S'wsgi.multiprocess'
p2761
asbag56
(g77
g58
NtRp2762
(dp2763
g61
(dp2764
g88
g89
ssg70
g2753
sg63
(lp2765
S':'
asbag56
(g77
g58
NtRp2766
(dp2767
g61
(dp2768
sg70
g2753
sg63
(lp2769
g56
(g57
g58
NtRp2770
(dp2771
g61
(dp2772
g69
I3
ssg70
g2766
sg63
(lp2773
g99
asbasbasbag56
(g72
g58
NtRp2774
(dp2775
g61
(dp2776
sg70
g2242
sg63
(lp2777
g56
(g77
g58
NtRp2778
(dp2779
g61
(dp2780
g81
g82
ssg70
g2774
sg63
(lp2781
S'wsgi.multithread'
p2782
asbag56
(g77
g58
NtRp2783
(dp2784
g61
(dp2785
g88
g89
ssg70
g2774
sg63
(lp2786
S':'
asbag56
(g77
g58
NtRp2787
(dp2788
g61
(dp2789
sg70
g2774
sg63
(lp2790
g56
(g57
g58
NtRp2791
(dp2792
g61
(dp2793
g69
I3
ssg70
g2787
sg63
(lp2794
g1513
asbasbasbag56
(g72
g58
NtRp2795
(dp2796
g61
(dp2797
sg70
g2242
sg63
(lp2798
g56
(g77
g58
NtRp2799
(dp2800
g61
(dp2801
g81
g82
ssg70
g2795
sg63
(lp2802
S'wsgi.run_once'
p2803
asbag56
(g77
g58
NtRp2804
(dp2805
g61
(dp2806
g88
g89
ssg70
g2795
sg63
(lp2807
S':'
asbag56
(g77
g58
NtRp2808
(dp2809
g61
(dp2810
sg70
g2795
sg63
(lp2811
g56
(g57
g58
NtRp2812
(dp2813
g61
(dp2814
g69
I3
ssg70
g2808
sg63
(lp2815
g99
asbasbasbag56
(g72
g58
NtRp2816
(dp2817
g61
(dp2818
sg70
g2242
sg63
(lp2819
g56
(g77
g58
NtRp2820
(dp2821
g61
(dp2822
g81
g82
ssg70
g2816
sg63
(lp2823
S'wsgi.url_scheme'
p2824
asbag56
(g77
g58
NtRp2825
(dp2826
g61
(dp2827
g88
g89
ssg70
g2816
sg63
(lp2828
S':'
asbag56
(g77
g58
NtRp2829
(dp2830
g61
(dp2831
sg70
g2816
sg63
(lp2832
g56
(g57
g58
NtRp2833
(dp2834
g61
(dp2835
g69
I3
ssg70
g2829
sg63
(lp2836
g1556
asbasbasbag56
(g72
g58
NtRp2837
(dp2838
g61
(dp2839
sg70
g2242
sg63
(lp2840
g56
(g77
g58
NtRp2841
(dp2842
g61
(dp2843
g81
g82
ssg70
g2837
sg63
(lp2844
S'wsgi.version'
p2845
asbag56
(g77
g58
NtRp2846
(dp2847
g61
(dp2848
g88
g89
ssg70
g2837
sg63
(lp2849
S':'
asbag56
(g77
g58
NtRp2850
(dp2851
g61
(dp2852
sg70
g2837
sg63
(lp2853
g56
(g57
g58
NtRp2854
(dp2855
g61
(dp2856
g69
I3
ssg70
g2850
sg63
(lp2857
S'1'
asbasbasbasbasbasbasbasbasbasbasbasbasbsS'frames'
p2858
(lp2859
(dp2860
S'file'
p2861
S'/windows/Users/Thomas/Dropbox/appz/2011/GAE/ddl-lagoon/gluon/restricted.py'
p2862
sS'dump'
p2863
(dp2864
S'environment'
p2865
S"{'A': <class 'gluon.html.A'>, 'Auth': <class 'gluon.tools.Auth'>, 'B': <class 'gluon.html.B'>, 'BEAUTIFY': <class 'gluon.html.BEAUTIFY'>, 'BODY': <class 'gluon.html.BODY'>, 'BR': <class 'gluon.html.BR'>, 'BUTTON': <class 'gluon.html.BUTTON'>, 'CAT': <class 'gluon.html.CAT'>, 'CENTER': <class 'gluon.html.CENTER'>, 'CLEANUP': <class 'gluon.validators.CLEANUP'>, ...}"
p2866
sS'ccode'
p2867
S'<code object <module> at 0x2de4be8, file "/windo...ations/ddlagoon/controllers/default.py", line 11>'
p2868
ssS'lnum'
p2869
I194
sS'lines'
p2870
(dp2871
I192
S'        else:'
p2872
sI193
S'            ccode = compile2(code,layer)'
p2873
sI194
S'        exec ccode in environment'
p2874
sI195
S'    except HTTP:'
p2875
sI196
S'        raise'
p2876
sI197
S'    except Exception, error:'
p2877
sI198
S'        # XXX Show exception in Wing IDE if running in debugger'
p2878
sI189
S'    try:'
p2879
sI190
S'        if type(code) == types.CodeType:'
p2880
sI191
S'            ccode = code'
p2881
ssS'call'
p2882
S"(code='# -*- coding: utf-8 -*-\\n# this file is released ...=crud())\\n\\nresponse._vars=response._caller(index)\\n', environment={'A': <class 'gluon.html.A'>, 'Auth': <class 'gluon.tools.Auth'>, 'B': <class 'gluon.html.B'>, 'BEAUTIFY': <class 'gluon.html.BEAUTIFY'>, 'BODY': <class 'gluon.html.BODY'>, 'BR': <class 'gluon.html.BR'>, 'BUTTON': <class 'gluon.html.BUTTON'>, 'CAT': <class 'gluon.html.CAT'>, 'CENTER': <class 'gluon.html.CENTER'>, 'CLEANUP': <class 'gluon.validators.CLEANUP'>, ...}, layer='/windows/Users/Thomas/Dropbox/appz/2011/GAE/ddl-lagoon/applications/ddlagoon/controllers/default.py')"
p2883
sS'func'
p2884
S'restricted'
p2885
sa(dp2886
g2861
S'/windows/Users/Thomas/Dropbox/appz/2011/GAE/ddl-lagoon/applications/ddlagoon/controllers/default.py'
p2887
sg2863
(dp2888
sg2869
I301
sg2870
(dp2889
I290
S'    http://..../[app]/default/data/update/[table]/[id]'
p2890
sI291
S'    http://..../[app]/default/data/delete/[table]/[id]'
p2891
sI292
S'    http://..../[app]/default/data/select/[table]'
p2892
sI293
S'    http://..../[app]/default/data/search/[table]'
p2893
sI294
S'    but URLs bust be signed, i.e. linked with'
p2894
sI295
S"      A('table',_href=URL('data/tables',user_signature=True))"
p2895
sI296
S'    or with the signed load operator'
p2896
sI297
S"      LOAD('default','data.load',args='tables',ajax=True,user_signature=True)"
p2897
sI298
S'    """'
p2898
sI299
S'    return dict(form=crud())'
p2899
ssg2882
S'()'
p2900
sg2884
S'<module>'
p2901
sa(dp2902
g2861
S'/windows/Users/Thomas/Dropbox/appz/2011/GAE/ddl-lagoon/gluon/globals.py'
p2903
sg2863
(dp2904
S'self'
p2905
S'undefined'
p2906
sS'f'
S'<function index>'
p2907
ssg2869
I149
sg2870
(dp2908
I144
S'        self.meta = Storage()      # used by web2py_ajax.html'
p2909
sI145
S'        self.menu = []             # used by the default view layout'
p2910
sI146
S'        self.files = []            # used by web2py_ajax.html'
p2911
sI147
S'        self.generic_patterns = [] # patterns to allow generic views'
p2912
sI148
S'        self._vars = None'
p2913
sI149
S'        self._caller = lambda f: f()'
p2914
sI150
S'        self._view_environment = None'
p2915
sI151
S'        self._custom_commit = None'
p2916
sI152
S'        self._custom_rollback = None'
p2917
sI153
S''
ssg2882
S'(f=<function index>)'
p2918
sg2884
S'<lambda>'
p2919
sa(dp2920
g2861
S'/windows/Users/Thomas/Dropbox/appz/2011/GAE/ddl-lagoon/applications/ddlagoon/controllers/default.py'
p2921
sg2863
(dp2922
S'seconds'
p2923
S'53'
p2924
sS'days'
p2925
S'0'
sS'hours'
p2926
S'2'
sS'global getTimeDelta'
p2927
S'<function getTimeDelta>'
p2928
sS'weeks'
p2929
S'0'
sS'minutes'
p2930
S'5'
sS'row'
p2931
S"<Row {'last_time_downloaded': None, 'version': 1..., 'date_created': None, 'web_description': None}>"
p2932
ssg2869
I69
sg2870
(dp2933
I64
S'    for row in rows:'
p2934
sI65
S"        difference = datetime.now()-row['date_added']"
p2935
sI66
S'        weeks, days = divmod(difference.days, 7)'
p2936
sI67
S'        minutes, seconds = divmod(difference.seconds, 60)'
p2937
sI68
S'        hours, minutes = divmod(minutes, 60)'
p2938
sI69
S"        row['timedelta']= getTimeDelta(weeks, days, hours, minutes, seconds)"
p2939
sI70
S"    return dict(message=T('Hello World'),ddlz=ddlz)"
p2940
sI71
S''
sI72
S'def user():'
p2941
sI73
S'    """'
p2942
ssg2882
S'()'
p2943
sg2884
g1671
sa(dp2944
g2861
S'/windows/Users/Thomas/Dropbox/appz/2011/GAE/ddl-lagoon/applications/ddlagoon/controllers/default.py'
p2945
sg2863
(dp2946
S'hours'
p2947
S'2'
sS'global pluralize'
p2948
S'<function pluralize>'
p2949
ssg2869
I51
sg2870
(dp2950
I46
S'    if weeks>0:'
p2951
sI47
S'        return pluralize(weeks)'
p2952
sI48
S'    elif days>0:'
p2953
sI49
S'        return pluralize(days)'
p2954
sI50
S'    elif hours>0:'
p2955
sI51
S'        return pluralize(hours)'
p2956
sI52
S'    elif minutes>0:'
p2957
sI53
S'        return pluralize(minutes)'
p2958
sI54
S'    elif seconds>0:'
p2959
sI55
S'        return pluralize(seconds)'
p2960
ssg2882
S'(weeks=0, days=0, hours=2, minutes=5, seconds=53)'
p2961
sg2884
S'getTimeDelta'
p2962
sasS'pyver'
p2963
S'Python 2.6.7: /usr/bin/python2.6'
p2964
sS'session'
p2965
g56
(g57
g58
NtRp2966
(dp2967
g61
(dp2968
sg63
(lp2969
g56
(g65
g58
NtRp2970
(dp2971
g61
(dp2972
g69
I5
ssg70
Nsg63
(lp2973
sbasbsS'etype'
p2974
S"<type 'exceptions.TypeError'>"
p2975
sS'date'
p2976
S'Thu Oct 27 09:14:37 2011'
p2977
sS'response'
p2978
g56
(g57
g58
NtRp2979
(dp2980
g61
(dp2981
sg63
(lp2982
g56
(g65
g58
NtRp2983
(dp2984
g61
(dp2985
g69
I5
ssg70
Nsg63
(lp2986
g56
(g72
g58
NtRp2987
(dp2988
g61
(dp2989
sg70
g2983
sg63
(lp2990
g56
(g77
g58
NtRp2991
(dp2992
g61
(dp2993
g81
g82
ssg70
g2987
sg63
(lp2994
g154
asbag56
(g77
g58
NtRp2995
(dp2996
g61
(dp2997
g88
g89
ssg70
g2987
sg63
(lp2998
S':'
asbag56
(g77
g58
NtRp2999
(dp3000
g61
(dp3001
sg70
g2987
sg63
(lp3002
g56
(g57
g58
NtRp3003
(dp3004
g61
(dp3005
g69
I5
ssg70
g2999
sg63
(lp3006
S'<cStringIO.StringO object at 0x308d378>'
p3007
asbasbasbag56
(g72
g58
NtRp3008
(dp3009
g61
(dp3010
sg70
g2983
sg63
(lp3011
g56
(g77
g58
NtRp3012
(dp3013
g61
(dp3014
g81
g82
ssg70
g3008
sg63
(lp3015
g220
asbag56
(g77
g58
NtRp3016
(dp3017
g61
(dp3018
g88
g89
ssg70
g3008
sg63
(lp3019
S':'
asbag56
(g77
g58
NtRp3020
(dp3021
g61
(dp3022
sg70
g3008
sg63
(lp3023
g56
(g57
g58
NtRp3024
(dp3025
g61
(dp3026
g69
I5
ssg70
g3020
sg63
(lp3027
g56
(g65
g58
NtRp3028
(dp3029
g61
(dp3030
g69
I4
ssg70
Nsg63
(lp3031
g56
(g72
g58
NtRp3032
(dp3033
g61
(dp3034
sg70
g3028
sg63
(lp3035
g56
(g77
g58
NtRp3036
(dp3037
g61
(dp3038
g81
g82
ssg70
g3032
sg63
(lp3039
S'session_id_ddlagoon'
p3040
asbag56
(g77
g58
NtRp3041
(dp3042
g61
(dp3043
g88
g89
ssg70
g3032
sg63
(lp3044
S':'
asbag56
(g77
g58
NtRp3045
(dp3046
g61
(dp3047
sg70
g3032
sg63
(lp3048
g56
(g57
g58
NtRp3049
(dp3050
g61
(dp3051
g69
I4
ssg70
g3045
sg63
(lp3052
g56
(g65
g58
NtRp3053
(dp3054
g61
(dp3055
g69
I3
ssg70
Nsg63
(lp3056
g56
(g72
g58
NtRp3057
(dp3058
g61
(dp3059
sg70
g3053
sg63
(lp3060
g56
(g77
g58
NtRp3061
(dp3062
g61
(dp3063
g81
g82
ssg70
g3057
sg63
(lp3064
g270
asbag56
(g77
g58
NtRp3065
(dp3066
g61
(dp3067
g88
g89
ssg70
g3057
sg63
(lp3068
S':'
asbag56
(g77
g58
NtRp3069
(dp3070
g61
(dp3071
sg70
g3057
sg63
(lp3072
g56
(g57
g58
NtRp3073
(dp3074
g61
(dp3075
g69
I3
ssg70
g3069
sg63
(lp3076
S''
asbasbasbag56
(g72
g58
NtRp3077
(dp3078
g61
(dp3079
sg70
g3053
sg63
(lp3080
g56
(g77
g58
NtRp3081
(dp3082
g61
(dp3083
g81
g82
ssg70
g3077
sg63
(lp3084
g291
asbag56
(g77
g58
NtRp3085
(dp3086
g61
(dp3087
g88
g89
ssg70
g3077
sg63
(lp3088
S':'
asbag56
(g77
g58
NtRp3089
(dp3090
g61
(dp3091
sg70
g3077
sg63
(lp3092
g56
(g57
g58
NtRp3093
(dp3094
g61
(dp3095
g69
I3
ssg70
g3089
sg63
(lp3096
S''
asbasbasbag56
(g72
g58
NtRp3097
(dp3098
g61
(dp3099
sg70
g3053
sg63
(lp3100
g56
(g77
g58
NtRp3101
(dp3102
g61
(dp3103
g81
g82
ssg70
g3097
sg63
(lp3104
g312
asbag56
(g77
g58
NtRp3105
(dp3106
g61
(dp3107
g88
g89
ssg70
g3097
sg63
(lp3108
S':'
asbag56
(g77
g58
NtRp3109
(dp3110
g61
(dp3111
sg70
g3097
sg63
(lp3112
g56
(g57
g58
NtRp3113
(dp3114
g61
(dp3115
g69
I3
ssg70
g3109
sg63
(lp3116
S''
asbasbasbag56
(g72
g58
NtRp3117
(dp3118
g61
(dp3119
sg70
g3053
sg63
(lp3120
g56
(g77
g58
NtRp3121
(dp3122
g61
(dp3123
g81
g82
ssg70
g3117
sg63
(lp3124
g333
asbag56
(g77
g58
NtRp3125
(dp3126
g61
(dp3127
g88
g89
ssg70
g3117
sg63
(lp3128
S':'
asbag56
(g77
g58
NtRp3129
(dp3130
g61
(dp3131
sg70
g3117
sg63
(lp3132
g56
(g57
g58
NtRp3133
(dp3134
g61
(dp3135
g69
I3
ssg70
g3129
sg63
(lp3136
S''
asbasbasbag56
(g72
g58
NtRp3137
(dp3138
g61
(dp3139
sg70
g3053
sg63
(lp3140
g56
(g77
g58
NtRp3141
(dp3142
g61
(dp3143
g81
g82
ssg70
g3137
sg63
(lp3144
g354
asbag56
(g77
g58
NtRp3145
(dp3146
g61
(dp3147
g88
g89
ssg70
g3137
sg63
(lp3148
S':'
asbag56
(g77
g58
NtRp3149
(dp3150
g61
(dp3151
sg70
g3137
sg63
(lp3152
g56
(g57
g58
NtRp3153
(dp3154
g61
(dp3155
g69
I3
ssg70
g3149
sg63
(lp3156
S''
asbasbasbag56
(g72
g58
NtRp3157
(dp3158
g61
(dp3159
sg70
g3053
sg63
(lp3160
g56
(g77
g58
NtRp3161
(dp3162
g61
(dp3163
g81
g82
ssg70
g3157
sg63
(lp3164
g375
asbag56
(g77
g58
NtRp3165
(dp3166
g61
(dp3167
g88
g89
ssg70
g3157
sg63
(lp3168
S':'
asbag56
(g77
g58
NtRp3169
(dp3170
g61
(dp3171
sg70
g3157
sg63
(lp3172
g56
(g57
g58
NtRp3173
(dp3174
g61
(dp3175
g69
I3
ssg70
g3169
sg63
(lp3176
S'/'
asbasbasbag56
(g72
g58
NtRp3177
(dp3178
g61
(dp3179
sg70
g3053
sg63
(lp3180
g56
(g77
g58
NtRp3181
(dp3182
g61
(dp3183
g81
g82
ssg70
g3177
sg63
(lp3184
g396
asbag56
(g77
g58
NtRp3185
(dp3186
g61
(dp3187
g88
g89
ssg70
g3177
sg63
(lp3188
S':'
asbag56
(g77
g58
NtRp3189
(dp3190
g61
(dp3191
sg70
g3177
sg63
(lp3192
g56
(g57
g58
NtRp3193
(dp3194
g61
(dp3195
g69
I3
ssg70
g3189
sg63
(lp3196
S''
asbasbasbag56
(g72
g58
NtRp3197
(dp3198
g61
(dp3199
sg70
g3053
sg63
(lp3200
g56
(g77
g58
NtRp3201
(dp3202
g61
(dp3203
g81
g82
ssg70
g3197
sg63
(lp3204
g417
asbag56
(g77
g58
NtRp3205
(dp3206
g61
(dp3207
g88
g89
ssg70
g3197
sg63
(lp3208
S':'
asbag56
(g77
g58
NtRp3209
(dp3210
g61
(dp3211
sg70
g3197
sg63
(lp3212
g56
(g57
g58
NtRp3213
(dp3214
g61
(dp3215
g69
I3
ssg70
g3209
sg63
(lp3216
S''
asbasbasbasbasbasbasbasbasbasbasbag56
(g72
g58
NtRp3217
(dp3218
g61
(dp3219
sg70
g2983
sg63
(lp3220
g56
(g77
g58
NtRp3221
(dp3222
g61
(dp3223
g81
g82
ssg70
g3217
sg63
(lp3224
S'files'
p3225
asbag56
(g77
g58
NtRp3226
(dp3227
g61
(dp3228
g88
g89
ssg70
g3217
sg63
(lp3229
S':'
asbag56
(g77
g58
NtRp3230
(dp3231
g61
(dp3232
sg70
g3217
sg63
(lp3233
g56
(g57
g58
NtRp3234
(dp3235
g61
(dp3236
g69
I5
ssg70
g3230
sg63
(lp3237
g56
(g65
g58
NtRp3238
(dp3239
g61
(dp3240
g69
I4
ssg70
Nsg63
(lp3241
sbasbasbasbag56
(g72
g58
NtRp3242
(dp3243
g61
(dp3244
sg70
g2983
sg63
(lp3245
g56
(g77
g58
NtRp3246
(dp3247
g61
(dp3248
g81
g82
ssg70
g3242
sg63
(lp3249
S'flash'
p3250
asbag56
(g77
g58
NtRp3251
(dp3252
g61
(dp3253
g88
g89
ssg70
g3242
sg63
(lp3254
S':'
asbag56
(g77
g58
NtRp3255
(dp3256
g61
(dp3257
sg70
g3242
sg63
(lp3258
g56
(g57
g58
NtRp3259
(dp3260
g61
(dp3261
g69
I5
ssg70
g3255
sg63
(lp3262
S''
asbasbasbag56
(g72
g58
NtRp3263
(dp3264
g61
(dp3265
sg70
g2983
sg63
(lp3266
g56
(g77
g58
NtRp3267
(dp3268
g61
(dp3269
g81
g82
ssg70
g3263
sg63
(lp3270
S'generic_patterns'
p3271
asbag56
(g77
g58
NtRp3272
(dp3273
g61
(dp3274
g88
g89
ssg70
g3263
sg63
(lp3275
S':'
asbag56
(g77
g58
NtRp3276
(dp3277
g61
(dp3278
sg70
g3263
sg63
(lp3279
g56
(g57
g58
NtRp3280
(dp3281
g61
(dp3282
g69
I5
ssg70
g3276
sg63
(lp3283
g56
(g65
g58
NtRp3284
(dp3285
g61
(dp3286
g69
I4
ssg70
Nsg63
(lp3287
g56
(g72
g58
NtRp3288
(dp3289
g61
(dp3290
sg70
g3284
sg63
(lp3291
g56
(g77
g58
NtRp3292
(dp3293
g61
(dp3294
sg70
g3288
sg63
(lp3295
g56
(g57
g58
NtRp3296
(dp3297
g61
(dp3298
g69
I4
ssg70
g3292
sg63
(lp3299
S'*'
asbasbasbasbasbasbasbag56
(g72
g58
NtRp3300
(dp3301
g61
(dp3302
sg70
g2983
sg63
(lp3303
g56
(g77
g58
NtRp3304
(dp3305
g61
(dp3306
g81
g82
ssg70
g3300
sg63
(lp3307
S'headers'
p3308
asbag56
(g77
g58
NtRp3309
(dp3310
g61
(dp3311
g88
g89
ssg70
g3300
sg63
(lp3312
S':'
asbag56
(g77
g58
NtRp3313
(dp3314
g61
(dp3315
sg70
g3300
sg63
(lp3316
g56
(g57
g58
NtRp3317
(dp3318
g61
(dp3319
g69
I5
ssg70
g3313
sg63
(lp3320
g56
(g65
g58
NtRp3321
(dp3322
g61
(dp3323
g69
I4
ssg70
Nsg63
(lp3324
g56
(g72
g58
NtRp3325
(dp3326
g61
(dp3327
sg70
g3321
sg63
(lp3328
g56
(g77
g58
NtRp3329
(dp3330
g61
(dp3331
g81
g82
ssg70
g3325
sg63
(lp3332
S'Cache-Control'
p3333
asbag56
(g77
g58
NtRp3334
(dp3335
g61
(dp3336
g88
g89
ssg70
g3325
sg63
(lp3337
S':'
asbag56
(g77
g58
NtRp3338
(dp3339
g61
(dp3340
sg70
g3325
sg63
(lp3341
g56
(g57
g58
NtRp3342
(dp3343
g61
(dp3344
g69
I4
ssg70
g3338
sg63
(lp3345
S'no-store, no-cache, must-revalidate, post-check=0, pre-check=0'
p3346
asbasbasbag56
(g72
g58
NtRp3347
(dp3348
g61
(dp3349
sg70
g3321
sg63
(lp3350
g56
(g77
g58
NtRp3351
(dp3352
g61
(dp3353
g81
g82
ssg70
g3347
sg63
(lp3354
S'Content-Type'
p3355
asbag56
(g77
g58
NtRp3356
(dp3357
g61
(dp3358
g88
g89
ssg70
g3347
sg63
(lp3359
S':'
asbag56
(g77
g58
NtRp3360
(dp3361
g61
(dp3362
sg70
g3347
sg63
(lp3363
g56
(g57
g58
NtRp3364
(dp3365
g61
(dp3366
g69
I4
ssg70
g3360
sg63
(lp3367
S'text/html; charset=utf-8'
p3368
asbasbasbag56
(g72
g58
NtRp3369
(dp3370
g61
(dp3371
sg70
g3321
sg63
(lp3372
g56
(g77
g58
NtRp3373
(dp3374
g61
(dp3375
g81
g82
ssg70
g3369
sg63
(lp3376
S'Expires'
p3377
asbag56
(g77
g58
NtRp3378
(dp3379
g61
(dp3380
g88
g89
ssg70
g3369
sg63
(lp3381
S':'
asbag56
(g77
g58
NtRp3382
(dp3383
g61
(dp3384
sg70
g3369
sg63
(lp3385
g56
(g57
g58
NtRp3386
(dp3387
g61
(dp3388
g69
I4
ssg70
g3382
sg63
(lp3389
S'Thu, 27 Oct 2011 08:14:37 GMT'
p3390
asbasbasbag56
(g72
g58
NtRp3391
(dp3392
g61
(dp3393
sg70
g3321
sg63
(lp3394
g56
(g77
g58
NtRp3395
(dp3396
g61
(dp3397
g81
g82
ssg70
g3391
sg63
(lp3398
S'Pragma'
p3399
asbag56
(g77
g58
NtRp3400
(dp3401
g61
(dp3402
g88
g89
ssg70
g3391
sg63
(lp3403
S':'
asbag56
(g77
g58
NtRp3404
(dp3405
g61
(dp3406
sg70
g3391
sg63
(lp3407
g56
(g57
g58
NtRp3408
(dp3409
g61
(dp3410
g69
I4
ssg70
g3404
sg63
(lp3411
S'no-cache'
p3412
asbasbasbag56
(g72
g58
NtRp3413
(dp3414
g61
(dp3415
sg70
g3321
sg63
(lp3416
g56
(g77
g58
NtRp3417
(dp3418
g61
(dp3419
g81
g82
ssg70
g3413
sg63
(lp3420
S'X-Powered-By'
p3421
asbag56
(g77
g58
NtRp3422
(dp3423
g61
(dp3424
g88
g89
ssg70
g3413
sg63
(lp3425
S':'
asbag56
(g77
g58
NtRp3426
(dp3427
g61
(dp3428
sg70
g3413
sg63
(lp3429
g56
(g57
g58
NtRp3430
(dp3431
g61
(dp3432
g69
I4
ssg70
g3426
sg63
(lp3433
S'web2py'
p3434
asbasbasbasbasbasbasbag56
(g72
g58
NtRp3435
(dp3436
g61
(dp3437
sg70
g2983
sg63
(lp3438
g56
(g77
g58
NtRp3439
(dp3440
g61
(dp3441
g81
g82
ssg70
g3435
sg63
(lp3442
S'menu'
p3443
asbag56
(g77
g58
NtRp3444
(dp3445
g61
(dp3446
g88
g89
ssg70
g3435
sg63
(lp3447
S':'
asbag56
(g77
g58
NtRp3448
(dp3449
g61
(dp3450
sg70
g3435
sg63
(lp3451
g56
(g57
g58
NtRp3452
(dp3453
g61
(dp3454
g69
I5
ssg70
g3448
sg63
(lp3455
g56
(g65
g58
NtRp3456
(dp3457
g61
(dp3458
g69
I4
ssg70
Nsg63
(lp3459
g56
(g72
g58
NtRp3460
(dp3461
g61
(dp3462
sg70
g3456
sg63
(lp3463
g56
(g77
g58
NtRp3464
(dp3465
g61
(dp3466
sg70
g3460
sg63
(lp3467
g56
(g57
g58
NtRp3468
(dp3469
g61
(dp3470
g69
I4
ssg70
g3464
sg63
(lp3471
g56
(g65
g58
NtRp3472
(dp3473
g61
(dp3474
g69
I3
ssg70
Nsg63
(lp3475
g56
(g72
g58
NtRp3476
(dp3477
g61
(dp3478
sg70
g3472
sg63
(lp3479
g56
(g77
g58
NtRp3480
(dp3481
g61
(dp3482
sg70
g3476
sg63
(lp3483
g56
(g57
g58
NtRp3484
(dp3485
g61
(dp3486
g69
I3
ssg70
g3480
sg63
(lp3487
cgluon.languages
lazyT_unpickle
p3488
(S's\x04\x00\x00\x00Home'
tRp3489
asbasbasbag56
(g72
g58
NtRp3490
(dp3491
g61
(dp3492
sg70
g3472
sg63
(lp3493
g56
(g77
g58
NtRp3494
(dp3495
g61
(dp3496
sg70
g3490
sg63
(lp3497
g56
(g57
g58
NtRp3498
(dp3499
g61
(dp3500
g69
I3
ssg70
g3494
sg63
(lp3501
g99
asbasbasbag56
(g72
g58
NtRp3502
(dp3503
g61
(dp3504
sg70
g3472
sg63
(lp3505
g56
(g77
g58
NtRp3506
(dp3507
g61
(dp3508
sg70
g3502
sg63
(lp3509
g56
(g57
g58
NtRp3510
(dp3511
g61
(dp3512
g69
I3
ssg70
g3506
sg63
(lp3513
S'/ddlagoon/default/index'
p3514
asbasbasbag56
(g72
g58
NtRp3515
(dp3516
g61
(dp3517
sg70
g3472
sg63
(lp3518
g56
(g77
g58
NtRp3519
(dp3520
g61
(dp3521
sg70
g3515
sg63
(lp3522
g56
(g57
g58
NtRp3523
(dp3524
g61
(dp3525
g69
I3
ssg70
g3519
sg63
(lp3526
g56
(g65
g58
NtRp3527
(dp3528
g61
(dp3529
g69
I2
ssg70
Nsg63
(lp3530
sbasbasbasbasbasbasbasbag56
(g72
g58
NtRp3531
(dp3532
g61
(dp3533
sg70
g3456
sg63
(lp3534
g56
(g77
g58
NtRp3535
(dp3536
g61
(dp3537
sg70
g3531
sg63
(lp3538
g56
(g57
g58
NtRp3539
(dp3540
g61
(dp3541
g69
I4
ssg70
g3535
sg63
(lp3542
g56
(g65
g58
NtRp3543
(dp3544
g61
(dp3545
g69
I3
ssg70
Nsg63
(lp3546
g56
(g72
g58
NtRp3547
(dp3548
g61
(dp3549
sg70
g3543
sg63
(lp3550
g56
(g77
g58
NtRp3551
(dp3552
g61
(dp3553
sg70
g3547
sg63
(lp3554
g56
(g57
g58
NtRp3555
(dp3556
g61
(dp3557
g69
I3
ssg70
g3551
sg63
(lp3558
g3488
(S's\x08\x00\x00\x00This App'
tRp3559
asbasbasbag56
(g72
g58
NtRp3560
(dp3561
g61
(dp3562
sg70
g3543
sg63
(lp3563
g56
(g77
g58
NtRp3564
(dp3565
g61
(dp3566
sg70
g3560
sg63
(lp3567
g56
(g57
g58
NtRp3568
(dp3569
g61
(dp3570
g69
I3
ssg70
g3564
sg63
(lp3571
g99
asbasbasbag56
(g72
g58
NtRp3572
(dp3573
g61
(dp3574
sg70
g3543
sg63
(lp3575
g56
(g77
g58
NtRp3576
(dp3577
g61
(dp3578
sg70
g3572
sg63
(lp3579
g56
(g57
g58
NtRp3580
(dp3581
g61
(dp3582
g69
I3
ssg70
g3576
sg63
(lp3583
S'/admin/default/design/ddlagoon'
p3584
asbasbasbag56
(g72
g58
NtRp3585
(dp3586
g61
(dp3587
sg70
g3543
sg63
(lp3588
g56
(g77
g58
NtRp3589
(dp3590
g61
(dp3591
sg70
g3585
sg63
(lp3592
g56
(g57
g58
NtRp3593
(dp3594
g61
(dp3595
g69
I3
ssg70
g3589
sg63
(lp3596
g56
(g65
g58
NtRp3597
(dp3598
g61
(dp3599
g69
I2
ssg70
Nsg63
(lp3600
g56
(g72
g58
NtRp3601
(dp3602
g61
(dp3603
sg70
g3597
sg63
(lp3604
g56
(g77
g58
NtRp3605
(dp3606
g61
(dp3607
sg70
g3601
sg63
(lp3608
g56
(g57
g58
NtRp3609
(dp3610
g61
(dp3611
g69
I2
ssg70
g3605
sg63
(lp3612
g56
(g65
g58
NtRp3613
(dp3614
g61
(dp3615
g69
I1
ssg70
Nsg63
(lp3616
g56
(g72
g58
NtRp3617
(dp3618
g61
(dp3619
sg70
g3613
sg63
(lp3620
g56
(g77
g58
NtRp3621
(dp3622
g61
(dp3623
sg70
g3617
sg63
(lp3624
g56
(g57
g58
NtRp3625
(dp3626
g61
(dp3627
g69
I1
ssg70
g3621
sg63
(lp3628
g3488
(S's\n\x00\x00\x00Controller'
tRp3629
asbasbasbag56
(g72
g58
NtRp3630
(dp3631
g61
(dp3632
sg70
g3613
sg63
(lp3633
g56
(g77
g58
NtRp3634
(dp3635
g61
(dp3636
sg70
g3630
sg63
(lp3637
g56
(g57
g58
NtRp3638
(dp3639
g61
(dp3640
g69
I1
ssg70
g3634
sg63
(lp3641
I00
asbasbasbag56
(g72
g58
NtRp3642
(dp3643
g61
(dp3644
sg70
g3613
sg63
(lp3645
g56
(g77
g58
NtRp3646
(dp3647
g61
(dp3648
sg70
g3642
sg63
(lp3649
g56
(g57
g58
NtRp3650
(dp3651
g61
(dp3652
g69
I1
ssg70
g3646
sg63
(lp3653
S'/admin/default/edit/ddlagoon/controllers/default.py'
p3654
asbasbasbasbasbasbasbag56
(g72
g58
NtRp3655
(dp3656
g61
(dp3657
sg70
g3597
sg63
(lp3658
g56
(g77
g58
NtRp3659
(dp3660
g61
(dp3661
sg70
g3655
sg63
(lp3662
g56
(g57
g58
NtRp3663
(dp3664
g61
(dp3665
g69
I2
ssg70
g3659
sg63
(lp3666
g56
(g65
g58
NtRp3667
(dp3668
g61
(dp3669
g69
I1
ssg70
Nsg63
(lp3670
g56
(g72
g58
NtRp3671
(dp3672
g61
(dp3673
sg70
g3667
sg63
(lp3674
g56
(g77
g58
NtRp3675
(dp3676
g61
(dp3677
sg70
g3671
sg63
(lp3678
g56
(g57
g58
NtRp3679
(dp3680
g61
(dp3681
g69
I1
ssg70
g3675
sg63
(lp3682
g3488
(S's\x04\x00\x00\x00View'
tRp3683
asbasbasbag56
(g72
g58
NtRp3684
(dp3685
g61
(dp3686
sg70
g3667
sg63
(lp3687
g56
(g77
g58
NtRp3688
(dp3689
g61
(dp3690
sg70
g3684
sg63
(lp3691
g56
(g57
g58
NtRp3692
(dp3693
g61
(dp3694
g69
I1
ssg70
g3688
sg63
(lp3695
I00
asbasbasbag56
(g72
g58
NtRp3696
(dp3697
g61
(dp3698
sg70
g3667
sg63
(lp3699
g56
(g77
g58
NtRp3700
(dp3701
g61
(dp3702
sg70
g3696
sg63
(lp3703
g56
(g57
g58
NtRp3704
(dp3705
g61
(dp3706
g69
I1
ssg70
g3700
sg63
(lp3707
S'/admin/default/edit/ddlagoon/views/default/index.html'
p3708
asbasbasbasbasbasbasbag56
(g72
g58
NtRp3709
(dp3710
g61
(dp3711
sg70
g3597
sg63
(lp3712
g56
(g77
g58
NtRp3713
(dp3714
g61
(dp3715
sg70
g3709
sg63
(lp3716
g56
(g57
g58
NtRp3717
(dp3718
g61
(dp3719
g69
I2
ssg70
g3713
sg63
(lp3720
g56
(g65
g58
NtRp3721
(dp3722
g61
(dp3723
g69
I1
ssg70
Nsg63
(lp3724
g56
(g72
g58
NtRp3725
(dp3726
g61
(dp3727
sg70
g3721
sg63
(lp3728
g56
(g77
g58
NtRp3729
(dp3730
g61
(dp3731
sg70
g3725
sg63
(lp3732
g56
(g57
g58
NtRp3733
(dp3734
g61
(dp3735
g69
I1
ssg70
g3729
sg63
(lp3736
g3488
(S's\x06\x00\x00\x00Layout'
tRp3737
asbasbasbag56
(g72
g58
NtRp3738
(dp3739
g61
(dp3740
sg70
g3721
sg63
(lp3741
g56
(g77
g58
NtRp3742
(dp3743
g61
(dp3744
sg70
g3738
sg63
(lp3745
g56
(g57
g58
NtRp3746
(dp3747
g61
(dp3748
g69
I1
ssg70
g3742
sg63
(lp3749
I00
asbasbasbag56
(g72
g58
NtRp3750
(dp3751
g61
(dp3752
sg70
g3721
sg63
(lp3753
g56
(g77
g58
NtRp3754
(dp3755
g61
(dp3756
sg70
g3750
sg63
(lp3757
g56
(g57
g58
NtRp3758
(dp3759
g61
(dp3760
g69
I1
ssg70
g3754
sg63
(lp3761
S'/admin/default/edit/ddlagoon/views/layout.html'
p3762
asbasbasbasbasbasbasbag56
(g72
g58
NtRp3763
(dp3764
g61
(dp3765
sg70
g3597
sg63
(lp3766
g56
(g77
g58
NtRp3767
(dp3768
g61
(dp3769
sg70
g3763
sg63
(lp3770
g56
(g57
g58
NtRp3771
(dp3772
g61
(dp3773
g69
I2
ssg70
g3767
sg63
(lp3774
g56
(g65
g58
NtRp3775
(dp3776
g61
(dp3777
g69
I1
ssg70
Nsg63
(lp3778
g56
(g72
g58
NtRp3779
(dp3780
g61
(dp3781
sg70
g3775
sg63
(lp3782
g56
(g77
g58
NtRp3783
(dp3784
g61
(dp3785
sg70
g3779
sg63
(lp3786
g56
(g57
g58
NtRp3787
(dp3788
g61
(dp3789
g69
I1
ssg70
g3783
sg63
(lp3790
g3488
(S's\n\x00\x00\x00Stylesheet'
tRp3791
asbasbasbag56
(g72
g58
NtRp3792
(dp3793
g61
(dp3794
sg70
g3775
sg63
(lp3795
g56
(g77
g58
NtRp3796
(dp3797
g61
(dp3798
sg70
g3792
sg63
(lp3799
g56
(g57
g58
NtRp3800
(dp3801
g61
(dp3802
g69
I1
ssg70
g3796
sg63
(lp3803
I00
asbasbasbag56
(g72
g58
NtRp3804
(dp3805
g61
(dp3806
sg70
g3775
sg63
(lp3807
g56
(g77
g58
NtRp3808
(dp3809
g61
(dp3810
sg70
g3804
sg63
(lp3811
g56
(g57
g58
NtRp3812
(dp3813
g61
(dp3814
g69
I1
ssg70
g3808
sg63
(lp3815
S'/admin/default/edit/ddlagoon/static/base.css'
p3816
asbasbasbasbasbasbasbag56
(g72
g58
NtRp3817
(dp3818
g61
(dp3819
sg70
g3597
sg63
(lp3820
g56
(g77
g58
NtRp3821
(dp3822
g61
(dp3823
sg70
g3817
sg63
(lp3824
g56
(g57
g58
NtRp3825
(dp3826
g61
(dp3827
g69
I2
ssg70
g3821
sg63
(lp3828
g56
(g65
g58
NtRp3829
(dp3830
g61
(dp3831
g69
I1
ssg70
Nsg63
(lp3832
g56
(g72
g58
NtRp3833
(dp3834
g61
(dp3835
sg70
g3829
sg63
(lp3836
g56
(g77
g58
NtRp3837
(dp3838
g61
(dp3839
sg70
g3833
sg63
(lp3840
g56
(g57
g58
NtRp3841
(dp3842
g61
(dp3843
g69
I1
ssg70
g3837
sg63
(lp3844
g3488
(S's\x08\x00\x00\x00DB Model'
tRp3845
asbasbasbag56
(g72
g58
NtRp3846
(dp3847
g61
(dp3848
sg70
g3829
sg63
(lp3849
g56
(g77
g58
NtRp3850
(dp3851
g61
(dp3852
sg70
g3846
sg63
(lp3853
g56
(g57
g58
NtRp3854
(dp3855
g61
(dp3856
g69
I1
ssg70
g3850
sg63
(lp3857
I00
asbasbasbag56
(g72
g58
NtRp3858
(dp3859
g61
(dp3860
sg70
g3829
sg63
(lp3861
g56
(g77
g58
NtRp3862
(dp3863
g61
(dp3864
sg70
g3858
sg63
(lp3865
g56
(g57
g58
NtRp3866
(dp3867
g61
(dp3868
g69
I1
ssg70
g3862
sg63
(lp3869
S'/admin/default/edit/ddlagoon/models/db.py'
p3870
asbasbasbasbasbasbasbag56
(g72
g58
NtRp3871
(dp3872
g61
(dp3873
sg70
g3597
sg63
(lp3874
g56
(g77
g58
NtRp3875
(dp3876
g61
(dp3877
sg70
g3871
sg63
(lp3878
g56
(g57
g58
NtRp3879
(dp3880
g61
(dp3881
g69
I2
ssg70
g3875
sg63
(lp3882
g56
(g65
g58
NtRp3883
(dp3884
g61
(dp3885
g69
I1
ssg70
Nsg63
(lp3886
g56
(g72
g58
NtRp3887
(dp3888
g61
(dp3889
sg70
g3883
sg63
(lp3890
g56
(g77
g58
NtRp3891
(dp3892
g61
(dp3893
sg70
g3887
sg63
(lp3894
g56
(g57
g58
NtRp3895
(dp3896
g61
(dp3897
g69
I1
ssg70
g3891
sg63
(lp3898
g3488
(S's\n\x00\x00\x00Menu Model'
tRp3899
asbasbasbag56
(g72
g58
NtRp3900
(dp3901
g61
(dp3902
sg70
g3883
sg63
(lp3903
g56
(g77
g58
NtRp3904
(dp3905
g61
(dp3906
sg70
g3900
sg63
(lp3907
g56
(g57
g58
NtRp3908
(dp3909
g61
(dp3910
g69
I1
ssg70
g3904
sg63
(lp3911
I00
asbasbasbag56
(g72
g58
NtRp3912
(dp3913
g61
(dp3914
sg70
g3883
sg63
(lp3915
g56
(g77
g58
NtRp3916
(dp3917
g61
(dp3918
sg70
g3912
sg63
(lp3919
g56
(g57
g58
NtRp3920
(dp3921
g61
(dp3922
g69
I1
ssg70
g3916
sg63
(lp3923
S'/admin/default/edit/ddlagoon/models/menu.py'
p3924
asbasbasbasbasbasbasbag56
(g72
g58
NtRp3925
(dp3926
g61
(dp3927
sg70
g3597
sg63
(lp3928
g56
(g77
g58
NtRp3929
(dp3930
g61
(dp3931
sg70
g3925
sg63
(lp3932
g56
(g57
g58
NtRp3933
(dp3934
g61
(dp3935
g69
I2
ssg70
g3929
sg63
(lp3936
g56
(g65
g58
NtRp3937
(dp3938
g61
(dp3939
g69
I1
ssg70
Nsg63
(lp3940
g56
(g72
g58
NtRp3941
(dp3942
g61
(dp3943
sg70
g3937
sg63
(lp3944
g56
(g77
g58
NtRp3945
(dp3946
g61
(dp3947
sg70
g3941
sg63
(lp3948
g56
(g57
g58
NtRp3949
(dp3950
g61
(dp3951
g69
I1
ssg70
g3945
sg63
(lp3952
g3488
(S's\x08\x00\x00\x00Database'
tRp3953
asbasbasbag56
(g72
g58
NtRp3954
(dp3955
g61
(dp3956
sg70
g3937
sg63
(lp3957
g56
(g77
g58
NtRp3958
(dp3959
g61
(dp3960
sg70
g3954
sg63
(lp3961
g56
(g57
g58
NtRp3962
(dp3963
g61
(dp3964
g69
I1
ssg70
g3958
sg63
(lp3965
I00
asbasbasbag56
(g72
g58
NtRp3966
(dp3967
g61
(dp3968
sg70
g3937
sg63
(lp3969
g56
(g77
g58
NtRp3970
(dp3971
g61
(dp3972
sg70
g3966
sg63
(lp3973
g56
(g57
g58
NtRp3974
(dp3975
g61
(dp3976
g69
I1
ssg70
g3970
sg63
(lp3977
S'/ddlagoon/appadmin/index'
p3978
asbasbasbasbasbasbasbag56
(g72
g58
NtRp3979
(dp3980
g61
(dp3981
sg70
g3597
sg63
(lp3982
g56
(g77
g58
NtRp3983
(dp3984
g61
(dp3985
sg70
g3979
sg63
(lp3986
g56
(g57
g58
NtRp3987
(dp3988
g61
(dp3989
g69
I2
ssg70
g3983
sg63
(lp3990
g56
(g65
g58
NtRp3991
(dp3992
g61
(dp3993
g69
I1
ssg70
Nsg63
(lp3994
g56
(g72
g58
NtRp3995
(dp3996
g61
(dp3997
sg70
g3991
sg63
(lp3998
g56
(g77
g58
NtRp3999
(dp4000
g61
(dp4001
sg70
g3995
sg63
(lp4002
g56
(g57
g58
NtRp4003
(dp4004
g61
(dp4005
g69
I1
ssg70
g3999
sg63
(lp4006
g3488
(S's\x06\x00\x00\x00Errors'
tRp4007
asbasbasbag56
(g72
g58
NtRp4008
(dp4009
g61
(dp4010
sg70
g3991
sg63
(lp4011
g56
(g77
g58
NtRp4012
(dp4013
g61
(dp4014
sg70
g4008
sg63
(lp4015
g56
(g57
g58
NtRp4016
(dp4017
g61
(dp4018
g69
I1
ssg70
g4012
sg63
(lp4019
I00
asbasbasbag56
(g72
g58
NtRp4020
(dp4021
g61
(dp4022
sg70
g3991
sg63
(lp4023
g56
(g77
g58
NtRp4024
(dp4025
g61
(dp4026
sg70
g4020
sg63
(lp4027
g56
(g57
g58
NtRp4028
(dp4029
g61
(dp4030
g69
I1
ssg70
g4024
sg63
(lp4031
S'/admin/default/errors/ddlagoon'
p4032
asbasbasbasbasbasbasbag56
(g72
g58
NtRp4033
(dp4034
g61
(dp4035
sg70
g3597
sg63
(lp4036
g56
(g77
g58
NtRp4037
(dp4038
g61
(dp4039
sg70
g4033
sg63
(lp4040
g56
(g57
g58
NtRp4041
(dp4042
g61
(dp4043
g69
I2
ssg70
g4037
sg63
(lp4044
g56
(g65
g58
NtRp4045
(dp4046
g61
(dp4047
g69
I1
ssg70
Nsg63
(lp4048
g56
(g72
g58
NtRp4049
(dp4050
g61
(dp4051
sg70
g4045
sg63
(lp4052
g56
(g77
g58
NtRp4053
(dp4054
g61
(dp4055
sg70
g4049
sg63
(lp4056
g56
(g57
g58
NtRp4057
(dp4058
g61
(dp4059
g69
I1
ssg70
g4053
sg63
(lp4060
g3488
(S's\x05\x00\x00\x00About'
tRp4061
asbasbasbag56
(g72
g58
NtRp4062
(dp4063
g61
(dp4064
sg70
g4045
sg63
(lp4065
g56
(g77
g58
NtRp4066
(dp4067
g61
(dp4068
sg70
g4062
sg63
(lp4069
g56
(g57
g58
NtRp4070
(dp4071
g61
(dp4072
g69
I1
ssg70
g4066
sg63
(lp4073
I00
asbasbasbag56
(g72
g58
NtRp4074
(dp4075
g61
(dp4076
sg70
g4045
sg63
(lp4077
g56
(g77
g58
NtRp4078
(dp4079
g61
(dp4080
sg70
g4074
sg63
(lp4081
g56
(g57
g58
NtRp4082
(dp4083
g61
(dp4084
g69
I1
ssg70
g4078
sg63
(lp4085
S'/admin/default/about/ddlagoon'
p4086
asbasbasbasbasbasbasbasbasbasbasbasbasbasbasbag56
(g72
g58
NtRp4087
(dp4088
g61
(dp4089
sg70
g3456
sg63
(lp4090
g56
(g77
g58
NtRp4091
(dp4092
g61
(dp4093
sg70
g4087
sg63
(lp4094
g56
(g57
g58
NtRp4095
(dp4096
g61
(dp4097
g69
I4
ssg70
g4091
sg63
(lp4098
g56
(g65
g58
NtRp4099
(dp4100
g61
(dp4101
g69
I3
ssg70
Nsg63
(lp4102
g56
(g72
g58
NtRp4103
(dp4104
g61
(dp4105
sg70
g4099
sg63
(lp4106
g56
(g77
g58
NtRp4107
(dp4108
g61
(dp4109
sg70
g4103
sg63
(lp4110
g56
(g57
g58
NtRp4111
(dp4112
g61
(dp4113
g69
I3
ssg70
g4107
sg63
(lp4114
g3488
(S's\t\x00\x00\x00Resources'
tRp4115
asbasbasbag56
(g72
g58
NtRp4116
(dp4117
g61
(dp4118
sg70
g4099
sg63
(lp4119
g56
(g77
g58
NtRp4120
(dp4121
g61
(dp4122
sg70
g4116
sg63
(lp4123
g56
(g57
g58
NtRp4124
(dp4125
g61
(dp4126
g69
I3
ssg70
g4120
sg63
(lp4127
g99
asbasbasbag56
(g72
g58
NtRp4128
(dp4129
g61
(dp4130
sg70
g4099
sg63
(lp4131
g56
(g77
g58
NtRp4132
(dp4133
g61
(dp4134
sg70
g4128
sg63
(lp4135
g56
(g57
g58
NtRp4136
(dp4137
g61
(dp4138
g69
I3
ssg70
g4132
sg63
(lp4139
S'None'
p4140
asbasbasbag56
(g72
g58
NtRp4141
(dp4142
g61
(dp4143
sg70
g4099
sg63
(lp4144
g56
(g77
g58
NtRp4145
(dp4146
g61
(dp4147
sg70
g4141
sg63
(lp4148
g56
(g57
g58
NtRp4149
(dp4150
g61
(dp4151
g69
I3
ssg70
g4145
sg63
(lp4152
g56
(g65
g58
NtRp4153
(dp4154
g61
(dp4155
g69
I2
ssg70
Nsg63
(lp4156
g56
(g72
g58
NtRp4157
(dp4158
g61
(dp4159
sg70
g4153
sg63
(lp4160
g56
(g77
g58
NtRp4161
(dp4162
g61
(dp4163
sg70
g4157
sg63
(lp4164
g56
(g57
g58
NtRp4165
(dp4166
g61
(dp4167
g69
I2
ssg70
g4161
sg63
(lp4168
g56
(g65
g58
NtRp4169
(dp4170
g61
(dp4171
g69
I1
ssg70
Nsg63
(lp4172
g56
(g72
g58
NtRp4173
(dp4174
g61
(dp4175
sg70
g4169
sg63
(lp4176
g56
(g77
g58
NtRp4177
(dp4178
g61
(dp4179
sg70
g4173
sg63
(lp4180
g56
(g57
g58
NtRp4181
(dp4182
g61
(dp4183
g69
I1
ssg70
g4177
sg63
(lp4184
g3488
(S's\r\x00\x00\x00Documentation'
tRp4185
asbasbasbag56
(g72
g58
NtRp4186
(dp4187
g61
(dp4188
sg70
g4169
sg63
(lp4189
g56
(g77
g58
NtRp4190
(dp4191
g61
(dp4192
sg70
g4186
sg63
(lp4193
g56
(g57
g58
NtRp4194
(dp4195
g61
(dp4196
g69
I1
ssg70
g4190
sg63
(lp4197
I00
asbasbasbag56
(g72
g58
NtRp4198
(dp4199
g61
(dp4200
sg70
g4169
sg63
(lp4201
g56
(g77
g58
NtRp4202
(dp4203
g61
(dp4204
sg70
g4198
sg63
(lp4205
g56
(g57
g58
NtRp4206
(dp4207
g61
(dp4208
g69
I1
ssg70
g4202
sg63
(lp4209
S'http://www.web2py.com/book'
p4210
asbasbasbag56
(g72
g58
NtRp4211
(dp4212
g61
(dp4213
sg70
g4169
sg63
(lp4214
g56
(g77
g58
NtRp4215
(dp4216
g61
(dp4217
sg70
g4211
sg63
(lp4218
g56
(g57
g58
NtRp4219
(dp4220
g61
(dp4221
g69
I1
ssg70
g4215
sg63
(lp4222
(lp4223
(g3488
(S's\x07\x00\x00\x00Preface'
tRp4224
I00
S'http://www.web2py.com/book/default/chapter/00'
p4225
tp4226
a(g3488
(S's\x0c\x00\x00\x00Introduction'
tRp4227
I00
S'http://www.web2py.com/book/default/chapter/01'
p4228
tp4229
a(g3488
(S's\x06\x00\x00\x00Python'
tRp4230
I00
S'http://www.web2py.com/book/default/chapter/02'
p4231
tp4232
a(g3488
(S's\x08\x00\x00\x00Overview'
tRp4233
I00
S'http://www.web2py.com/book/default/chapter/03'
p4234
tp4235
a(g3488
(S's\x08\x00\x00\x00The Core'
tRp4236
I00
S'http://www.web2py.com/book/default/chapter/04'
p4237
tp4238
a(g3488
(S's\t\x00\x00\x00The Views'
tRp4239
I00
S'http://www.web2py.com/book/default/chapter/05'
p4240
tp4241
a(g3488
(S's\x08\x00\x00\x00Database'
tRp4242
I00
S'http://www.web2py.com/book/default/chapter/06'
p4243
tp4244
a(g3488
(S's\x14\x00\x00\x00Forms and Validators'
tRp4245
I00
S'http://www.web2py.com/book/default/chapter/07'
p4246
tp4247
a(g3488
(S's\x0e\x00\x00\x00Access Control'
tRp4248
I00
S'http://www.web2py.com/book/default/chapter/08'
p4249
tp4250
a(g3488
(S's\x08\x00\x00\x00Services'
tRp4251
I00
S'http://www.web2py.com/book/default/chapter/09'
p4252
tp4253
a(g3488
(S's\x0c\x00\x00\x00Ajax Recipes'
tRp4254
I00
S'http://www.web2py.com/book/default/chapter/10'
p4255
tp4256
a(g3488
(S's\x12\x00\x00\x00Deployment Recipes'
tRp4257
I00
S'http://www.web2py.com/book/default/chapter/11'
p4258
tp4259
a(g3488
(S's\r\x00\x00\x00Other Recipes'
tRp4260
I00
S'http://www.web2py.com/book/default/chapter/12'
p4261
tp4262
a(g3488
(S's\r\x00\x00\x00Buy this book'
tRp4263
I00
S'http://stores.lulu.com/web2py'
p4264
tp4265
aasbasbasbasbasbasbasbag56
(g72
g58
NtRp4266
(dp4267
g61
(dp4268
sg70
g4153
sg63
(lp4269
g56
(g77
g58
NtRp4270
(dp4271
g61
(dp4272
sg70
g4266
sg63
(lp4273
g56
(g57
g58
NtRp4274
(dp4275
g61
(dp4276
g69
I2
ssg70
g4270
sg63
(lp4277
g56
(g65
g58
NtRp4278
(dp4279
g61
(dp4280
g69
I1
ssg70
Nsg63
(lp4281
g56
(g72
g58
NtRp4282
(dp4283
g61
(dp4284
sg70
g4278
sg63
(lp4285
g56
(g77
g58
NtRp4286
(dp4287
g61
(dp4288
sg70
g4282
sg63
(lp4289
g56
(g57
g58
NtRp4290
(dp4291
g61
(dp4292
g69
I1
ssg70
g4286
sg63
(lp4293
g3488
(S's\t\x00\x00\x00Community'
tRp4294
asbasbasbag56
(g72
g58
NtRp4295
(dp4296
g61
(dp4297
sg70
g4278
sg63
(lp4298
g56
(g77
g58
NtRp4299
(dp4300
g61
(dp4301
sg70
g4295
sg63
(lp4302
g56
(g57
g58
NtRp4303
(dp4304
g61
(dp4305
g69
I1
ssg70
g4299
sg63
(lp4306
I00
asbasbasbag56
(g72
g58
NtRp4307
(dp4308
g61
(dp4309
sg70
g4278
sg63
(lp4310
g56
(g77
g58
NtRp4311
(dp4312
g61
(dp4313
sg70
g4307
sg63
(lp4314
g56
(g57
g58
NtRp4315
(dp4316
g61
(dp4317
g69
I1
ssg70
g4311
sg63
(lp4318
Nasbasbasbag56
(g72
g58
NtRp4319
(dp4320
g61
(dp4321
sg70
g4278
sg63
(lp4322
g56
(g77
g58
NtRp4323
(dp4324
g61
(dp4325
sg70
g4319
sg63
(lp4326
g56
(g57
g58
NtRp4327
(dp4328
g61
(dp4329
g69
I1
ssg70
g4323
sg63
(lp4330
(lp4331
(g3488
(S's\x06\x00\x00\x00Groups'
tRp4332
I00
S'http://www.web2py.com/examples/default/usergroups'
p4333
tp4334
a(g3488
(S's\x07\x00\x00\x00Twitter'
tRp4335
I00
S'http://twitter.com/web2py'
p4336
tp4337
a(g3488
(S's\t\x00\x00\x00Live chat'
tRp4338
I00
S'http://mibbit.com/?channel=%23web2py&server=irc.mibbit.net'
p4339
tp4340
a(g3488
(S's\n\x00\x00\x00User Voice'
tRp4341
I00
S'http://web2py.uservoice.com/'
p4342
tp4343
aasbasbasbasbasbasbasbag56
(g72
g58
NtRp4344
(dp4345
g61
(dp4346
sg70
g4153
sg63
(lp4347
g56
(g77
g58
NtRp4348
(dp4349
g61
(dp4350
sg70
g4344
sg63
(lp4351
g56
(g57
g58
NtRp4352
(dp4353
g61
(dp4354
g69
I2
ssg70
g4348
sg63
(lp4355
g56
(g65
g58
NtRp4356
(dp4357
g61
(dp4358
g69
I1
ssg70
Nsg63
(lp4359
g56
(g72
g58
NtRp4360
(dp4361
g61
(dp4362
sg70
g4356
sg63
(lp4363
g56
(g77
g58
NtRp4364
(dp4365
g61
(dp4366
sg70
g4360
sg63
(lp4367
g56
(g57
g58
NtRp4368
(dp4369
g61
(dp4370
g69
I1
ssg70
g4364
sg63
(lp4371
g3488
(S's\x06\x00\x00\x00Web2py'
tRp4372
asbasbasbag56
(g72
g58
NtRp4373
(dp4374
g61
(dp4375
sg70
g4356
sg63
(lp4376
g56
(g77
g58
NtRp4377
(dp4378
g61
(dp4379
sg70
g4373
sg63
(lp4380
g56
(g57
g58
NtRp4381
(dp4382
g61
(dp4383
g69
I1
ssg70
g4377
sg63
(lp4384
I00
asbasbasbag56
(g72
g58
NtRp4385
(dp4386
g61
(dp4387
sg70
g4356
sg63
(lp4388
g56
(g77
g58
NtRp4389
(dp4390
g61
(dp4391
sg70
g4385
sg63
(lp4392
g56
(g57
g58
NtRp4393
(dp4394
g61
(dp4395
g69
I1
ssg70
g4389
sg63
(lp4396
S'http://www.web2py.com'
p4397
asbasbasbag56
(g72
g58
NtRp4398
(dp4399
g61
(dp4400
sg70
g4356
sg63
(lp4401
g56
(g77
g58
NtRp4402
(dp4403
g61
(dp4404
sg70
g4398
sg63
(lp4405
g56
(g57
g58
NtRp4406
(dp4407
g61
(dp4408
g69
I1
ssg70
g4402
sg63
(lp4409
(lp4410
(g3488
(S's\x08\x00\x00\x00Download'
tRp4411
I00
S'http://www.web2py.com/examples/default/download'
p4412
tp4413
a(g3488
(S's\x07\x00\x00\x00Support'
tRp4414
I00
S'http://www.web2py.com/examples/default/support'
p4415
tp4416
a(g3488
(S's\x0e\x00\x00\x00Quick Examples'
tRp4417
I00
S'http://web2py.com/examples/default/examples'
p4418
tp4419
a(g3488
(S's\x03\x00\x00\x00FAQ'
tRp4420
I00
S'http://web2py.com/AlterEgo'
p4421
tp4422
a(g3488
(S's\x11\x00\x00\x00Free Applications'
tRp4423
I00
S'http://web2py.com/appliances'
p4424
tp4425
a(g3488
(S's\x07\x00\x00\x00Plugins'
tRp4426
I00
S'http://web2py.com/plugins'
p4427
tp4428
a(g3488
(S's\x07\x00\x00\x00Recipes'
tRp4429
I00
S'http://web2pyslices.com/'
p4430
tp4431
a(g3488
(S's\x04\x00\x00\x00Demo'
tRp4432
I00
S'http://web2py.com/demo_admin'
p4433
tp4434
a(g3488
(S's\x08\x00\x00\x00Semantic'
tRp4435
I00
S'http://web2py.com/semantic'
p4436
tp4437
a(g3488
(S's\x07\x00\x00\x00Layouts'
tRp4438
I00
S'http://web2py.com/layouts'
p4439
tp4440
a(g3488
(S's\x06\x00\x00\x00Videos'
tRp4441
I00
S'http://www.web2py.com/examples/default/videos/'
p4442
tp4443
aasbasbasbasbasbasbasbasbasbasbasbasbasbasbasbasbasbasbasbag56
(g72
g58
NtRp4444
(dp4445
g61
(dp4446
sg70
g2983
sg63
(lp4447
g56
(g77
g58
NtRp4448
(dp4449
g61
(dp4450
g81
g82
ssg70
g4444
sg63
(lp4451
S'meta'
p4452
asbag56
(g77
g58
NtRp4453
(dp4454
g61
(dp4455
g88
g89
ssg70
g4444
sg63
(lp4456
S':'
asbag56
(g77
g58
NtRp4457
(dp4458
g61
(dp4459
sg70
g4444
sg63
(lp4460
g56
(g57
g58
NtRp4461
(dp4462
g61
(dp4463
g69
I5
ssg70
g4457
sg63
(lp4464
g56
(g65
g58
NtRp4465
(dp4466
g61
(dp4467
g69
I4
ssg70
Nsg63
(lp4468
g56
(g72
g58
NtRp4469
(dp4470
g61
(dp4471
sg70
g4465
sg63
(lp4472
g56
(g77
g58
NtRp4473
(dp4474
g61
(dp4475
g81
g82
ssg70
g4469
sg63
(lp4476
S'author'
p4477
asbag56
(g77
g58
NtRp4478
(dp4479
g61
(dp4480
g88
g89
ssg70
g4469
sg63
(lp4481
S':'
asbag56
(g77
g58
NtRp4482
(dp4483
g61
(dp4484
sg70
g4469
sg63
(lp4485
g56
(g57
g58
NtRp4486
(dp4487
g61
(dp4488
g69
I4
ssg70
g4482
sg63
(lp4489
S'Your Name <you@example.com>'
p4490
asbasbasbag56
(g72
g58
NtRp4491
(dp4492
g61
(dp4493
sg70
g4465
sg63
(lp4494
g56
(g77
g58
NtRp4495
(dp4496
g61
(dp4497
g81
g82
ssg70
g4491
sg63
(lp4498
S'copyright'
p4499
asbag56
(g77
g58
NtRp4500
(dp4501
g61
(dp4502
g88
g89
ssg70
g4491
sg63
(lp4503
S':'
asbag56
(g77
g58
NtRp4504
(dp4505
g61
(dp4506
sg70
g4491
sg63
(lp4507
g56
(g57
g58
NtRp4508
(dp4509
g61
(dp4510
g69
I4
ssg70
g4504
sg63
(lp4511
S'Copyright 2011'
p4512
asbasbasbag56
(g72
g58
NtRp4513
(dp4514
g61
(dp4515
sg70
g4465
sg63
(lp4516
g56
(g77
g58
NtRp4517
(dp4518
g61
(dp4519
g81
g82
ssg70
g4513
sg63
(lp4520
S'description'
p4521
asbag56
(g77
g58
NtRp4522
(dp4523
g61
(dp4524
g88
g89
ssg70
g4513
sg63
(lp4525
S':'
asbag56
(g77
g58
NtRp4526
(dp4527
g61
(dp4528
sg70
g4513
sg63
(lp4529
g56
(g57
g58
NtRp4530
(dp4531
g61
(dp4532
g69
I4
ssg70
g4526
sg63
(lp4533
S'a cool new app'
p4534
asbasbasbag56
(g72
g58
NtRp4535
(dp4536
g61
(dp4537
sg70
g4465
sg63
(lp4538
g56
(g77
g58
NtRp4539
(dp4540
g61
(dp4541
g81
g82
ssg70
g4535
sg63
(lp4542
S'generator'
p4543
asbag56
(g77
g58
NtRp4544
(dp4545
g61
(dp4546
g88
g89
ssg70
g4535
sg63
(lp4547
S':'
asbag56
(g77
g58
NtRp4548
(dp4549
g61
(dp4550
sg70
g4535
sg63
(lp4551
g56
(g57
g58
NtRp4552
(dp4553
g61
(dp4554
g69
I4
ssg70
g4548
sg63
(lp4555
S'Web2py Web Framework'
p4556
asbasbasbag56
(g72
g58
NtRp4557
(dp4558
g61
(dp4559
sg70
g4465
sg63
(lp4560
g56
(g77
g58
NtRp4561
(dp4562
g61
(dp4563
g81
g82
ssg70
g4557
sg63
(lp4564
S'keywords'
p4565
asbag56
(g77
g58
NtRp4566
(dp4567
g61
(dp4568
g88
g89
ssg70
g4557
sg63
(lp4569
S':'
asbag56
(g77
g58
NtRp4570
(dp4571
g61
(dp4572
sg70
g4557
sg63
(lp4573
g56
(g57
g58
NtRp4574
(dp4575
g61
(dp4576
g69
I4
ssg70
g4570
sg63
(lp4577
S'web2py, python, framework'
p4578
asbasbasbasbasbasbasbag56
(g72
g58
NtRp4579
(dp4580
g61
(dp4581
sg70
g2983
sg63
(lp4582
g56
(g77
g58
NtRp4583
(dp4584
g61
(dp4585
g81
g82
ssg70
g4579
sg63
(lp4586
S'postprocessing'
p4587
asbag56
(g77
g58
NtRp4588
(dp4589
g61
(dp4590
g88
g89
ssg70
g4579
sg63
(lp4591
S':'
asbag56
(g77
g58
NtRp4592
(dp4593
g61
(dp4594
sg70
g4579
sg63
(lp4595
g56
(g57
g58
NtRp4596
(dp4597
g61
(dp4598
g69
I5
ssg70
g4592
sg63
(lp4599
g56
(g65
g58
NtRp4600
(dp4601
g61
(dp4602
g69
I4
ssg70
Nsg63
(lp4603
sbasbasbasbag56
(g72
g58
NtRp4604
(dp4605
g61
(dp4606
sg70
g2983
sg63
(lp4607
g56
(g77
g58
NtRp4608
(dp4609
g61
(dp4610
g81
g82
ssg70
g4604
sg63
(lp4611
S'session_filename'
p4612
asbag56
(g77
g58
NtRp4613
(dp4614
g61
(dp4615
g88
g89
ssg70
g4604
sg63
(lp4616
S':'
asbag56
(g77
g58
NtRp4617
(dp4618
g61
(dp4619
sg70
g4604
sg63
(lp4620
g56
(g57
g58
NtRp4621
(dp4622
g61
(dp4623
g69
I5
ssg70
g4617
sg63
(lp4624
S'/windows/Users/Thomas/Dropbox/appz/2011/GAE/ddl-lagoon/applications/ddlagoon/sessions/127.0.0.1-734a05f4-5095-43f7-86a2-5cab58fa52ff'
p4625
asbasbasbag56
(g72
g58
NtRp4626
(dp4627
g61
(dp4628
sg70
g2983
sg63
(lp4629
g56
(g77
g58
NtRp4630
(dp4631
g61
(dp4632
g81
g82
ssg70
g4626
sg63
(lp4633
S'session_id'
p4634
asbag56
(g77
g58
NtRp4635
(dp4636
g61
(dp4637
g88
g89
ssg70
g4626
sg63
(lp4638
S':'
asbag56
(g77
g58
NtRp4639
(dp4640
g61
(dp4641
sg70
g4626
sg63
(lp4642
g56
(g57
g58
NtRp4643
(dp4644
g61
(dp4645
g69
I5
ssg70
g4639
sg63
(lp4646
S'127.0.0.1-734a05f4-5095-43f7-86a2-5cab58fa52ff'
p4647
asbasbasbag56
(g72
g58
NtRp4648
(dp4649
g61
(dp4650
sg70
g2983
sg63
(lp4651
g56
(g77
g58
NtRp4652
(dp4653
g61
(dp4654
g81
g82
ssg70
g4648
sg63
(lp4655
S'session_id_name'
p4656
asbag56
(g77
g58
NtRp4657
(dp4658
g61
(dp4659
g88
g89
ssg70
g4648
sg63
(lp4660
S':'
asbag56
(g77
g58
NtRp4661
(dp4662
g61
(dp4663
sg70
g4648
sg63
(lp4664
g56
(g57
g58
NtRp4665
(dp4666
g61
(dp4667
g69
I5
ssg70
g4661
sg63
(lp4668
g3040
asbasbasbag56
(g72
g58
NtRp4669
(dp4670
g61
(dp4671
sg70
g2983
sg63
(lp4672
g56
(g77
g58
NtRp4673
(dp4674
g61
(dp4675
g81
g82
ssg70
g4669
sg63
(lp4676
S'session_new'
p4677
asbag56
(g77
g58
NtRp4678
(dp4679
g61
(dp4680
g88
g89
ssg70
g4669
sg63
(lp4681
S':'
asbag56
(g77
g58
NtRp4682
(dp4683
g61
(dp4684
sg70
g4669
sg63
(lp4685
g56
(g57
g58
NtRp4686
(dp4687
g61
(dp4688
g69
I5
ssg70
g4682
sg63
(lp4689
g1513
asbasbasbag56
(g72
g58
NtRp4690
(dp4691
g61
(dp4692
sg70
g2983
sg63
(lp4693
g56
(g77
g58
NtRp4694
(dp4695
g61
(dp4696
g81
g82
ssg70
g4690
sg63
(lp4697
S'status'
p4698
asbag56
(g77
g58
NtRp4699
(dp4700
g61
(dp4701
g88
g89
ssg70
g4690
sg63
(lp4702
S':'
asbag56
(g77
g58
NtRp4703
(dp4704
g61
(dp4705
sg70
g4690
sg63
(lp4706
g56
(g57
g58
NtRp4707
(dp4708
g61
(dp4709
g69
I5
ssg70
g4703
sg63
(lp4710
S'200'
p4711
asbasbasbag56
(g72
g58
NtRp4712
(dp4713
g61
(dp4714
sg70
g2983
sg63
(lp4715
g56
(g77
g58
NtRp4716
(dp4717
g61
(dp4718
g81
g82
ssg70
g4712
sg63
(lp4719
S'subtitle'
p4720
asbag56
(g77
g58
NtRp4721
(dp4722
g61
(dp4723
g88
g89
ssg70
g4712
sg63
(lp4724
S':'
asbag56
(g77
g58
NtRp4725
(dp4726
g61
(dp4727
sg70
g4712
sg63
(lp4728
g56
(g57
g58
NtRp4729
(dp4730
g61
(dp4731
g69
I5
ssg70
g4725
sg63
(lp4732
g3488
(S's\r\x00\x00\x00customize me!'
tRp4733
asbasbasbag56
(g72
g58
NtRp4734
(dp4735
g61
(dp4736
sg70
g2983
sg63
(lp4737
g56
(g77
g58
NtRp4738
(dp4739
g61
(dp4740
g81
g82
ssg70
g4734
sg63
(lp4741
S'title'
p4742
asbag56
(g77
g58
NtRp4743
(dp4744
g61
(dp4745
g88
g89
ssg70
g4734
sg63
(lp4746
S':'
asbag56
(g77
g58
NtRp4747
(dp4748
g61
(dp4749
sg70
g4734
sg63
(lp4750
g56
(g57
g58
NtRp4751
(dp4752
g61
(dp4753
g69
I5
ssg70
g4747
sg63
(lp4754
g121
asbasbasbag56
(g72
g58
NtRp4755
(dp4756
g61
(dp4757
sg70
g2983
sg63
(lp4758
g56
(g77
g58
NtRp4759
(dp4760
g61
(dp4761
g81
g82
ssg70
g4755
sg63
(lp4762
g2157
asbag56
(g77
g58
NtRp4763
(dp4764
g61
(dp4765
g88
g89
ssg70
g4755
sg63
(lp4766
S':'
asbag56
(g77
g58
NtRp4767
(dp4768
g61
(dp4769
sg70
g4755
sg63
(lp4770
g56
(g57
g58
NtRp4771
(dp4772
g61
(dp4773
g69
I5
ssg70
g4767
sg63
(lp4774
g2170
asbasbasbag56
(g72
g58
NtRp4775
(dp4776
g61
(dp4777
sg70
g2983
sg63
(lp4778
g56
(g77
g58
NtRp4779
(dp4780
g61
(dp4781
g81
g82
ssg70
g4775
sg63
(lp4782
S'view'
p4783
asbag56
(g77
g58
NtRp4784
(dp4785
g61
(dp4786
g88
g89
ssg70
g4775
sg63
(lp4787
S':'
asbag56
(g77
g58
NtRp4788
(dp4789
g61
(dp4790
sg70
g4775
sg63
(lp4791
g56
(g57
g58
NtRp4792
(dp4793
g61
(dp4794
g69
I5
ssg70
g4788
sg63
(lp4795
S'default/index.html'
p4796
asbasbasbasbasbsS'locals'
p4797
(dp4798
S'seconds'
p4799
S'53'
p4800
sS'days'
p4801
S'0'
sS'hours'
p4802
S'2'
sg2
S"''"
p4803
sS'weeks'
p4804
S'0'
sS'minutes'
p4805
S'5'
sssS'traceback'
p4806
S'Traceback (most recent call last):\n  File "/windows/Users/Thomas/Dropbox/appz/2011/GAE/ddl-lagoon/gluon/restricted.py", line 194, in restricted\n    exec ccode in environment\n  File "/windows/Users/Thomas/Dropbox/appz/2011/GAE/ddl-lagoon/applications/ddlagoon/controllers/default.py", line 301, in <module>\n  File "/windows/Users/Thomas/Dropbox/appz/2011/GAE/ddl-lagoon/gluon/globals.py", line 149, in <lambda>\n    self._caller = lambda f: f()\n  File "/windows/Users/Thomas/Dropbox/appz/2011/GAE/ddl-lagoon/applications/ddlagoon/controllers/default.py", line 69, in index\n    row[\'timedelta\']= getTimeDelta(weeks, days, hours, minutes, seconds)\n  File "/windows/Users/Thomas/Dropbox/appz/2011/GAE/ddl-lagoon/applications/ddlagoon/controllers/default.py", line 51, in getTimeDelta\n    return pluralize(hours)\nTypeError: pluralize() takes exactly 2 arguments (1 given)\n'
p4807
s.