(dp1
S'output'
p2
S''
sS'layer'
p3
S'Framework'
p4
sS'code'
p5
S''
sS'snapshot'
p6
(dp7
S'exception'
p8
(dp9
S'__hash__'
p10
S"<method-wrapper '__hash__' of exceptions.TypeError object>"
p11
sS'__setattr__'
p12
S"<method-wrapper '__setattr__' of exceptions.TypeError object>"
p13
sS'__reduce_ex__'
p14
S'<built-in method __reduce_ex__ of exceptions.TypeError object>'
p15
sS'__getslice__'
p16
S"<method-wrapper '__getslice__' of exceptions.TypeError object>"
p17
sS'__getitem__'
p18
S"<method-wrapper '__getitem__' of exceptions.TypeError object>"
p19
sS'__setstate__'
p20
S'<built-in method __setstate__ of exceptions.TypeError object>'
p21
sS'args'
p22
S'("\'NoneType\' object is not callable",)'
p23
sS'__reduce__'
p24
S'<built-in method __reduce__ of exceptions.TypeError object>'
p25
sS'__str__'
p26
S"<method-wrapper '__str__' of exceptions.TypeError object>"
p27
sS'__format__'
p28
S'<built-in method __format__ of exceptions.TypeError object>'
p29
sS'__getattribute__'
p30
S"<method-wrapper '__getattribute__' of exceptions.TypeError object>"
p31
sS'__class__'
p32
S"<type 'exceptions.TypeError'>"
p33
sS'__unicode__'
p34
S'<built-in method __unicode__ of exceptions.TypeError object>'
p35
sS'__delattr__'
p36
S"<method-wrapper '__delattr__' of exceptions.TypeError object>"
p37
sS'__subclasshook__'
p38
S'<built-in method __subclasshook__ of type object>'
p39
sS'__repr__'
p40
S"<method-wrapper '__repr__' of exceptions.TypeError object>"
p41
sS'__dict__'
p42
S'{}'
p43
sS'__sizeof__'
p44
S'<built-in method __sizeof__ of exceptions.TypeError object>'
p45
sS'__doc__'
p46
S"'Inappropriate argument type.'"
p47
sS'__init__'
p48
S"<method-wrapper '__init__' of exceptions.TypeError object>"
p49
sS'__new__'
p50
S'<built-in method __new__ of type object>'
p51
ssS'evalue'
p52
S"'NoneType' object is not callable"
p53
sS'request'
p54
ccopy_reg
_reconstructor
p55
(cgluon.html
BEAUTIFY
p56
c__builtin__
object
p57
NtRp58
(dp59
S'attributes'
p60
(dp61
sS'components'
p62
(lp63
g55
(cgluon.html
TABLE
p64
g57
NtRp65
(dp66
g60
(dp67
S'level'
p68
I5
ssS'parent'
p69
Nsg62
(lp70
g55
(cgluon.html
TR
p71
g57
NtRp72
(dp73
g60
(dp74
sg69
g65
sg62
(lp75
g55
(cgluon.html
TD
p76
g57
NtRp77
(dp78
g60
(dp79
S'_style'
p80
S'font-weight:bold;'
p81
ssg69
g72
sg62
(lp82
S'ajax'
p83
asbag55
(g76
g57
NtRp84
(dp85
g60
(dp86
S'_valign'
p87
S'top'
p88
ssg69
g72
sg62
(lp89
S':'
asbag55
(g76
g57
NtRp90
(dp91
g60
(dp92
sg69
g72
sg62
(lp93
g55
(g56
g57
NtRp94
(dp95
g60
(dp96
g68
I5
ssg69
g90
sg62
(lp97
S'False'
p98
asbasbasbag55
(g71
g57
NtRp99
(dp100
g60
(dp101
sg69
g65
sg62
(lp102
g55
(g76
g57
NtRp103
(dp104
g60
(dp105
g80
g81
ssg69
g99
sg62
(lp106
S'application'
p107
asbag55
(g76
g57
NtRp108
(dp109
g60
(dp110
g87
g88
ssg69
g99
sg62
(lp111
S':'
asbag55
(g76
g57
NtRp112
(dp113
g60
(dp114
sg69
g99
sg62
(lp115
g55
(g56
g57
NtRp116
(dp117
g60
(dp118
g68
I5
ssg69
g112
sg62
(lp119
S'ddlagoon'
p120
asbasbasbag55
(g71
g57
NtRp121
(dp122
g60
(dp123
sg69
g65
sg62
(lp124
g55
(g76
g57
NtRp125
(dp126
g60
(dp127
g80
g81
ssg69
g121
sg62
(lp128
g22
asbag55
(g76
g57
NtRp129
(dp130
g60
(dp131
g87
g88
ssg69
g121
sg62
(lp132
S':'
asbag55
(g76
g57
NtRp133
(dp134
g60
(dp135
sg69
g121
sg62
(lp136
g55
(g56
g57
NtRp137
(dp138
g60
(dp139
g68
I5
ssg69
g133
sg62
(lp140
g55
(g64
g57
NtRp141
(dp142
g60
(dp143
g68
I4
ssg69
Nsg62
(lp144
sbasbasbasbag55
(g71
g57
NtRp145
(dp146
g60
(dp147
sg69
g65
sg62
(lp148
g55
(g76
g57
NtRp149
(dp150
g60
(dp151
g80
g81
ssg69
g145
sg62
(lp152
S'body'
p153
asbag55
(g76
g57
NtRp154
(dp155
g60
(dp156
g87
g88
ssg69
g145
sg62
(lp157
S':'
asbag55
(g76
g57
NtRp158
(dp159
g60
(dp160
sg69
g145
sg62
(lp161
g55
(g56
g57
NtRp162
(dp163
g60
(dp164
g68
I5
ssg69
g158
sg62
(lp165
S"<closed file '<fdopen>', mode 'w+b' at 0x22bd930>"
p166
asbasbasbag55
(g71
g57
NtRp167
(dp168
g60
(dp169
sg69
g65
sg62
(lp170
g55
(g76
g57
NtRp171
(dp172
g60
(dp173
g80
g81
ssg69
g167
sg62
(lp174
S'client'
p175
asbag55
(g76
g57
NtRp176
(dp177
g60
(dp178
g87
g88
ssg69
g167
sg62
(lp179
S':'
asbag55
(g76
g57
NtRp180
(dp181
g60
(dp182
sg69
g167
sg62
(lp183
g55
(g56
g57
NtRp184
(dp185
g60
(dp186
g68
I5
ssg69
g180
sg62
(lp187
S'127.0.0.1'
p188
asbasbasbag55
(g71
g57
NtRp189
(dp190
g60
(dp191
sg69
g65
sg62
(lp192
g55
(g76
g57
NtRp193
(dp194
g60
(dp195
g80
g81
ssg69
g189
sg62
(lp196
S'controller'
p197
asbag55
(g76
g57
NtRp198
(dp199
g60
(dp200
g87
g88
ssg69
g189
sg62
(lp201
S':'
asbag55
(g76
g57
NtRp202
(dp203
g60
(dp204
sg69
g189
sg62
(lp205
g55
(g56
g57
NtRp206
(dp207
g60
(dp208
g68
I5
ssg69
g202
sg62
(lp209
S'default'
p210
asbasbasbag55
(g71
g57
NtRp211
(dp212
g60
(dp213
sg69
g65
sg62
(lp214
g55
(g76
g57
NtRp215
(dp216
g60
(dp217
g80
g81
ssg69
g211
sg62
(lp218
S'cookies'
p219
asbag55
(g76
g57
NtRp220
(dp221
g60
(dp222
g87
g88
ssg69
g211
sg62
(lp223
S':'
asbag55
(g76
g57
NtRp224
(dp225
g60
(dp226
sg69
g211
sg62
(lp227
g55
(g56
g57
NtRp228
(dp229
g60
(dp230
g68
I5
ssg69
g224
sg62
(lp231
g55
(g64
g57
NtRp232
(dp233
g60
(dp234
g68
I4
ssg69
Nsg62
(lp235
g55
(g71
g57
NtRp236
(dp237
g60
(dp238
sg69
g232
sg62
(lp239
g55
(g76
g57
NtRp240
(dp241
g60
(dp242
g80
g81
ssg69
g236
sg62
(lp243
S'session_id_admin'
p244
asbag55
(g76
g57
NtRp245
(dp246
g60
(dp247
g87
g88
ssg69
g236
sg62
(lp248
S':'
asbag55
(g76
g57
NtRp249
(dp250
g60
(dp251
sg69
g236
sg62
(lp252
g55
(g56
g57
NtRp253
(dp254
g60
(dp255
g68
I4
ssg69
g249
sg62
(lp256
g55
(g64
g57
NtRp257
(dp258
g60
(dp259
g68
I3
ssg69
Nsg62
(lp260
g55
(g71
g57
NtRp261
(dp262
g60
(dp263
sg69
g257
sg62
(lp264
g55
(g76
g57
NtRp265
(dp266
g60
(dp267
g80
g81
ssg69
g261
sg62
(lp268
S'comment'
p269
asbag55
(g76
g57
NtRp270
(dp271
g60
(dp272
g87
g88
ssg69
g261
sg62
(lp273
S':'
asbag55
(g76
g57
NtRp274
(dp275
g60
(dp276
sg69
g261
sg62
(lp277
g55
(g56
g57
NtRp278
(dp279
g60
(dp280
g68
I3
ssg69
g274
sg62
(lp281
S''
asbasbasbag55
(g71
g57
NtRp282
(dp283
g60
(dp284
sg69
g257
sg62
(lp285
g55
(g76
g57
NtRp286
(dp287
g60
(dp288
g80
g81
ssg69
g282
sg62
(lp289
S'domain'
p290
asbag55
(g76
g57
NtRp291
(dp292
g60
(dp293
g87
g88
ssg69
g282
sg62
(lp294
S':'
asbag55
(g76
g57
NtRp295
(dp296
g60
(dp297
sg69
g282
sg62
(lp298
g55
(g56
g57
NtRp299
(dp300
g60
(dp301
g68
I3
ssg69
g295
sg62
(lp302
S''
asbasbasbag55
(g71
g57
NtRp303
(dp304
g60
(dp305
sg69
g257
sg62
(lp306
g55
(g76
g57
NtRp307
(dp308
g60
(dp309
g80
g81
ssg69
g303
sg62
(lp310
S'expires'
p311
asbag55
(g76
g57
NtRp312
(dp313
g60
(dp314
g87
g88
ssg69
g303
sg62
(lp315
S':'
asbag55
(g76
g57
NtRp316
(dp317
g60
(dp318
sg69
g303
sg62
(lp319
g55
(g56
g57
NtRp320
(dp321
g60
(dp322
g68
I3
ssg69
g316
sg62
(lp323
S''
asbasbasbag55
(g71
g57
NtRp324
(dp325
g60
(dp326
sg69
g257
sg62
(lp327
g55
(g76
g57
NtRp328
(dp329
g60
(dp330
g80
g81
ssg69
g324
sg62
(lp331
S'httponly'
p332
asbag55
(g76
g57
NtRp333
(dp334
g60
(dp335
g87
g88
ssg69
g324
sg62
(lp336
S':'
asbag55
(g76
g57
NtRp337
(dp338
g60
(dp339
sg69
g324
sg62
(lp340
g55
(g56
g57
NtRp341
(dp342
g60
(dp343
g68
I3
ssg69
g337
sg62
(lp344
S''
asbasbasbag55
(g71
g57
NtRp345
(dp346
g60
(dp347
sg69
g257
sg62
(lp348
g55
(g76
g57
NtRp349
(dp350
g60
(dp351
g80
g81
ssg69
g345
sg62
(lp352
S'max-age'
p353
asbag55
(g76
g57
NtRp354
(dp355
g60
(dp356
g87
g88
ssg69
g345
sg62
(lp357
S':'
asbag55
(g76
g57
NtRp358
(dp359
g60
(dp360
sg69
g345
sg62
(lp361
g55
(g56
g57
NtRp362
(dp363
g60
(dp364
g68
I3
ssg69
g358
sg62
(lp365
S''
asbasbasbag55
(g71
g57
NtRp366
(dp367
g60
(dp368
sg69
g257
sg62
(lp369
g55
(g76
g57
NtRp370
(dp371
g60
(dp372
g80
g81
ssg69
g366
sg62
(lp373
S'path'
p374
asbag55
(g76
g57
NtRp375
(dp376
g60
(dp377
g87
g88
ssg69
g366
sg62
(lp378
S':'
asbag55
(g76
g57
NtRp379
(dp380
g60
(dp381
sg69
g366
sg62
(lp382
g55
(g56
g57
NtRp383
(dp384
g60
(dp385
g68
I3
ssg69
g379
sg62
(lp386
S''
asbasbasbag55
(g71
g57
NtRp387
(dp388
g60
(dp389
sg69
g257
sg62
(lp390
g55
(g76
g57
NtRp391
(dp392
g60
(dp393
g80
g81
ssg69
g387
sg62
(lp394
S'secure'
p395
asbag55
(g76
g57
NtRp396
(dp397
g60
(dp398
g87
g88
ssg69
g387
sg62
(lp399
S':'
asbag55
(g76
g57
NtRp400
(dp401
g60
(dp402
sg69
g387
sg62
(lp403
g55
(g56
g57
NtRp404
(dp405
g60
(dp406
g68
I3
ssg69
g400
sg62
(lp407
S''
asbasbasbag55
(g71
g57
NtRp408
(dp409
g60
(dp410
sg69
g257
sg62
(lp411
g55
(g76
g57
NtRp412
(dp413
g60
(dp414
g80
g81
ssg69
g408
sg62
(lp415
S'version'
p416
asbag55
(g76
g57
NtRp417
(dp418
g60
(dp419
g87
g88
ssg69
g408
sg62
(lp420
S':'
asbag55
(g76
g57
NtRp421
(dp422
g60
(dp423
sg69
g408
sg62
(lp424
g55
(g56
g57
NtRp425
(dp426
g60
(dp427
g68
I3
ssg69
g421
sg62
(lp428
S''
asbasbasbasbasbasbasbag55
(g71
g57
NtRp429
(dp430
g60
(dp431
sg69
g232
sg62
(lp432
g55
(g76
g57
NtRp433
(dp434
g60
(dp435
g80
g81
ssg69
g429
sg62
(lp436
S'session_id_ddlagoon'
p437
asbag55
(g76
g57
NtRp438
(dp439
g60
(dp440
g87
g88
ssg69
g429
sg62
(lp441
S':'
asbag55
(g76
g57
NtRp442
(dp443
g60
(dp444
sg69
g429
sg62
(lp445
g55
(g56
g57
NtRp446
(dp447
g60
(dp448
g68
I4
ssg69
g442
sg62
(lp449
g55
(g64
g57
NtRp450
(dp451
g60
(dp452
g68
I3
ssg69
Nsg62
(lp453
g55
(g71
g57
NtRp454
(dp455
g60
(dp456
sg69
g450
sg62
(lp457
g55
(g76
g57
NtRp458
(dp459
g60
(dp460
g80
g81
ssg69
g454
sg62
(lp461
g269
asbag55
(g76
g57
NtRp462
(dp463
g60
(dp464
g87
g88
ssg69
g454
sg62
(lp465
S':'
asbag55
(g76
g57
NtRp466
(dp467
g60
(dp468
sg69
g454
sg62
(lp469
g55
(g56
g57
NtRp470
(dp471
g60
(dp472
g68
I3
ssg69
g466
sg62
(lp473
S''
asbasbasbag55
(g71
g57
NtRp474
(dp475
g60
(dp476
sg69
g450
sg62
(lp477
g55
(g76
g57
NtRp478
(dp479
g60
(dp480
g80
g81
ssg69
g474
sg62
(lp481
g290
asbag55
(g76
g57
NtRp482
(dp483
g60
(dp484
g87
g88
ssg69
g474
sg62
(lp485
S':'
asbag55
(g76
g57
NtRp486
(dp487
g60
(dp488
sg69
g474
sg62
(lp489
g55
(g56
g57
NtRp490
(dp491
g60
(dp492
g68
I3
ssg69
g486
sg62
(lp493
S''
asbasbasbag55
(g71
g57
NtRp494
(dp495
g60
(dp496
sg69
g450
sg62
(lp497
g55
(g76
g57
NtRp498
(dp499
g60
(dp500
g80
g81
ssg69
g494
sg62
(lp501
g311
asbag55
(g76
g57
NtRp502
(dp503
g60
(dp504
g87
g88
ssg69
g494
sg62
(lp505
S':'
asbag55
(g76
g57
NtRp506
(dp507
g60
(dp508
sg69
g494
sg62
(lp509
g55
(g56
g57
NtRp510
(dp511
g60
(dp512
g68
I3
ssg69
g506
sg62
(lp513
S''
asbasbasbag55
(g71
g57
NtRp514
(dp515
g60
(dp516
sg69
g450
sg62
(lp517
g55
(g76
g57
NtRp518
(dp519
g60
(dp520
g80
g81
ssg69
g514
sg62
(lp521
g332
asbag55
(g76
g57
NtRp522
(dp523
g60
(dp524
g87
g88
ssg69
g514
sg62
(lp525
S':'
asbag55
(g76
g57
NtRp526
(dp527
g60
(dp528
sg69
g514
sg62
(lp529
g55
(g56
g57
NtRp530
(dp531
g60
(dp532
g68
I3
ssg69
g526
sg62
(lp533
S''
asbasbasbag55
(g71
g57
NtRp534
(dp535
g60
(dp536
sg69
g450
sg62
(lp537
g55
(g76
g57
NtRp538
(dp539
g60
(dp540
g80
g81
ssg69
g534
sg62
(lp541
g353
asbag55
(g76
g57
NtRp542
(dp543
g60
(dp544
g87
g88
ssg69
g534
sg62
(lp545
S':'
asbag55
(g76
g57
NtRp546
(dp547
g60
(dp548
sg69
g534
sg62
(lp549
g55
(g56
g57
NtRp550
(dp551
g60
(dp552
g68
I3
ssg69
g546
sg62
(lp553
S''
asbasbasbag55
(g71
g57
NtRp554
(dp555
g60
(dp556
sg69
g450
sg62
(lp557
g55
(g76
g57
NtRp558
(dp559
g60
(dp560
g80
g81
ssg69
g554
sg62
(lp561
g374
asbag55
(g76
g57
NtRp562
(dp563
g60
(dp564
g87
g88
ssg69
g554
sg62
(lp565
S':'
asbag55
(g76
g57
NtRp566
(dp567
g60
(dp568
sg69
g554
sg62
(lp569
g55
(g56
g57
NtRp570
(dp571
g60
(dp572
g68
I3
ssg69
g566
sg62
(lp573
S''
asbasbasbag55
(g71
g57
NtRp574
(dp575
g60
(dp576
sg69
g450
sg62
(lp577
g55
(g76
g57
NtRp578
(dp579
g60
(dp580
g80
g81
ssg69
g574
sg62
(lp581
g395
asbag55
(g76
g57
NtRp582
(dp583
g60
(dp584
g87
g88
ssg69
g574
sg62
(lp585
S':'
asbag55
(g76
g57
NtRp586
(dp587
g60
(dp588
sg69
g574
sg62
(lp589
g55
(g56
g57
NtRp590
(dp591
g60
(dp592
g68
I3
ssg69
g586
sg62
(lp593
S''
asbasbasbag55
(g71
g57
NtRp594
(dp595
g60
(dp596
sg69
g450
sg62
(lp597
g55
(g76
g57
NtRp598
(dp599
g60
(dp600
g80
g81
ssg69
g594
sg62
(lp601
g416
asbag55
(g76
g57
NtRp602
(dp603
g60
(dp604
g87
g88
ssg69
g594
sg62
(lp605
S':'
asbag55
(g76
g57
NtRp606
(dp607
g60
(dp608
sg69
g594
sg62
(lp609
g55
(g56
g57
NtRp610
(dp611
g60
(dp612
g68
I3
ssg69
g606
sg62
(lp613
S''
asbasbasbasbasbasbasbasbasbasbasbag55
(g71
g57
NtRp614
(dp615
g60
(dp616
sg69
g65
sg62
(lp617
g55
(g76
g57
NtRp618
(dp619
g60
(dp620
g80
g81
ssg69
g614
sg62
(lp621
S'env'
p622
asbag55
(g76
g57
NtRp623
(dp624
g60
(dp625
g87
g88
ssg69
g614
sg62
(lp626
S':'
asbag55
(g76
g57
NtRp627
(dp628
g60
(dp629
sg69
g614
sg62
(lp630
g55
(g56
g57
NtRp631
(dp632
g60
(dp633
g68
I5
ssg69
g627
sg62
(lp634
g55
(g64
g57
NtRp635
(dp636
g60
(dp637
g68
I4
ssg69
Nsg62
(lp638
g55
(g71
g57
NtRp639
(dp640
g60
(dp641
sg69
g635
sg62
(lp642
g55
(g76
g57
NtRp643
(dp644
g60
(dp645
g80
g81
ssg69
g639
sg62
(lp646
S'app_folders'
p647
asbag55
(g76
g57
NtRp648
(dp649
g60
(dp650
g87
g88
ssg69
g639
sg62
(lp651
S':'
asbag55
(g76
g57
NtRp652
(dp653
g60
(dp654
sg69
g639
sg62
(lp655
g55
(g56
g57
NtRp656
(dp657
g60
(dp658
g68
I4
ssg69
g652
sg62
(lp659
S"set(['/windows/Users/Thomas/Dropbox/appz/2011/GAE/ddl-lagoon/applications/ddlagoon/', '/windows/Users/Thomas/Dropbox/appz/2011/GAE/ddl-lagoon/applications/admin/'])"
p660
asbasbasbag55
(g71
g57
NtRp661
(dp662
g60
(dp663
sg69
g635
sg62
(lp664
g55
(g76
g57
NtRp665
(dp666
g60
(dp667
g80
g81
ssg69
g661
sg62
(lp668
S'applications_parent'
p669
asbag55
(g76
g57
NtRp670
(dp671
g60
(dp672
g87
g88
ssg69
g661
sg62
(lp673
S':'
asbag55
(g76
g57
NtRp674
(dp675
g60
(dp676
sg69
g661
sg62
(lp677
g55
(g56
g57
NtRp678
(dp679
g60
(dp680
g68
I4
ssg69
g674
sg62
(lp681
S'/windows/Users/Thomas/Dropbox/appz/2011/GAE/ddl-lagoon'
p682
asbasbasbag55
(g71
g57
NtRp683
(dp684
g60
(dp685
sg69
g635
sg62
(lp686
g55
(g76
g57
NtRp687
(dp688
g60
(dp689
g80
g81
ssg69
g683
sg62
(lp690
S'cmd_args'
p691
asbag55
(g76
g57
NtRp692
(dp693
g60
(dp694
g87
g88
ssg69
g683
sg62
(lp695
S':'
asbag55
(g76
g57
NtRp696
(dp697
g60
(dp698
sg69
g683
sg62
(lp699
g55
(g56
g57
NtRp700
(dp701
g60
(dp702
g68
I4
ssg69
g696
sg62
(lp703
g55
(g64
g57
NtRp704
(dp705
g60
(dp706
g68
I3
ssg69
Nsg62
(lp707
sbasbasbasbag55
(g71
g57
NtRp708
(dp709
g60
(dp710
sg69
g635
sg62
(lp711
g55
(g76
g57
NtRp712
(dp713
g60
(dp714
g80
g81
ssg69
g708
sg62
(lp715
S'cmd_options'
p716
asbag55
(g76
g57
NtRp717
(dp718
g60
(dp719
g87
g88
ssg69
g708
sg62
(lp720
S':'
asbag55
(g76
g57
NtRp721
(dp722
g60
(dp723
sg69
g708
sg62
(lp724
g55
(g56
g57
NtRp725
(dp726
g60
(dp727
g68
I4
ssg69
g721
sg62
(lp728
S"<Values at 0x1e2b170: {'verbose': False, 'ip': '127.0.0.1', 'shutdown_timeout': 5, 'taskbar': False, 'nocron': False, 'pid_filename': 'httpserver.pid', 'maxthreads': None, 'softcron': False, 'server_name': 'VPCF22AJ', 'bpython': False, 'nogui': False, 'port': 8000, 'extcron': False, 'debuglevel': 30, 'test': None, 'folder': '/windows/Users/Thomas/Dropbox/appz/2011/GAE/ddl-lagoon', 'config': '', 'import_models': False, 'winservice': '', 'shell': None, 'run': '', 'log_filename': 'httpserver.log', 'args': [''], 'ssl_ca_certificate': None, 'scheduler': None, 'profiler_filename': None, 'ssl_private_key': '', 'password': 'admin', 'request_queue_size': 5, 'ssl_certificate': '', 'cronjob': False, 'plain': False, 'quiet': False, 'interfaces': None, 'minthreads': None, 'timeout': 10, 'numthreads': None, 'nobanner': False}>"
p729
asbasbasbag55
(g71
g57
NtRp730
(dp731
g60
(dp732
sg69
g635
sg62
(lp733
g55
(g76
g57
NtRp734
(dp735
g60
(dp736
g80
g81
ssg69
g730
sg62
(lp737
S'content_length'
p738
asbag55
(g76
g57
NtRp739
(dp740
g60
(dp741
g87
g88
ssg69
g730
sg62
(lp742
S':'
asbag55
(g76
g57
NtRp743
(dp744
g60
(dp745
sg69
g730
sg62
(lp746
g55
(g56
g57
NtRp747
(dp748
g60
(dp749
g68
I4
ssg69
g743
sg62
(lp750
S'278'
p751
asbasbasbag55
(g71
g57
NtRp752
(dp753
g60
(dp754
sg69
g635
sg62
(lp755
g55
(g76
g57
NtRp756
(dp757
g60
(dp758
g80
g81
ssg69
g752
sg62
(lp759
S'content_type'
p760
asbag55
(g76
g57
NtRp761
(dp762
g60
(dp763
g87
g88
ssg69
g752
sg62
(lp764
S':'
asbag55
(g76
g57
NtRp765
(dp766
g60
(dp767
sg69
g752
sg62
(lp768
g55
(g56
g57
NtRp769
(dp770
g60
(dp771
g68
I4
ssg69
g765
sg62
(lp772
S'multipart/form-data; boundary=----WebKitFormBoundaryqFSByq8uiHUh9zqP'
p773
asbasbasbag55
(g71
g57
NtRp774
(dp775
g60
(dp776
sg69
g635
sg62
(lp777
g55
(g76
g57
NtRp778
(dp779
g60
(dp780
g80
g81
ssg69
g774
sg62
(lp781
S'db_sessions'
p782
asbag55
(g76
g57
NtRp783
(dp784
g60
(dp785
g87
g88
ssg69
g774
sg62
(lp786
S':'
asbag55
(g76
g57
NtRp787
(dp788
g60
(dp789
sg69
g774
sg62
(lp790
g55
(g56
g57
NtRp791
(dp792
g60
(dp793
g68
I4
ssg69
g787
sg62
(lp794
S'set([])'
p795
asbasbasbag55
(g71
g57
NtRp796
(dp797
g60
(dp798
sg69
g635
sg62
(lp799
g55
(g76
g57
NtRp800
(dp801
g60
(dp802
g80
g81
ssg69
g796
sg62
(lp803
S'debugging'
p804
asbag55
(g76
g57
NtRp805
(dp806
g60
(dp807
g87
g88
ssg69
g796
sg62
(lp808
S':'
asbag55
(g76
g57
NtRp809
(dp810
g60
(dp811
sg69
g796
sg62
(lp812
g55
(g56
g57
NtRp813
(dp814
g60
(dp815
g68
I4
ssg69
g809
sg62
(lp816
g98
asbasbasbag55
(g71
g57
NtRp817
(dp818
g60
(dp819
sg69
g635
sg62
(lp820
g55
(g76
g57
NtRp821
(dp822
g60
(dp823
g80
g81
ssg69
g817
sg62
(lp824
S'gluon_parent'
p825
asbag55
(g76
g57
NtRp826
(dp827
g60
(dp828
g87
g88
ssg69
g817
sg62
(lp829
S':'
asbag55
(g76
g57
NtRp830
(dp831
g60
(dp832
sg69
g817
sg62
(lp833
g55
(g56
g57
NtRp834
(dp835
g60
(dp836
g68
I4
ssg69
g830
sg62
(lp837
S'/windows/Users/Thomas/Dropbox/appz/2011/GAE/ddl-lagoon'
p838
asbasbasbag55
(g71
g57
NtRp839
(dp840
g60
(dp841
sg69
g635
sg62
(lp842
g55
(g76
g57
NtRp843
(dp844
g60
(dp845
g80
g81
ssg69
g839
sg62
(lp846
S'http_accept'
p847
asbag55
(g76
g57
NtRp848
(dp849
g60
(dp850
g87
g88
ssg69
g839
sg62
(lp851
S':'
asbag55
(g76
g57
NtRp852
(dp853
g60
(dp854
sg69
g839
sg62
(lp855
g55
(g56
g57
NtRp856
(dp857
g60
(dp858
g68
I4
ssg69
g852
sg62
(lp859
S'text/html,application/xhtml+xml,application/xml;q=0.9,*/*;q=0.8'
p860
asbasbasbag55
(g71
g57
NtRp861
(dp862
g60
(dp863
sg69
g635
sg62
(lp864
g55
(g76
g57
NtRp865
(dp866
g60
(dp867
g80
g81
ssg69
g861
sg62
(lp868
S'http_accept_charset'
p869
asbag55
(g76
g57
NtRp870
(dp871
g60
(dp872
g87
g88
ssg69
g861
sg62
(lp873
S':'
asbag55
(g76
g57
NtRp874
(dp875
g60
(dp876
sg69
g861
sg62
(lp877
g55
(g56
g57
NtRp878
(dp879
g60
(dp880
g68
I4
ssg69
g874
sg62
(lp881
S'ISO-8859-1,utf-8;q=0.7,*;q=0.3'
p882
asbasbasbag55
(g71
g57
NtRp883
(dp884
g60
(dp885
sg69
g635
sg62
(lp886
g55
(g76
g57
NtRp887
(dp888
g60
(dp889
g80
g81
ssg69
g883
sg62
(lp890
S'http_accept_encoding'
p891
asbag55
(g76
g57
NtRp892
(dp893
g60
(dp894
g87
g88
ssg69
g883
sg62
(lp895
S':'
asbag55
(g76
g57
NtRp896
(dp897
g60
(dp898
sg69
g883
sg62
(lp899
g55
(g56
g57
NtRp900
(dp901
g60
(dp902
g68
I4
ssg69
g896
sg62
(lp903
S'gzip,deflate,sdch'
p904
asbasbasbag55
(g71
g57
NtRp905
(dp906
g60
(dp907
sg69
g635
sg62
(lp908
g55
(g76
g57
NtRp909
(dp910
g60
(dp911
g80
g81
ssg69
g905
sg62
(lp912
S'http_accept_language'
p913
asbag55
(g76
g57
NtRp914
(dp915
g60
(dp916
g87
g88
ssg69
g905
sg62
(lp917
S':'
asbag55
(g76
g57
NtRp918
(dp919
g60
(dp920
sg69
g905
sg62
(lp921
g55
(g56
g57
NtRp922
(dp923
g60
(dp924
g68
I4
ssg69
g918
sg62
(lp925
S'en-US,en;q=0.8,fr;q=0.6'
p926
asbasbasbag55
(g71
g57
NtRp927
(dp928
g60
(dp929
sg69
g635
sg62
(lp930
g55
(g76
g57
NtRp931
(dp932
g60
(dp933
g80
g81
ssg69
g927
sg62
(lp934
S'http_cache_control'
p935
asbag55
(g76
g57
NtRp936
(dp937
g60
(dp938
g87
g88
ssg69
g927
sg62
(lp939
S':'
asbag55
(g76
g57
NtRp940
(dp941
g60
(dp942
sg69
g927
sg62
(lp943
g55
(g56
g57
NtRp944
(dp945
g60
(dp946
g68
I4
ssg69
g940
sg62
(lp947
S'max-age=0'
p948
asbasbasbag55
(g71
g57
NtRp949
(dp950
g60
(dp951
sg69
g635
sg62
(lp952
g55
(g76
g57
NtRp953
(dp954
g60
(dp955
g80
g81
ssg69
g949
sg62
(lp956
S'http_connection'
p957
asbag55
(g76
g57
NtRp958
(dp959
g60
(dp960
g87
g88
ssg69
g949
sg62
(lp961
S':'
asbag55
(g76
g57
NtRp962
(dp963
g60
(dp964
sg69
g949
sg62
(lp965
g55
(g56
g57
NtRp966
(dp967
g60
(dp968
g68
I4
ssg69
g962
sg62
(lp969
S'keep-alive'
p970
asbasbasbag55
(g71
g57
NtRp971
(dp972
g60
(dp973
sg69
g635
sg62
(lp974
g55
(g76
g57
NtRp975
(dp976
g60
(dp977
g80
g81
ssg69
g971
sg62
(lp978
S'http_content_length'
p979
asbag55
(g76
g57
NtRp980
(dp981
g60
(dp982
g87
g88
ssg69
g971
sg62
(lp983
S':'
asbag55
(g76
g57
NtRp984
(dp985
g60
(dp986
sg69
g971
sg62
(lp987
g55
(g56
g57
NtRp988
(dp989
g60
(dp990
g68
I4
ssg69
g984
sg62
(lp991
g751
asbasbasbag55
(g71
g57
NtRp992
(dp993
g60
(dp994
sg69
g635
sg62
(lp995
g55
(g76
g57
NtRp996
(dp997
g60
(dp998
g80
g81
ssg69
g992
sg62
(lp999
S'http_content_type'
p1000
asbag55
(g76
g57
NtRp1001
(dp1002
g60
(dp1003
g87
g88
ssg69
g992
sg62
(lp1004
S':'
asbag55
(g76
g57
NtRp1005
(dp1006
g60
(dp1007
sg69
g992
sg62
(lp1008
g55
(g56
g57
NtRp1009
(dp1010
g60
(dp1011
g68
I4
ssg69
g1005
sg62
(lp1012
g773
asbasbasbag55
(g71
g57
NtRp1013
(dp1014
g60
(dp1015
sg69
g635
sg62
(lp1016
g55
(g76
g57
NtRp1017
(dp1018
g60
(dp1019
g80
g81
ssg69
g1013
sg62
(lp1020
S'http_cookie'
p1021
asbag55
(g76
g57
NtRp1022
(dp1023
g60
(dp1024
g87
g88
ssg69
g1013
sg62
(lp1025
S':'
asbag55
(g76
g57
NtRp1026
(dp1027
g60
(dp1028
sg69
g1013
sg62
(lp1029
g55
(g56
g57
NtRp1030
(dp1031
g60
(dp1032
g68
I4
ssg69
g1026
sg62
(lp1033
S'__utma_a2a=6830991484.1350583772.1319026846.1319052270.1319052278.11; session_id_admin=127.0.0.1-7dd069a2-a0a7-4285-a99a-d0dc24f9a0a4; session_id_ddlagoon=127.0.0.1-60102476-ed87-4511-b16b-e72b3489909e'
p1034
asbasbasbag55
(g71
g57
NtRp1035
(dp1036
g60
(dp1037
sg69
g635
sg62
(lp1038
g55
(g76
g57
NtRp1039
(dp1040
g60
(dp1041
g80
g81
ssg69
g1035
sg62
(lp1042
S'http_host'
p1043
asbag55
(g76
g57
NtRp1044
(dp1045
g60
(dp1046
g87
g88
ssg69
g1035
sg62
(lp1047
S':'
asbag55
(g76
g57
NtRp1048
(dp1049
g60
(dp1050
sg69
g1035
sg62
(lp1051
g55
(g56
g57
NtRp1052
(dp1053
g60
(dp1054
g68
I4
ssg69
g1048
sg62
(lp1055
S'localhost:8000'
p1056
asbasbasbag55
(g71
g57
NtRp1057
(dp1058
g60
(dp1059
sg69
g635
sg62
(lp1060
g55
(g76
g57
NtRp1061
(dp1062
g60
(dp1063
g80
g81
ssg69
g1057
sg62
(lp1064
S'http_origin'
p1065
asbag55
(g76
g57
NtRp1066
(dp1067
g60
(dp1068
g87
g88
ssg69
g1057
sg62
(lp1069
S':'
asbag55
(g76
g57
NtRp1070
(dp1071
g60
(dp1072
sg69
g1057
sg62
(lp1073
g55
(g56
g57
NtRp1074
(dp1075
g60
(dp1076
g68
I4
ssg69
g1070
sg62
(lp1077
S'http://localhost:8000'
p1078
asbasbasbag55
(g71
g57
NtRp1079
(dp1080
g60
(dp1081
sg69
g635
sg62
(lp1082
g55
(g76
g57
NtRp1083
(dp1084
g60
(dp1085
g80
g81
ssg69
g1079
sg62
(lp1086
S'http_referer'
p1087
asbag55
(g76
g57
NtRp1088
(dp1089
g60
(dp1090
g87
g88
ssg69
g1079
sg62
(lp1091
S':'
asbag55
(g76
g57
NtRp1092
(dp1093
g60
(dp1094
sg69
g1079
sg62
(lp1095
g55
(g56
g57
NtRp1096
(dp1097
g60
(dp1098
g68
I4
ssg69
g1092
sg62
(lp1099
S'http://localhost:8000/ddlagoon/default/index'
p1100
asbasbasbag55
(g71
g57
NtRp1101
(dp1102
g60
(dp1103
sg69
g635
sg62
(lp1104
g55
(g76
g57
NtRp1105
(dp1106
g60
(dp1107
g80
g81
ssg69
g1101
sg62
(lp1108
S'http_user_agent'
p1109
asbag55
(g76
g57
NtRp1110
(dp1111
g60
(dp1112
g87
g88
ssg69
g1101
sg62
(lp1113
S':'
asbag55
(g76
g57
NtRp1114
(dp1115
g60
(dp1116
sg69
g1101
sg62
(lp1117
g55
(g56
g57
NtRp1118
(dp1119
g60
(dp1120
g68
I4
ssg69
g1114
sg62
(lp1121
S'Mozilla/5.0 (X11; Linux x86_64) AppleWebKit/535.2 (KHTML, like Gecko) Chrome/15.0.874.106 Safari/535.2'
p1122
asbasbasbag55
(g71
g57
NtRp1123
(dp1124
g60
(dp1125
sg69
g635
sg62
(lp1126
g55
(g76
g57
NtRp1127
(dp1128
g60
(dp1129
g80
g81
ssg69
g1123
sg62
(lp1130
S'is_jython'
p1131
asbag55
(g76
g57
NtRp1132
(dp1133
g60
(dp1134
g87
g88
ssg69
g1123
sg62
(lp1135
S':'
asbag55
(g76
g57
NtRp1136
(dp1137
g60
(dp1138
sg69
g1123
sg62
(lp1139
g55
(g56
g57
NtRp1140
(dp1141
g60
(dp1142
g68
I4
ssg69
g1136
sg62
(lp1143
g98
asbasbasbag55
(g71
g57
NtRp1144
(dp1145
g60
(dp1146
sg69
g635
sg62
(lp1147
g55
(g76
g57
NtRp1148
(dp1149
g60
(dp1150
g80
g81
ssg69
g1144
sg62
(lp1151
S'path_info'
p1152
asbag55
(g76
g57
NtRp1153
(dp1154
g60
(dp1155
g87
g88
ssg69
g1144
sg62
(lp1156
S':'
asbag55
(g76
g57
NtRp1157
(dp1158
g60
(dp1159
sg69
g1144
sg62
(lp1160
g55
(g56
g57
NtRp1161
(dp1162
g60
(dp1163
g68
I4
ssg69
g1157
sg62
(lp1164
S'/ddlagoon/default/index'
p1165
asbasbasbag55
(g71
g57
NtRp1166
(dp1167
g60
(dp1168
sg69
g635
sg62
(lp1169
g55
(g76
g57
NtRp1170
(dp1171
g60
(dp1172
g80
g81
ssg69
g1166
sg62
(lp1173
S'query_string'
p1174
asbag55
(g76
g57
NtRp1175
(dp1176
g60
(dp1177
g87
g88
ssg69
g1166
sg62
(lp1178
S':'
asbag55
(g76
g57
NtRp1179
(dp1180
g60
(dp1181
sg69
g1166
sg62
(lp1182
g55
(g56
g57
NtRp1183
(dp1184
g60
(dp1185
g68
I4
ssg69
g1179
sg62
(lp1186
S''
asbasbasbag55
(g71
g57
NtRp1187
(dp1188
g60
(dp1189
sg69
g635
sg62
(lp1190
g55
(g76
g57
NtRp1191
(dp1192
g60
(dp1193
g80
g81
ssg69
g1187
sg62
(lp1194
S'remote_addr'
p1195
asbag55
(g76
g57
NtRp1196
(dp1197
g60
(dp1198
g87
g88
ssg69
g1187
sg62
(lp1199
S':'
asbag55
(g76
g57
NtRp1200
(dp1201
g60
(dp1202
sg69
g1187
sg62
(lp1203
g55
(g56
g57
NtRp1204
(dp1205
g60
(dp1206
g68
I4
ssg69
g1200
sg62
(lp1207
g188
asbasbasbag55
(g71
g57
NtRp1208
(dp1209
g60
(dp1210
sg69
g635
sg62
(lp1211
g55
(g76
g57
NtRp1212
(dp1213
g60
(dp1214
g80
g81
ssg69
g1208
sg62
(lp1215
S'remote_port'
p1216
asbag55
(g76
g57
NtRp1217
(dp1218
g60
(dp1219
g87
g88
ssg69
g1208
sg62
(lp1220
S':'
asbag55
(g76
g57
NtRp1221
(dp1222
g60
(dp1223
sg69
g1208
sg62
(lp1224
g55
(g56
g57
NtRp1225
(dp1226
g60
(dp1227
g68
I4
ssg69
g1221
sg62
(lp1228
S'57190'
p1229
asbasbasbag55
(g71
g57
NtRp1230
(dp1231
g60
(dp1232
sg69
g635
sg62
(lp1233
g55
(g76
g57
NtRp1234
(dp1235
g60
(dp1236
g80
g81
ssg69
g1230
sg62
(lp1237
S'request_method'
p1238
asbag55
(g76
g57
NtRp1239
(dp1240
g60
(dp1241
g87
g88
ssg69
g1230
sg62
(lp1242
S':'
asbag55
(g76
g57
NtRp1243
(dp1244
g60
(dp1245
sg69
g1230
sg62
(lp1246
g55
(g56
g57
NtRp1247
(dp1248
g60
(dp1249
g68
I4
ssg69
g1243
sg62
(lp1250
S'POST'
p1251
asbasbasbag55
(g71
g57
NtRp1252
(dp1253
g60
(dp1254
sg69
g635
sg62
(lp1255
g55
(g76
g57
NtRp1256
(dp1257
g60
(dp1258
g80
g81
ssg69
g1252
sg62
(lp1259
S'request_uri'
p1260
asbag55
(g76
g57
NtRp1261
(dp1262
g60
(dp1263
g87
g88
ssg69
g1252
sg62
(lp1264
S':'
asbag55
(g76
g57
NtRp1265
(dp1266
g60
(dp1267
sg69
g1252
sg62
(lp1268
g55
(g56
g57
NtRp1269
(dp1270
g60
(dp1271
g68
I4
ssg69
g1265
sg62
(lp1272
g1165
asbasbasbag55
(g71
g57
NtRp1273
(dp1274
g60
(dp1275
sg69
g635
sg62
(lp1276
g55
(g76
g57
NtRp1277
(dp1278
g60
(dp1279
g80
g81
ssg69
g1273
sg62
(lp1280
S'script_name'
p1281
asbag55
(g76
g57
NtRp1282
(dp1283
g60
(dp1284
g87
g88
ssg69
g1273
sg62
(lp1285
S':'
asbag55
(g76
g57
NtRp1286
(dp1287
g60
(dp1288
sg69
g1273
sg62
(lp1289
g55
(g56
g57
NtRp1290
(dp1291
g60
(dp1292
g68
I4
ssg69
g1286
sg62
(lp1293
S''
asbasbasbag55
(g71
g57
NtRp1294
(dp1295
g60
(dp1296
sg69
g635
sg62
(lp1297
g55
(g76
g57
NtRp1298
(dp1299
g60
(dp1300
g80
g81
ssg69
g1294
sg62
(lp1301
S'server_name'
p1302
asbag55
(g76
g57
NtRp1303
(dp1304
g60
(dp1305
g87
g88
ssg69
g1294
sg62
(lp1306
S':'
asbag55
(g76
g57
NtRp1307
(dp1308
g60
(dp1309
sg69
g1294
sg62
(lp1310
g55
(g56
g57
NtRp1311
(dp1312
g60
(dp1313
g68
I4
ssg69
g1307
sg62
(lp1314
S'VPCF22AJ'
p1315
asbasbasbag55
(g71
g57
NtRp1316
(dp1317
g60
(dp1318
sg69
g635
sg62
(lp1319
g55
(g76
g57
NtRp1320
(dp1321
g60
(dp1322
g80
g81
ssg69
g1316
sg62
(lp1323
S'server_port'
p1324
asbag55
(g76
g57
NtRp1325
(dp1326
g60
(dp1327
g87
g88
ssg69
g1316
sg62
(lp1328
S':'
asbag55
(g76
g57
NtRp1329
(dp1330
g60
(dp1331
sg69
g1316
sg62
(lp1332
g55
(g56
g57
NtRp1333
(dp1334
g60
(dp1335
g68
I4
ssg69
g1329
sg62
(lp1336
S'8000'
p1337
asbasbasbag55
(g71
g57
NtRp1338
(dp1339
g60
(dp1340
sg69
g635
sg62
(lp1341
g55
(g76
g57
NtRp1342
(dp1343
g60
(dp1344
g80
g81
ssg69
g1338
sg62
(lp1345
S'server_protocol'
p1346
asbag55
(g76
g57
NtRp1347
(dp1348
g60
(dp1349
g87
g88
ssg69
g1338
sg62
(lp1350
S':'
asbag55
(g76
g57
NtRp1351
(dp1352
g60
(dp1353
sg69
g1338
sg62
(lp1354
g55
(g56
g57
NtRp1355
(dp1356
g60
(dp1357
g68
I4
ssg69
g1351
sg62
(lp1358
S'HTTP/1.1'
p1359
asbasbasbag55
(g71
g57
NtRp1360
(dp1361
g60
(dp1362
sg69
g635
sg62
(lp1363
g55
(g76
g57
NtRp1364
(dp1365
g60
(dp1366
g80
g81
ssg69
g1360
sg62
(lp1367
S'server_software'
p1368
asbag55
(g76
g57
NtRp1369
(dp1370
g60
(dp1371
g87
g88
ssg69
g1360
sg62
(lp1372
S':'
asbag55
(g76
g57
NtRp1373
(dp1374
g60
(dp1375
sg69
g1360
sg62
(lp1376
g55
(g56
g57
NtRp1377
(dp1378
g60
(dp1379
g68
I4
ssg69
g1373
sg62
(lp1380
S'Rocket 1.2.4'
p1381
asbasbasbag55
(g71
g57
NtRp1382
(dp1383
g60
(dp1384
sg69
g635
sg62
(lp1385
g55
(g76
g57
NtRp1386
(dp1387
g60
(dp1388
g80
g81
ssg69
g1382
sg62
(lp1389
S'web2py_crontype'
p1390
asbag55
(g76
g57
NtRp1391
(dp1392
g60
(dp1393
g87
g88
ssg69
g1382
sg62
(lp1394
S':'
asbag55
(g76
g57
NtRp1395
(dp1396
g60
(dp1397
sg69
g1382
sg62
(lp1398
g55
(g56
g57
NtRp1399
(dp1400
g60
(dp1401
g68
I4
ssg69
g1395
sg62
(lp1402
S'hard'
p1403
asbasbasbag55
(g71
g57
NtRp1404
(dp1405
g60
(dp1406
sg69
g635
sg62
(lp1407
g55
(g76
g57
NtRp1408
(dp1409
g60
(dp1410
g80
g81
ssg69
g1404
sg62
(lp1411
S'web2py_original_uri'
p1412
asbag55
(g76
g57
NtRp1413
(dp1414
g60
(dp1415
g87
g88
ssg69
g1404
sg62
(lp1416
S':'
asbag55
(g76
g57
NtRp1417
(dp1418
g60
(dp1419
sg69
g1404
sg62
(lp1420
g55
(g56
g57
NtRp1421
(dp1422
g60
(dp1423
g68
I4
ssg69
g1417
sg62
(lp1424
g1165
asbasbasbag55
(g71
g57
NtRp1425
(dp1426
g60
(dp1427
sg69
g635
sg62
(lp1428
g55
(g76
g57
NtRp1429
(dp1430
g60
(dp1431
g80
g81
ssg69
g1425
sg62
(lp1432
S'web2py_path'
p1433
asbag55
(g76
g57
NtRp1434
(dp1435
g60
(dp1436
g87
g88
ssg69
g1425
sg62
(lp1437
S':'
asbag55
(g76
g57
NtRp1438
(dp1439
g60
(dp1440
sg69
g1425
sg62
(lp1441
g55
(g56
g57
NtRp1442
(dp1443
g60
(dp1444
g68
I4
ssg69
g1438
sg62
(lp1445
g682
asbasbasbag55
(g71
g57
NtRp1446
(dp1447
g60
(dp1448
sg69
g635
sg62
(lp1449
g55
(g76
g57
NtRp1450
(dp1451
g60
(dp1452
g80
g81
ssg69
g1446
sg62
(lp1453
S'web2py_version'
p1454
asbag55
(g76
g57
NtRp1455
(dp1456
g60
(dp1457
g87
g88
ssg69
g1446
sg62
(lp1458
S':'
asbag55
(g76
g57
NtRp1459
(dp1460
g60
(dp1461
sg69
g1446
sg62
(lp1462
g55
(g56
g57
NtRp1463
(dp1464
g60
(dp1465
g68
I4
ssg69
g1459
sg62
(lp1466
g55
(g64
g57
NtRp1467
(dp1468
g60
(dp1469
g68
I3
ssg69
Nsg62
(lp1470
g55
(g71
g57
NtRp1471
(dp1472
g60
(dp1473
sg69
g1467
sg62
(lp1474
g55
(g76
g57
NtRp1475
(dp1476
g60
(dp1477
sg69
g1471
sg62
(lp1478
g55
(g56
g57
NtRp1479
(dp1480
g60
(dp1481
g68
I3
ssg69
g1475
sg62
(lp1482
S'1'
asbasbasbag55
(g71
g57
NtRp1483
(dp1484
g60
(dp1485
sg69
g1467
sg62
(lp1486
g55
(g76
g57
NtRp1487
(dp1488
g60
(dp1489
sg69
g1483
sg62
(lp1490
g55
(g56
g57
NtRp1491
(dp1492
g60
(dp1493
g68
I3
ssg69
g1487
sg62
(lp1494
S'99'
p1495
asbasbasbag55
(g71
g57
NtRp1496
(dp1497
g60
(dp1498
sg69
g1467
sg62
(lp1499
g55
(g76
g57
NtRp1500
(dp1501
g60
(dp1502
sg69
g1496
sg62
(lp1503
g55
(g56
g57
NtRp1504
(dp1505
g60
(dp1506
g68
I3
ssg69
g1500
sg62
(lp1507
S'2'
asbasbasbag55
(g71
g57
NtRp1508
(dp1509
g60
(dp1510
sg69
g1467
sg62
(lp1511
g55
(g76
g57
NtRp1512
(dp1513
g60
(dp1514
sg69
g1508
sg62
(lp1515
g55
(g56
g57
NtRp1516
(dp1517
g60
(dp1518
g68
I3
ssg69
g1512
sg62
(lp1519
S'datetime.datetime(2011, 9, 26, 6, 55, 33)'
p1520
asbasbasbag55
(g71
g57
NtRp1521
(dp1522
g60
(dp1523
sg69
g1467
sg62
(lp1524
g55
(g76
g57
NtRp1525
(dp1526
g60
(dp1527
sg69
g1521
sg62
(lp1528
g55
(g56
g57
NtRp1529
(dp1530
g60
(dp1531
g68
I3
ssg69
g1525
sg62
(lp1532
S'stable'
p1533
asbasbasbasbasbasbasbag55
(g71
g57
NtRp1534
(dp1535
g60
(dp1536
sg69
g635
sg62
(lp1537
g55
(g76
g57
NtRp1538
(dp1539
g60
(dp1540
g80
g81
ssg69
g1534
sg62
(lp1541
S'wsgi_errors'
p1542
asbag55
(g76
g57
NtRp1543
(dp1544
g60
(dp1545
g87
g88
ssg69
g1534
sg62
(lp1546
S':'
asbag55
(g76
g57
NtRp1547
(dp1548
g60
(dp1549
sg69
g1534
sg62
(lp1550
g55
(g56
g57
NtRp1551
(dp1552
g60
(dp1553
g68
I4
ssg69
g1547
sg62
(lp1554
S"<open file '<stderr>', mode 'w' at 0x7fa4afe891e0>"
p1555
asbasbasbag55
(g71
g57
NtRp1556
(dp1557
g60
(dp1558
sg69
g635
sg62
(lp1559
g55
(g76
g57
NtRp1560
(dp1561
g60
(dp1562
g80
g81
ssg69
g1556
sg62
(lp1563
S'wsgi_file_wrapper'
p1564
asbag55
(g76
g57
NtRp1565
(dp1566
g60
(dp1567
g87
g88
ssg69
g1556
sg62
(lp1568
S':'
asbag55
(g76
g57
NtRp1569
(dp1570
g60
(dp1571
sg69
g1556
sg62
(lp1572
g55
(g56
g57
NtRp1573
(dp1574
g60
(dp1575
g68
I4
ssg69
g1569
sg62
(lp1576
S'<class wsgiref.util.FileWrapper at 0x1bbf590>'
p1577
asbasbasbag55
(g71
g57
NtRp1578
(dp1579
g60
(dp1580
sg69
g635
sg62
(lp1581
g55
(g76
g57
NtRp1582
(dp1583
g60
(dp1584
g80
g81
ssg69
g1578
sg62
(lp1585
S'wsgi_input'
p1586
asbag55
(g76
g57
NtRp1587
(dp1588
g60
(dp1589
g87
g88
ssg69
g1578
sg62
(lp1590
S':'
asbag55
(g76
g57
NtRp1591
(dp1592
g60
(dp1593
sg69
g1578
sg62
(lp1594
g55
(g56
g57
NtRp1595
(dp1596
g60
(dp1597
g68
I4
ssg69
g1591
sg62
(lp1598
S'<socket._fileobject object at 0x20bf5d0>'
p1599
asbasbasbag55
(g71
g57
NtRp1600
(dp1601
g60
(dp1602
sg69
g635
sg62
(lp1603
g55
(g76
g57
NtRp1604
(dp1605
g60
(dp1606
g80
g81
ssg69
g1600
sg62
(lp1607
S'wsgi_multiprocess'
p1608
asbag55
(g76
g57
NtRp1609
(dp1610
g60
(dp1611
g87
g88
ssg69
g1600
sg62
(lp1612
S':'
asbag55
(g76
g57
NtRp1613
(dp1614
g60
(dp1615
sg69
g1600
sg62
(lp1616
g55
(g56
g57
NtRp1617
(dp1618
g60
(dp1619
g68
I4
ssg69
g1613
sg62
(lp1620
g98
asbasbasbag55
(g71
g57
NtRp1621
(dp1622
g60
(dp1623
sg69
g635
sg62
(lp1624
g55
(g76
g57
NtRp1625
(dp1626
g60
(dp1627
g80
g81
ssg69
g1621
sg62
(lp1628
S'wsgi_multithread'
p1629
asbag55
(g76
g57
NtRp1630
(dp1631
g60
(dp1632
g87
g88
ssg69
g1621
sg62
(lp1633
S':'
asbag55
(g76
g57
NtRp1634
(dp1635
g60
(dp1636
sg69
g1621
sg62
(lp1637
g55
(g56
g57
NtRp1638
(dp1639
g60
(dp1640
g68
I4
ssg69
g1634
sg62
(lp1641
S'True'
p1642
asbasbasbag55
(g71
g57
NtRp1643
(dp1644
g60
(dp1645
sg69
g635
sg62
(lp1646
g55
(g76
g57
NtRp1647
(dp1648
g60
(dp1649
g80
g81
ssg69
g1643
sg62
(lp1650
S'wsgi_run_once'
p1651
asbag55
(g76
g57
NtRp1652
(dp1653
g60
(dp1654
g87
g88
ssg69
g1643
sg62
(lp1655
S':'
asbag55
(g76
g57
NtRp1656
(dp1657
g60
(dp1658
sg69
g1643
sg62
(lp1659
g55
(g56
g57
NtRp1660
(dp1661
g60
(dp1662
g68
I4
ssg69
g1656
sg62
(lp1663
g98
asbasbasbag55
(g71
g57
NtRp1664
(dp1665
g60
(dp1666
sg69
g635
sg62
(lp1667
g55
(g76
g57
NtRp1668
(dp1669
g60
(dp1670
g80
g81
ssg69
g1664
sg62
(lp1671
S'wsgi_url_scheme'
p1672
asbag55
(g76
g57
NtRp1673
(dp1674
g60
(dp1675
g87
g88
ssg69
g1664
sg62
(lp1676
S':'
asbag55
(g76
g57
NtRp1677
(dp1678
g60
(dp1679
sg69
g1664
sg62
(lp1680
g55
(g56
g57
NtRp1681
(dp1682
g60
(dp1683
g68
I4
ssg69
g1677
sg62
(lp1684
S'http'
p1685
asbasbasbag55
(g71
g57
NtRp1686
(dp1687
g60
(dp1688
sg69
g635
sg62
(lp1689
g55
(g76
g57
NtRp1690
(dp1691
g60
(dp1692
g80
g81
ssg69
g1686
sg62
(lp1693
S'wsgi_version'
p1694
asbag55
(g76
g57
NtRp1695
(dp1696
g60
(dp1697
g87
g88
ssg69
g1686
sg62
(lp1698
S':'
asbag55
(g76
g57
NtRp1699
(dp1700
g60
(dp1701
sg69
g1686
sg62
(lp1702
g55
(g56
g57
NtRp1703
(dp1704
g60
(dp1705
g68
I4
ssg69
g1699
sg62
(lp1706
g55
(g64
g57
NtRp1707
(dp1708
g60
(dp1709
g68
I3
ssg69
Nsg62
(lp1710
g55
(g71
g57
NtRp1711
(dp1712
g60
(dp1713
sg69
g1707
sg62
(lp1714
g55
(g76
g57
NtRp1715
(dp1716
g60
(dp1717
sg69
g1711
sg62
(lp1718
g55
(g56
g57
NtRp1719
(dp1720
g60
(dp1721
g68
I3
ssg69
g1715
sg62
(lp1722
S'1'
asbasbasbag55
(g71
g57
NtRp1723
(dp1724
g60
(dp1725
sg69
g1707
sg62
(lp1726
g55
(g76
g57
NtRp1727
(dp1728
g60
(dp1729
sg69
g1723
sg62
(lp1730
g55
(g56
g57
NtRp1731
(dp1732
g60
(dp1733
g68
I3
ssg69
g1727
sg62
(lp1734
S'0'
asbasbasbasbasbasbasbasbasbasbasbag55
(g71
g57
NtRp1735
(dp1736
g60
(dp1737
sg69
g65
sg62
(lp1738
g55
(g76
g57
NtRp1739
(dp1740
g60
(dp1741
g80
g81
ssg69
g1735
sg62
(lp1742
S'extension'
p1743
asbag55
(g76
g57
NtRp1744
(dp1745
g60
(dp1746
g87
g88
ssg69
g1735
sg62
(lp1747
S':'
asbag55
(g76
g57
NtRp1748
(dp1749
g60
(dp1750
sg69
g1735
sg62
(lp1751
g55
(g56
g57
NtRp1752
(dp1753
g60
(dp1754
g68
I5
ssg69
g1748
sg62
(lp1755
S'html'
p1756
asbasbasbag55
(g71
g57
NtRp1757
(dp1758
g60
(dp1759
sg69
g65
sg62
(lp1760
g55
(g76
g57
NtRp1761
(dp1762
g60
(dp1763
g80
g81
ssg69
g1757
sg62
(lp1764
S'folder'
p1765
asbag55
(g76
g57
NtRp1766
(dp1767
g60
(dp1768
g87
g88
ssg69
g1757
sg62
(lp1769
S':'
asbag55
(g76
g57
NtRp1770
(dp1771
g60
(dp1772
sg69
g1757
sg62
(lp1773
g55
(g56
g57
NtRp1774
(dp1775
g60
(dp1776
g68
I5
ssg69
g1770
sg62
(lp1777
S'/windows/Users/Thomas/Dropbox/appz/2011/GAE/ddl-lagoon/applications/ddlagoon/'
p1778
asbasbasbag55
(g71
g57
NtRp1779
(dp1780
g60
(dp1781
sg69
g65
sg62
(lp1782
g55
(g76
g57
NtRp1783
(dp1784
g60
(dp1785
g80
g81
ssg69
g1779
sg62
(lp1786
S'function'
p1787
asbag55
(g76
g57
NtRp1788
(dp1789
g60
(dp1790
g87
g88
ssg69
g1779
sg62
(lp1791
S':'
asbag55
(g76
g57
NtRp1792
(dp1793
g60
(dp1794
sg69
g1779
sg62
(lp1795
g55
(g56
g57
NtRp1796
(dp1797
g60
(dp1798
g68
I5
ssg69
g1792
sg62
(lp1799
S'index'
p1800
asbasbasbag55
(g71
g57
NtRp1801
(dp1802
g60
(dp1803
sg69
g65
sg62
(lp1804
g55
(g76
g57
NtRp1805
(dp1806
g60
(dp1807
g80
g81
ssg69
g1801
sg62
(lp1808
S'get_vars'
p1809
asbag55
(g76
g57
NtRp1810
(dp1811
g60
(dp1812
g87
g88
ssg69
g1801
sg62
(lp1813
S':'
asbag55
(g76
g57
NtRp1814
(dp1815
g60
(dp1816
sg69
g1801
sg62
(lp1817
g55
(g56
g57
NtRp1818
(dp1819
g60
(dp1820
g68
I5
ssg69
g1814
sg62
(lp1821
g55
(g64
g57
NtRp1822
(dp1823
g60
(dp1824
g68
I4
ssg69
Nsg62
(lp1825
sbasbasbasbag55
(g71
g57
NtRp1826
(dp1827
g60
(dp1828
sg69
g65
sg62
(lp1829
g55
(g76
g57
NtRp1830
(dp1831
g60
(dp1832
g80
g81
ssg69
g1826
sg62
(lp1833
S'global_settings'
p1834
asbag55
(g76
g57
NtRp1835
(dp1836
g60
(dp1837
g87
g88
ssg69
g1826
sg62
(lp1838
S':'
asbag55
(g76
g57
NtRp1839
(dp1840
g60
(dp1841
sg69
g1826
sg62
(lp1842
g55
(g56
g57
NtRp1843
(dp1844
g60
(dp1845
g68
I5
ssg69
g1839
sg62
(lp1846
g55
(g64
g57
NtRp1847
(dp1848
g60
(dp1849
g68
I4
ssg69
Nsg62
(lp1850
g55
(g71
g57
NtRp1851
(dp1852
g60
(dp1853
sg69
g1847
sg62
(lp1854
g55
(g76
g57
NtRp1855
(dp1856
g60
(dp1857
g80
g81
ssg69
g1851
sg62
(lp1858
g647
asbag55
(g76
g57
NtRp1859
(dp1860
g60
(dp1861
g87
g88
ssg69
g1851
sg62
(lp1862
S':'
asbag55
(g76
g57
NtRp1863
(dp1864
g60
(dp1865
sg69
g1851
sg62
(lp1866
g55
(g56
g57
NtRp1867
(dp1868
g60
(dp1869
g68
I4
ssg69
g1863
sg62
(lp1870
S"set(['/windows/Users/Thomas/Dropbox/appz/2011/GAE/ddl-lagoon/applications/ddlagoon/', '/windows/Users/Thomas/Dropbox/appz/2011/GAE/ddl-lagoon/applications/admin/'])"
p1871
asbasbasbag55
(g71
g57
NtRp1872
(dp1873
g60
(dp1874
sg69
g1847
sg62
(lp1875
g55
(g76
g57
NtRp1876
(dp1877
g60
(dp1878
g80
g81
ssg69
g1872
sg62
(lp1879
g669
asbag55
(g76
g57
NtRp1880
(dp1881
g60
(dp1882
g87
g88
ssg69
g1872
sg62
(lp1883
S':'
asbag55
(g76
g57
NtRp1884
(dp1885
g60
(dp1886
sg69
g1872
sg62
(lp1887
g55
(g56
g57
NtRp1888
(dp1889
g60
(dp1890
g68
I4
ssg69
g1884
sg62
(lp1891
g682
asbasbasbag55
(g71
g57
NtRp1892
(dp1893
g60
(dp1894
sg69
g1847
sg62
(lp1895
g55
(g76
g57
NtRp1896
(dp1897
g60
(dp1898
g80
g81
ssg69
g1892
sg62
(lp1899
g691
asbag55
(g76
g57
NtRp1900
(dp1901
g60
(dp1902
g87
g88
ssg69
g1892
sg62
(lp1903
S':'
asbag55
(g76
g57
NtRp1904
(dp1905
g60
(dp1906
sg69
g1892
sg62
(lp1907
g55
(g56
g57
NtRp1908
(dp1909
g60
(dp1910
g68
I4
ssg69
g1904
sg62
(lp1911
g55
(g64
g57
NtRp1912
(dp1913
g60
(dp1914
g68
I3
ssg69
Nsg62
(lp1915
sbasbasbasbag55
(g71
g57
NtRp1916
(dp1917
g60
(dp1918
sg69
g1847
sg62
(lp1919
g55
(g76
g57
NtRp1920
(dp1921
g60
(dp1922
g80
g81
ssg69
g1916
sg62
(lp1923
g716
asbag55
(g76
g57
NtRp1924
(dp1925
g60
(dp1926
g87
g88
ssg69
g1916
sg62
(lp1927
S':'
asbag55
(g76
g57
NtRp1928
(dp1929
g60
(dp1930
sg69
g1916
sg62
(lp1931
g55
(g56
g57
NtRp1932
(dp1933
g60
(dp1934
g68
I4
ssg69
g1928
sg62
(lp1935
S"<Values at 0x1e2b170: {'verbose': False, 'ip': '127.0.0.1', 'shutdown_timeout': 5, 'taskbar': False, 'nocron': False, 'pid_filename': 'httpserver.pid', 'maxthreads': None, 'softcron': False, 'server_name': 'VPCF22AJ', 'bpython': False, 'nogui': False, 'port': 8000, 'extcron': False, 'debuglevel': 30, 'test': None, 'folder': '/windows/Users/Thomas/Dropbox/appz/2011/GAE/ddl-lagoon', 'config': '', 'import_models': False, 'winservice': '', 'shell': None, 'run': '', 'log_filename': 'httpserver.log', 'args': [''], 'ssl_ca_certificate': None, 'scheduler': None, 'profiler_filename': None, 'ssl_private_key': '', 'password': 'admin', 'request_queue_size': 5, 'ssl_certificate': '', 'cronjob': False, 'plain': False, 'quiet': False, 'interfaces': None, 'minthreads': None, 'timeout': 10, 'numthreads': None, 'nobanner': False}>"
p1936
asbasbasbag55
(g71
g57
NtRp1937
(dp1938
g60
(dp1939
sg69
g1847
sg62
(lp1940
g55
(g76
g57
NtRp1941
(dp1942
g60
(dp1943
g80
g81
ssg69
g1937
sg62
(lp1944
g782
asbag55
(g76
g57
NtRp1945
(dp1946
g60
(dp1947
g87
g88
ssg69
g1937
sg62
(lp1948
S':'
asbag55
(g76
g57
NtRp1949
(dp1950
g60
(dp1951
sg69
g1937
sg62
(lp1952
g55
(g56
g57
NtRp1953
(dp1954
g60
(dp1955
g68
I4
ssg69
g1949
sg62
(lp1956
S'set([])'
p1957
asbasbasbag55
(g71
g57
NtRp1958
(dp1959
g60
(dp1960
sg69
g1847
sg62
(lp1961
g55
(g76
g57
NtRp1962
(dp1963
g60
(dp1964
g80
g81
ssg69
g1958
sg62
(lp1965
g804
asbag55
(g76
g57
NtRp1966
(dp1967
g60
(dp1968
g87
g88
ssg69
g1958
sg62
(lp1969
S':'
asbag55
(g76
g57
NtRp1970
(dp1971
g60
(dp1972
sg69
g1958
sg62
(lp1973
g55
(g56
g57
NtRp1974
(dp1975
g60
(dp1976
g68
I4
ssg69
g1970
sg62
(lp1977
g98
asbasbasbag55
(g71
g57
NtRp1978
(dp1979
g60
(dp1980
sg69
g1847
sg62
(lp1981
g55
(g76
g57
NtRp1982
(dp1983
g60
(dp1984
g80
g81
ssg69
g1978
sg62
(lp1985
g825
asbag55
(g76
g57
NtRp1986
(dp1987
g60
(dp1988
g87
g88
ssg69
g1978
sg62
(lp1989
S':'
asbag55
(g76
g57
NtRp1990
(dp1991
g60
(dp1992
sg69
g1978
sg62
(lp1993
g55
(g56
g57
NtRp1994
(dp1995
g60
(dp1996
g68
I4
ssg69
g1990
sg62
(lp1997
g838
asbasbasbag55
(g71
g57
NtRp1998
(dp1999
g60
(dp2000
sg69
g1847
sg62
(lp2001
g55
(g76
g57
NtRp2002
(dp2003
g60
(dp2004
g80
g81
ssg69
g1998
sg62
(lp2005
g1131
asbag55
(g76
g57
NtRp2006
(dp2007
g60
(dp2008
g87
g88
ssg69
g1998
sg62
(lp2009
S':'
asbag55
(g76
g57
NtRp2010
(dp2011
g60
(dp2012
sg69
g1998
sg62
(lp2013
g55
(g56
g57
NtRp2014
(dp2015
g60
(dp2016
g68
I4
ssg69
g2010
sg62
(lp2017
g98
asbasbasbag55
(g71
g57
NtRp2018
(dp2019
g60
(dp2020
sg69
g1847
sg62
(lp2021
g55
(g76
g57
NtRp2022
(dp2023
g60
(dp2024
g80
g81
ssg69
g2018
sg62
(lp2025
g1390
asbag55
(g76
g57
NtRp2026
(dp2027
g60
(dp2028
g87
g88
ssg69
g2018
sg62
(lp2029
S':'
asbag55
(g76
g57
NtRp2030
(dp2031
g60
(dp2032
sg69
g2018
sg62
(lp2033
g55
(g56
g57
NtRp2034
(dp2035
g60
(dp2036
g68
I4
ssg69
g2030
sg62
(lp2037
g1403
asbasbasbag55
(g71
g57
NtRp2038
(dp2039
g60
(dp2040
sg69
g1847
sg62
(lp2041
g55
(g76
g57
NtRp2042
(dp2043
g60
(dp2044
g80
g81
ssg69
g2038
sg62
(lp2045
g1454
asbag55
(g76
g57
NtRp2046
(dp2047
g60
(dp2048
g87
g88
ssg69
g2038
sg62
(lp2049
S':'
asbag55
(g76
g57
NtRp2050
(dp2051
g60
(dp2052
sg69
g2038
sg62
(lp2053
g55
(g56
g57
NtRp2054
(dp2055
g60
(dp2056
g68
I4
ssg69
g2050
sg62
(lp2057
g55
(g64
g57
NtRp2058
(dp2059
g60
(dp2060
g68
I3
ssg69
Nsg62
(lp2061
g55
(g71
g57
NtRp2062
(dp2063
g60
(dp2064
sg69
g2058
sg62
(lp2065
g55
(g76
g57
NtRp2066
(dp2067
g60
(dp2068
sg69
g2062
sg62
(lp2069
g55
(g56
g57
NtRp2070
(dp2071
g60
(dp2072
g68
I3
ssg69
g2066
sg62
(lp2073
S'1'
asbasbasbag55
(g71
g57
NtRp2074
(dp2075
g60
(dp2076
sg69
g2058
sg62
(lp2077
g55
(g76
g57
NtRp2078
(dp2079
g60
(dp2080
sg69
g2074
sg62
(lp2081
g55
(g56
g57
NtRp2082
(dp2083
g60
(dp2084
g68
I3
ssg69
g2078
sg62
(lp2085
S'99'
p2086
asbasbasbag55
(g71
g57
NtRp2087
(dp2088
g60
(dp2089
sg69
g2058
sg62
(lp2090
g55
(g76
g57
NtRp2091
(dp2092
g60
(dp2093
sg69
g2087
sg62
(lp2094
g55
(g56
g57
NtRp2095
(dp2096
g60
(dp2097
g68
I3
ssg69
g2091
sg62
(lp2098
S'2'
asbasbasbag55
(g71
g57
NtRp2099
(dp2100
g60
(dp2101
sg69
g2058
sg62
(lp2102
g55
(g76
g57
NtRp2103
(dp2104
g60
(dp2105
sg69
g2099
sg62
(lp2106
g55
(g56
g57
NtRp2107
(dp2108
g60
(dp2109
g68
I3
ssg69
g2103
sg62
(lp2110
S'datetime.datetime(2011, 9, 26, 6, 55, 33)'
p2111
asbasbasbag55
(g71
g57
NtRp2112
(dp2113
g60
(dp2114
sg69
g2058
sg62
(lp2115
g55
(g76
g57
NtRp2116
(dp2117
g60
(dp2118
sg69
g2112
sg62
(lp2119
g55
(g56
g57
NtRp2120
(dp2121
g60
(dp2122
g68
I3
ssg69
g2116
sg62
(lp2123
g1533
asbasbasbasbasbasbasbasbasbasbasbag55
(g71
g57
NtRp2124
(dp2125
g60
(dp2126
sg69
g65
sg62
(lp2127
g55
(g76
g57
NtRp2128
(dp2129
g60
(dp2130
g80
g81
ssg69
g2124
sg62
(lp2131
S'is_https'
p2132
asbag55
(g76
g57
NtRp2133
(dp2134
g60
(dp2135
g87
g88
ssg69
g2124
sg62
(lp2136
S':'
asbag55
(g76
g57
NtRp2137
(dp2138
g60
(dp2139
sg69
g2124
sg62
(lp2140
g55
(g56
g57
NtRp2141
(dp2142
g60
(dp2143
g68
I5
ssg69
g2137
sg62
(lp2144
g98
asbasbasbag55
(g71
g57
NtRp2145
(dp2146
g60
(dp2147
sg69
g65
sg62
(lp2148
g55
(g76
g57
NtRp2149
(dp2150
g60
(dp2151
g80
g81
ssg69
g2145
sg62
(lp2152
S'is_local'
p2153
asbag55
(g76
g57
NtRp2154
(dp2155
g60
(dp2156
g87
g88
ssg69
g2145
sg62
(lp2157
S':'
asbag55
(g76
g57
NtRp2158
(dp2159
g60
(dp2160
sg69
g2145
sg62
(lp2161
g55
(g56
g57
NtRp2162
(dp2163
g60
(dp2164
g68
I5
ssg69
g2158
sg62
(lp2165
g1642
asbasbasbag55
(g71
g57
NtRp2166
(dp2167
g60
(dp2168
sg69
g65
sg62
(lp2169
g55
(g76
g57
NtRp2170
(dp2171
g60
(dp2172
g80
g81
ssg69
g2166
sg62
(lp2173
S'is_restful'
p2174
asbag55
(g76
g57
NtRp2175
(dp2176
g60
(dp2177
g87
g88
ssg69
g2166
sg62
(lp2178
S':'
asbag55
(g76
g57
NtRp2179
(dp2180
g60
(dp2181
sg69
g2166
sg62
(lp2182
g55
(g56
g57
NtRp2183
(dp2184
g60
(dp2185
g68
I5
ssg69
g2179
sg62
(lp2186
g98
asbasbasbag55
(g71
g57
NtRp2187
(dp2188
g60
(dp2189
sg69
g65
sg62
(lp2190
g55
(g76
g57
NtRp2191
(dp2192
g60
(dp2193
g80
g81
ssg69
g2187
sg62
(lp2194
S'now'
p2195
asbag55
(g76
g57
NtRp2196
(dp2197
g60
(dp2198
g87
g88
ssg69
g2187
sg62
(lp2199
S':'
asbag55
(g76
g57
NtRp2200
(dp2201
g60
(dp2202
sg69
g2187
sg62
(lp2203
g55
(g56
g57
NtRp2204
(dp2205
g60
(dp2206
g68
I5
ssg69
g2200
sg62
(lp2207
S'datetime.datetime(2011, 10, 28, 20, 7, 2, 429545)'
p2208
asbasbasbag55
(g71
g57
NtRp2209
(dp2210
g60
(dp2211
sg69
g65
sg62
(lp2212
g55
(g76
g57
NtRp2213
(dp2214
g60
(dp2215
g80
g81
ssg69
g2209
sg62
(lp2216
S'post_vars'
p2217
asbag55
(g76
g57
NtRp2218
(dp2219
g60
(dp2220
g87
g88
ssg69
g2209
sg62
(lp2221
S':'
asbag55
(g76
g57
NtRp2222
(dp2223
g60
(dp2224
sg69
g2209
sg62
(lp2225
g55
(g56
g57
NtRp2226
(dp2227
g60
(dp2228
g68
I5
ssg69
g2222
sg62
(lp2229
g55
(g64
g57
NtRp2230
(dp2231
g60
(dp2232
g68
I4
ssg69
Nsg62
(lp2233
sbasbasbasbag55
(g71
g57
NtRp2234
(dp2235
g60
(dp2236
sg69
g65
sg62
(lp2237
g55
(g76
g57
NtRp2238
(dp2239
g60
(dp2240
g80
g81
ssg69
g2234
sg62
(lp2241
S'url'
p2242
asbag55
(g76
g57
NtRp2243
(dp2244
g60
(dp2245
g87
g88
ssg69
g2234
sg62
(lp2246
S':'
asbag55
(g76
g57
NtRp2247
(dp2248
g60
(dp2249
sg69
g2234
sg62
(lp2250
g55
(g56
g57
NtRp2251
(dp2252
g60
(dp2253
g68
I5
ssg69
g2247
sg62
(lp2254
S'/ddlagoon/default/index'
p2255
asbasbasbag55
(g71
g57
NtRp2256
(dp2257
g60
(dp2258
sg69
g65
sg62
(lp2259
g55
(g76
g57
NtRp2260
(dp2261
g60
(dp2262
g80
g81
ssg69
g2256
sg62
(lp2263
S'utcnow'
p2264
asbag55
(g76
g57
NtRp2265
(dp2266
g60
(dp2267
g87
g88
ssg69
g2256
sg62
(lp2268
S':'
asbag55
(g76
g57
NtRp2269
(dp2270
g60
(dp2271
sg69
g2256
sg62
(lp2272
g55
(g56
g57
NtRp2273
(dp2274
g60
(dp2275
g68
I5
ssg69
g2269
sg62
(lp2276
S'datetime.datetime(2011, 10, 28, 19, 7, 2, 429566)'
p2277
asbasbasbag55
(g71
g57
NtRp2278
(dp2279
g60
(dp2280
sg69
g65
sg62
(lp2281
g55
(g76
g57
NtRp2282
(dp2283
g60
(dp2284
g80
g81
ssg69
g2278
sg62
(lp2285
S'uuid'
p2286
asbag55
(g76
g57
NtRp2287
(dp2288
g60
(dp2289
g87
g88
ssg69
g2278
sg62
(lp2290
S':'
asbag55
(g76
g57
NtRp2291
(dp2292
g60
(dp2293
sg69
g2278
sg62
(lp2294
g55
(g56
g57
NtRp2295
(dp2296
g60
(dp2297
g68
I5
ssg69
g2291
sg62
(lp2298
S'ddlagoon/127.0.0.1.2011-10-28.20-07-02.d02f58e7-b971-490c-9309-77d84270a268'
p2299
asbasbasbag55
(g71
g57
NtRp2300
(dp2301
g60
(dp2302
sg69
g65
sg62
(lp2303
g55
(g76
g57
NtRp2304
(dp2305
g60
(dp2306
g80
g81
ssg69
g2300
sg62
(lp2307
S'vars'
p2308
asbag55
(g76
g57
NtRp2309
(dp2310
g60
(dp2311
g87
g88
ssg69
g2300
sg62
(lp2312
S':'
asbag55
(g76
g57
NtRp2313
(dp2314
g60
(dp2315
sg69
g2300
sg62
(lp2316
g55
(g56
g57
NtRp2317
(dp2318
g60
(dp2319
g68
I5
ssg69
g2313
sg62
(lp2320
g55
(g64
g57
NtRp2321
(dp2322
g60
(dp2323
g68
I4
ssg69
Nsg62
(lp2324
sbasbasbasbag55
(g71
g57
NtRp2325
(dp2326
g60
(dp2327
sg69
g65
sg62
(lp2328
g55
(g76
g57
NtRp2329
(dp2330
g60
(dp2331
g80
g81
ssg69
g2325
sg62
(lp2332
S'wsgi'
p2333
asbag55
(g76
g57
NtRp2334
(dp2335
g60
(dp2336
g87
g88
ssg69
g2325
sg62
(lp2337
S':'
asbag55
(g76
g57
NtRp2338
(dp2339
g60
(dp2340
sg69
g2325
sg62
(lp2341
g55
(g56
g57
NtRp2342
(dp2343
g60
(dp2344
g68
I5
ssg69
g2338
sg62
(lp2345
g55
(g64
g57
NtRp2346
(dp2347
g60
(dp2348
g68
I4
ssg69
Nsg62
(lp2349
g55
(g71
g57
NtRp2350
(dp2351
g60
(dp2352
sg69
g2346
sg62
(lp2353
g55
(g76
g57
NtRp2354
(dp2355
g60
(dp2356
g80
g81
ssg69
g2350
sg62
(lp2357
S'environ'
p2358
asbag55
(g76
g57
NtRp2359
(dp2360
g60
(dp2361
g87
g88
ssg69
g2350
sg62
(lp2362
S':'
asbag55
(g76
g57
NtRp2363
(dp2364
g60
(dp2365
sg69
g2350
sg62
(lp2366
g55
(g56
g57
NtRp2367
(dp2368
g60
(dp2369
g68
I4
ssg69
g2363
sg62
(lp2370
g55
(g64
g57
NtRp2371
(dp2372
g60
(dp2373
g68
I3
ssg69
Nsg62
(lp2374
g55
(g71
g57
NtRp2375
(dp2376
g60
(dp2377
sg69
g2371
sg62
(lp2378
g55
(g76
g57
NtRp2379
(dp2380
g60
(dp2381
g80
g81
ssg69
g2375
sg62
(lp2382
S'CONTENT_LENGTH'
p2383
asbag55
(g76
g57
NtRp2384
(dp2385
g60
(dp2386
g87
g88
ssg69
g2375
sg62
(lp2387
S':'
asbag55
(g76
g57
NtRp2388
(dp2389
g60
(dp2390
sg69
g2375
sg62
(lp2391
g55
(g56
g57
NtRp2392
(dp2393
g60
(dp2394
g68
I3
ssg69
g2388
sg62
(lp2395
g751
asbasbasbag55
(g71
g57
NtRp2396
(dp2397
g60
(dp2398
sg69
g2371
sg62
(lp2399
g55
(g76
g57
NtRp2400
(dp2401
g60
(dp2402
g80
g81
ssg69
g2396
sg62
(lp2403
S'CONTENT_TYPE'
p2404
asbag55
(g76
g57
NtRp2405
(dp2406
g60
(dp2407
g87
g88
ssg69
g2396
sg62
(lp2408
S':'
asbag55
(g76
g57
NtRp2409
(dp2410
g60
(dp2411
sg69
g2396
sg62
(lp2412
g55
(g56
g57
NtRp2413
(dp2414
g60
(dp2415
g68
I3
ssg69
g2409
sg62
(lp2416
g773
asbasbasbag55
(g71
g57
NtRp2417
(dp2418
g60
(dp2419
sg69
g2371
sg62
(lp2420
g55
(g76
g57
NtRp2421
(dp2422
g60
(dp2423
g80
g81
ssg69
g2417
sg62
(lp2424
S'HTTP_ACCEPT'
p2425
asbag55
(g76
g57
NtRp2426
(dp2427
g60
(dp2428
g87
g88
ssg69
g2417
sg62
(lp2429
S':'
asbag55
(g76
g57
NtRp2430
(dp2431
g60
(dp2432
sg69
g2417
sg62
(lp2433
g55
(g56
g57
NtRp2434
(dp2435
g60
(dp2436
g68
I3
ssg69
g2430
sg62
(lp2437
g860
asbasbasbag55
(g71
g57
NtRp2438
(dp2439
g60
(dp2440
sg69
g2371
sg62
(lp2441
g55
(g76
g57
NtRp2442
(dp2443
g60
(dp2444
g80
g81
ssg69
g2438
sg62
(lp2445
S'HTTP_ACCEPT_CHARSET'
p2446
asbag55
(g76
g57
NtRp2447
(dp2448
g60
(dp2449
g87
g88
ssg69
g2438
sg62
(lp2450
S':'
asbag55
(g76
g57
NtRp2451
(dp2452
g60
(dp2453
sg69
g2438
sg62
(lp2454
g55
(g56
g57
NtRp2455
(dp2456
g60
(dp2457
g68
I3
ssg69
g2451
sg62
(lp2458
g882
asbasbasbag55
(g71
g57
NtRp2459
(dp2460
g60
(dp2461
sg69
g2371
sg62
(lp2462
g55
(g76
g57
NtRp2463
(dp2464
g60
(dp2465
g80
g81
ssg69
g2459
sg62
(lp2466
S'HTTP_ACCEPT_ENCODING'
p2467
asbag55
(g76
g57
NtRp2468
(dp2469
g60
(dp2470
g87
g88
ssg69
g2459
sg62
(lp2471
S':'
asbag55
(g76
g57
NtRp2472
(dp2473
g60
(dp2474
sg69
g2459
sg62
(lp2475
g55
(g56
g57
NtRp2476
(dp2477
g60
(dp2478
g68
I3
ssg69
g2472
sg62
(lp2479
g904
asbasbasbag55
(g71
g57
NtRp2480
(dp2481
g60
(dp2482
sg69
g2371
sg62
(lp2483
g55
(g76
g57
NtRp2484
(dp2485
g60
(dp2486
g80
g81
ssg69
g2480
sg62
(lp2487
S'HTTP_ACCEPT_LANGUAGE'
p2488
asbag55
(g76
g57
NtRp2489
(dp2490
g60
(dp2491
g87
g88
ssg69
g2480
sg62
(lp2492
S':'
asbag55
(g76
g57
NtRp2493
(dp2494
g60
(dp2495
sg69
g2480
sg62
(lp2496
g55
(g56
g57
NtRp2497
(dp2498
g60
(dp2499
g68
I3
ssg69
g2493
sg62
(lp2500
g926
asbasbasbag55
(g71
g57
NtRp2501
(dp2502
g60
(dp2503
sg69
g2371
sg62
(lp2504
g55
(g76
g57
NtRp2505
(dp2506
g60
(dp2507
g80
g81
ssg69
g2501
sg62
(lp2508
S'HTTP_CACHE_CONTROL'
p2509
asbag55
(g76
g57
NtRp2510
(dp2511
g60
(dp2512
g87
g88
ssg69
g2501
sg62
(lp2513
S':'
asbag55
(g76
g57
NtRp2514
(dp2515
g60
(dp2516
sg69
g2501
sg62
(lp2517
g55
(g56
g57
NtRp2518
(dp2519
g60
(dp2520
g68
I3
ssg69
g2514
sg62
(lp2521
g948
asbasbasbag55
(g71
g57
NtRp2522
(dp2523
g60
(dp2524
sg69
g2371
sg62
(lp2525
g55
(g76
g57
NtRp2526
(dp2527
g60
(dp2528
g80
g81
ssg69
g2522
sg62
(lp2529
S'HTTP_CONNECTION'
p2530
asbag55
(g76
g57
NtRp2531
(dp2532
g60
(dp2533
g87
g88
ssg69
g2522
sg62
(lp2534
S':'
asbag55
(g76
g57
NtRp2535
(dp2536
g60
(dp2537
sg69
g2522
sg62
(lp2538
g55
(g56
g57
NtRp2539
(dp2540
g60
(dp2541
g68
I3
ssg69
g2535
sg62
(lp2542
g970
asbasbasbag55
(g71
g57
NtRp2543
(dp2544
g60
(dp2545
sg69
g2371
sg62
(lp2546
g55
(g76
g57
NtRp2547
(dp2548
g60
(dp2549
g80
g81
ssg69
g2543
sg62
(lp2550
S'HTTP_CONTENT_LENGTH'
p2551
asbag55
(g76
g57
NtRp2552
(dp2553
g60
(dp2554
g87
g88
ssg69
g2543
sg62
(lp2555
S':'
asbag55
(g76
g57
NtRp2556
(dp2557
g60
(dp2558
sg69
g2543
sg62
(lp2559
g55
(g56
g57
NtRp2560
(dp2561
g60
(dp2562
g68
I3
ssg69
g2556
sg62
(lp2563
g751
asbasbasbag55
(g71
g57
NtRp2564
(dp2565
g60
(dp2566
sg69
g2371
sg62
(lp2567
g55
(g76
g57
NtRp2568
(dp2569
g60
(dp2570
g80
g81
ssg69
g2564
sg62
(lp2571
S'HTTP_CONTENT_TYPE'
p2572
asbag55
(g76
g57
NtRp2573
(dp2574
g60
(dp2575
g87
g88
ssg69
g2564
sg62
(lp2576
S':'
asbag55
(g76
g57
NtRp2577
(dp2578
g60
(dp2579
sg69
g2564
sg62
(lp2580
g55
(g56
g57
NtRp2581
(dp2582
g60
(dp2583
g68
I3
ssg69
g2577
sg62
(lp2584
g773
asbasbasbag55
(g71
g57
NtRp2585
(dp2586
g60
(dp2587
sg69
g2371
sg62
(lp2588
g55
(g76
g57
NtRp2589
(dp2590
g60
(dp2591
g80
g81
ssg69
g2585
sg62
(lp2592
S'HTTP_COOKIE'
p2593
asbag55
(g76
g57
NtRp2594
(dp2595
g60
(dp2596
g87
g88
ssg69
g2585
sg62
(lp2597
S':'
asbag55
(g76
g57
NtRp2598
(dp2599
g60
(dp2600
sg69
g2585
sg62
(lp2601
g55
(g56
g57
NtRp2602
(dp2603
g60
(dp2604
g68
I3
ssg69
g2598
sg62
(lp2605
g1034
asbasbasbag55
(g71
g57
NtRp2606
(dp2607
g60
(dp2608
sg69
g2371
sg62
(lp2609
g55
(g76
g57
NtRp2610
(dp2611
g60
(dp2612
g80
g81
ssg69
g2606
sg62
(lp2613
S'HTTP_HOST'
p2614
asbag55
(g76
g57
NtRp2615
(dp2616
g60
(dp2617
g87
g88
ssg69
g2606
sg62
(lp2618
S':'
asbag55
(g76
g57
NtRp2619
(dp2620
g60
(dp2621
sg69
g2606
sg62
(lp2622
g55
(g56
g57
NtRp2623
(dp2624
g60
(dp2625
g68
I3
ssg69
g2619
sg62
(lp2626
g1056
asbasbasbag55
(g71
g57
NtRp2627
(dp2628
g60
(dp2629
sg69
g2371
sg62
(lp2630
g55
(g76
g57
NtRp2631
(dp2632
g60
(dp2633
g80
g81
ssg69
g2627
sg62
(lp2634
S'HTTP_ORIGIN'
p2635
asbag55
(g76
g57
NtRp2636
(dp2637
g60
(dp2638
g87
g88
ssg69
g2627
sg62
(lp2639
S':'
asbag55
(g76
g57
NtRp2640
(dp2641
g60
(dp2642
sg69
g2627
sg62
(lp2643
g55
(g56
g57
NtRp2644
(dp2645
g60
(dp2646
g68
I3
ssg69
g2640
sg62
(lp2647
g1078
asbasbasbag55
(g71
g57
NtRp2648
(dp2649
g60
(dp2650
sg69
g2371
sg62
(lp2651
g55
(g76
g57
NtRp2652
(dp2653
g60
(dp2654
g80
g81
ssg69
g2648
sg62
(lp2655
S'HTTP_REFERER'
p2656
asbag55
(g76
g57
NtRp2657
(dp2658
g60
(dp2659
g87
g88
ssg69
g2648
sg62
(lp2660
S':'
asbag55
(g76
g57
NtRp2661
(dp2662
g60
(dp2663
sg69
g2648
sg62
(lp2664
g55
(g56
g57
NtRp2665
(dp2666
g60
(dp2667
g68
I3
ssg69
g2661
sg62
(lp2668
g1100
asbasbasbag55
(g71
g57
NtRp2669
(dp2670
g60
(dp2671
sg69
g2371
sg62
(lp2672
g55
(g76
g57
NtRp2673
(dp2674
g60
(dp2675
g80
g81
ssg69
g2669
sg62
(lp2676
S'HTTP_USER_AGENT'
p2677
asbag55
(g76
g57
NtRp2678
(dp2679
g60
(dp2680
g87
g88
ssg69
g2669
sg62
(lp2681
S':'
asbag55
(g76
g57
NtRp2682
(dp2683
g60
(dp2684
sg69
g2669
sg62
(lp2685
g55
(g56
g57
NtRp2686
(dp2687
g60
(dp2688
g68
I3
ssg69
g2682
sg62
(lp2689
g1122
asbasbasbag55
(g71
g57
NtRp2690
(dp2691
g60
(dp2692
sg69
g2371
sg62
(lp2693
g55
(g76
g57
NtRp2694
(dp2695
g60
(dp2696
g80
g81
ssg69
g2690
sg62
(lp2697
S'PATH_INFO'
p2698
asbag55
(g76
g57
NtRp2699
(dp2700
g60
(dp2701
g87
g88
ssg69
g2690
sg62
(lp2702
S':'
asbag55
(g76
g57
NtRp2703
(dp2704
g60
(dp2705
sg69
g2690
sg62
(lp2706
g55
(g56
g57
NtRp2707
(dp2708
g60
(dp2709
g68
I3
ssg69
g2703
sg62
(lp2710
g1165
asbasbasbag55
(g71
g57
NtRp2711
(dp2712
g60
(dp2713
sg69
g2371
sg62
(lp2714
g55
(g76
g57
NtRp2715
(dp2716
g60
(dp2717
g80
g81
ssg69
g2711
sg62
(lp2718
S'QUERY_STRING'
p2719
asbag55
(g76
g57
NtRp2720
(dp2721
g60
(dp2722
g87
g88
ssg69
g2711
sg62
(lp2723
S':'
asbag55
(g76
g57
NtRp2724
(dp2725
g60
(dp2726
sg69
g2711
sg62
(lp2727
g55
(g56
g57
NtRp2728
(dp2729
g60
(dp2730
g68
I3
ssg69
g2724
sg62
(lp2731
S''
asbasbasbag55
(g71
g57
NtRp2732
(dp2733
g60
(dp2734
sg69
g2371
sg62
(lp2735
g55
(g76
g57
NtRp2736
(dp2737
g60
(dp2738
g80
g81
ssg69
g2732
sg62
(lp2739
S'REMOTE_ADDR'
p2740
asbag55
(g76
g57
NtRp2741
(dp2742
g60
(dp2743
g87
g88
ssg69
g2732
sg62
(lp2744
S':'
asbag55
(g76
g57
NtRp2745
(dp2746
g60
(dp2747
sg69
g2732
sg62
(lp2748
g55
(g56
g57
NtRp2749
(dp2750
g60
(dp2751
g68
I3
ssg69
g2745
sg62
(lp2752
g188
asbasbasbag55
(g71
g57
NtRp2753
(dp2754
g60
(dp2755
sg69
g2371
sg62
(lp2756
g55
(g76
g57
NtRp2757
(dp2758
g60
(dp2759
g80
g81
ssg69
g2753
sg62
(lp2760
S'REMOTE_PORT'
p2761
asbag55
(g76
g57
NtRp2762
(dp2763
g60
(dp2764
g87
g88
ssg69
g2753
sg62
(lp2765
S':'
asbag55
(g76
g57
NtRp2766
(dp2767
g60
(dp2768
sg69
g2753
sg62
(lp2769
g55
(g56
g57
NtRp2770
(dp2771
g60
(dp2772
g68
I3
ssg69
g2766
sg62
(lp2773
g1229
asbasbasbag55
(g71
g57
NtRp2774
(dp2775
g60
(dp2776
sg69
g2371
sg62
(lp2777
g55
(g76
g57
NtRp2778
(dp2779
g60
(dp2780
g80
g81
ssg69
g2774
sg62
(lp2781
S'REQUEST_METHOD'
p2782
asbag55
(g76
g57
NtRp2783
(dp2784
g60
(dp2785
g87
g88
ssg69
g2774
sg62
(lp2786
S':'
asbag55
(g76
g57
NtRp2787
(dp2788
g60
(dp2789
sg69
g2774
sg62
(lp2790
g55
(g56
g57
NtRp2791
(dp2792
g60
(dp2793
g68
I3
ssg69
g2787
sg62
(lp2794
g1251
asbasbasbag55
(g71
g57
NtRp2795
(dp2796
g60
(dp2797
sg69
g2371
sg62
(lp2798
g55
(g76
g57
NtRp2799
(dp2800
g60
(dp2801
g80
g81
ssg69
g2795
sg62
(lp2802
S'REQUEST_URI'
p2803
asbag55
(g76
g57
NtRp2804
(dp2805
g60
(dp2806
g87
g88
ssg69
g2795
sg62
(lp2807
S':'
asbag55
(g76
g57
NtRp2808
(dp2809
g60
(dp2810
sg69
g2795
sg62
(lp2811
g55
(g56
g57
NtRp2812
(dp2813
g60
(dp2814
g68
I3
ssg69
g2808
sg62
(lp2815
g1165
asbasbasbag55
(g71
g57
NtRp2816
(dp2817
g60
(dp2818
sg69
g2371
sg62
(lp2819
g55
(g76
g57
NtRp2820
(dp2821
g60
(dp2822
g80
g81
ssg69
g2816
sg62
(lp2823
S'SCRIPT_NAME'
p2824
asbag55
(g76
g57
NtRp2825
(dp2826
g60
(dp2827
g87
g88
ssg69
g2816
sg62
(lp2828
S':'
asbag55
(g76
g57
NtRp2829
(dp2830
g60
(dp2831
sg69
g2816
sg62
(lp2832
g55
(g56
g57
NtRp2833
(dp2834
g60
(dp2835
g68
I3
ssg69
g2829
sg62
(lp2836
S''
asbasbasbag55
(g71
g57
NtRp2837
(dp2838
g60
(dp2839
sg69
g2371
sg62
(lp2840
g55
(g76
g57
NtRp2841
(dp2842
g60
(dp2843
g80
g81
ssg69
g2837
sg62
(lp2844
S'SERVER_NAME'
p2845
asbag55
(g76
g57
NtRp2846
(dp2847
g60
(dp2848
g87
g88
ssg69
g2837
sg62
(lp2849
S':'
asbag55
(g76
g57
NtRp2850
(dp2851
g60
(dp2852
sg69
g2837
sg62
(lp2853
g55
(g56
g57
NtRp2854
(dp2855
g60
(dp2856
g68
I3
ssg69
g2850
sg62
(lp2857
g1315
asbasbasbag55
(g71
g57
NtRp2858
(dp2859
g60
(dp2860
sg69
g2371
sg62
(lp2861
g55
(g76
g57
NtRp2862
(dp2863
g60
(dp2864
g80
g81
ssg69
g2858
sg62
(lp2865
S'SERVER_PORT'
p2866
asbag55
(g76
g57
NtRp2867
(dp2868
g60
(dp2869
g87
g88
ssg69
g2858
sg62
(lp2870
S':'
asbag55
(g76
g57
NtRp2871
(dp2872
g60
(dp2873
sg69
g2858
sg62
(lp2874
g55
(g56
g57
NtRp2875
(dp2876
g60
(dp2877
g68
I3
ssg69
g2871
sg62
(lp2878
g1337
asbasbasbag55
(g71
g57
NtRp2879
(dp2880
g60
(dp2881
sg69
g2371
sg62
(lp2882
g55
(g76
g57
NtRp2883
(dp2884
g60
(dp2885
g80
g81
ssg69
g2879
sg62
(lp2886
S'SERVER_PROTOCOL'
p2887
asbag55
(g76
g57
NtRp2888
(dp2889
g60
(dp2890
g87
g88
ssg69
g2879
sg62
(lp2891
S':'
asbag55
(g76
g57
NtRp2892
(dp2893
g60
(dp2894
sg69
g2879
sg62
(lp2895
g55
(g56
g57
NtRp2896
(dp2897
g60
(dp2898
g68
I3
ssg69
g2892
sg62
(lp2899
g1359
asbasbasbag55
(g71
g57
NtRp2900
(dp2901
g60
(dp2902
sg69
g2371
sg62
(lp2903
g55
(g76
g57
NtRp2904
(dp2905
g60
(dp2906
g80
g81
ssg69
g2900
sg62
(lp2907
S'SERVER_SOFTWARE'
p2908
asbag55
(g76
g57
NtRp2909
(dp2910
g60
(dp2911
g87
g88
ssg69
g2900
sg62
(lp2912
S':'
asbag55
(g76
g57
NtRp2913
(dp2914
g60
(dp2915
sg69
g2900
sg62
(lp2916
g55
(g56
g57
NtRp2917
(dp2918
g60
(dp2919
g68
I3
ssg69
g2913
sg62
(lp2920
g1381
asbasbasbag55
(g71
g57
NtRp2921
(dp2922
g60
(dp2923
sg69
g2371
sg62
(lp2924
g55
(g76
g57
NtRp2925
(dp2926
g60
(dp2927
g80
g81
ssg69
g2921
sg62
(lp2928
S'WEB2PY_ORIGINAL_URI'
p2929
asbag55
(g76
g57
NtRp2930
(dp2931
g60
(dp2932
g87
g88
ssg69
g2921
sg62
(lp2933
S':'
asbag55
(g76
g57
NtRp2934
(dp2935
g60
(dp2936
sg69
g2921
sg62
(lp2937
g55
(g56
g57
NtRp2938
(dp2939
g60
(dp2940
g68
I3
ssg69
g2934
sg62
(lp2941
g1165
asbasbasbag55
(g71
g57
NtRp2942
(dp2943
g60
(dp2944
sg69
g2371
sg62
(lp2945
g55
(g76
g57
NtRp2946
(dp2947
g60
(dp2948
g80
g81
ssg69
g2942
sg62
(lp2949
S'wsgi.errors'
p2950
asbag55
(g76
g57
NtRp2951
(dp2952
g60
(dp2953
g87
g88
ssg69
g2942
sg62
(lp2954
S':'
asbag55
(g76
g57
NtRp2955
(dp2956
g60
(dp2957
sg69
g2942
sg62
(lp2958
g55
(g56
g57
NtRp2959
(dp2960
g60
(dp2961
g68
I3
ssg69
g2955
sg62
(lp2962
S"<open file '<stderr>', mode 'w' at 0x7fa4afe891e0>"
p2963
asbasbasbag55
(g71
g57
NtRp2964
(dp2965
g60
(dp2966
sg69
g2371
sg62
(lp2967
g55
(g76
g57
NtRp2968
(dp2969
g60
(dp2970
g80
g81
ssg69
g2964
sg62
(lp2971
S'wsgi.file_wrapper'
p2972
asbag55
(g76
g57
NtRp2973
(dp2974
g60
(dp2975
g87
g88
ssg69
g2964
sg62
(lp2976
S':'
asbag55
(g76
g57
NtRp2977
(dp2978
g60
(dp2979
sg69
g2964
sg62
(lp2980
g55
(g56
g57
NtRp2981
(dp2982
g60
(dp2983
g68
I3
ssg69
g2977
sg62
(lp2984
S'<class wsgiref.util.FileWrapper at 0x1bbf590>'
p2985
asbasbasbag55
(g71
g57
NtRp2986
(dp2987
g60
(dp2988
sg69
g2371
sg62
(lp2989
g55
(g76
g57
NtRp2990
(dp2991
g60
(dp2992
g80
g81
ssg69
g2986
sg62
(lp2993
S'wsgi.input'
p2994
asbag55
(g76
g57
NtRp2995
(dp2996
g60
(dp2997
g87
g88
ssg69
g2986
sg62
(lp2998
S':'
asbag55
(g76
g57
NtRp2999
(dp3000
g60
(dp3001
sg69
g2986
sg62
(lp3002
g55
(g56
g57
NtRp3003
(dp3004
g60
(dp3005
g68
I3
ssg69
g2999
sg62
(lp3006
S"<closed file '<fdopen>', mode 'w+b' at 0x22bd930>"
p3007
asbasbasbag55
(g71
g57
NtRp3008
(dp3009
g60
(dp3010
sg69
g2371
sg62
(lp3011
g55
(g76
g57
NtRp3012
(dp3013
g60
(dp3014
g80
g81
ssg69
g3008
sg62
(lp3015
S'wsgi.multiprocess'
p3016
asbag55
(g76
g57
NtRp3017
(dp3018
g60
(dp3019
g87
g88
ssg69
g3008
sg62
(lp3020
S':'
asbag55
(g76
g57
NtRp3021
(dp3022
g60
(dp3023
sg69
g3008
sg62
(lp3024
g55
(g56
g57
NtRp3025
(dp3026
g60
(dp3027
g68
I3
ssg69
g3021
sg62
(lp3028
g98
asbasbasbag55
(g71
g57
NtRp3029
(dp3030
g60
(dp3031
sg69
g2371
sg62
(lp3032
g55
(g76
g57
NtRp3033
(dp3034
g60
(dp3035
g80
g81
ssg69
g3029
sg62
(lp3036
S'wsgi.multithread'
p3037
asbag55
(g76
g57
NtRp3038
(dp3039
g60
(dp3040
g87
g88
ssg69
g3029
sg62
(lp3041
S':'
asbag55
(g76
g57
NtRp3042
(dp3043
g60
(dp3044
sg69
g3029
sg62
(lp3045
g55
(g56
g57
NtRp3046
(dp3047
g60
(dp3048
g68
I3
ssg69
g3042
sg62
(lp3049
g1642
asbasbasbag55
(g71
g57
NtRp3050
(dp3051
g60
(dp3052
sg69
g2371
sg62
(lp3053
g55
(g76
g57
NtRp3054
(dp3055
g60
(dp3056
g80
g81
ssg69
g3050
sg62
(lp3057
S'wsgi.run_once'
p3058
asbag55
(g76
g57
NtRp3059
(dp3060
g60
(dp3061
g87
g88
ssg69
g3050
sg62
(lp3062
S':'
asbag55
(g76
g57
NtRp3063
(dp3064
g60
(dp3065
sg69
g3050
sg62
(lp3066
g55
(g56
g57
NtRp3067
(dp3068
g60
(dp3069
g68
I3
ssg69
g3063
sg62
(lp3070
g98
asbasbasbag55
(g71
g57
NtRp3071
(dp3072
g60
(dp3073
sg69
g2371
sg62
(lp3074
g55
(g76
g57
NtRp3075
(dp3076
g60
(dp3077
g80
g81
ssg69
g3071
sg62
(lp3078
S'wsgi.url_scheme'
p3079
asbag55
(g76
g57
NtRp3080
(dp3081
g60
(dp3082
g87
g88
ssg69
g3071
sg62
(lp3083
S':'
asbag55
(g76
g57
NtRp3084
(dp3085
g60
(dp3086
sg69
g3071
sg62
(lp3087
g55
(g56
g57
NtRp3088
(dp3089
g60
(dp3090
g68
I3
ssg69
g3084
sg62
(lp3091
g1685
asbasbasbag55
(g71
g57
NtRp3092
(dp3093
g60
(dp3094
sg69
g2371
sg62
(lp3095
g55
(g76
g57
NtRp3096
(dp3097
g60
(dp3098
g80
g81
ssg69
g3092
sg62
(lp3099
S'wsgi.version'
p3100
asbag55
(g76
g57
NtRp3101
(dp3102
g60
(dp3103
g87
g88
ssg69
g3092
sg62
(lp3104
S':'
asbag55
(g76
g57
NtRp3105
(dp3106
g60
(dp3107
sg69
g3092
sg62
(lp3108
g55
(g56
g57
NtRp3109
(dp3110
g60
(dp3111
g68
I3
ssg69
g3105
sg62
(lp3112
S'1'
asbasbasbasbasbasbasbasbasbasbasbasbasbsS'frames'
p3113
(lp3114
(dp3115
S'file'
p3116
S'/windows/Users/Thomas/Dropbox/appz/2011/GAE/ddl-lagoon/gluon/main.py'
p3117
sS'dump'
p3118
(dp3119
S'global serve_controller'
p3120
S'<function serve_controller>'
p3121
sS'session'
p3122
S"<Storage {'_formkey[default]': 'd2e9cefa-024b-40...: '|\\x00\\xed\\x84\\x1bpTC\\xf15\\xb2q?\\xe6\\x1b\\xe5'}>"
p3123
sS'request'
p3124
S"<Storage {'body': <closed file '<fdopen>', mode ...83-9f87-a109a588570c', '_formname': 'default'}>}>"
p3125
sS'response'
p3126
S"<Storage {'body': <cStringIO.StringO object at 0...da> at 0x2d2e398>, 'view': 'default/index.html'}>"
p3127
ssS'lnum'
p3128
I490
sS'lines'
p3129
(dp3130
I485
S''
sI486
S'                # ##################################################'
p3131
sI487
S'                # run controller'
p3132
sI488
S'                # ##################################################'
p3133
sI489
S''
sI490
S'                serve_controller(request, response, session)'
p3134
sI491
S''
sI492
S'            except HTTP, http_response:'
p3135
sI493
S'                if static_file:'
p3136
sI494
S'                    return http_response.to(responder)'
p3137
ssS'call'
p3138
S"(environ={'CONTENT_LENGTH': '278', 'CONTENT_TYPE': 'multipart/form-data; boundary=----WebKitFormBoundaryqFSByq8uiHUh9zqP', 'HTTP_ACCEPT': 'text/html,application/xhtml+xml,application/xml;q=0.9,*/*;q=0.8', 'HTTP_ACCEPT_CHARSET': 'ISO-8859-1,utf-8;q=0.7,*;q=0.3', 'HTTP_ACCEPT_ENCODING': 'gzip,deflate,sdch', 'HTTP_ACCEPT_LANGUAGE': 'en-US,en;q=0.8,fr;q=0.6', 'HTTP_CACHE_CONTROL': 'max-age=0', 'HTTP_CONNECTION': 'keep-alive', 'HTTP_CONTENT_LENGTH': '278', 'HTTP_CONTENT_TYPE': 'multipart/form-data; boundary=----WebKitFormBoundaryqFSByq8uiHUh9zqP', ...}, responder=<function responder2>)"
p3139
sS'func'
p3140
S'wsgibase'
p3141
sa(dp3142
g3116
S'/windows/Users/Thomas/Dropbox/appz/2011/GAE/ddl-lagoon/gluon/main.py'
p3143
sg3118
(dp3144
S'global run_controller_in'
p3145
S'<function run_controller_in>'
p3146
sS'request.controller'
p3147
S"'default'"
p3148
sS'request'
p3149
S"<Storage {'body': <closed file '<fdopen>', mode ...83-9f87-a109a588570c', '_formname': 'default'}>}>"
p3150
sS'environment'
p3151
S"{'A': <class 'gluon.html.A'>, 'Auth': <class 'gluon.tools.Auth'>, 'B': <class 'gluon.html.B'>, 'BEAUTIFY': <class 'gluon.html.BEAUTIFY'>, 'BODY': <class 'gluon.html.BODY'>, 'BR': <class 'gluon.html.BR'>, 'BUTTON': <class 'gluon.html.BUTTON'>, 'CAT': <class 'gluon.html.CAT'>, 'CENTER': <class 'gluon.html.CENTER'>, 'CLEANUP': <class 'gluon.validators.CLEANUP'>, ...}"
p3152
sS'request.function'
p3153
S"'index'"
p3154
sS'page'
p3155
S'undefined'
p3156
ssg3128
I204
sg3129
(dp3157
I199
S'    # process models, controller and view (if required)'
p3158
sI200
S'    # ##################################################'
p3159
sI201
S''
sI202
S'    run_models_in(environment)'
p3160
sI203
S'    response._view_environment = copy.copy(environment)'
p3161
sI204
S'    page = run_controller_in(request.controller, request.function, environment)'
p3162
sI205
S'    if isinstance(page, dict):'
p3163
sI206
S'        response._vars = page'
p3164
sI207
S'        for key in page:'
p3165
sI208
S'            response._view_environment[key] = page[key]'
p3166
ssg3138
S"(request=<Storage {'body': <closed file '<fdopen>', mode ...83-9f87-a109a588570c', '_formname': 'default'}>}>, response=<Storage {'body': <cStringIO.StringO object at 0...da> at 0x2d2e398>, 'view': 'default/index.html'}>, session=<Storage {'_formkey[default]': 'd2e9cefa-024b-40...: '|\\x00\\xed\\x84\\x1bpTC\\xf15\\xb2q?\\xe6\\x1b\\xe5'}>)"
p3167
sg3140
S'serve_controller'
p3168
sa(dp3169
g3116
S'/windows/Users/Thomas/Dropbox/appz/2011/GAE/ddl-lagoon/gluon/compileapp.py'
p3170
sg3118
(dp3171
S'vars.xml'
p3172
S'None'
p3173
sS'vars'
p3174
S"<Storage {'_formkey': '8d34bbec-ea30-4383-9f87-a109a588570c', '_formname': 'default'}>"
p3175
ssg3128
I461
sg3129
(dp3176
I456
S'        for p in response.postprocessing:'
p3177
sI457
S'            vars = p(vars)'
p3178
sI458
S'    if isinstance(vars,unicode):'
p3179
sI459
S"        vars = vars.encode('utf8')"
p3180
sI460
S"    if hasattr(vars,'xml'):"
p3181
sI461
S'        vars = vars.xml()'
p3182
sI462
S'    return vars'
p3183
sI463
S''
sI464
S'def run_view_in(environment):'
p3184
sI465
S'    """'
p3185
ssg3138
S"(controller='default', function='index', environment={'A': <class 'gluon.html.A'>, 'Auth': <class 'gluon.tools.Auth'>, 'B': <class 'gluon.html.B'>, 'BEAUTIFY': <class 'gluon.html.BEAUTIFY'>, 'BODY': <class 'gluon.html.BODY'>, 'BR': <class 'gluon.html.BR'>, 'BUTTON': <class 'gluon.html.BUTTON'>, 'CAT': <class 'gluon.html.CAT'>, 'CENTER': <class 'gluon.html.CENTER'>, 'CLEANUP': <class 'gluon.validators.CLEANUP'>, ...})"
p3186
sg3140
S'run_controller_in'
p3187
sasS'pyver'
p3188
S'Python 2.6.7: /usr/bin/python2.6'
p3189
sS'session'
p3190
g55
(g56
g57
NtRp3191
(dp3192
g60
(dp3193
sg62
(lp3194
g55
(g64
g57
NtRp3195
(dp3196
g60
(dp3197
g68
I5
ssg69
Nsg62
(lp3198
sbasbsS'etype'
p3199
S"<type 'exceptions.TypeError'>"
p3200
sS'date'
p3201
S'Fri Oct 28 20:07:02 2011'
p3202
sS'response'
p3203
g55
(g56
g57
NtRp3204
(dp3205
g60
(dp3206
sg62
(lp3207
g55
(g64
g57
NtRp3208
(dp3209
g60
(dp3210
g68
I5
ssg69
Nsg62
(lp3211
g55
(g71
g57
NtRp3212
(dp3213
g60
(dp3214
sg69
g3208
sg62
(lp3215
g55
(g76
g57
NtRp3216
(dp3217
g60
(dp3218
g80
g81
ssg69
g3212
sg62
(lp3219
g153
asbag55
(g76
g57
NtRp3220
(dp3221
g60
(dp3222
g87
g88
ssg69
g3212
sg62
(lp3223
S':'
asbag55
(g76
g57
NtRp3224
(dp3225
g60
(dp3226
sg69
g3212
sg62
(lp3227
g55
(g56
g57
NtRp3228
(dp3229
g60
(dp3230
g68
I5
ssg69
g3224
sg62
(lp3231
S'<cStringIO.StringO object at 0x1f93308>'
p3232
asbasbasbag55
(g71
g57
NtRp3233
(dp3234
g60
(dp3235
sg69
g3208
sg62
(lp3236
g55
(g76
g57
NtRp3237
(dp3238
g60
(dp3239
g80
g81
ssg69
g3233
sg62
(lp3240
g219
asbag55
(g76
g57
NtRp3241
(dp3242
g60
(dp3243
g87
g88
ssg69
g3233
sg62
(lp3244
S':'
asbag55
(g76
g57
NtRp3245
(dp3246
g60
(dp3247
sg69
g3233
sg62
(lp3248
g55
(g56
g57
NtRp3249
(dp3250
g60
(dp3251
g68
I5
ssg69
g3245
sg62
(lp3252
g55
(g64
g57
NtRp3253
(dp3254
g60
(dp3255
g68
I4
ssg69
Nsg62
(lp3256
g55
(g71
g57
NtRp3257
(dp3258
g60
(dp3259
sg69
g3253
sg62
(lp3260
g55
(g76
g57
NtRp3261
(dp3262
g60
(dp3263
g80
g81
ssg69
g3257
sg62
(lp3264
S'session_id_ddlagoon'
p3265
asbag55
(g76
g57
NtRp3266
(dp3267
g60
(dp3268
g87
g88
ssg69
g3257
sg62
(lp3269
S':'
asbag55
(g76
g57
NtRp3270
(dp3271
g60
(dp3272
sg69
g3257
sg62
(lp3273
g55
(g56
g57
NtRp3274
(dp3275
g60
(dp3276
g68
I4
ssg69
g3270
sg62
(lp3277
g55
(g64
g57
NtRp3278
(dp3279
g60
(dp3280
g68
I3
ssg69
Nsg62
(lp3281
g55
(g71
g57
NtRp3282
(dp3283
g60
(dp3284
sg69
g3278
sg62
(lp3285
g55
(g76
g57
NtRp3286
(dp3287
g60
(dp3288
g80
g81
ssg69
g3282
sg62
(lp3289
g269
asbag55
(g76
g57
NtRp3290
(dp3291
g60
(dp3292
g87
g88
ssg69
g3282
sg62
(lp3293
S':'
asbag55
(g76
g57
NtRp3294
(dp3295
g60
(dp3296
sg69
g3282
sg62
(lp3297
g55
(g56
g57
NtRp3298
(dp3299
g60
(dp3300
g68
I3
ssg69
g3294
sg62
(lp3301
S''
asbasbasbag55
(g71
g57
NtRp3302
(dp3303
g60
(dp3304
sg69
g3278
sg62
(lp3305
g55
(g76
g57
NtRp3306
(dp3307
g60
(dp3308
g80
g81
ssg69
g3302
sg62
(lp3309
g290
asbag55
(g76
g57
NtRp3310
(dp3311
g60
(dp3312
g87
g88
ssg69
g3302
sg62
(lp3313
S':'
asbag55
(g76
g57
NtRp3314
(dp3315
g60
(dp3316
sg69
g3302
sg62
(lp3317
g55
(g56
g57
NtRp3318
(dp3319
g60
(dp3320
g68
I3
ssg69
g3314
sg62
(lp3321
S''
asbasbasbag55
(g71
g57
NtRp3322
(dp3323
g60
(dp3324
sg69
g3278
sg62
(lp3325
g55
(g76
g57
NtRp3326
(dp3327
g60
(dp3328
g80
g81
ssg69
g3322
sg62
(lp3329
g311
asbag55
(g76
g57
NtRp3330
(dp3331
g60
(dp3332
g87
g88
ssg69
g3322
sg62
(lp3333
S':'
asbag55
(g76
g57
NtRp3334
(dp3335
g60
(dp3336
sg69
g3322
sg62
(lp3337
g55
(g56
g57
NtRp3338
(dp3339
g60
(dp3340
g68
I3
ssg69
g3334
sg62
(lp3341
S''
asbasbasbag55
(g71
g57
NtRp3342
(dp3343
g60
(dp3344
sg69
g3278
sg62
(lp3345
g55
(g76
g57
NtRp3346
(dp3347
g60
(dp3348
g80
g81
ssg69
g3342
sg62
(lp3349
g332
asbag55
(g76
g57
NtRp3350
(dp3351
g60
(dp3352
g87
g88
ssg69
g3342
sg62
(lp3353
S':'
asbag55
(g76
g57
NtRp3354
(dp3355
g60
(dp3356
sg69
g3342
sg62
(lp3357
g55
(g56
g57
NtRp3358
(dp3359
g60
(dp3360
g68
I3
ssg69
g3354
sg62
(lp3361
S''
asbasbasbag55
(g71
g57
NtRp3362
(dp3363
g60
(dp3364
sg69
g3278
sg62
(lp3365
g55
(g76
g57
NtRp3366
(dp3367
g60
(dp3368
g80
g81
ssg69
g3362
sg62
(lp3369
g353
asbag55
(g76
g57
NtRp3370
(dp3371
g60
(dp3372
g87
g88
ssg69
g3362
sg62
(lp3373
S':'
asbag55
(g76
g57
NtRp3374
(dp3375
g60
(dp3376
sg69
g3362
sg62
(lp3377
g55
(g56
g57
NtRp3378
(dp3379
g60
(dp3380
g68
I3
ssg69
g3374
sg62
(lp3381
S''
asbasbasbag55
(g71
g57
NtRp3382
(dp3383
g60
(dp3384
sg69
g3278
sg62
(lp3385
g55
(g76
g57
NtRp3386
(dp3387
g60
(dp3388
g80
g81
ssg69
g3382
sg62
(lp3389
g374
asbag55
(g76
g57
NtRp3390
(dp3391
g60
(dp3392
g87
g88
ssg69
g3382
sg62
(lp3393
S':'
asbag55
(g76
g57
NtRp3394
(dp3395
g60
(dp3396
sg69
g3382
sg62
(lp3397
g55
(g56
g57
NtRp3398
(dp3399
g60
(dp3400
g68
I3
ssg69
g3394
sg62
(lp3401
S'/'
asbasbasbag55
(g71
g57
NtRp3402
(dp3403
g60
(dp3404
sg69
g3278
sg62
(lp3405
g55
(g76
g57
NtRp3406
(dp3407
g60
(dp3408
g80
g81
ssg69
g3402
sg62
(lp3409
g395
asbag55
(g76
g57
NtRp3410
(dp3411
g60
(dp3412
g87
g88
ssg69
g3402
sg62
(lp3413
S':'
asbag55
(g76
g57
NtRp3414
(dp3415
g60
(dp3416
sg69
g3402
sg62
(lp3417
g55
(g56
g57
NtRp3418
(dp3419
g60
(dp3420
g68
I3
ssg69
g3414
sg62
(lp3421
S''
asbasbasbag55
(g71
g57
NtRp3422
(dp3423
g60
(dp3424
sg69
g3278
sg62
(lp3425
g55
(g76
g57
NtRp3426
(dp3427
g60
(dp3428
g80
g81
ssg69
g3422
sg62
(lp3429
g416
asbag55
(g76
g57
NtRp3430
(dp3431
g60
(dp3432
g87
g88
ssg69
g3422
sg62
(lp3433
S':'
asbag55
(g76
g57
NtRp3434
(dp3435
g60
(dp3436
sg69
g3422
sg62
(lp3437
g55
(g56
g57
NtRp3438
(dp3439
g60
(dp3440
g68
I3
ssg69
g3434
sg62
(lp3441
S''
asbasbasbasbasbasbasbasbasbasbasbag55
(g71
g57
NtRp3442
(dp3443
g60
(dp3444
sg69
g3208
sg62
(lp3445
g55
(g76
g57
NtRp3446
(dp3447
g60
(dp3448
g80
g81
ssg69
g3442
sg62
(lp3449
S'files'
p3450
asbag55
(g76
g57
NtRp3451
(dp3452
g60
(dp3453
g87
g88
ssg69
g3442
sg62
(lp3454
S':'
asbag55
(g76
g57
NtRp3455
(dp3456
g60
(dp3457
sg69
g3442
sg62
(lp3458
g55
(g56
g57
NtRp3459
(dp3460
g60
(dp3461
g68
I5
ssg69
g3455
sg62
(lp3462
g55
(g64
g57
NtRp3463
(dp3464
g60
(dp3465
g68
I4
ssg69
Nsg62
(lp3466
sbasbasbasbag55
(g71
g57
NtRp3467
(dp3468
g60
(dp3469
sg69
g3208
sg62
(lp3470
g55
(g76
g57
NtRp3471
(dp3472
g60
(dp3473
g80
g81
ssg69
g3467
sg62
(lp3474
S'flash'
p3475
asbag55
(g76
g57
NtRp3476
(dp3477
g60
(dp3478
g87
g88
ssg69
g3467
sg62
(lp3479
S':'
asbag55
(g76
g57
NtRp3480
(dp3481
g60
(dp3482
sg69
g3467
sg62
(lp3483
g55
(g56
g57
NtRp3484
(dp3485
g60
(dp3486
g68
I5
ssg69
g3480
sg62
(lp3487
S''
asbasbasbag55
(g71
g57
NtRp3488
(dp3489
g60
(dp3490
sg69
g3208
sg62
(lp3491
g55
(g76
g57
NtRp3492
(dp3493
g60
(dp3494
g80
g81
ssg69
g3488
sg62
(lp3495
S'generic_patterns'
p3496
asbag55
(g76
g57
NtRp3497
(dp3498
g60
(dp3499
g87
g88
ssg69
g3488
sg62
(lp3500
S':'
asbag55
(g76
g57
NtRp3501
(dp3502
g60
(dp3503
sg69
g3488
sg62
(lp3504
g55
(g56
g57
NtRp3505
(dp3506
g60
(dp3507
g68
I5
ssg69
g3501
sg62
(lp3508
g55
(g64
g57
NtRp3509
(dp3510
g60
(dp3511
g68
I4
ssg69
Nsg62
(lp3512
g55
(g71
g57
NtRp3513
(dp3514
g60
(dp3515
sg69
g3509
sg62
(lp3516
g55
(g76
g57
NtRp3517
(dp3518
g60
(dp3519
sg69
g3513
sg62
(lp3520
g55
(g56
g57
NtRp3521
(dp3522
g60
(dp3523
g68
I4
ssg69
g3517
sg62
(lp3524
S'*'
asbasbasbasbasbasbasbag55
(g71
g57
NtRp3525
(dp3526
g60
(dp3527
sg69
g3208
sg62
(lp3528
g55
(g76
g57
NtRp3529
(dp3530
g60
(dp3531
g80
g81
ssg69
g3525
sg62
(lp3532
S'headers'
p3533
asbag55
(g76
g57
NtRp3534
(dp3535
g60
(dp3536
g87
g88
ssg69
g3525
sg62
(lp3537
S':'
asbag55
(g76
g57
NtRp3538
(dp3539
g60
(dp3540
sg69
g3525
sg62
(lp3541
g55
(g56
g57
NtRp3542
(dp3543
g60
(dp3544
g68
I5
ssg69
g3538
sg62
(lp3545
g55
(g64
g57
NtRp3546
(dp3547
g60
(dp3548
g68
I4
ssg69
Nsg62
(lp3549
g55
(g71
g57
NtRp3550
(dp3551
g60
(dp3552
sg69
g3546
sg62
(lp3553
g55
(g76
g57
NtRp3554
(dp3555
g60
(dp3556
g80
g81
ssg69
g3550
sg62
(lp3557
S'Cache-Control'
p3558
asbag55
(g76
g57
NtRp3559
(dp3560
g60
(dp3561
g87
g88
ssg69
g3550
sg62
(lp3562
S':'
asbag55
(g76
g57
NtRp3563
(dp3564
g60
(dp3565
sg69
g3550
sg62
(lp3566
g55
(g56
g57
NtRp3567
(dp3568
g60
(dp3569
g68
I4
ssg69
g3563
sg62
(lp3570
S'no-store, no-cache, must-revalidate, post-check=0, pre-check=0'
p3571
asbasbasbag55
(g71
g57
NtRp3572
(dp3573
g60
(dp3574
sg69
g3546
sg62
(lp3575
g55
(g76
g57
NtRp3576
(dp3577
g60
(dp3578
g80
g81
ssg69
g3572
sg62
(lp3579
S'Content-Type'
p3580
asbag55
(g76
g57
NtRp3581
(dp3582
g60
(dp3583
g87
g88
ssg69
g3572
sg62
(lp3584
S':'
asbag55
(g76
g57
NtRp3585
(dp3586
g60
(dp3587
sg69
g3572
sg62
(lp3588
g55
(g56
g57
NtRp3589
(dp3590
g60
(dp3591
g68
I4
ssg69
g3585
sg62
(lp3592
S'text/html; charset=utf-8'
p3593
asbasbasbag55
(g71
g57
NtRp3594
(dp3595
g60
(dp3596
sg69
g3546
sg62
(lp3597
g55
(g76
g57
NtRp3598
(dp3599
g60
(dp3600
g80
g81
ssg69
g3594
sg62
(lp3601
S'Expires'
p3602
asbag55
(g76
g57
NtRp3603
(dp3604
g60
(dp3605
g87
g88
ssg69
g3594
sg62
(lp3606
S':'
asbag55
(g76
g57
NtRp3607
(dp3608
g60
(dp3609
sg69
g3594
sg62
(lp3610
g55
(g56
g57
NtRp3611
(dp3612
g60
(dp3613
g68
I4
ssg69
g3607
sg62
(lp3614
S'Fri, 28 Oct 2011 19:07:02 GMT'
p3615
asbasbasbag55
(g71
g57
NtRp3616
(dp3617
g60
(dp3618
sg69
g3546
sg62
(lp3619
g55
(g76
g57
NtRp3620
(dp3621
g60
(dp3622
g80
g81
ssg69
g3616
sg62
(lp3623
S'Pragma'
p3624
asbag55
(g76
g57
NtRp3625
(dp3626
g60
(dp3627
g87
g88
ssg69
g3616
sg62
(lp3628
S':'
asbag55
(g76
g57
NtRp3629
(dp3630
g60
(dp3631
sg69
g3616
sg62
(lp3632
g55
(g56
g57
NtRp3633
(dp3634
g60
(dp3635
g68
I4
ssg69
g3629
sg62
(lp3636
S'no-cache'
p3637
asbasbasbag55
(g71
g57
NtRp3638
(dp3639
g60
(dp3640
sg69
g3546
sg62
(lp3641
g55
(g76
g57
NtRp3642
(dp3643
g60
(dp3644
g80
g81
ssg69
g3638
sg62
(lp3645
S'X-Powered-By'
p3646
asbag55
(g76
g57
NtRp3647
(dp3648
g60
(dp3649
g87
g88
ssg69
g3638
sg62
(lp3650
S':'
asbag55
(g76
g57
NtRp3651
(dp3652
g60
(dp3653
sg69
g3638
sg62
(lp3654
g55
(g56
g57
NtRp3655
(dp3656
g60
(dp3657
g68
I4
ssg69
g3651
sg62
(lp3658
S'web2py'
p3659
asbasbasbasbasbasbasbag55
(g71
g57
NtRp3660
(dp3661
g60
(dp3662
sg69
g3208
sg62
(lp3663
g55
(g76
g57
NtRp3664
(dp3665
g60
(dp3666
g80
g81
ssg69
g3660
sg62
(lp3667
S'menu'
p3668
asbag55
(g76
g57
NtRp3669
(dp3670
g60
(dp3671
g87
g88
ssg69
g3660
sg62
(lp3672
S':'
asbag55
(g76
g57
NtRp3673
(dp3674
g60
(dp3675
sg69
g3660
sg62
(lp3676
g55
(g56
g57
NtRp3677
(dp3678
g60
(dp3679
g68
I5
ssg69
g3673
sg62
(lp3680
g55
(g64
g57
NtRp3681
(dp3682
g60
(dp3683
g68
I4
ssg69
Nsg62
(lp3684
g55
(g71
g57
NtRp3685
(dp3686
g60
(dp3687
sg69
g3681
sg62
(lp3688
g55
(g76
g57
NtRp3689
(dp3690
g60
(dp3691
sg69
g3685
sg62
(lp3692
g55
(g56
g57
NtRp3693
(dp3694
g60
(dp3695
g68
I4
ssg69
g3689
sg62
(lp3696
g55
(g64
g57
NtRp3697
(dp3698
g60
(dp3699
g68
I3
ssg69
Nsg62
(lp3700
g55
(g71
g57
NtRp3701
(dp3702
g60
(dp3703
sg69
g3697
sg62
(lp3704
g55
(g76
g57
NtRp3705
(dp3706
g60
(dp3707
sg69
g3701
sg62
(lp3708
g55
(g56
g57
NtRp3709
(dp3710
g60
(dp3711
g68
I3
ssg69
g3705
sg62
(lp3712
cgluon.languages
lazyT_unpickle
p3713
(S's\x04\x00\x00\x00Home'
tRp3714
asbasbasbag55
(g71
g57
NtRp3715
(dp3716
g60
(dp3717
sg69
g3697
sg62
(lp3718
g55
(g76
g57
NtRp3719
(dp3720
g60
(dp3721
sg69
g3715
sg62
(lp3722
g55
(g56
g57
NtRp3723
(dp3724
g60
(dp3725
g68
I3
ssg69
g3719
sg62
(lp3726
g98
asbasbasbag55
(g71
g57
NtRp3727
(dp3728
g60
(dp3729
sg69
g3697
sg62
(lp3730
g55
(g76
g57
NtRp3731
(dp3732
g60
(dp3733
sg69
g3727
sg62
(lp3734
g55
(g56
g57
NtRp3735
(dp3736
g60
(dp3737
g68
I3
ssg69
g3731
sg62
(lp3738
S'/ddlagoon/default/index'
p3739
asbasbasbag55
(g71
g57
NtRp3740
(dp3741
g60
(dp3742
sg69
g3697
sg62
(lp3743
g55
(g76
g57
NtRp3744
(dp3745
g60
(dp3746
sg69
g3740
sg62
(lp3747
g55
(g56
g57
NtRp3748
(dp3749
g60
(dp3750
g68
I3
ssg69
g3744
sg62
(lp3751
g55
(g64
g57
NtRp3752
(dp3753
g60
(dp3754
g68
I2
ssg69
Nsg62
(lp3755
sbasbasbasbasbasbasbasbag55
(g71
g57
NtRp3756
(dp3757
g60
(dp3758
sg69
g3681
sg62
(lp3759
g55
(g76
g57
NtRp3760
(dp3761
g60
(dp3762
sg69
g3756
sg62
(lp3763
g55
(g56
g57
NtRp3764
(dp3765
g60
(dp3766
g68
I4
ssg69
g3760
sg62
(lp3767
g55
(g64
g57
NtRp3768
(dp3769
g60
(dp3770
g68
I3
ssg69
Nsg62
(lp3771
g55
(g71
g57
NtRp3772
(dp3773
g60
(dp3774
sg69
g3768
sg62
(lp3775
g55
(g76
g57
NtRp3776
(dp3777
g60
(dp3778
sg69
g3772
sg62
(lp3779
g55
(g56
g57
NtRp3780
(dp3781
g60
(dp3782
g68
I3
ssg69
g3776
sg62
(lp3783
g3713
(S's\x08\x00\x00\x00This App'
tRp3784
asbasbasbag55
(g71
g57
NtRp3785
(dp3786
g60
(dp3787
sg69
g3768
sg62
(lp3788
g55
(g76
g57
NtRp3789
(dp3790
g60
(dp3791
sg69
g3785
sg62
(lp3792
g55
(g56
g57
NtRp3793
(dp3794
g60
(dp3795
g68
I3
ssg69
g3789
sg62
(lp3796
g98
asbasbasbag55
(g71
g57
NtRp3797
(dp3798
g60
(dp3799
sg69
g3768
sg62
(lp3800
g55
(g76
g57
NtRp3801
(dp3802
g60
(dp3803
sg69
g3797
sg62
(lp3804
g55
(g56
g57
NtRp3805
(dp3806
g60
(dp3807
g68
I3
ssg69
g3801
sg62
(lp3808
S'/admin/default/design/ddlagoon'
p3809
asbasbasbag55
(g71
g57
NtRp3810
(dp3811
g60
(dp3812
sg69
g3768
sg62
(lp3813
g55
(g76
g57
NtRp3814
(dp3815
g60
(dp3816
sg69
g3810
sg62
(lp3817
g55
(g56
g57
NtRp3818
(dp3819
g60
(dp3820
g68
I3
ssg69
g3814
sg62
(lp3821
g55
(g64
g57
NtRp3822
(dp3823
g60
(dp3824
g68
I2
ssg69
Nsg62
(lp3825
g55
(g71
g57
NtRp3826
(dp3827
g60
(dp3828
sg69
g3822
sg62
(lp3829
g55
(g76
g57
NtRp3830
(dp3831
g60
(dp3832
sg69
g3826
sg62
(lp3833
g55
(g56
g57
NtRp3834
(dp3835
g60
(dp3836
g68
I2
ssg69
g3830
sg62
(lp3837
g55
(g64
g57
NtRp3838
(dp3839
g60
(dp3840
g68
I1
ssg69
Nsg62
(lp3841
g55
(g71
g57
NtRp3842
(dp3843
g60
(dp3844
sg69
g3838
sg62
(lp3845
g55
(g76
g57
NtRp3846
(dp3847
g60
(dp3848
sg69
g3842
sg62
(lp3849
g55
(g56
g57
NtRp3850
(dp3851
g60
(dp3852
g68
I1
ssg69
g3846
sg62
(lp3853
g3713
(S's\n\x00\x00\x00Controller'
tRp3854
asbasbasbag55
(g71
g57
NtRp3855
(dp3856
g60
(dp3857
sg69
g3838
sg62
(lp3858
g55
(g76
g57
NtRp3859
(dp3860
g60
(dp3861
sg69
g3855
sg62
(lp3862
g55
(g56
g57
NtRp3863
(dp3864
g60
(dp3865
g68
I1
ssg69
g3859
sg62
(lp3866
I00
asbasbasbag55
(g71
g57
NtRp3867
(dp3868
g60
(dp3869
sg69
g3838
sg62
(lp3870
g55
(g76
g57
NtRp3871
(dp3872
g60
(dp3873
sg69
g3867
sg62
(lp3874
g55
(g56
g57
NtRp3875
(dp3876
g60
(dp3877
g68
I1
ssg69
g3871
sg62
(lp3878
S'/admin/default/edit/ddlagoon/controllers/default.py'
p3879
asbasbasbasbasbasbasbag55
(g71
g57
NtRp3880
(dp3881
g60
(dp3882
sg69
g3822
sg62
(lp3883
g55
(g76
g57
NtRp3884
(dp3885
g60
(dp3886
sg69
g3880
sg62
(lp3887
g55
(g56
g57
NtRp3888
(dp3889
g60
(dp3890
g68
I2
ssg69
g3884
sg62
(lp3891
g55
(g64
g57
NtRp3892
(dp3893
g60
(dp3894
g68
I1
ssg69
Nsg62
(lp3895
g55
(g71
g57
NtRp3896
(dp3897
g60
(dp3898
sg69
g3892
sg62
(lp3899
g55
(g76
g57
NtRp3900
(dp3901
g60
(dp3902
sg69
g3896
sg62
(lp3903
g55
(g56
g57
NtRp3904
(dp3905
g60
(dp3906
g68
I1
ssg69
g3900
sg62
(lp3907
g3713
(S's\x04\x00\x00\x00View'
tRp3908
asbasbasbag55
(g71
g57
NtRp3909
(dp3910
g60
(dp3911
sg69
g3892
sg62
(lp3912
g55
(g76
g57
NtRp3913
(dp3914
g60
(dp3915
sg69
g3909
sg62
(lp3916
g55
(g56
g57
NtRp3917
(dp3918
g60
(dp3919
g68
I1
ssg69
g3913
sg62
(lp3920
I00
asbasbasbag55
(g71
g57
NtRp3921
(dp3922
g60
(dp3923
sg69
g3892
sg62
(lp3924
g55
(g76
g57
NtRp3925
(dp3926
g60
(dp3927
sg69
g3921
sg62
(lp3928
g55
(g56
g57
NtRp3929
(dp3930
g60
(dp3931
g68
I1
ssg69
g3925
sg62
(lp3932
S'/admin/default/edit/ddlagoon/views/default/index.html'
p3933
asbasbasbasbasbasbasbag55
(g71
g57
NtRp3934
(dp3935
g60
(dp3936
sg69
g3822
sg62
(lp3937
g55
(g76
g57
NtRp3938
(dp3939
g60
(dp3940
sg69
g3934
sg62
(lp3941
g55
(g56
g57
NtRp3942
(dp3943
g60
(dp3944
g68
I2
ssg69
g3938
sg62
(lp3945
g55
(g64
g57
NtRp3946
(dp3947
g60
(dp3948
g68
I1
ssg69
Nsg62
(lp3949
g55
(g71
g57
NtRp3950
(dp3951
g60
(dp3952
sg69
g3946
sg62
(lp3953
g55
(g76
g57
NtRp3954
(dp3955
g60
(dp3956
sg69
g3950
sg62
(lp3957
g55
(g56
g57
NtRp3958
(dp3959
g60
(dp3960
g68
I1
ssg69
g3954
sg62
(lp3961
g3713
(S's\x06\x00\x00\x00Layout'
tRp3962
asbasbasbag55
(g71
g57
NtRp3963
(dp3964
g60
(dp3965
sg69
g3946
sg62
(lp3966
g55
(g76
g57
NtRp3967
(dp3968
g60
(dp3969
sg69
g3963
sg62
(lp3970
g55
(g56
g57
NtRp3971
(dp3972
g60
(dp3973
g68
I1
ssg69
g3967
sg62
(lp3974
I00
asbasbasbag55
(g71
g57
NtRp3975
(dp3976
g60
(dp3977
sg69
g3946
sg62
(lp3978
g55
(g76
g57
NtRp3979
(dp3980
g60
(dp3981
sg69
g3975
sg62
(lp3982
g55
(g56
g57
NtRp3983
(dp3984
g60
(dp3985
g68
I1
ssg69
g3979
sg62
(lp3986
S'/admin/default/edit/ddlagoon/views/layout.html'
p3987
asbasbasbasbasbasbasbag55
(g71
g57
NtRp3988
(dp3989
g60
(dp3990
sg69
g3822
sg62
(lp3991
g55
(g76
g57
NtRp3992
(dp3993
g60
(dp3994
sg69
g3988
sg62
(lp3995
g55
(g56
g57
NtRp3996
(dp3997
g60
(dp3998
g68
I2
ssg69
g3992
sg62
(lp3999
g55
(g64
g57
NtRp4000
(dp4001
g60
(dp4002
g68
I1
ssg69
Nsg62
(lp4003
g55
(g71
g57
NtRp4004
(dp4005
g60
(dp4006
sg69
g4000
sg62
(lp4007
g55
(g76
g57
NtRp4008
(dp4009
g60
(dp4010
sg69
g4004
sg62
(lp4011
g55
(g56
g57
NtRp4012
(dp4013
g60
(dp4014
g68
I1
ssg69
g4008
sg62
(lp4015
g3713
(S's\n\x00\x00\x00Stylesheet'
tRp4016
asbasbasbag55
(g71
g57
NtRp4017
(dp4018
g60
(dp4019
sg69
g4000
sg62
(lp4020
g55
(g76
g57
NtRp4021
(dp4022
g60
(dp4023
sg69
g4017
sg62
(lp4024
g55
(g56
g57
NtRp4025
(dp4026
g60
(dp4027
g68
I1
ssg69
g4021
sg62
(lp4028
I00
asbasbasbag55
(g71
g57
NtRp4029
(dp4030
g60
(dp4031
sg69
g4000
sg62
(lp4032
g55
(g76
g57
NtRp4033
(dp4034
g60
(dp4035
sg69
g4029
sg62
(lp4036
g55
(g56
g57
NtRp4037
(dp4038
g60
(dp4039
g68
I1
ssg69
g4033
sg62
(lp4040
S'/admin/default/edit/ddlagoon/static/base.css'
p4041
asbasbasbasbasbasbasbag55
(g71
g57
NtRp4042
(dp4043
g60
(dp4044
sg69
g3822
sg62
(lp4045
g55
(g76
g57
NtRp4046
(dp4047
g60
(dp4048
sg69
g4042
sg62
(lp4049
g55
(g56
g57
NtRp4050
(dp4051
g60
(dp4052
g68
I2
ssg69
g4046
sg62
(lp4053
g55
(g64
g57
NtRp4054
(dp4055
g60
(dp4056
g68
I1
ssg69
Nsg62
(lp4057
g55
(g71
g57
NtRp4058
(dp4059
g60
(dp4060
sg69
g4054
sg62
(lp4061
g55
(g76
g57
NtRp4062
(dp4063
g60
(dp4064
sg69
g4058
sg62
(lp4065
g55
(g56
g57
NtRp4066
(dp4067
g60
(dp4068
g68
I1
ssg69
g4062
sg62
(lp4069
g3713
(S's\x08\x00\x00\x00DB Model'
tRp4070
asbasbasbag55
(g71
g57
NtRp4071
(dp4072
g60
(dp4073
sg69
g4054
sg62
(lp4074
g55
(g76
g57
NtRp4075
(dp4076
g60
(dp4077
sg69
g4071
sg62
(lp4078
g55
(g56
g57
NtRp4079
(dp4080
g60
(dp4081
g68
I1
ssg69
g4075
sg62
(lp4082
I00
asbasbasbag55
(g71
g57
NtRp4083
(dp4084
g60
(dp4085
sg69
g4054
sg62
(lp4086
g55
(g76
g57
NtRp4087
(dp4088
g60
(dp4089
sg69
g4083
sg62
(lp4090
g55
(g56
g57
NtRp4091
(dp4092
g60
(dp4093
g68
I1
ssg69
g4087
sg62
(lp4094
S'/admin/default/edit/ddlagoon/models/db.py'
p4095
asbasbasbasbasbasbasbag55
(g71
g57
NtRp4096
(dp4097
g60
(dp4098
sg69
g3822
sg62
(lp4099
g55
(g76
g57
NtRp4100
(dp4101
g60
(dp4102
sg69
g4096
sg62
(lp4103
g55
(g56
g57
NtRp4104
(dp4105
g60
(dp4106
g68
I2
ssg69
g4100
sg62
(lp4107
g55
(g64
g57
NtRp4108
(dp4109
g60
(dp4110
g68
I1
ssg69
Nsg62
(lp4111
g55
(g71
g57
NtRp4112
(dp4113
g60
(dp4114
sg69
g4108
sg62
(lp4115
g55
(g76
g57
NtRp4116
(dp4117
g60
(dp4118
sg69
g4112
sg62
(lp4119
g55
(g56
g57
NtRp4120
(dp4121
g60
(dp4122
g68
I1
ssg69
g4116
sg62
(lp4123
g3713
(S's\n\x00\x00\x00Menu Model'
tRp4124
asbasbasbag55
(g71
g57
NtRp4125
(dp4126
g60
(dp4127
sg69
g4108
sg62
(lp4128
g55
(g76
g57
NtRp4129
(dp4130
g60
(dp4131
sg69
g4125
sg62
(lp4132
g55
(g56
g57
NtRp4133
(dp4134
g60
(dp4135
g68
I1
ssg69
g4129
sg62
(lp4136
I00
asbasbasbag55
(g71
g57
NtRp4137
(dp4138
g60
(dp4139
sg69
g4108
sg62
(lp4140
g55
(g76
g57
NtRp4141
(dp4142
g60
(dp4143
sg69
g4137
sg62
(lp4144
g55
(g56
g57
NtRp4145
(dp4146
g60
(dp4147
g68
I1
ssg69
g4141
sg62
(lp4148
S'/admin/default/edit/ddlagoon/models/menu.py'
p4149
asbasbasbasbasbasbasbag55
(g71
g57
NtRp4150
(dp4151
g60
(dp4152
sg69
g3822
sg62
(lp4153
g55
(g76
g57
NtRp4154
(dp4155
g60
(dp4156
sg69
g4150
sg62
(lp4157
g55
(g56
g57
NtRp4158
(dp4159
g60
(dp4160
g68
I2
ssg69
g4154
sg62
(lp4161
g55
(g64
g57
NtRp4162
(dp4163
g60
(dp4164
g68
I1
ssg69
Nsg62
(lp4165
g55
(g71
g57
NtRp4166
(dp4167
g60
(dp4168
sg69
g4162
sg62
(lp4169
g55
(g76
g57
NtRp4170
(dp4171
g60
(dp4172
sg69
g4166
sg62
(lp4173
g55
(g56
g57
NtRp4174
(dp4175
g60
(dp4176
g68
I1
ssg69
g4170
sg62
(lp4177
g3713
(S's\x08\x00\x00\x00Database'
tRp4178
asbasbasbag55
(g71
g57
NtRp4179
(dp4180
g60
(dp4181
sg69
g4162
sg62
(lp4182
g55
(g76
g57
NtRp4183
(dp4184
g60
(dp4185
sg69
g4179
sg62
(lp4186
g55
(g56
g57
NtRp4187
(dp4188
g60
(dp4189
g68
I1
ssg69
g4183
sg62
(lp4190
I00
asbasbasbag55
(g71
g57
NtRp4191
(dp4192
g60
(dp4193
sg69
g4162
sg62
(lp4194
g55
(g76
g57
NtRp4195
(dp4196
g60
(dp4197
sg69
g4191
sg62
(lp4198
g55
(g56
g57
NtRp4199
(dp4200
g60
(dp4201
g68
I1
ssg69
g4195
sg62
(lp4202
S'/ddlagoon/appadmin/index'
p4203
asbasbasbasbasbasbasbag55
(g71
g57
NtRp4204
(dp4205
g60
(dp4206
sg69
g3822
sg62
(lp4207
g55
(g76
g57
NtRp4208
(dp4209
g60
(dp4210
sg69
g4204
sg62
(lp4211
g55
(g56
g57
NtRp4212
(dp4213
g60
(dp4214
g68
I2
ssg69
g4208
sg62
(lp4215
g55
(g64
g57
NtRp4216
(dp4217
g60
(dp4218
g68
I1
ssg69
Nsg62
(lp4219
g55
(g71
g57
NtRp4220
(dp4221
g60
(dp4222
sg69
g4216
sg62
(lp4223
g55
(g76
g57
NtRp4224
(dp4225
g60
(dp4226
sg69
g4220
sg62
(lp4227
g55
(g56
g57
NtRp4228
(dp4229
g60
(dp4230
g68
I1
ssg69
g4224
sg62
(lp4231
g3713
(S's\x06\x00\x00\x00Errors'
tRp4232
asbasbasbag55
(g71
g57
NtRp4233
(dp4234
g60
(dp4235
sg69
g4216
sg62
(lp4236
g55
(g76
g57
NtRp4237
(dp4238
g60
(dp4239
sg69
g4233
sg62
(lp4240
g55
(g56
g57
NtRp4241
(dp4242
g60
(dp4243
g68
I1
ssg69
g4237
sg62
(lp4244
I00
asbasbasbag55
(g71
g57
NtRp4245
(dp4246
g60
(dp4247
sg69
g4216
sg62
(lp4248
g55
(g76
g57
NtRp4249
(dp4250
g60
(dp4251
sg69
g4245
sg62
(lp4252
g55
(g56
g57
NtRp4253
(dp4254
g60
(dp4255
g68
I1
ssg69
g4249
sg62
(lp4256
S'/admin/default/errors/ddlagoon'
p4257
asbasbasbasbasbasbasbag55
(g71
g57
NtRp4258
(dp4259
g60
(dp4260
sg69
g3822
sg62
(lp4261
g55
(g76
g57
NtRp4262
(dp4263
g60
(dp4264
sg69
g4258
sg62
(lp4265
g55
(g56
g57
NtRp4266
(dp4267
g60
(dp4268
g68
I2
ssg69
g4262
sg62
(lp4269
g55
(g64
g57
NtRp4270
(dp4271
g60
(dp4272
g68
I1
ssg69
Nsg62
(lp4273
g55
(g71
g57
NtRp4274
(dp4275
g60
(dp4276
sg69
g4270
sg62
(lp4277
g55
(g76
g57
NtRp4278
(dp4279
g60
(dp4280
sg69
g4274
sg62
(lp4281
g55
(g56
g57
NtRp4282
(dp4283
g60
(dp4284
g68
I1
ssg69
g4278
sg62
(lp4285
g3713
(S's\x05\x00\x00\x00About'
tRp4286
asbasbasbag55
(g71
g57
NtRp4287
(dp4288
g60
(dp4289
sg69
g4270
sg62
(lp4290
g55
(g76
g57
NtRp4291
(dp4292
g60
(dp4293
sg69
g4287
sg62
(lp4294
g55
(g56
g57
NtRp4295
(dp4296
g60
(dp4297
g68
I1
ssg69
g4291
sg62
(lp4298
I00
asbasbasbag55
(g71
g57
NtRp4299
(dp4300
g60
(dp4301
sg69
g4270
sg62
(lp4302
g55
(g76
g57
NtRp4303
(dp4304
g60
(dp4305
sg69
g4299
sg62
(lp4306
g55
(g56
g57
NtRp4307
(dp4308
g60
(dp4309
g68
I1
ssg69
g4303
sg62
(lp4310
S'/admin/default/about/ddlagoon'
p4311
asbasbasbasbasbasbasbasbasbasbasbasbasbasbasbag55
(g71
g57
NtRp4312
(dp4313
g60
(dp4314
sg69
g3681
sg62
(lp4315
g55
(g76
g57
NtRp4316
(dp4317
g60
(dp4318
sg69
g4312
sg62
(lp4319
g55
(g56
g57
NtRp4320
(dp4321
g60
(dp4322
g68
I4
ssg69
g4316
sg62
(lp4323
g55
(g64
g57
NtRp4324
(dp4325
g60
(dp4326
g68
I3
ssg69
Nsg62
(lp4327
g55
(g71
g57
NtRp4328
(dp4329
g60
(dp4330
sg69
g4324
sg62
(lp4331
g55
(g76
g57
NtRp4332
(dp4333
g60
(dp4334
sg69
g4328
sg62
(lp4335
g55
(g56
g57
NtRp4336
(dp4337
g60
(dp4338
g68
I3
ssg69
g4332
sg62
(lp4339
g3713
(S's\t\x00\x00\x00Resources'
tRp4340
asbasbasbag55
(g71
g57
NtRp4341
(dp4342
g60
(dp4343
sg69
g4324
sg62
(lp4344
g55
(g76
g57
NtRp4345
(dp4346
g60
(dp4347
sg69
g4341
sg62
(lp4348
g55
(g56
g57
NtRp4349
(dp4350
g60
(dp4351
g68
I3
ssg69
g4345
sg62
(lp4352
g98
asbasbasbag55
(g71
g57
NtRp4353
(dp4354
g60
(dp4355
sg69
g4324
sg62
(lp4356
g55
(g76
g57
NtRp4357
(dp4358
g60
(dp4359
sg69
g4353
sg62
(lp4360
g55
(g56
g57
NtRp4361
(dp4362
g60
(dp4363
g68
I3
ssg69
g4357
sg62
(lp4364
S'None'
p4365
asbasbasbag55
(g71
g57
NtRp4366
(dp4367
g60
(dp4368
sg69
g4324
sg62
(lp4369
g55
(g76
g57
NtRp4370
(dp4371
g60
(dp4372
sg69
g4366
sg62
(lp4373
g55
(g56
g57
NtRp4374
(dp4375
g60
(dp4376
g68
I3
ssg69
g4370
sg62
(lp4377
g55
(g64
g57
NtRp4378
(dp4379
g60
(dp4380
g68
I2
ssg69
Nsg62
(lp4381
g55
(g71
g57
NtRp4382
(dp4383
g60
(dp4384
sg69
g4378
sg62
(lp4385
g55
(g76
g57
NtRp4386
(dp4387
g60
(dp4388
sg69
g4382
sg62
(lp4389
g55
(g56
g57
NtRp4390
(dp4391
g60
(dp4392
g68
I2
ssg69
g4386
sg62
(lp4393
g55
(g64
g57
NtRp4394
(dp4395
g60
(dp4396
g68
I1
ssg69
Nsg62
(lp4397
g55
(g71
g57
NtRp4398
(dp4399
g60
(dp4400
sg69
g4394
sg62
(lp4401
g55
(g76
g57
NtRp4402
(dp4403
g60
(dp4404
sg69
g4398
sg62
(lp4405
g55
(g56
g57
NtRp4406
(dp4407
g60
(dp4408
g68
I1
ssg69
g4402
sg62
(lp4409
g3713
(S's\r\x00\x00\x00Documentation'
tRp4410
asbasbasbag55
(g71
g57
NtRp4411
(dp4412
g60
(dp4413
sg69
g4394
sg62
(lp4414
g55
(g76
g57
NtRp4415
(dp4416
g60
(dp4417
sg69
g4411
sg62
(lp4418
g55
(g56
g57
NtRp4419
(dp4420
g60
(dp4421
g68
I1
ssg69
g4415
sg62
(lp4422
I00
asbasbasbag55
(g71
g57
NtRp4423
(dp4424
g60
(dp4425
sg69
g4394
sg62
(lp4426
g55
(g76
g57
NtRp4427
(dp4428
g60
(dp4429
sg69
g4423
sg62
(lp4430
g55
(g56
g57
NtRp4431
(dp4432
g60
(dp4433
g68
I1
ssg69
g4427
sg62
(lp4434
S'http://www.web2py.com/book'
p4435
asbasbasbag55
(g71
g57
NtRp4436
(dp4437
g60
(dp4438
sg69
g4394
sg62
(lp4439
g55
(g76
g57
NtRp4440
(dp4441
g60
(dp4442
sg69
g4436
sg62
(lp4443
g55
(g56
g57
NtRp4444
(dp4445
g60
(dp4446
g68
I1
ssg69
g4440
sg62
(lp4447
(lp4448
(g3713
(S's\x07\x00\x00\x00Preface'
tRp4449
I00
S'http://www.web2py.com/book/default/chapter/00'
p4450
tp4451
a(g3713
(S's\x0c\x00\x00\x00Introduction'
tRp4452
I00
S'http://www.web2py.com/book/default/chapter/01'
p4453
tp4454
a(g3713
(S's\x06\x00\x00\x00Python'
tRp4455
I00
S'http://www.web2py.com/book/default/chapter/02'
p4456
tp4457
a(g3713
(S's\x08\x00\x00\x00Overview'
tRp4458
I00
S'http://www.web2py.com/book/default/chapter/03'
p4459
tp4460
a(g3713
(S's\x08\x00\x00\x00The Core'
tRp4461
I00
S'http://www.web2py.com/book/default/chapter/04'
p4462
tp4463
a(g3713
(S's\t\x00\x00\x00The Views'
tRp4464
I00
S'http://www.web2py.com/book/default/chapter/05'
p4465
tp4466
a(g3713
(S's\x08\x00\x00\x00Database'
tRp4467
I00
S'http://www.web2py.com/book/default/chapter/06'
p4468
tp4469
a(g3713
(S's\x14\x00\x00\x00Forms and Validators'
tRp4470
I00
S'http://www.web2py.com/book/default/chapter/07'
p4471
tp4472
a(g3713
(S's\x0e\x00\x00\x00Access Control'
tRp4473
I00
S'http://www.web2py.com/book/default/chapter/08'
p4474
tp4475
a(g3713
(S's\x08\x00\x00\x00Services'
tRp4476
I00
S'http://www.web2py.com/book/default/chapter/09'
p4477
tp4478
a(g3713
(S's\x0c\x00\x00\x00Ajax Recipes'
tRp4479
I00
S'http://www.web2py.com/book/default/chapter/10'
p4480
tp4481
a(g3713
(S's\x12\x00\x00\x00Deployment Recipes'
tRp4482
I00
S'http://www.web2py.com/book/default/chapter/11'
p4483
tp4484
a(g3713
(S's\r\x00\x00\x00Other Recipes'
tRp4485
I00
S'http://www.web2py.com/book/default/chapter/12'
p4486
tp4487
a(g3713
(S's\r\x00\x00\x00Buy this book'
tRp4488
I00
S'http://stores.lulu.com/web2py'
p4489
tp4490
aasbasbasbasbasbasbasbag55
(g71
g57
NtRp4491
(dp4492
g60
(dp4493
sg69
g4378
sg62
(lp4494
g55
(g76
g57
NtRp4495
(dp4496
g60
(dp4497
sg69
g4491
sg62
(lp4498
g55
(g56
g57
NtRp4499
(dp4500
g60
(dp4501
g68
I2
ssg69
g4495
sg62
(lp4502
g55
(g64
g57
NtRp4503
(dp4504
g60
(dp4505
g68
I1
ssg69
Nsg62
(lp4506
g55
(g71
g57
NtRp4507
(dp4508
g60
(dp4509
sg69
g4503
sg62
(lp4510
g55
(g76
g57
NtRp4511
(dp4512
g60
(dp4513
sg69
g4507
sg62
(lp4514
g55
(g56
g57
NtRp4515
(dp4516
g60
(dp4517
g68
I1
ssg69
g4511
sg62
(lp4518
g3713
(S's\t\x00\x00\x00Community'
tRp4519
asbasbasbag55
(g71
g57
NtRp4520
(dp4521
g60
(dp4522
sg69
g4503
sg62
(lp4523
g55
(g76
g57
NtRp4524
(dp4525
g60
(dp4526
sg69
g4520
sg62
(lp4527
g55
(g56
g57
NtRp4528
(dp4529
g60
(dp4530
g68
I1
ssg69
g4524
sg62
(lp4531
I00
asbasbasbag55
(g71
g57
NtRp4532
(dp4533
g60
(dp4534
sg69
g4503
sg62
(lp4535
g55
(g76
g57
NtRp4536
(dp4537
g60
(dp4538
sg69
g4532
sg62
(lp4539
g55
(g56
g57
NtRp4540
(dp4541
g60
(dp4542
g68
I1
ssg69
g4536
sg62
(lp4543
Nasbasbasbag55
(g71
g57
NtRp4544
(dp4545
g60
(dp4546
sg69
g4503
sg62
(lp4547
g55
(g76
g57
NtRp4548
(dp4549
g60
(dp4550
sg69
g4544
sg62
(lp4551
g55
(g56
g57
NtRp4552
(dp4553
g60
(dp4554
g68
I1
ssg69
g4548
sg62
(lp4555
(lp4556
(g3713
(S's\x06\x00\x00\x00Groups'
tRp4557
I00
S'http://www.web2py.com/examples/default/usergroups'
p4558
tp4559
a(g3713
(S's\x07\x00\x00\x00Twitter'
tRp4560
I00
S'http://twitter.com/web2py'
p4561
tp4562
a(g3713
(S's\t\x00\x00\x00Live chat'
tRp4563
I00
S'http://mibbit.com/?channel=%23web2py&server=irc.mibbit.net'
p4564
tp4565
a(g3713
(S's\n\x00\x00\x00User Voice'
tRp4566
I00
S'http://web2py.uservoice.com/'
p4567
tp4568
aasbasbasbasbasbasbasbag55
(g71
g57
NtRp4569
(dp4570
g60
(dp4571
sg69
g4378
sg62
(lp4572
g55
(g76
g57
NtRp4573
(dp4574
g60
(dp4575
sg69
g4569
sg62
(lp4576
g55
(g56
g57
NtRp4577
(dp4578
g60
(dp4579
g68
I2
ssg69
g4573
sg62
(lp4580
g55
(g64
g57
NtRp4581
(dp4582
g60
(dp4583
g68
I1
ssg69
Nsg62
(lp4584
g55
(g71
g57
NtRp4585
(dp4586
g60
(dp4587
sg69
g4581
sg62
(lp4588
g55
(g76
g57
NtRp4589
(dp4590
g60
(dp4591
sg69
g4585
sg62
(lp4592
g55
(g56
g57
NtRp4593
(dp4594
g60
(dp4595
g68
I1
ssg69
g4589
sg62
(lp4596
g3713
(S's\x06\x00\x00\x00Web2py'
tRp4597
asbasbasbag55
(g71
g57
NtRp4598
(dp4599
g60
(dp4600
sg69
g4581
sg62
(lp4601
g55
(g76
g57
NtRp4602
(dp4603
g60
(dp4604
sg69
g4598
sg62
(lp4605
g55
(g56
g57
NtRp4606
(dp4607
g60
(dp4608
g68
I1
ssg69
g4602
sg62
(lp4609
I00
asbasbasbag55
(g71
g57
NtRp4610
(dp4611
g60
(dp4612
sg69
g4581
sg62
(lp4613
g55
(g76
g57
NtRp4614
(dp4615
g60
(dp4616
sg69
g4610
sg62
(lp4617
g55
(g56
g57
NtRp4618
(dp4619
g60
(dp4620
g68
I1
ssg69
g4614
sg62
(lp4621
S'http://www.web2py.com'
p4622
asbasbasbag55
(g71
g57
NtRp4623
(dp4624
g60
(dp4625
sg69
g4581
sg62
(lp4626
g55
(g76
g57
NtRp4627
(dp4628
g60
(dp4629
sg69
g4623
sg62
(lp4630
g55
(g56
g57
NtRp4631
(dp4632
g60
(dp4633
g68
I1
ssg69
g4627
sg62
(lp4634
(lp4635
(g3713
(S's\x08\x00\x00\x00Download'
tRp4636
I00
S'http://www.web2py.com/examples/default/download'
p4637
tp4638
a(g3713
(S's\x07\x00\x00\x00Support'
tRp4639
I00
S'http://www.web2py.com/examples/default/support'
p4640
tp4641
a(g3713
(S's\x0e\x00\x00\x00Quick Examples'
tRp4642
I00
S'http://web2py.com/examples/default/examples'
p4643
tp4644
a(g3713
(S's\x03\x00\x00\x00FAQ'
tRp4645
I00
S'http://web2py.com/AlterEgo'
p4646
tp4647
a(g3713
(S's\x11\x00\x00\x00Free Applications'
tRp4648
I00
S'http://web2py.com/appliances'
p4649
tp4650
a(g3713
(S's\x07\x00\x00\x00Plugins'
tRp4651
I00
S'http://web2py.com/plugins'
p4652
tp4653
a(g3713
(S's\x07\x00\x00\x00Recipes'
tRp4654
I00
S'http://web2pyslices.com/'
p4655
tp4656
a(g3713
(S's\x04\x00\x00\x00Demo'
tRp4657
I00
S'http://web2py.com/demo_admin'
p4658
tp4659
a(g3713
(S's\x08\x00\x00\x00Semantic'
tRp4660
I00
S'http://web2py.com/semantic'
p4661
tp4662
a(g3713
(S's\x07\x00\x00\x00Layouts'
tRp4663
I00
S'http://web2py.com/layouts'
p4664
tp4665
a(g3713
(S's\x06\x00\x00\x00Videos'
tRp4666
I00
S'http://www.web2py.com/examples/default/videos/'
p4667
tp4668
aasbasbasbasbasbasbasbasbasbasbasbasbasbasbasbasbasbasbasbag55
(g71
g57
NtRp4669
(dp4670
g60
(dp4671
sg69
g3208
sg62
(lp4672
g55
(g76
g57
NtRp4673
(dp4674
g60
(dp4675
g80
g81
ssg69
g4669
sg62
(lp4676
S'meta'
p4677
asbag55
(g76
g57
NtRp4678
(dp4679
g60
(dp4680
g87
g88
ssg69
g4669
sg62
(lp4681
S':'
asbag55
(g76
g57
NtRp4682
(dp4683
g60
(dp4684
sg69
g4669
sg62
(lp4685
g55
(g56
g57
NtRp4686
(dp4687
g60
(dp4688
g68
I5
ssg69
g4682
sg62
(lp4689
g55
(g64
g57
NtRp4690
(dp4691
g60
(dp4692
g68
I4
ssg69
Nsg62
(lp4693
g55
(g71
g57
NtRp4694
(dp4695
g60
(dp4696
sg69
g4690
sg62
(lp4697
g55
(g76
g57
NtRp4698
(dp4699
g60
(dp4700
g80
g81
ssg69
g4694
sg62
(lp4701
S'author'
p4702
asbag55
(g76
g57
NtRp4703
(dp4704
g60
(dp4705
g87
g88
ssg69
g4694
sg62
(lp4706
S':'
asbag55
(g76
g57
NtRp4707
(dp4708
g60
(dp4709
sg69
g4694
sg62
(lp4710
g55
(g56
g57
NtRp4711
(dp4712
g60
(dp4713
g68
I4
ssg69
g4707
sg62
(lp4714
S'Your Name <you@example.com>'
p4715
asbasbasbag55
(g71
g57
NtRp4716
(dp4717
g60
(dp4718
sg69
g4690
sg62
(lp4719
g55
(g76
g57
NtRp4720
(dp4721
g60
(dp4722
g80
g81
ssg69
g4716
sg62
(lp4723
S'copyright'
p4724
asbag55
(g76
g57
NtRp4725
(dp4726
g60
(dp4727
g87
g88
ssg69
g4716
sg62
(lp4728
S':'
asbag55
(g76
g57
NtRp4729
(dp4730
g60
(dp4731
sg69
g4716
sg62
(lp4732
g55
(g56
g57
NtRp4733
(dp4734
g60
(dp4735
g68
I4
ssg69
g4729
sg62
(lp4736
S'Copyright 2011'
p4737
asbasbasbag55
(g71
g57
NtRp4738
(dp4739
g60
(dp4740
sg69
g4690
sg62
(lp4741
g55
(g76
g57
NtRp4742
(dp4743
g60
(dp4744
g80
g81
ssg69
g4738
sg62
(lp4745
S'description'
p4746
asbag55
(g76
g57
NtRp4747
(dp4748
g60
(dp4749
g87
g88
ssg69
g4738
sg62
(lp4750
S':'
asbag55
(g76
g57
NtRp4751
(dp4752
g60
(dp4753
sg69
g4738
sg62
(lp4754
g55
(g56
g57
NtRp4755
(dp4756
g60
(dp4757
g68
I4
ssg69
g4751
sg62
(lp4758
S'a cool new app'
p4759
asbasbasbag55
(g71
g57
NtRp4760
(dp4761
g60
(dp4762
sg69
g4690
sg62
(lp4763
g55
(g76
g57
NtRp4764
(dp4765
g60
(dp4766
g80
g81
ssg69
g4760
sg62
(lp4767
S'generator'
p4768
asbag55
(g76
g57
NtRp4769
(dp4770
g60
(dp4771
g87
g88
ssg69
g4760
sg62
(lp4772
S':'
asbag55
(g76
g57
NtRp4773
(dp4774
g60
(dp4775
sg69
g4760
sg62
(lp4776
g55
(g56
g57
NtRp4777
(dp4778
g60
(dp4779
g68
I4
ssg69
g4773
sg62
(lp4780
S'Web2py Web Framework'
p4781
asbasbasbag55
(g71
g57
NtRp4782
(dp4783
g60
(dp4784
sg69
g4690
sg62
(lp4785
g55
(g76
g57
NtRp4786
(dp4787
g60
(dp4788
g80
g81
ssg69
g4782
sg62
(lp4789
S'keywords'
p4790
asbag55
(g76
g57
NtRp4791
(dp4792
g60
(dp4793
g87
g88
ssg69
g4782
sg62
(lp4794
S':'
asbag55
(g76
g57
NtRp4795
(dp4796
g60
(dp4797
sg69
g4782
sg62
(lp4798
g55
(g56
g57
NtRp4799
(dp4800
g60
(dp4801
g68
I4
ssg69
g4795
sg62
(lp4802
S'web2py, python, framework'
p4803
asbasbasbasbasbasbasbag55
(g71
g57
NtRp4804
(dp4805
g60
(dp4806
sg69
g3208
sg62
(lp4807
g55
(g76
g57
NtRp4808
(dp4809
g60
(dp4810
g80
g81
ssg69
g4804
sg62
(lp4811
S'postprocessing'
p4812
asbag55
(g76
g57
NtRp4813
(dp4814
g60
(dp4815
g87
g88
ssg69
g4804
sg62
(lp4816
S':'
asbag55
(g76
g57
NtRp4817
(dp4818
g60
(dp4819
sg69
g4804
sg62
(lp4820
g55
(g56
g57
NtRp4821
(dp4822
g60
(dp4823
g68
I5
ssg69
g4817
sg62
(lp4824
g55
(g64
g57
NtRp4825
(dp4826
g60
(dp4827
g68
I4
ssg69
Nsg62
(lp4828
sbasbasbasbag55
(g71
g57
NtRp4829
(dp4830
g60
(dp4831
sg69
g3208
sg62
(lp4832
g55
(g76
g57
NtRp4833
(dp4834
g60
(dp4835
g80
g81
ssg69
g4829
sg62
(lp4836
S'session_file'
p4837
asbag55
(g76
g57
NtRp4838
(dp4839
g60
(dp4840
g87
g88
ssg69
g4829
sg62
(lp4841
S':'
asbag55
(g76
g57
NtRp4842
(dp4843
g60
(dp4844
sg69
g4829
sg62
(lp4845
g55
(g56
g57
NtRp4846
(dp4847
g60
(dp4848
g68
I5
ssg69
g4842
sg62
(lp4849
S"<open file '/windows/Users/Thomas/Dropbox/appz/2011/GAE/ddl-lagoon/applications/ddlagoon/sessions/127.0.0.1-60102476-ed87-4511-b16b-e72b3489909e', mode 'rb+' at 0x1d40ed0>"
p4850
asbasbasbag55
(g71
g57
NtRp4851
(dp4852
g60
(dp4853
sg69
g3208
sg62
(lp4854
g55
(g76
g57
NtRp4855
(dp4856
g60
(dp4857
g80
g81
ssg69
g4851
sg62
(lp4858
S'session_filename'
p4859
asbag55
(g76
g57
NtRp4860
(dp4861
g60
(dp4862
g87
g88
ssg69
g4851
sg62
(lp4863
S':'
asbag55
(g76
g57
NtRp4864
(dp4865
g60
(dp4866
sg69
g4851
sg62
(lp4867
g55
(g56
g57
NtRp4868
(dp4869
g60
(dp4870
g68
I5
ssg69
g4864
sg62
(lp4871
S'/windows/Users/Thomas/Dropbox/appz/2011/GAE/ddl-lagoon/applications/ddlagoon/sessions/127.0.0.1-60102476-ed87-4511-b16b-e72b3489909e'
p4872
asbasbasbag55
(g71
g57
NtRp4873
(dp4874
g60
(dp4875
sg69
g3208
sg62
(lp4876
g55
(g76
g57
NtRp4877
(dp4878
g60
(dp4879
g80
g81
ssg69
g4873
sg62
(lp4880
S'session_id'
p4881
asbag55
(g76
g57
NtRp4882
(dp4883
g60
(dp4884
g87
g88
ssg69
g4873
sg62
(lp4885
S':'
asbag55
(g76
g57
NtRp4886
(dp4887
g60
(dp4888
sg69
g4873
sg62
(lp4889
g55
(g56
g57
NtRp4890
(dp4891
g60
(dp4892
g68
I5
ssg69
g4886
sg62
(lp4893
S'127.0.0.1-60102476-ed87-4511-b16b-e72b3489909e'
p4894
asbasbasbag55
(g71
g57
NtRp4895
(dp4896
g60
(dp4897
sg69
g3208
sg62
(lp4898
g55
(g76
g57
NtRp4899
(dp4900
g60
(dp4901
g80
g81
ssg69
g4895
sg62
(lp4902
S'session_id_name'
p4903
asbag55
(g76
g57
NtRp4904
(dp4905
g60
(dp4906
g87
g88
ssg69
g4895
sg62
(lp4907
S':'
asbag55
(g76
g57
NtRp4908
(dp4909
g60
(dp4910
sg69
g4895
sg62
(lp4911
g55
(g56
g57
NtRp4912
(dp4913
g60
(dp4914
g68
I5
ssg69
g4908
sg62
(lp4915
g3265
asbasbasbag55
(g71
g57
NtRp4916
(dp4917
g60
(dp4918
sg69
g3208
sg62
(lp4919
g55
(g76
g57
NtRp4920
(dp4921
g60
(dp4922
g80
g81
ssg69
g4916
sg62
(lp4923
S'session_locked'
p4924
asbag55
(g76
g57
NtRp4925
(dp4926
g60
(dp4927
g87
g88
ssg69
g4916
sg62
(lp4928
S':'
asbag55
(g76
g57
NtRp4929
(dp4930
g60
(dp4931
sg69
g4916
sg62
(lp4932
g55
(g56
g57
NtRp4933
(dp4934
g60
(dp4935
g68
I5
ssg69
g4929
sg62
(lp4936
g1642
asbasbasbag55
(g71
g57
NtRp4937
(dp4938
g60
(dp4939
sg69
g3208
sg62
(lp4940
g55
(g76
g57
NtRp4941
(dp4942
g60
(dp4943
g80
g81
ssg69
g4937
sg62
(lp4944
S'session_new'
p4945
asbag55
(g76
g57
NtRp4946
(dp4947
g60
(dp4948
g87
g88
ssg69
g4937
sg62
(lp4949
S':'
asbag55
(g76
g57
NtRp4950
(dp4951
g60
(dp4952
sg69
g4937
sg62
(lp4953
g55
(g56
g57
NtRp4954
(dp4955
g60
(dp4956
g68
I5
ssg69
g4950
sg62
(lp4957
g98
asbasbasbag55
(g71
g57
NtRp4958
(dp4959
g60
(dp4960
sg69
g3208
sg62
(lp4961
g55
(g76
g57
NtRp4962
(dp4963
g60
(dp4964
g80
g81
ssg69
g4958
sg62
(lp4965
S'status'
p4966
asbag55
(g76
g57
NtRp4967
(dp4968
g60
(dp4969
g87
g88
ssg69
g4958
sg62
(lp4970
S':'
asbag55
(g76
g57
NtRp4971
(dp4972
g60
(dp4973
sg69
g4958
sg62
(lp4974
g55
(g56
g57
NtRp4975
(dp4976
g60
(dp4977
g68
I5
ssg69
g4971
sg62
(lp4978
S'200'
p4979
asbasbasbag55
(g71
g57
NtRp4980
(dp4981
g60
(dp4982
sg69
g3208
sg62
(lp4983
g55
(g76
g57
NtRp4984
(dp4985
g60
(dp4986
g80
g81
ssg69
g4980
sg62
(lp4987
S'subtitle'
p4988
asbag55
(g76
g57
NtRp4989
(dp4990
g60
(dp4991
g87
g88
ssg69
g4980
sg62
(lp4992
S':'
asbag55
(g76
g57
NtRp4993
(dp4994
g60
(dp4995
sg69
g4980
sg62
(lp4996
g55
(g56
g57
NtRp4997
(dp4998
g60
(dp4999
g68
I5
ssg69
g4993
sg62
(lp5000
g3713
(S's\r\x00\x00\x00customize me!'
tRp5001
asbasbasbag55
(g71
g57
NtRp5002
(dp5003
g60
(dp5004
sg69
g3208
sg62
(lp5005
g55
(g76
g57
NtRp5006
(dp5007
g60
(dp5008
g80
g81
ssg69
g5002
sg62
(lp5009
S'title'
p5010
asbag55
(g76
g57
NtRp5011
(dp5012
g60
(dp5013
g87
g88
ssg69
g5002
sg62
(lp5014
S':'
asbag55
(g76
g57
NtRp5015
(dp5016
g60
(dp5017
sg69
g5002
sg62
(lp5018
g55
(g56
g57
NtRp5019
(dp5020
g60
(dp5021
g68
I5
ssg69
g5015
sg62
(lp5022
g120
asbasbasbag55
(g71
g57
NtRp5023
(dp5024
g60
(dp5025
sg69
g3208
sg62
(lp5026
g55
(g76
g57
NtRp5027
(dp5028
g60
(dp5029
g80
g81
ssg69
g5023
sg62
(lp5030
g2286
asbag55
(g76
g57
NtRp5031
(dp5032
g60
(dp5033
g87
g88
ssg69
g5023
sg62
(lp5034
S':'
asbag55
(g76
g57
NtRp5035
(dp5036
g60
(dp5037
sg69
g5023
sg62
(lp5038
g55
(g56
g57
NtRp5039
(dp5040
g60
(dp5041
g68
I5
ssg69
g5035
sg62
(lp5042
g2299
asbasbasbag55
(g71
g57
NtRp5043
(dp5044
g60
(dp5045
sg69
g3208
sg62
(lp5046
g55
(g76
g57
NtRp5047
(dp5048
g60
(dp5049
g80
g81
ssg69
g5043
sg62
(lp5050
S'view'
p5051
asbag55
(g76
g57
NtRp5052
(dp5053
g60
(dp5054
g87
g88
ssg69
g5043
sg62
(lp5055
S':'
asbag55
(g76
g57
NtRp5056
(dp5057
g60
(dp5058
sg69
g5043
sg62
(lp5059
g55
(g56
g57
NtRp5060
(dp5061
g60
(dp5062
g68
I5
ssg69
g5056
sg62
(lp5063
S'default/index.html'
p5064
asbasbasbasbasbsS'locals'
p5065
(dp5066
g1787
S"'index'"
p5067
sg5
S"'# -*- coding: utf-8 -*-\\n# this file is released ...=linux64)\\nresponse._vars=response._caller(index)\\n'"
p5068
sg2308
S"<Storage {'_formkey': '8d34bbec-ea30-4383-9f87-a109a588570c', '_formname': 'default'}>"
p5069
sS'exposed'
p5070
S"['search', 'index', 'user', 'profile', 'download', 'uploadDDL', 'call', 'data', 'get', 'howto']"
p5071
sS'filename'
p5072
S"'/windows/Users/Thomas/Dropbox/appz/2011/GAE/ddl-lagoon/applications/ddlagoon/controllers/default.py'"
p5073
sS'environment'
p5074
S"{'A': <class 'gluon.html.A'>, 'Auth': <class 'gluon.tools.Auth'>, 'B': <class 'gluon.html.B'>, 'BEAUTIFY': <class 'gluon.html.BEAUTIFY'>, 'BODY': <class 'gluon.html.BODY'>, 'BR': <class 'gluon.html.BR'>, 'BUTTON': <class 'gluon.html.BUTTON'>, 'CAT': <class 'gluon.html.CAT'>, 'CENTER': <class 'gluon.html.CENTER'>, 'CLEANUP': <class 'gluon.validators.CLEANUP'>, ...}"
p5075
sS'badf'
p5076
S"'invalid function (default/index)'"
p5077
sg197
S"'default'"
p5078
sS'badc'
p5079
S"'invalid controller (default/index)'"
p5080
sg374
S"'/windows/Users/Thomas/Dropbox/appz/2011/GAE/ddl-lagoon/applications/ddlagoon/compiled'"
p5081
sg1765
S"'/windows/Users/Thomas/Dropbox/appz/2011/GAE/ddl-lagoon/applications/ddlagoon/'"
p5082
sg3203
S"<Storage {'body': <cStringIO.StringO object at 0...da> at 0x2d2e398>, 'view': 'default/index.html'}>"
p5083
sssS'traceback'
p5084
S'Traceback (most recent call last):\n  File "/windows/Users/Thomas/Dropbox/appz/2011/GAE/ddl-lagoon/gluon/main.py", line 490, in wsgibase\n    serve_controller(request, response, session)\n  File "/windows/Users/Thomas/Dropbox/appz/2011/GAE/ddl-lagoon/gluon/main.py", line 204, in serve_controller\n    page = run_controller_in(request.controller, request.function, environment)\n  File "/windows/Users/Thomas/Dropbox/appz/2011/GAE/ddl-lagoon/gluon/compileapp.py", line 461, in run_controller_in\n    vars = vars.xml()\nTypeError: \'NoneType\' object is not callable\n'
p5085
s.