(dp1
S'output'
p2
S''
sS'layer'
p3
S'/windows/Users/Thomas/Dropbox/appz/2011/GAE/ddl-lagoon/applications/ddlagoon/controllers/ddl.py'
p4
sS'code'
p5
S'import tempfile\nfrom time import mktime\nif False:\n    from gluon.contrib.pysimplesoap.client import response\n\nif False:\n    from applications.ddlagoon.models.db import service, db\n\nfrom gluon.contrib import simplejson as json\n\n__author__ = \'thomas\'\n\ndef get():\n    return service()\n\n@service.xml\ndef ddl(id="", filename=""):\n    # find the record\n    ddl= db((db.ddl.filename==filename) & (db.ddl.id==id)).select().first()\n    if not ddl:\n        return "404 - File not found."\n    else:\n        # prepare the file\n        ddl = {\n            \'author\':ddl.author,\n            \'filename\':ddl.filename,\n            \'description\':ddl.description,\n            \'size\':ddl.size,\n            \'hash\':ddl.hash,\n            \'parts\':ddl.parts,\n            \'service\':ddl.service,\n            \'links\':ddl.links,\n            \'version\':ddl.version,\n            \'time\':int(mktime(ddl.date_added.timetuple()))\n        }\n        ddlJson = json.dumps(ddl, sort_keys=True, indent=4)\n        # temp file\n        ddlFile = tempfile.NamedTemporaryFile()\n        with open(ddlFile.name, "wb") as myFile:\n            myFile.write(ddlJson)\n        return response.download(ddlFile, ddlFile)\nresponse._vars=response._caller(get)\n'
p6
sS'snapshot'
p7
(dp8
S'exception'
p9
(dp10
S'__hash__'
p11
S"<method-wrapper '__hash__' of exceptions.AttributeError object>"
p12
sS'__setattr__'
p13
S"<method-wrapper '__setattr__' of exceptions.AttributeError object>"
p14
sS'__reduce_ex__'
p15
S'<built-in method __reduce_ex__ of exceptions.AttributeError object>'
p16
sS'__getslice__'
p17
S"<method-wrapper '__getslice__' of exceptions.AttributeError object>"
p18
sS'__getitem__'
p19
S"<method-wrapper '__getitem__' of exceptions.AttributeError object>"
p20
sS'__setstate__'
p21
S'<built-in method __setstate__ of exceptions.AttributeError object>'
p22
sS'args'
p23
S'("\'file\' object has no attribute \'args\'",)'
p24
sS'__reduce__'
p25
S'<built-in method __reduce__ of exceptions.AttributeError object>'
p26
sS'__str__'
p27
S"<method-wrapper '__str__' of exceptions.AttributeError object>"
p28
sS'__format__'
p29
S'<built-in method __format__ of exceptions.AttributeError object>'
p30
sS'__getattribute__'
p31
S"<method-wrapper '__getattribute__' of exceptions.AttributeError object>"
p32
sS'__class__'
p33
S"<type 'exceptions.AttributeError'>"
p34
sS'__unicode__'
p35
S'<built-in method __unicode__ of exceptions.AttributeError object>'
p36
sS'__delattr__'
p37
S"<method-wrapper '__delattr__' of exceptions.AttributeError object>"
p38
sS'__subclasshook__'
p39
S'<built-in method __subclasshook__ of type object>'
p40
sS'__repr__'
p41
S"<method-wrapper '__repr__' of exceptions.AttributeError object>"
p42
sS'__dict__'
p43
S'{}'
p44
sS'__sizeof__'
p45
S'<built-in method __sizeof__ of exceptions.AttributeError object>'
p46
sS'__doc__'
p47
S"'Attribute not found.'"
p48
sS'__init__'
p49
S"<method-wrapper '__init__' of exceptions.AttributeError object>"
p50
sS'__new__'
p51
S'<built-in method __new__ of type object>'
p52
ssS'evalue'
p53
S"'file' object has no attribute 'args'"
p54
sS'request'
p55
ccopy_reg
_reconstructor
p56
(cgluon.html
BEAUTIFY
p57
c__builtin__
object
p58
NtRp59
(dp60
S'attributes'
p61
(dp62
sS'components'
p63
(lp64
g56
(cgluon.html
TABLE
p65
g58
NtRp66
(dp67
g61
(dp68
S'level'
p69
I5
ssS'parent'
p70
Nsg63
(lp71
g56
(cgluon.html
TR
p72
g58
NtRp73
(dp74
g61
(dp75
sg70
g66
sg63
(lp76
g56
(cgluon.html
TD
p77
g58
NtRp78
(dp79
g61
(dp80
S'_style'
p81
S'font-weight:bold;'
p82
ssg70
g73
sg63
(lp83
S'ajax'
p84
asbag56
(g77
g58
NtRp85
(dp86
g61
(dp87
S'_valign'
p88
S'top'
p89
ssg70
g73
sg63
(lp90
S':'
asbag56
(g77
g58
NtRp91
(dp92
g61
(dp93
sg70
g73
sg63
(lp94
g56
(g57
g58
NtRp95
(dp96
g61
(dp97
g69
I5
ssg70
g91
sg63
(lp98
S'False'
p99
asbasbasbag56
(g72
g58
NtRp100
(dp101
g61
(dp102
sg70
g66
sg63
(lp103
g56
(g77
g58
NtRp104
(dp105
g61
(dp106
g81
g82
ssg70
g100
sg63
(lp107
S'application'
p108
asbag56
(g77
g58
NtRp109
(dp110
g61
(dp111
g88
g89
ssg70
g100
sg63
(lp112
S':'
asbag56
(g77
g58
NtRp113
(dp114
g61
(dp115
sg70
g100
sg63
(lp116
g56
(g57
g58
NtRp117
(dp118
g61
(dp119
g69
I5
ssg70
g113
sg63
(lp120
S'ddlagoon'
p121
asbasbasbag56
(g72
g58
NtRp122
(dp123
g61
(dp124
sg70
g66
sg63
(lp125
g56
(g77
g58
NtRp126
(dp127
g61
(dp128
g81
g82
ssg70
g122
sg63
(lp129
g23
asbag56
(g77
g58
NtRp130
(dp131
g61
(dp132
g88
g89
ssg70
g122
sg63
(lp133
S':'
asbag56
(g77
g58
NtRp134
(dp135
g61
(dp136
sg70
g122
sg63
(lp137
g56
(g57
g58
NtRp138
(dp139
g61
(dp140
g69
I5
ssg70
g134
sg63
(lp141
g56
(g65
g58
NtRp142
(dp143
g61
(dp144
g69
I4
ssg70
Nsg63
(lp145
g56
(g72
g58
NtRp146
(dp147
g61
(dp148
sg70
g142
sg63
(lp149
g56
(g77
g58
NtRp150
(dp151
g61
(dp152
sg70
g146
sg63
(lp153
g56
(g57
g58
NtRp154
(dp155
g61
(dp156
g69
I4
ssg70
g150
sg63
(lp157
S'run'
p158
asbasbasbag56
(g72
g58
NtRp159
(dp160
g61
(dp161
sg70
g142
sg63
(lp162
g56
(g77
g58
NtRp163
(dp164
g61
(dp165
sg70
g159
sg63
(lp166
g56
(g57
g58
NtRp167
(dp168
g61
(dp169
g69
I4
ssg70
g163
sg63
(lp170
S'ddl'
p171
asbasbasbag56
(g72
g58
NtRp172
(dp173
g61
(dp174
sg70
g142
sg63
(lp175
g56
(g77
g58
NtRp176
(dp177
g61
(dp178
sg70
g172
sg63
(lp179
g56
(g57
g58
NtRp180
(dp181
g61
(dp182
g69
I4
ssg70
g176
sg63
(lp183
S'14'
p184
asbasbasbag56
(g72
g58
NtRp185
(dp186
g61
(dp187
sg70
g142
sg63
(lp188
g56
(g77
g58
NtRp189
(dp190
g61
(dp191
sg70
g185
sg63
(lp192
g56
(g57
g58
NtRp193
(dp194
g61
(dp195
g69
I4
ssg70
g189
sg63
(lp196
S'The_Thing_2011_TS_XviD_READNFO___MiSTERE.avi'
p197
asbasbasbasbasbasbasbag56
(g72
g58
NtRp198
(dp199
g61
(dp200
sg70
g66
sg63
(lp201
g56
(g77
g58
NtRp202
(dp203
g61
(dp204
g81
g82
ssg70
g198
sg63
(lp205
S'body'
p206
asbag56
(g77
g58
NtRp207
(dp208
g61
(dp209
g88
g89
ssg70
g198
sg63
(lp210
S':'
asbag56
(g77
g58
NtRp211
(dp212
g61
(dp213
sg70
g198
sg63
(lp214
g56
(g57
g58
NtRp215
(dp216
g61
(dp217
g69
I5
ssg70
g211
sg63
(lp218
S'<cStringIO.StringO object at 0x324cf48>'
p219
asbasbasbag56
(g72
g58
NtRp220
(dp221
g61
(dp222
sg70
g66
sg63
(lp223
g56
(g77
g58
NtRp224
(dp225
g61
(dp226
g81
g82
ssg70
g220
sg63
(lp227
S'client'
p228
asbag56
(g77
g58
NtRp229
(dp230
g61
(dp231
g88
g89
ssg70
g220
sg63
(lp232
S':'
asbag56
(g77
g58
NtRp233
(dp234
g61
(dp235
sg70
g220
sg63
(lp236
g56
(g57
g58
NtRp237
(dp238
g61
(dp239
g69
I5
ssg70
g233
sg63
(lp240
S'127.0.0.1'
p241
asbasbasbag56
(g72
g58
NtRp242
(dp243
g61
(dp244
sg70
g66
sg63
(lp245
g56
(g77
g58
NtRp246
(dp247
g61
(dp248
g81
g82
ssg70
g242
sg63
(lp249
S'controller'
p250
asbag56
(g77
g58
NtRp251
(dp252
g61
(dp253
g88
g89
ssg70
g242
sg63
(lp254
S':'
asbag56
(g77
g58
NtRp255
(dp256
g61
(dp257
sg70
g242
sg63
(lp258
g56
(g57
g58
NtRp259
(dp260
g61
(dp261
g69
I5
ssg70
g255
sg63
(lp262
S'ddl'
p263
asbasbasbag56
(g72
g58
NtRp264
(dp265
g61
(dp266
sg70
g66
sg63
(lp267
g56
(g77
g58
NtRp268
(dp269
g61
(dp270
g81
g82
ssg70
g264
sg63
(lp271
S'cookies'
p272
asbag56
(g77
g58
NtRp273
(dp274
g61
(dp275
g88
g89
ssg70
g264
sg63
(lp276
S':'
asbag56
(g77
g58
NtRp277
(dp278
g61
(dp279
sg70
g264
sg63
(lp280
g56
(g57
g58
NtRp281
(dp282
g61
(dp283
g69
I5
ssg70
g277
sg63
(lp284
g56
(g65
g58
NtRp285
(dp286
g61
(dp287
g69
I4
ssg70
Nsg63
(lp288
g56
(g72
g58
NtRp289
(dp290
g61
(dp291
sg70
g285
sg63
(lp292
g56
(g77
g58
NtRp293
(dp294
g61
(dp295
g81
g82
ssg70
g289
sg63
(lp296
S'session_id_admin'
p297
asbag56
(g77
g58
NtRp298
(dp299
g61
(dp300
g88
g89
ssg70
g289
sg63
(lp301
S':'
asbag56
(g77
g58
NtRp302
(dp303
g61
(dp304
sg70
g289
sg63
(lp305
g56
(g57
g58
NtRp306
(dp307
g61
(dp308
g69
I4
ssg70
g302
sg63
(lp309
g56
(g65
g58
NtRp310
(dp311
g61
(dp312
g69
I3
ssg70
Nsg63
(lp313
g56
(g72
g58
NtRp314
(dp315
g61
(dp316
sg70
g310
sg63
(lp317
g56
(g77
g58
NtRp318
(dp319
g61
(dp320
g81
g82
ssg70
g314
sg63
(lp321
S'comment'
p322
asbag56
(g77
g58
NtRp323
(dp324
g61
(dp325
g88
g89
ssg70
g314
sg63
(lp326
S':'
asbag56
(g77
g58
NtRp327
(dp328
g61
(dp329
sg70
g314
sg63
(lp330
g56
(g57
g58
NtRp331
(dp332
g61
(dp333
g69
I3
ssg70
g327
sg63
(lp334
S''
asbasbasbag56
(g72
g58
NtRp335
(dp336
g61
(dp337
sg70
g310
sg63
(lp338
g56
(g77
g58
NtRp339
(dp340
g61
(dp341
g81
g82
ssg70
g335
sg63
(lp342
S'domain'
p343
asbag56
(g77
g58
NtRp344
(dp345
g61
(dp346
g88
g89
ssg70
g335
sg63
(lp347
S':'
asbag56
(g77
g58
NtRp348
(dp349
g61
(dp350
sg70
g335
sg63
(lp351
g56
(g57
g58
NtRp352
(dp353
g61
(dp354
g69
I3
ssg70
g348
sg63
(lp355
S''
asbasbasbag56
(g72
g58
NtRp356
(dp357
g61
(dp358
sg70
g310
sg63
(lp359
g56
(g77
g58
NtRp360
(dp361
g61
(dp362
g81
g82
ssg70
g356
sg63
(lp363
S'expires'
p364
asbag56
(g77
g58
NtRp365
(dp366
g61
(dp367
g88
g89
ssg70
g356
sg63
(lp368
S':'
asbag56
(g77
g58
NtRp369
(dp370
g61
(dp371
sg70
g356
sg63
(lp372
g56
(g57
g58
NtRp373
(dp374
g61
(dp375
g69
I3
ssg70
g369
sg63
(lp376
S''
asbasbasbag56
(g72
g58
NtRp377
(dp378
g61
(dp379
sg70
g310
sg63
(lp380
g56
(g77
g58
NtRp381
(dp382
g61
(dp383
g81
g82
ssg70
g377
sg63
(lp384
S'httponly'
p385
asbag56
(g77
g58
NtRp386
(dp387
g61
(dp388
g88
g89
ssg70
g377
sg63
(lp389
S':'
asbag56
(g77
g58
NtRp390
(dp391
g61
(dp392
sg70
g377
sg63
(lp393
g56
(g57
g58
NtRp394
(dp395
g61
(dp396
g69
I3
ssg70
g390
sg63
(lp397
S''
asbasbasbag56
(g72
g58
NtRp398
(dp399
g61
(dp400
sg70
g310
sg63
(lp401
g56
(g77
g58
NtRp402
(dp403
g61
(dp404
g81
g82
ssg70
g398
sg63
(lp405
S'max-age'
p406
asbag56
(g77
g58
NtRp407
(dp408
g61
(dp409
g88
g89
ssg70
g398
sg63
(lp410
S':'
asbag56
(g77
g58
NtRp411
(dp412
g61
(dp413
sg70
g398
sg63
(lp414
g56
(g57
g58
NtRp415
(dp416
g61
(dp417
g69
I3
ssg70
g411
sg63
(lp418
S''
asbasbasbag56
(g72
g58
NtRp419
(dp420
g61
(dp421
sg70
g310
sg63
(lp422
g56
(g77
g58
NtRp423
(dp424
g61
(dp425
g81
g82
ssg70
g419
sg63
(lp426
S'path'
p427
asbag56
(g77
g58
NtRp428
(dp429
g61
(dp430
g88
g89
ssg70
g419
sg63
(lp431
S':'
asbag56
(g77
g58
NtRp432
(dp433
g61
(dp434
sg70
g419
sg63
(lp435
g56
(g57
g58
NtRp436
(dp437
g61
(dp438
g69
I3
ssg70
g432
sg63
(lp439
S''
asbasbasbag56
(g72
g58
NtRp440
(dp441
g61
(dp442
sg70
g310
sg63
(lp443
g56
(g77
g58
NtRp444
(dp445
g61
(dp446
g81
g82
ssg70
g440
sg63
(lp447
S'secure'
p448
asbag56
(g77
g58
NtRp449
(dp450
g61
(dp451
g88
g89
ssg70
g440
sg63
(lp452
S':'
asbag56
(g77
g58
NtRp453
(dp454
g61
(dp455
sg70
g440
sg63
(lp456
g56
(g57
g58
NtRp457
(dp458
g61
(dp459
g69
I3
ssg70
g453
sg63
(lp460
S''
asbasbasbag56
(g72
g58
NtRp461
(dp462
g61
(dp463
sg70
g310
sg63
(lp464
g56
(g77
g58
NtRp465
(dp466
g61
(dp467
g81
g82
ssg70
g461
sg63
(lp468
S'version'
p469
asbag56
(g77
g58
NtRp470
(dp471
g61
(dp472
g88
g89
ssg70
g461
sg63
(lp473
S':'
asbag56
(g77
g58
NtRp474
(dp475
g61
(dp476
sg70
g461
sg63
(lp477
g56
(g57
g58
NtRp478
(dp479
g61
(dp480
g69
I3
ssg70
g474
sg63
(lp481
S''
asbasbasbasbasbasbasbag56
(g72
g58
NtRp482
(dp483
g61
(dp484
sg70
g285
sg63
(lp485
g56
(g77
g58
NtRp486
(dp487
g61
(dp488
g81
g82
ssg70
g482
sg63
(lp489
S'session_id_ddlagoon'
p490
asbag56
(g77
g58
NtRp491
(dp492
g61
(dp493
g88
g89
ssg70
g482
sg63
(lp494
S':'
asbag56
(g77
g58
NtRp495
(dp496
g61
(dp497
sg70
g482
sg63
(lp498
g56
(g57
g58
NtRp499
(dp500
g61
(dp501
g69
I4
ssg70
g495
sg63
(lp502
g56
(g65
g58
NtRp503
(dp504
g61
(dp505
g69
I3
ssg70
Nsg63
(lp506
g56
(g72
g58
NtRp507
(dp508
g61
(dp509
sg70
g503
sg63
(lp510
g56
(g77
g58
NtRp511
(dp512
g61
(dp513
g81
g82
ssg70
g507
sg63
(lp514
g322
asbag56
(g77
g58
NtRp515
(dp516
g61
(dp517
g88
g89
ssg70
g507
sg63
(lp518
S':'
asbag56
(g77
g58
NtRp519
(dp520
g61
(dp521
sg70
g507
sg63
(lp522
g56
(g57
g58
NtRp523
(dp524
g61
(dp525
g69
I3
ssg70
g519
sg63
(lp526
S''
asbasbasbag56
(g72
g58
NtRp527
(dp528
g61
(dp529
sg70
g503
sg63
(lp530
g56
(g77
g58
NtRp531
(dp532
g61
(dp533
g81
g82
ssg70
g527
sg63
(lp534
g343
asbag56
(g77
g58
NtRp535
(dp536
g61
(dp537
g88
g89
ssg70
g527
sg63
(lp538
S':'
asbag56
(g77
g58
NtRp539
(dp540
g61
(dp541
sg70
g527
sg63
(lp542
g56
(g57
g58
NtRp543
(dp544
g61
(dp545
g69
I3
ssg70
g539
sg63
(lp546
S''
asbasbasbag56
(g72
g58
NtRp547
(dp548
g61
(dp549
sg70
g503
sg63
(lp550
g56
(g77
g58
NtRp551
(dp552
g61
(dp553
g81
g82
ssg70
g547
sg63
(lp554
g364
asbag56
(g77
g58
NtRp555
(dp556
g61
(dp557
g88
g89
ssg70
g547
sg63
(lp558
S':'
asbag56
(g77
g58
NtRp559
(dp560
g61
(dp561
sg70
g547
sg63
(lp562
g56
(g57
g58
NtRp563
(dp564
g61
(dp565
g69
I3
ssg70
g559
sg63
(lp566
S''
asbasbasbag56
(g72
g58
NtRp567
(dp568
g61
(dp569
sg70
g503
sg63
(lp570
g56
(g77
g58
NtRp571
(dp572
g61
(dp573
g81
g82
ssg70
g567
sg63
(lp574
g385
asbag56
(g77
g58
NtRp575
(dp576
g61
(dp577
g88
g89
ssg70
g567
sg63
(lp578
S':'
asbag56
(g77
g58
NtRp579
(dp580
g61
(dp581
sg70
g567
sg63
(lp582
g56
(g57
g58
NtRp583
(dp584
g61
(dp585
g69
I3
ssg70
g579
sg63
(lp586
S''
asbasbasbag56
(g72
g58
NtRp587
(dp588
g61
(dp589
sg70
g503
sg63
(lp590
g56
(g77
g58
NtRp591
(dp592
g61
(dp593
g81
g82
ssg70
g587
sg63
(lp594
g406
asbag56
(g77
g58
NtRp595
(dp596
g61
(dp597
g88
g89
ssg70
g587
sg63
(lp598
S':'
asbag56
(g77
g58
NtRp599
(dp600
g61
(dp601
sg70
g587
sg63
(lp602
g56
(g57
g58
NtRp603
(dp604
g61
(dp605
g69
I3
ssg70
g599
sg63
(lp606
S''
asbasbasbag56
(g72
g58
NtRp607
(dp608
g61
(dp609
sg70
g503
sg63
(lp610
g56
(g77
g58
NtRp611
(dp612
g61
(dp613
g81
g82
ssg70
g607
sg63
(lp614
g427
asbag56
(g77
g58
NtRp615
(dp616
g61
(dp617
g88
g89
ssg70
g607
sg63
(lp618
S':'
asbag56
(g77
g58
NtRp619
(dp620
g61
(dp621
sg70
g607
sg63
(lp622
g56
(g57
g58
NtRp623
(dp624
g61
(dp625
g69
I3
ssg70
g619
sg63
(lp626
S''
asbasbasbag56
(g72
g58
NtRp627
(dp628
g61
(dp629
sg70
g503
sg63
(lp630
g56
(g77
g58
NtRp631
(dp632
g61
(dp633
g81
g82
ssg70
g627
sg63
(lp634
g448
asbag56
(g77
g58
NtRp635
(dp636
g61
(dp637
g88
g89
ssg70
g627
sg63
(lp638
S':'
asbag56
(g77
g58
NtRp639
(dp640
g61
(dp641
sg70
g627
sg63
(lp642
g56
(g57
g58
NtRp643
(dp644
g61
(dp645
g69
I3
ssg70
g639
sg63
(lp646
S''
asbasbasbag56
(g72
g58
NtRp647
(dp648
g61
(dp649
sg70
g503
sg63
(lp650
g56
(g77
g58
NtRp651
(dp652
g61
(dp653
g81
g82
ssg70
g647
sg63
(lp654
g469
asbag56
(g77
g58
NtRp655
(dp656
g61
(dp657
g88
g89
ssg70
g647
sg63
(lp658
S':'
asbag56
(g77
g58
NtRp659
(dp660
g61
(dp661
sg70
g647
sg63
(lp662
g56
(g57
g58
NtRp663
(dp664
g61
(dp665
g69
I3
ssg70
g659
sg63
(lp666
S''
asbasbasbasbasbasbasbag56
(g72
g58
NtRp667
(dp668
g61
(dp669
sg70
g285
sg63
(lp670
g56
(g77
g58
NtRp671
(dp672
g61
(dp673
g81
g82
ssg70
g667
sg63
(lp674
S'session_id_welcome'
p675
asbag56
(g77
g58
NtRp676
(dp677
g61
(dp678
g88
g89
ssg70
g667
sg63
(lp679
S':'
asbag56
(g77
g58
NtRp680
(dp681
g61
(dp682
sg70
g667
sg63
(lp683
g56
(g57
g58
NtRp684
(dp685
g61
(dp686
g69
I4
ssg70
g680
sg63
(lp687
g56
(g65
g58
NtRp688
(dp689
g61
(dp690
g69
I3
ssg70
Nsg63
(lp691
g56
(g72
g58
NtRp692
(dp693
g61
(dp694
sg70
g688
sg63
(lp695
g56
(g77
g58
NtRp696
(dp697
g61
(dp698
g81
g82
ssg70
g692
sg63
(lp699
g322
asbag56
(g77
g58
NtRp700
(dp701
g61
(dp702
g88
g89
ssg70
g692
sg63
(lp703
S':'
asbag56
(g77
g58
NtRp704
(dp705
g61
(dp706
sg70
g692
sg63
(lp707
g56
(g57
g58
NtRp708
(dp709
g61
(dp710
g69
I3
ssg70
g704
sg63
(lp711
S''
asbasbasbag56
(g72
g58
NtRp712
(dp713
g61
(dp714
sg70
g688
sg63
(lp715
g56
(g77
g58
NtRp716
(dp717
g61
(dp718
g81
g82
ssg70
g712
sg63
(lp719
g343
asbag56
(g77
g58
NtRp720
(dp721
g61
(dp722
g88
g89
ssg70
g712
sg63
(lp723
S':'
asbag56
(g77
g58
NtRp724
(dp725
g61
(dp726
sg70
g712
sg63
(lp727
g56
(g57
g58
NtRp728
(dp729
g61
(dp730
g69
I3
ssg70
g724
sg63
(lp731
S''
asbasbasbag56
(g72
g58
NtRp732
(dp733
g61
(dp734
sg70
g688
sg63
(lp735
g56
(g77
g58
NtRp736
(dp737
g61
(dp738
g81
g82
ssg70
g732
sg63
(lp739
g364
asbag56
(g77
g58
NtRp740
(dp741
g61
(dp742
g88
g89
ssg70
g732
sg63
(lp743
S':'
asbag56
(g77
g58
NtRp744
(dp745
g61
(dp746
sg70
g732
sg63
(lp747
g56
(g57
g58
NtRp748
(dp749
g61
(dp750
g69
I3
ssg70
g744
sg63
(lp751
S''
asbasbasbag56
(g72
g58
NtRp752
(dp753
g61
(dp754
sg70
g688
sg63
(lp755
g56
(g77
g58
NtRp756
(dp757
g61
(dp758
g81
g82
ssg70
g752
sg63
(lp759
g385
asbag56
(g77
g58
NtRp760
(dp761
g61
(dp762
g88
g89
ssg70
g752
sg63
(lp763
S':'
asbag56
(g77
g58
NtRp764
(dp765
g61
(dp766
sg70
g752
sg63
(lp767
g56
(g57
g58
NtRp768
(dp769
g61
(dp770
g69
I3
ssg70
g764
sg63
(lp771
S''
asbasbasbag56
(g72
g58
NtRp772
(dp773
g61
(dp774
sg70
g688
sg63
(lp775
g56
(g77
g58
NtRp776
(dp777
g61
(dp778
g81
g82
ssg70
g772
sg63
(lp779
g406
asbag56
(g77
g58
NtRp780
(dp781
g61
(dp782
g88
g89
ssg70
g772
sg63
(lp783
S':'
asbag56
(g77
g58
NtRp784
(dp785
g61
(dp786
sg70
g772
sg63
(lp787
g56
(g57
g58
NtRp788
(dp789
g61
(dp790
g69
I3
ssg70
g784
sg63
(lp791
S''
asbasbasbag56
(g72
g58
NtRp792
(dp793
g61
(dp794
sg70
g688
sg63
(lp795
g56
(g77
g58
NtRp796
(dp797
g61
(dp798
g81
g82
ssg70
g792
sg63
(lp799
g427
asbag56
(g77
g58
NtRp800
(dp801
g61
(dp802
g88
g89
ssg70
g792
sg63
(lp803
S':'
asbag56
(g77
g58
NtRp804
(dp805
g61
(dp806
sg70
g792
sg63
(lp807
g56
(g57
g58
NtRp808
(dp809
g61
(dp810
g69
I3
ssg70
g804
sg63
(lp811
S''
asbasbasbag56
(g72
g58
NtRp812
(dp813
g61
(dp814
sg70
g688
sg63
(lp815
g56
(g77
g58
NtRp816
(dp817
g61
(dp818
g81
g82
ssg70
g812
sg63
(lp819
g448
asbag56
(g77
g58
NtRp820
(dp821
g61
(dp822
g88
g89
ssg70
g812
sg63
(lp823
S':'
asbag56
(g77
g58
NtRp824
(dp825
g61
(dp826
sg70
g812
sg63
(lp827
g56
(g57
g58
NtRp828
(dp829
g61
(dp830
g69
I3
ssg70
g824
sg63
(lp831
S''
asbasbasbag56
(g72
g58
NtRp832
(dp833
g61
(dp834
sg70
g688
sg63
(lp835
g56
(g77
g58
NtRp836
(dp837
g61
(dp838
g81
g82
ssg70
g832
sg63
(lp839
g469
asbag56
(g77
g58
NtRp840
(dp841
g61
(dp842
g88
g89
ssg70
g832
sg63
(lp843
S':'
asbag56
(g77
g58
NtRp844
(dp845
g61
(dp846
sg70
g832
sg63
(lp847
g56
(g57
g58
NtRp848
(dp849
g61
(dp850
g69
I3
ssg70
g844
sg63
(lp851
S''
asbasbasbasbasbasbasbasbasbasbasbag56
(g72
g58
NtRp852
(dp853
g61
(dp854
sg70
g66
sg63
(lp855
g56
(g77
g58
NtRp856
(dp857
g61
(dp858
g81
g82
ssg70
g852
sg63
(lp859
S'env'
p860
asbag56
(g77
g58
NtRp861
(dp862
g61
(dp863
g88
g89
ssg70
g852
sg63
(lp864
S':'
asbag56
(g77
g58
NtRp865
(dp866
g61
(dp867
sg70
g852
sg63
(lp868
g56
(g57
g58
NtRp869
(dp870
g61
(dp871
g69
I5
ssg70
g865
sg63
(lp872
g56
(g65
g58
NtRp873
(dp874
g61
(dp875
g69
I4
ssg70
Nsg63
(lp876
g56
(g72
g58
NtRp877
(dp878
g61
(dp879
sg70
g873
sg63
(lp880
g56
(g77
g58
NtRp881
(dp882
g61
(dp883
g81
g82
ssg70
g877
sg63
(lp884
S'app_folders'
p885
asbag56
(g77
g58
NtRp886
(dp887
g61
(dp888
g88
g89
ssg70
g877
sg63
(lp889
S':'
asbag56
(g77
g58
NtRp890
(dp891
g61
(dp892
sg70
g877
sg63
(lp893
g56
(g57
g58
NtRp894
(dp895
g61
(dp896
g69
I4
ssg70
g890
sg63
(lp897
S"set(['/windows/Users/Thomas/Dropbox/appz/2011/GAE/ddl-lagoon/applications/ddlagoon/', '/windows/Users/Thomas/Dropbox/appz/2011/GAE/ddl-lagoon/applications/welcome/', '/windows/Users/Thomas/Dropbox/appz/2011/GAE/ddl-lagoon/applications/admin/'])"
p898
asbasbasbag56
(g72
g58
NtRp899
(dp900
g61
(dp901
sg70
g873
sg63
(lp902
g56
(g77
g58
NtRp903
(dp904
g61
(dp905
g81
g82
ssg70
g899
sg63
(lp906
S'applications_parent'
p907
asbag56
(g77
g58
NtRp908
(dp909
g61
(dp910
g88
g89
ssg70
g899
sg63
(lp911
S':'
asbag56
(g77
g58
NtRp912
(dp913
g61
(dp914
sg70
g899
sg63
(lp915
g56
(g57
g58
NtRp916
(dp917
g61
(dp918
g69
I4
ssg70
g912
sg63
(lp919
S'/windows/Users/Thomas/Dropbox/appz/2011/GAE/ddl-lagoon'
p920
asbasbasbag56
(g72
g58
NtRp921
(dp922
g61
(dp923
sg70
g873
sg63
(lp924
g56
(g77
g58
NtRp925
(dp926
g61
(dp927
g81
g82
ssg70
g921
sg63
(lp928
S'cmd_args'
p929
asbag56
(g77
g58
NtRp930
(dp931
g61
(dp932
g88
g89
ssg70
g921
sg63
(lp933
S':'
asbag56
(g77
g58
NtRp934
(dp935
g61
(dp936
sg70
g921
sg63
(lp937
g56
(g57
g58
NtRp938
(dp939
g61
(dp940
g69
I4
ssg70
g934
sg63
(lp941
g56
(g65
g58
NtRp942
(dp943
g61
(dp944
g69
I3
ssg70
Nsg63
(lp945
sbasbasbasbag56
(g72
g58
NtRp946
(dp947
g61
(dp948
sg70
g873
sg63
(lp949
g56
(g77
g58
NtRp950
(dp951
g61
(dp952
g81
g82
ssg70
g946
sg63
(lp953
S'cmd_options'
p954
asbag56
(g77
g58
NtRp955
(dp956
g61
(dp957
g88
g89
ssg70
g946
sg63
(lp958
S':'
asbag56
(g77
g58
NtRp959
(dp960
g61
(dp961
sg70
g946
sg63
(lp962
g56
(g57
g58
NtRp963
(dp964
g61
(dp965
g69
I4
ssg70
g959
sg63
(lp966
S"<Values at 0x2569cf8: {'verbose': False, 'ip': '127.0.0.1', 'shutdown_timeout': 5, 'taskbar': False, 'nocron': False, 'pid_filename': 'httpserver.pid', 'maxthreads': None, 'softcron': False, 'server_name': 'VPCF22AJ', 'bpython': False, 'nogui': False, 'port': 8000, 'extcron': False, 'debuglevel': 30, 'test': None, 'folder': '/windows/Users/Thomas/Dropbox/appz/2011/GAE/ddl-lagoon', 'config': '', 'import_models': False, 'winservice': '', 'shell': None, 'run': '', 'log_filename': 'httpserver.log', 'args': [''], 'ssl_ca_certificate': None, 'scheduler': None, 'profiler_filename': None, 'ssl_private_key': '', 'password': 'admin', 'request_queue_size': 5, 'ssl_certificate': '', 'cronjob': False, 'plain': False, 'quiet': False, 'interfaces': None, 'minthreads': None, 'timeout': 10, 'numthreads': None, 'nobanner': False}>"
p967
asbasbasbag56
(g72
g58
NtRp968
(dp969
g61
(dp970
sg70
g873
sg63
(lp971
g56
(g77
g58
NtRp972
(dp973
g61
(dp974
g81
g82
ssg70
g968
sg63
(lp975
S'db_sessions'
p976
asbag56
(g77
g58
NtRp977
(dp978
g61
(dp979
g88
g89
ssg70
g968
sg63
(lp980
S':'
asbag56
(g77
g58
NtRp981
(dp982
g61
(dp983
sg70
g968
sg63
(lp984
g56
(g57
g58
NtRp985
(dp986
g61
(dp987
g69
I4
ssg70
g981
sg63
(lp988
S'set([])'
p989
asbasbasbag56
(g72
g58
NtRp990
(dp991
g61
(dp992
sg70
g873
sg63
(lp993
g56
(g77
g58
NtRp994
(dp995
g61
(dp996
g81
g82
ssg70
g990
sg63
(lp997
S'debugging'
p998
asbag56
(g77
g58
NtRp999
(dp1000
g61
(dp1001
g88
g89
ssg70
g990
sg63
(lp1002
S':'
asbag56
(g77
g58
NtRp1003
(dp1004
g61
(dp1005
sg70
g990
sg63
(lp1006
g56
(g57
g58
NtRp1007
(dp1008
g61
(dp1009
g69
I4
ssg70
g1003
sg63
(lp1010
g99
asbasbasbag56
(g72
g58
NtRp1011
(dp1012
g61
(dp1013
sg70
g873
sg63
(lp1014
g56
(g77
g58
NtRp1015
(dp1016
g61
(dp1017
g81
g82
ssg70
g1011
sg63
(lp1018
S'gluon_parent'
p1019
asbag56
(g77
g58
NtRp1020
(dp1021
g61
(dp1022
g88
g89
ssg70
g1011
sg63
(lp1023
S':'
asbag56
(g77
g58
NtRp1024
(dp1025
g61
(dp1026
sg70
g1011
sg63
(lp1027
g56
(g57
g58
NtRp1028
(dp1029
g61
(dp1030
g69
I4
ssg70
g1024
sg63
(lp1031
S'/windows/Users/Thomas/Dropbox/appz/2011/GAE/ddl-lagoon'
p1032
asbasbasbag56
(g72
g58
NtRp1033
(dp1034
g61
(dp1035
sg70
g873
sg63
(lp1036
g56
(g77
g58
NtRp1037
(dp1038
g61
(dp1039
g81
g82
ssg70
g1033
sg63
(lp1040
S'http_accept'
p1041
asbag56
(g77
g58
NtRp1042
(dp1043
g61
(dp1044
g88
g89
ssg70
g1033
sg63
(lp1045
S':'
asbag56
(g77
g58
NtRp1046
(dp1047
g61
(dp1048
sg70
g1033
sg63
(lp1049
g56
(g57
g58
NtRp1050
(dp1051
g61
(dp1052
g69
I4
ssg70
g1046
sg63
(lp1053
S'text/html,application/xhtml+xml,application/xml;q=0.9,*/*;q=0.8'
p1054
asbasbasbag56
(g72
g58
NtRp1055
(dp1056
g61
(dp1057
sg70
g873
sg63
(lp1058
g56
(g77
g58
NtRp1059
(dp1060
g61
(dp1061
g81
g82
ssg70
g1055
sg63
(lp1062
S'http_accept_charset'
p1063
asbag56
(g77
g58
NtRp1064
(dp1065
g61
(dp1066
g88
g89
ssg70
g1055
sg63
(lp1067
S':'
asbag56
(g77
g58
NtRp1068
(dp1069
g61
(dp1070
sg70
g1055
sg63
(lp1071
g56
(g57
g58
NtRp1072
(dp1073
g61
(dp1074
g69
I4
ssg70
g1068
sg63
(lp1075
S'ISO-8859-1,utf-8;q=0.7,*;q=0.3'
p1076
asbasbasbag56
(g72
g58
NtRp1077
(dp1078
g61
(dp1079
sg70
g873
sg63
(lp1080
g56
(g77
g58
NtRp1081
(dp1082
g61
(dp1083
g81
g82
ssg70
g1077
sg63
(lp1084
S'http_accept_encoding'
p1085
asbag56
(g77
g58
NtRp1086
(dp1087
g61
(dp1088
g88
g89
ssg70
g1077
sg63
(lp1089
S':'
asbag56
(g77
g58
NtRp1090
(dp1091
g61
(dp1092
sg70
g1077
sg63
(lp1093
g56
(g57
g58
NtRp1094
(dp1095
g61
(dp1096
g69
I4
ssg70
g1090
sg63
(lp1097
S'gzip,deflate,sdch'
p1098
asbasbasbag56
(g72
g58
NtRp1099
(dp1100
g61
(dp1101
sg70
g873
sg63
(lp1102
g56
(g77
g58
NtRp1103
(dp1104
g61
(dp1105
g81
g82
ssg70
g1099
sg63
(lp1106
S'http_accept_language'
p1107
asbag56
(g77
g58
NtRp1108
(dp1109
g61
(dp1110
g88
g89
ssg70
g1099
sg63
(lp1111
S':'
asbag56
(g77
g58
NtRp1112
(dp1113
g61
(dp1114
sg70
g1099
sg63
(lp1115
g56
(g57
g58
NtRp1116
(dp1117
g61
(dp1118
g69
I4
ssg70
g1112
sg63
(lp1119
S'en-US,en;q=0.8,fr;q=0.6'
p1120
asbasbasbag56
(g72
g58
NtRp1121
(dp1122
g61
(dp1123
sg70
g873
sg63
(lp1124
g56
(g77
g58
NtRp1125
(dp1126
g61
(dp1127
g81
g82
ssg70
g1121
sg63
(lp1128
S'http_cache_control'
p1129
asbag56
(g77
g58
NtRp1130
(dp1131
g61
(dp1132
g88
g89
ssg70
g1121
sg63
(lp1133
S':'
asbag56
(g77
g58
NtRp1134
(dp1135
g61
(dp1136
sg70
g1121
sg63
(lp1137
g56
(g57
g58
NtRp1138
(dp1139
g61
(dp1140
g69
I4
ssg70
g1134
sg63
(lp1141
S'max-age=0'
p1142
asbasbasbag56
(g72
g58
NtRp1143
(dp1144
g61
(dp1145
sg70
g873
sg63
(lp1146
g56
(g77
g58
NtRp1147
(dp1148
g61
(dp1149
g81
g82
ssg70
g1143
sg63
(lp1150
S'http_connection'
p1151
asbag56
(g77
g58
NtRp1152
(dp1153
g61
(dp1154
g88
g89
ssg70
g1143
sg63
(lp1155
S':'
asbag56
(g77
g58
NtRp1156
(dp1157
g61
(dp1158
sg70
g1143
sg63
(lp1159
g56
(g57
g58
NtRp1160
(dp1161
g61
(dp1162
g69
I4
ssg70
g1156
sg63
(lp1163
S'keep-alive'
p1164
asbasbasbag56
(g72
g58
NtRp1165
(dp1166
g61
(dp1167
sg70
g873
sg63
(lp1168
g56
(g77
g58
NtRp1169
(dp1170
g61
(dp1171
g81
g82
ssg70
g1165
sg63
(lp1172
S'http_cookie'
p1173
asbag56
(g77
g58
NtRp1174
(dp1175
g61
(dp1176
g88
g89
ssg70
g1165
sg63
(lp1177
S':'
asbag56
(g77
g58
NtRp1178
(dp1179
g61
(dp1180
sg70
g1165
sg63
(lp1181
g56
(g57
g58
NtRp1182
(dp1183
g61
(dp1184
g69
I4
ssg70
g1178
sg63
(lp1185
S'__utma_a2a=5510587673.1349489975.1317933049.1319659660.1319659660.47; session_id_welcome=127.0.0.1-f7fb4a09-ce09-4815-abcc-fca1d9093faf; session_id_admin=127.0.0.1-975d2e86-8c26-4bdc-8b21-2f846f38d507; session_id_ddlagoon=127.0.0.1-be1de017-9b76-4032-9d4e-03101878e1ec'
p1186
asbasbasbag56
(g72
g58
NtRp1187
(dp1188
g61
(dp1189
sg70
g873
sg63
(lp1190
g56
(g77
g58
NtRp1191
(dp1192
g61
(dp1193
g81
g82
ssg70
g1187
sg63
(lp1194
S'http_host'
p1195
asbag56
(g77
g58
NtRp1196
(dp1197
g61
(dp1198
g88
g89
ssg70
g1187
sg63
(lp1199
S':'
asbag56
(g77
g58
NtRp1200
(dp1201
g61
(dp1202
sg70
g1187
sg63
(lp1203
g56
(g57
g58
NtRp1204
(dp1205
g61
(dp1206
g69
I4
ssg70
g1200
sg63
(lp1207
S'127.0.0.1:8000'
p1208
asbasbasbag56
(g72
g58
NtRp1209
(dp1210
g61
(dp1211
sg70
g873
sg63
(lp1212
g56
(g77
g58
NtRp1213
(dp1214
g61
(dp1215
g81
g82
ssg70
g1209
sg63
(lp1216
S'http_referer'
p1217
asbag56
(g77
g58
NtRp1218
(dp1219
g61
(dp1220
g88
g89
ssg70
g1209
sg63
(lp1221
S':'
asbag56
(g77
g58
NtRp1222
(dp1223
g61
(dp1224
sg70
g1209
sg63
(lp1225
g56
(g57
g58
NtRp1226
(dp1227
g61
(dp1228
g69
I4
ssg70
g1222
sg63
(lp1229
S'http://127.0.0.1:8000/ddlagoon/default'
p1230
asbasbasbag56
(g72
g58
NtRp1231
(dp1232
g61
(dp1233
sg70
g873
sg63
(lp1234
g56
(g77
g58
NtRp1235
(dp1236
g61
(dp1237
g81
g82
ssg70
g1231
sg63
(lp1238
S'http_user_agent'
p1239
asbag56
(g77
g58
NtRp1240
(dp1241
g61
(dp1242
g88
g89
ssg70
g1231
sg63
(lp1243
S':'
asbag56
(g77
g58
NtRp1244
(dp1245
g61
(dp1246
sg70
g1231
sg63
(lp1247
g56
(g57
g58
NtRp1248
(dp1249
g61
(dp1250
g69
I4
ssg70
g1244
sg63
(lp1251
S'Mozilla/5.0 (X11; Linux x86_64) AppleWebKit/535.2 (KHTML, like Gecko) Chrome/15.0.874.106 Safari/535.2'
p1252
asbasbasbag56
(g72
g58
NtRp1253
(dp1254
g61
(dp1255
sg70
g873
sg63
(lp1256
g56
(g77
g58
NtRp1257
(dp1258
g61
(dp1259
g81
g82
ssg70
g1253
sg63
(lp1260
S'is_jython'
p1261
asbag56
(g77
g58
NtRp1262
(dp1263
g61
(dp1264
g88
g89
ssg70
g1253
sg63
(lp1265
S':'
asbag56
(g77
g58
NtRp1266
(dp1267
g61
(dp1268
sg70
g1253
sg63
(lp1269
g56
(g57
g58
NtRp1270
(dp1271
g61
(dp1272
g69
I4
ssg70
g1266
sg63
(lp1273
g99
asbasbasbag56
(g72
g58
NtRp1274
(dp1275
g61
(dp1276
sg70
g873
sg63
(lp1277
g56
(g77
g58
NtRp1278
(dp1279
g61
(dp1280
g81
g82
ssg70
g1274
sg63
(lp1281
S'path_info'
p1282
asbag56
(g77
g58
NtRp1283
(dp1284
g61
(dp1285
g88
g89
ssg70
g1274
sg63
(lp1286
S':'
asbag56
(g77
g58
NtRp1287
(dp1288
g61
(dp1289
sg70
g1274
sg63
(lp1290
g56
(g57
g58
NtRp1291
(dp1292
g61
(dp1293
g69
I4
ssg70
g1287
sg63
(lp1294
S'/ddlagoon/ddl/get/run/ddl/14/The_Thing_2011_TS_XviD_READNFO___MiSTERE.avi'
p1295
asbasbasbag56
(g72
g58
NtRp1296
(dp1297
g61
(dp1298
sg70
g873
sg63
(lp1299
g56
(g77
g58
NtRp1300
(dp1301
g61
(dp1302
g81
g82
ssg70
g1296
sg63
(lp1303
S'query_string'
p1304
asbag56
(g77
g58
NtRp1305
(dp1306
g61
(dp1307
g88
g89
ssg70
g1296
sg63
(lp1308
S':'
asbag56
(g77
g58
NtRp1309
(dp1310
g61
(dp1311
sg70
g1296
sg63
(lp1312
g56
(g57
g58
NtRp1313
(dp1314
g61
(dp1315
g69
I4
ssg70
g1309
sg63
(lp1316
S''
asbasbasbag56
(g72
g58
NtRp1317
(dp1318
g61
(dp1319
sg70
g873
sg63
(lp1320
g56
(g77
g58
NtRp1321
(dp1322
g61
(dp1323
g81
g82
ssg70
g1317
sg63
(lp1324
S'remote_addr'
p1325
asbag56
(g77
g58
NtRp1326
(dp1327
g61
(dp1328
g88
g89
ssg70
g1317
sg63
(lp1329
S':'
asbag56
(g77
g58
NtRp1330
(dp1331
g61
(dp1332
sg70
g1317
sg63
(lp1333
g56
(g57
g58
NtRp1334
(dp1335
g61
(dp1336
g69
I4
ssg70
g1330
sg63
(lp1337
g241
asbasbasbag56
(g72
g58
NtRp1338
(dp1339
g61
(dp1340
sg70
g873
sg63
(lp1341
g56
(g77
g58
NtRp1342
(dp1343
g61
(dp1344
g81
g82
ssg70
g1338
sg63
(lp1345
S'remote_port'
p1346
asbag56
(g77
g58
NtRp1347
(dp1348
g61
(dp1349
g88
g89
ssg70
g1338
sg63
(lp1350
S':'
asbag56
(g77
g58
NtRp1351
(dp1352
g61
(dp1353
sg70
g1338
sg63
(lp1354
g56
(g57
g58
NtRp1355
(dp1356
g61
(dp1357
g69
I4
ssg70
g1351
sg63
(lp1358
S'45261'
p1359
asbasbasbag56
(g72
g58
NtRp1360
(dp1361
g61
(dp1362
sg70
g873
sg63
(lp1363
g56
(g77
g58
NtRp1364
(dp1365
g61
(dp1366
g81
g82
ssg70
g1360
sg63
(lp1367
S'request_method'
p1368
asbag56
(g77
g58
NtRp1369
(dp1370
g61
(dp1371
g88
g89
ssg70
g1360
sg63
(lp1372
S':'
asbag56
(g77
g58
NtRp1373
(dp1374
g61
(dp1375
sg70
g1360
sg63
(lp1376
g56
(g57
g58
NtRp1377
(dp1378
g61
(dp1379
g69
I4
ssg70
g1373
sg63
(lp1380
S'GET'
p1381
asbasbasbag56
(g72
g58
NtRp1382
(dp1383
g61
(dp1384
sg70
g873
sg63
(lp1385
g56
(g77
g58
NtRp1386
(dp1387
g61
(dp1388
g81
g82
ssg70
g1382
sg63
(lp1389
S'request_uri'
p1390
asbag56
(g77
g58
NtRp1391
(dp1392
g61
(dp1393
g88
g89
ssg70
g1382
sg63
(lp1394
S':'
asbag56
(g77
g58
NtRp1395
(dp1396
g61
(dp1397
sg70
g1382
sg63
(lp1398
g56
(g57
g58
NtRp1399
(dp1400
g61
(dp1401
g69
I4
ssg70
g1395
sg63
(lp1402
g1295
asbasbasbag56
(g72
g58
NtRp1403
(dp1404
g61
(dp1405
sg70
g873
sg63
(lp1406
g56
(g77
g58
NtRp1407
(dp1408
g61
(dp1409
g81
g82
ssg70
g1403
sg63
(lp1410
S'script_name'
p1411
asbag56
(g77
g58
NtRp1412
(dp1413
g61
(dp1414
g88
g89
ssg70
g1403
sg63
(lp1415
S':'
asbag56
(g77
g58
NtRp1416
(dp1417
g61
(dp1418
sg70
g1403
sg63
(lp1419
g56
(g57
g58
NtRp1420
(dp1421
g61
(dp1422
g69
I4
ssg70
g1416
sg63
(lp1423
S''
asbasbasbag56
(g72
g58
NtRp1424
(dp1425
g61
(dp1426
sg70
g873
sg63
(lp1427
g56
(g77
g58
NtRp1428
(dp1429
g61
(dp1430
g81
g82
ssg70
g1424
sg63
(lp1431
S'server_name'
p1432
asbag56
(g77
g58
NtRp1433
(dp1434
g61
(dp1435
g88
g89
ssg70
g1424
sg63
(lp1436
S':'
asbag56
(g77
g58
NtRp1437
(dp1438
g61
(dp1439
sg70
g1424
sg63
(lp1440
g56
(g57
g58
NtRp1441
(dp1442
g61
(dp1443
g69
I4
ssg70
g1437
sg63
(lp1444
S'VPCF22AJ'
p1445
asbasbasbag56
(g72
g58
NtRp1446
(dp1447
g61
(dp1448
sg70
g873
sg63
(lp1449
g56
(g77
g58
NtRp1450
(dp1451
g61
(dp1452
g81
g82
ssg70
g1446
sg63
(lp1453
S'server_port'
p1454
asbag56
(g77
g58
NtRp1455
(dp1456
g61
(dp1457
g88
g89
ssg70
g1446
sg63
(lp1458
S':'
asbag56
(g77
g58
NtRp1459
(dp1460
g61
(dp1461
sg70
g1446
sg63
(lp1462
g56
(g57
g58
NtRp1463
(dp1464
g61
(dp1465
g69
I4
ssg70
g1459
sg63
(lp1466
S'8000'
p1467
asbasbasbag56
(g72
g58
NtRp1468
(dp1469
g61
(dp1470
sg70
g873
sg63
(lp1471
g56
(g77
g58
NtRp1472
(dp1473
g61
(dp1474
g81
g82
ssg70
g1468
sg63
(lp1475
S'server_protocol'
p1476
asbag56
(g77
g58
NtRp1477
(dp1478
g61
(dp1479
g88
g89
ssg70
g1468
sg63
(lp1480
S':'
asbag56
(g77
g58
NtRp1481
(dp1482
g61
(dp1483
sg70
g1468
sg63
(lp1484
g56
(g57
g58
NtRp1485
(dp1486
g61
(dp1487
g69
I4
ssg70
g1481
sg63
(lp1488
S'HTTP/1.1'
p1489
asbasbasbag56
(g72
g58
NtRp1490
(dp1491
g61
(dp1492
sg70
g873
sg63
(lp1493
g56
(g77
g58
NtRp1494
(dp1495
g61
(dp1496
g81
g82
ssg70
g1490
sg63
(lp1497
S'server_software'
p1498
asbag56
(g77
g58
NtRp1499
(dp1500
g61
(dp1501
g88
g89
ssg70
g1490
sg63
(lp1502
S':'
asbag56
(g77
g58
NtRp1503
(dp1504
g61
(dp1505
sg70
g1490
sg63
(lp1506
g56
(g57
g58
NtRp1507
(dp1508
g61
(dp1509
g69
I4
ssg70
g1503
sg63
(lp1510
S'Rocket 1.2.4'
p1511
asbasbasbag56
(g72
g58
NtRp1512
(dp1513
g61
(dp1514
sg70
g873
sg63
(lp1515
g56
(g77
g58
NtRp1516
(dp1517
g61
(dp1518
g81
g82
ssg70
g1512
sg63
(lp1519
S'web2py_crontype'
p1520
asbag56
(g77
g58
NtRp1521
(dp1522
g61
(dp1523
g88
g89
ssg70
g1512
sg63
(lp1524
S':'
asbag56
(g77
g58
NtRp1525
(dp1526
g61
(dp1527
sg70
g1512
sg63
(lp1528
g56
(g57
g58
NtRp1529
(dp1530
g61
(dp1531
g69
I4
ssg70
g1525
sg63
(lp1532
S'hard'
p1533
asbasbasbag56
(g72
g58
NtRp1534
(dp1535
g61
(dp1536
sg70
g873
sg63
(lp1537
g56
(g77
g58
NtRp1538
(dp1539
g61
(dp1540
g81
g82
ssg70
g1534
sg63
(lp1541
S'web2py_original_uri'
p1542
asbag56
(g77
g58
NtRp1543
(dp1544
g61
(dp1545
g88
g89
ssg70
g1534
sg63
(lp1546
S':'
asbag56
(g77
g58
NtRp1547
(dp1548
g61
(dp1549
sg70
g1534
sg63
(lp1550
g56
(g57
g58
NtRp1551
(dp1552
g61
(dp1553
g69
I4
ssg70
g1547
sg63
(lp1554
g1295
asbasbasbag56
(g72
g58
NtRp1555
(dp1556
g61
(dp1557
sg70
g873
sg63
(lp1558
g56
(g77
g58
NtRp1559
(dp1560
g61
(dp1561
g81
g82
ssg70
g1555
sg63
(lp1562
S'web2py_path'
p1563
asbag56
(g77
g58
NtRp1564
(dp1565
g61
(dp1566
g88
g89
ssg70
g1555
sg63
(lp1567
S':'
asbag56
(g77
g58
NtRp1568
(dp1569
g61
(dp1570
sg70
g1555
sg63
(lp1571
g56
(g57
g58
NtRp1572
(dp1573
g61
(dp1574
g69
I4
ssg70
g1568
sg63
(lp1575
g920
asbasbasbag56
(g72
g58
NtRp1576
(dp1577
g61
(dp1578
sg70
g873
sg63
(lp1579
g56
(g77
g58
NtRp1580
(dp1581
g61
(dp1582
g81
g82
ssg70
g1576
sg63
(lp1583
S'web2py_version'
p1584
asbag56
(g77
g58
NtRp1585
(dp1586
g61
(dp1587
g88
g89
ssg70
g1576
sg63
(lp1588
S':'
asbag56
(g77
g58
NtRp1589
(dp1590
g61
(dp1591
sg70
g1576
sg63
(lp1592
g56
(g57
g58
NtRp1593
(dp1594
g61
(dp1595
g69
I4
ssg70
g1589
sg63
(lp1596
g56
(g65
g58
NtRp1597
(dp1598
g61
(dp1599
g69
I3
ssg70
Nsg63
(lp1600
g56
(g72
g58
NtRp1601
(dp1602
g61
(dp1603
sg70
g1597
sg63
(lp1604
g56
(g77
g58
NtRp1605
(dp1606
g61
(dp1607
sg70
g1601
sg63
(lp1608
g56
(g57
g58
NtRp1609
(dp1610
g61
(dp1611
g69
I3
ssg70
g1605
sg63
(lp1612
S'1'
asbasbasbag56
(g72
g58
NtRp1613
(dp1614
g61
(dp1615
sg70
g1597
sg63
(lp1616
g56
(g77
g58
NtRp1617
(dp1618
g61
(dp1619
sg70
g1613
sg63
(lp1620
g56
(g57
g58
NtRp1621
(dp1622
g61
(dp1623
g69
I3
ssg70
g1617
sg63
(lp1624
S'99'
p1625
asbasbasbag56
(g72
g58
NtRp1626
(dp1627
g61
(dp1628
sg70
g1597
sg63
(lp1629
g56
(g77
g58
NtRp1630
(dp1631
g61
(dp1632
sg70
g1626
sg63
(lp1633
g56
(g57
g58
NtRp1634
(dp1635
g61
(dp1636
g69
I3
ssg70
g1630
sg63
(lp1637
S'2'
asbasbasbag56
(g72
g58
NtRp1638
(dp1639
g61
(dp1640
sg70
g1597
sg63
(lp1641
g56
(g77
g58
NtRp1642
(dp1643
g61
(dp1644
sg70
g1638
sg63
(lp1645
g56
(g57
g58
NtRp1646
(dp1647
g61
(dp1648
g69
I3
ssg70
g1642
sg63
(lp1649
S'datetime.datetime(2011, 9, 26, 6, 55, 33)'
p1650
asbasbasbag56
(g72
g58
NtRp1651
(dp1652
g61
(dp1653
sg70
g1597
sg63
(lp1654
g56
(g77
g58
NtRp1655
(dp1656
g61
(dp1657
sg70
g1651
sg63
(lp1658
g56
(g57
g58
NtRp1659
(dp1660
g61
(dp1661
g69
I3
ssg70
g1655
sg63
(lp1662
S'stable'
p1663
asbasbasbasbasbasbasbag56
(g72
g58
NtRp1664
(dp1665
g61
(dp1666
sg70
g873
sg63
(lp1667
g56
(g77
g58
NtRp1668
(dp1669
g61
(dp1670
g81
g82
ssg70
g1664
sg63
(lp1671
S'wsgi_errors'
p1672
asbag56
(g77
g58
NtRp1673
(dp1674
g61
(dp1675
g88
g89
ssg70
g1664
sg63
(lp1676
S':'
asbag56
(g77
g58
NtRp1677
(dp1678
g61
(dp1679
sg70
g1664
sg63
(lp1680
g56
(g57
g58
NtRp1681
(dp1682
g61
(dp1683
g69
I4
ssg70
g1677
sg63
(lp1684
S"<open file '<stderr>', mode 'w' at 0x7f0d1464c1e0>"
p1685
asbasbasbag56
(g72
g58
NtRp1686
(dp1687
g61
(dp1688
sg70
g873
sg63
(lp1689
g56
(g77
g58
NtRp1690
(dp1691
g61
(dp1692
g81
g82
ssg70
g1686
sg63
(lp1693
S'wsgi_file_wrapper'
p1694
asbag56
(g77
g58
NtRp1695
(dp1696
g61
(dp1697
g88
g89
ssg70
g1686
sg63
(lp1698
S':'
asbag56
(g77
g58
NtRp1699
(dp1700
g61
(dp1701
sg70
g1686
sg63
(lp1702
g56
(g57
g58
NtRp1703
(dp1704
g61
(dp1705
g69
I4
ssg70
g1699
sg63
(lp1706
S'<class wsgiref.util.FileWrapper at 0x24c5110>'
p1707
asbasbasbag56
(g72
g58
NtRp1708
(dp1709
g61
(dp1710
sg70
g873
sg63
(lp1711
g56
(g77
g58
NtRp1712
(dp1713
g61
(dp1714
g81
g82
ssg70
g1708
sg63
(lp1715
S'wsgi_input'
p1716
asbag56
(g77
g58
NtRp1717
(dp1718
g61
(dp1719
g88
g89
ssg70
g1708
sg63
(lp1720
S':'
asbag56
(g77
g58
NtRp1721
(dp1722
g61
(dp1723
sg70
g1708
sg63
(lp1724
g56
(g57
g58
NtRp1725
(dp1726
g61
(dp1727
g69
I4
ssg70
g1721
sg63
(lp1728
S'<socket._fileobject object at 0x30c5cd0>'
p1729
asbasbasbag56
(g72
g58
NtRp1730
(dp1731
g61
(dp1732
sg70
g873
sg63
(lp1733
g56
(g77
g58
NtRp1734
(dp1735
g61
(dp1736
g81
g82
ssg70
g1730
sg63
(lp1737
S'wsgi_multiprocess'
p1738
asbag56
(g77
g58
NtRp1739
(dp1740
g61
(dp1741
g88
g89
ssg70
g1730
sg63
(lp1742
S':'
asbag56
(g77
g58
NtRp1743
(dp1744
g61
(dp1745
sg70
g1730
sg63
(lp1746
g56
(g57
g58
NtRp1747
(dp1748
g61
(dp1749
g69
I4
ssg70
g1743
sg63
(lp1750
g99
asbasbasbag56
(g72
g58
NtRp1751
(dp1752
g61
(dp1753
sg70
g873
sg63
(lp1754
g56
(g77
g58
NtRp1755
(dp1756
g61
(dp1757
g81
g82
ssg70
g1751
sg63
(lp1758
S'wsgi_multithread'
p1759
asbag56
(g77
g58
NtRp1760
(dp1761
g61
(dp1762
g88
g89
ssg70
g1751
sg63
(lp1763
S':'
asbag56
(g77
g58
NtRp1764
(dp1765
g61
(dp1766
sg70
g1751
sg63
(lp1767
g56
(g57
g58
NtRp1768
(dp1769
g61
(dp1770
g69
I4
ssg70
g1764
sg63
(lp1771
S'True'
p1772
asbasbasbag56
(g72
g58
NtRp1773
(dp1774
g61
(dp1775
sg70
g873
sg63
(lp1776
g56
(g77
g58
NtRp1777
(dp1778
g61
(dp1779
g81
g82
ssg70
g1773
sg63
(lp1780
S'wsgi_run_once'
p1781
asbag56
(g77
g58
NtRp1782
(dp1783
g61
(dp1784
g88
g89
ssg70
g1773
sg63
(lp1785
S':'
asbag56
(g77
g58
NtRp1786
(dp1787
g61
(dp1788
sg70
g1773
sg63
(lp1789
g56
(g57
g58
NtRp1790
(dp1791
g61
(dp1792
g69
I4
ssg70
g1786
sg63
(lp1793
g99
asbasbasbag56
(g72
g58
NtRp1794
(dp1795
g61
(dp1796
sg70
g873
sg63
(lp1797
g56
(g77
g58
NtRp1798
(dp1799
g61
(dp1800
g81
g82
ssg70
g1794
sg63
(lp1801
S'wsgi_url_scheme'
p1802
asbag56
(g77
g58
NtRp1803
(dp1804
g61
(dp1805
g88
g89
ssg70
g1794
sg63
(lp1806
S':'
asbag56
(g77
g58
NtRp1807
(dp1808
g61
(dp1809
sg70
g1794
sg63
(lp1810
g56
(g57
g58
NtRp1811
(dp1812
g61
(dp1813
g69
I4
ssg70
g1807
sg63
(lp1814
S'http'
p1815
asbasbasbag56
(g72
g58
NtRp1816
(dp1817
g61
(dp1818
sg70
g873
sg63
(lp1819
g56
(g77
g58
NtRp1820
(dp1821
g61
(dp1822
g81
g82
ssg70
g1816
sg63
(lp1823
S'wsgi_version'
p1824
asbag56
(g77
g58
NtRp1825
(dp1826
g61
(dp1827
g88
g89
ssg70
g1816
sg63
(lp1828
S':'
asbag56
(g77
g58
NtRp1829
(dp1830
g61
(dp1831
sg70
g1816
sg63
(lp1832
g56
(g57
g58
NtRp1833
(dp1834
g61
(dp1835
g69
I4
ssg70
g1829
sg63
(lp1836
g56
(g65
g58
NtRp1837
(dp1838
g61
(dp1839
g69
I3
ssg70
Nsg63
(lp1840
g56
(g72
g58
NtRp1841
(dp1842
g61
(dp1843
sg70
g1837
sg63
(lp1844
g56
(g77
g58
NtRp1845
(dp1846
g61
(dp1847
sg70
g1841
sg63
(lp1848
g56
(g57
g58
NtRp1849
(dp1850
g61
(dp1851
g69
I3
ssg70
g1845
sg63
(lp1852
S'1'
asbasbasbag56
(g72
g58
NtRp1853
(dp1854
g61
(dp1855
sg70
g1837
sg63
(lp1856
g56
(g77
g58
NtRp1857
(dp1858
g61
(dp1859
sg70
g1853
sg63
(lp1860
g56
(g57
g58
NtRp1861
(dp1862
g61
(dp1863
g69
I3
ssg70
g1857
sg63
(lp1864
S'0'
asbasbasbasbasbasbasbasbasbasbasbag56
(g72
g58
NtRp1865
(dp1866
g61
(dp1867
sg70
g66
sg63
(lp1868
g56
(g77
g58
NtRp1869
(dp1870
g61
(dp1871
g81
g82
ssg70
g1865
sg63
(lp1872
S'extension'
p1873
asbag56
(g77
g58
NtRp1874
(dp1875
g61
(dp1876
g88
g89
ssg70
g1865
sg63
(lp1877
S':'
asbag56
(g77
g58
NtRp1878
(dp1879
g61
(dp1880
sg70
g1865
sg63
(lp1881
g56
(g57
g58
NtRp1882
(dp1883
g61
(dp1884
g69
I5
ssg70
g1878
sg63
(lp1885
S'html'
p1886
asbasbasbag56
(g72
g58
NtRp1887
(dp1888
g61
(dp1889
sg70
g66
sg63
(lp1890
g56
(g77
g58
NtRp1891
(dp1892
g61
(dp1893
g81
g82
ssg70
g1887
sg63
(lp1894
S'folder'
p1895
asbag56
(g77
g58
NtRp1896
(dp1897
g61
(dp1898
g88
g89
ssg70
g1887
sg63
(lp1899
S':'
asbag56
(g77
g58
NtRp1900
(dp1901
g61
(dp1902
sg70
g1887
sg63
(lp1903
g56
(g57
g58
NtRp1904
(dp1905
g61
(dp1906
g69
I5
ssg70
g1900
sg63
(lp1907
S'/windows/Users/Thomas/Dropbox/appz/2011/GAE/ddl-lagoon/applications/ddlagoon/'
p1908
asbasbasbag56
(g72
g58
NtRp1909
(dp1910
g61
(dp1911
sg70
g66
sg63
(lp1912
g56
(g77
g58
NtRp1913
(dp1914
g61
(dp1915
g81
g82
ssg70
g1909
sg63
(lp1916
S'function'
p1917
asbag56
(g77
g58
NtRp1918
(dp1919
g61
(dp1920
g88
g89
ssg70
g1909
sg63
(lp1921
S':'
asbag56
(g77
g58
NtRp1922
(dp1923
g61
(dp1924
sg70
g1909
sg63
(lp1925
g56
(g57
g58
NtRp1926
(dp1927
g61
(dp1928
g69
I5
ssg70
g1922
sg63
(lp1929
S'get'
p1930
asbasbasbag56
(g72
g58
NtRp1931
(dp1932
g61
(dp1933
sg70
g66
sg63
(lp1934
g56
(g77
g58
NtRp1935
(dp1936
g61
(dp1937
g81
g82
ssg70
g1931
sg63
(lp1938
S'get_vars'
p1939
asbag56
(g77
g58
NtRp1940
(dp1941
g61
(dp1942
g88
g89
ssg70
g1931
sg63
(lp1943
S':'
asbag56
(g77
g58
NtRp1944
(dp1945
g61
(dp1946
sg70
g1931
sg63
(lp1947
g56
(g57
g58
NtRp1948
(dp1949
g61
(dp1950
g69
I5
ssg70
g1944
sg63
(lp1951
g56
(g65
g58
NtRp1952
(dp1953
g61
(dp1954
g69
I4
ssg70
Nsg63
(lp1955
sbasbasbasbag56
(g72
g58
NtRp1956
(dp1957
g61
(dp1958
sg70
g66
sg63
(lp1959
g56
(g77
g58
NtRp1960
(dp1961
g61
(dp1962
g81
g82
ssg70
g1956
sg63
(lp1963
S'global_settings'
p1964
asbag56
(g77
g58
NtRp1965
(dp1966
g61
(dp1967
g88
g89
ssg70
g1956
sg63
(lp1968
S':'
asbag56
(g77
g58
NtRp1969
(dp1970
g61
(dp1971
sg70
g1956
sg63
(lp1972
g56
(g57
g58
NtRp1973
(dp1974
g61
(dp1975
g69
I5
ssg70
g1969
sg63
(lp1976
g56
(g65
g58
NtRp1977
(dp1978
g61
(dp1979
g69
I4
ssg70
Nsg63
(lp1980
g56
(g72
g58
NtRp1981
(dp1982
g61
(dp1983
sg70
g1977
sg63
(lp1984
g56
(g77
g58
NtRp1985
(dp1986
g61
(dp1987
g81
g82
ssg70
g1981
sg63
(lp1988
g885
asbag56
(g77
g58
NtRp1989
(dp1990
g61
(dp1991
g88
g89
ssg70
g1981
sg63
(lp1992
S':'
asbag56
(g77
g58
NtRp1993
(dp1994
g61
(dp1995
sg70
g1981
sg63
(lp1996
g56
(g57
g58
NtRp1997
(dp1998
g61
(dp1999
g69
I4
ssg70
g1993
sg63
(lp2000
S"set(['/windows/Users/Thomas/Dropbox/appz/2011/GAE/ddl-lagoon/applications/ddlagoon/', '/windows/Users/Thomas/Dropbox/appz/2011/GAE/ddl-lagoon/applications/welcome/', '/windows/Users/Thomas/Dropbox/appz/2011/GAE/ddl-lagoon/applications/admin/'])"
p2001
asbasbasbag56
(g72
g58
NtRp2002
(dp2003
g61
(dp2004
sg70
g1977
sg63
(lp2005
g56
(g77
g58
NtRp2006
(dp2007
g61
(dp2008
g81
g82
ssg70
g2002
sg63
(lp2009
g907
asbag56
(g77
g58
NtRp2010
(dp2011
g61
(dp2012
g88
g89
ssg70
g2002
sg63
(lp2013
S':'
asbag56
(g77
g58
NtRp2014
(dp2015
g61
(dp2016
sg70
g2002
sg63
(lp2017
g56
(g57
g58
NtRp2018
(dp2019
g61
(dp2020
g69
I4
ssg70
g2014
sg63
(lp2021
g920
asbasbasbag56
(g72
g58
NtRp2022
(dp2023
g61
(dp2024
sg70
g1977
sg63
(lp2025
g56
(g77
g58
NtRp2026
(dp2027
g61
(dp2028
g81
g82
ssg70
g2022
sg63
(lp2029
g929
asbag56
(g77
g58
NtRp2030
(dp2031
g61
(dp2032
g88
g89
ssg70
g2022
sg63
(lp2033
S':'
asbag56
(g77
g58
NtRp2034
(dp2035
g61
(dp2036
sg70
g2022
sg63
(lp2037
g56
(g57
g58
NtRp2038
(dp2039
g61
(dp2040
g69
I4
ssg70
g2034
sg63
(lp2041
g56
(g65
g58
NtRp2042
(dp2043
g61
(dp2044
g69
I3
ssg70
Nsg63
(lp2045
sbasbasbasbag56
(g72
g58
NtRp2046
(dp2047
g61
(dp2048
sg70
g1977
sg63
(lp2049
g56
(g77
g58
NtRp2050
(dp2051
g61
(dp2052
g81
g82
ssg70
g2046
sg63
(lp2053
g954
asbag56
(g77
g58
NtRp2054
(dp2055
g61
(dp2056
g88
g89
ssg70
g2046
sg63
(lp2057
S':'
asbag56
(g77
g58
NtRp2058
(dp2059
g61
(dp2060
sg70
g2046
sg63
(lp2061
g56
(g57
g58
NtRp2062
(dp2063
g61
(dp2064
g69
I4
ssg70
g2058
sg63
(lp2065
S"<Values at 0x2569cf8: {'verbose': False, 'ip': '127.0.0.1', 'shutdown_timeout': 5, 'taskbar': False, 'nocron': False, 'pid_filename': 'httpserver.pid', 'maxthreads': None, 'softcron': False, 'server_name': 'VPCF22AJ', 'bpython': False, 'nogui': False, 'port': 8000, 'extcron': False, 'debuglevel': 30, 'test': None, 'folder': '/windows/Users/Thomas/Dropbox/appz/2011/GAE/ddl-lagoon', 'config': '', 'import_models': False, 'winservice': '', 'shell': None, 'run': '', 'log_filename': 'httpserver.log', 'args': [''], 'ssl_ca_certificate': None, 'scheduler': None, 'profiler_filename': None, 'ssl_private_key': '', 'password': 'admin', 'request_queue_size': 5, 'ssl_certificate': '', 'cronjob': False, 'plain': False, 'quiet': False, 'interfaces': None, 'minthreads': None, 'timeout': 10, 'numthreads': None, 'nobanner': False}>"
p2066
asbasbasbag56
(g72
g58
NtRp2067
(dp2068
g61
(dp2069
sg70
g1977
sg63
(lp2070
g56
(g77
g58
NtRp2071
(dp2072
g61
(dp2073
g81
g82
ssg70
g2067
sg63
(lp2074
g976
asbag56
(g77
g58
NtRp2075
(dp2076
g61
(dp2077
g88
g89
ssg70
g2067
sg63
(lp2078
S':'
asbag56
(g77
g58
NtRp2079
(dp2080
g61
(dp2081
sg70
g2067
sg63
(lp2082
g56
(g57
g58
NtRp2083
(dp2084
g61
(dp2085
g69
I4
ssg70
g2079
sg63
(lp2086
S'set([])'
p2087
asbasbasbag56
(g72
g58
NtRp2088
(dp2089
g61
(dp2090
sg70
g1977
sg63
(lp2091
g56
(g77
g58
NtRp2092
(dp2093
g61
(dp2094
g81
g82
ssg70
g2088
sg63
(lp2095
g998
asbag56
(g77
g58
NtRp2096
(dp2097
g61
(dp2098
g88
g89
ssg70
g2088
sg63
(lp2099
S':'
asbag56
(g77
g58
NtRp2100
(dp2101
g61
(dp2102
sg70
g2088
sg63
(lp2103
g56
(g57
g58
NtRp2104
(dp2105
g61
(dp2106
g69
I4
ssg70
g2100
sg63
(lp2107
g99
asbasbasbag56
(g72
g58
NtRp2108
(dp2109
g61
(dp2110
sg70
g1977
sg63
(lp2111
g56
(g77
g58
NtRp2112
(dp2113
g61
(dp2114
g81
g82
ssg70
g2108
sg63
(lp2115
g1019
asbag56
(g77
g58
NtRp2116
(dp2117
g61
(dp2118
g88
g89
ssg70
g2108
sg63
(lp2119
S':'
asbag56
(g77
g58
NtRp2120
(dp2121
g61
(dp2122
sg70
g2108
sg63
(lp2123
g56
(g57
g58
NtRp2124
(dp2125
g61
(dp2126
g69
I4
ssg70
g2120
sg63
(lp2127
g1032
asbasbasbag56
(g72
g58
NtRp2128
(dp2129
g61
(dp2130
sg70
g1977
sg63
(lp2131
g56
(g77
g58
NtRp2132
(dp2133
g61
(dp2134
g81
g82
ssg70
g2128
sg63
(lp2135
g1261
asbag56
(g77
g58
NtRp2136
(dp2137
g61
(dp2138
g88
g89
ssg70
g2128
sg63
(lp2139
S':'
asbag56
(g77
g58
NtRp2140
(dp2141
g61
(dp2142
sg70
g2128
sg63
(lp2143
g56
(g57
g58
NtRp2144
(dp2145
g61
(dp2146
g69
I4
ssg70
g2140
sg63
(lp2147
g99
asbasbasbag56
(g72
g58
NtRp2148
(dp2149
g61
(dp2150
sg70
g1977
sg63
(lp2151
g56
(g77
g58
NtRp2152
(dp2153
g61
(dp2154
g81
g82
ssg70
g2148
sg63
(lp2155
g1520
asbag56
(g77
g58
NtRp2156
(dp2157
g61
(dp2158
g88
g89
ssg70
g2148
sg63
(lp2159
S':'
asbag56
(g77
g58
NtRp2160
(dp2161
g61
(dp2162
sg70
g2148
sg63
(lp2163
g56
(g57
g58
NtRp2164
(dp2165
g61
(dp2166
g69
I4
ssg70
g2160
sg63
(lp2167
g1533
asbasbasbag56
(g72
g58
NtRp2168
(dp2169
g61
(dp2170
sg70
g1977
sg63
(lp2171
g56
(g77
g58
NtRp2172
(dp2173
g61
(dp2174
g81
g82
ssg70
g2168
sg63
(lp2175
g1584
asbag56
(g77
g58
NtRp2176
(dp2177
g61
(dp2178
g88
g89
ssg70
g2168
sg63
(lp2179
S':'
asbag56
(g77
g58
NtRp2180
(dp2181
g61
(dp2182
sg70
g2168
sg63
(lp2183
g56
(g57
g58
NtRp2184
(dp2185
g61
(dp2186
g69
I4
ssg70
g2180
sg63
(lp2187
g56
(g65
g58
NtRp2188
(dp2189
g61
(dp2190
g69
I3
ssg70
Nsg63
(lp2191
g56
(g72
g58
NtRp2192
(dp2193
g61
(dp2194
sg70
g2188
sg63
(lp2195
g56
(g77
g58
NtRp2196
(dp2197
g61
(dp2198
sg70
g2192
sg63
(lp2199
g56
(g57
g58
NtRp2200
(dp2201
g61
(dp2202
g69
I3
ssg70
g2196
sg63
(lp2203
S'1'
asbasbasbag56
(g72
g58
NtRp2204
(dp2205
g61
(dp2206
sg70
g2188
sg63
(lp2207
g56
(g77
g58
NtRp2208
(dp2209
g61
(dp2210
sg70
g2204
sg63
(lp2211
g56
(g57
g58
NtRp2212
(dp2213
g61
(dp2214
g69
I3
ssg70
g2208
sg63
(lp2215
S'99'
p2216
asbasbasbag56
(g72
g58
NtRp2217
(dp2218
g61
(dp2219
sg70
g2188
sg63
(lp2220
g56
(g77
g58
NtRp2221
(dp2222
g61
(dp2223
sg70
g2217
sg63
(lp2224
g56
(g57
g58
NtRp2225
(dp2226
g61
(dp2227
g69
I3
ssg70
g2221
sg63
(lp2228
S'2'
asbasbasbag56
(g72
g58
NtRp2229
(dp2230
g61
(dp2231
sg70
g2188
sg63
(lp2232
g56
(g77
g58
NtRp2233
(dp2234
g61
(dp2235
sg70
g2229
sg63
(lp2236
g56
(g57
g58
NtRp2237
(dp2238
g61
(dp2239
g69
I3
ssg70
g2233
sg63
(lp2240
S'datetime.datetime(2011, 9, 26, 6, 55, 33)'
p2241
asbasbasbag56
(g72
g58
NtRp2242
(dp2243
g61
(dp2244
sg70
g2188
sg63
(lp2245
g56
(g77
g58
NtRp2246
(dp2247
g61
(dp2248
sg70
g2242
sg63
(lp2249
g56
(g57
g58
NtRp2250
(dp2251
g61
(dp2252
g69
I3
ssg70
g2246
sg63
(lp2253
g1663
asbasbasbasbasbasbasbasbasbasbasbag56
(g72
g58
NtRp2254
(dp2255
g61
(dp2256
sg70
g66
sg63
(lp2257
g56
(g77
g58
NtRp2258
(dp2259
g61
(dp2260
g81
g82
ssg70
g2254
sg63
(lp2261
S'is_https'
p2262
asbag56
(g77
g58
NtRp2263
(dp2264
g61
(dp2265
g88
g89
ssg70
g2254
sg63
(lp2266
S':'
asbag56
(g77
g58
NtRp2267
(dp2268
g61
(dp2269
sg70
g2254
sg63
(lp2270
g56
(g57
g58
NtRp2271
(dp2272
g61
(dp2273
g69
I5
ssg70
g2267
sg63
(lp2274
g99
asbasbasbag56
(g72
g58
NtRp2275
(dp2276
g61
(dp2277
sg70
g66
sg63
(lp2278
g56
(g77
g58
NtRp2279
(dp2280
g61
(dp2281
g81
g82
ssg70
g2275
sg63
(lp2282
S'is_local'
p2283
asbag56
(g77
g58
NtRp2284
(dp2285
g61
(dp2286
g88
g89
ssg70
g2275
sg63
(lp2287
S':'
asbag56
(g77
g58
NtRp2288
(dp2289
g61
(dp2290
sg70
g2275
sg63
(lp2291
g56
(g57
g58
NtRp2292
(dp2293
g61
(dp2294
g69
I5
ssg70
g2288
sg63
(lp2295
g1772
asbasbasbag56
(g72
g58
NtRp2296
(dp2297
g61
(dp2298
sg70
g66
sg63
(lp2299
g56
(g77
g58
NtRp2300
(dp2301
g61
(dp2302
g81
g82
ssg70
g2296
sg63
(lp2303
S'is_restful'
p2304
asbag56
(g77
g58
NtRp2305
(dp2306
g61
(dp2307
g88
g89
ssg70
g2296
sg63
(lp2308
S':'
asbag56
(g77
g58
NtRp2309
(dp2310
g61
(dp2311
sg70
g2296
sg63
(lp2312
g56
(g57
g58
NtRp2313
(dp2314
g61
(dp2315
g69
I5
ssg70
g2309
sg63
(lp2316
g99
asbasbasbag56
(g72
g58
NtRp2317
(dp2318
g61
(dp2319
sg70
g66
sg63
(lp2320
g56
(g77
g58
NtRp2321
(dp2322
g61
(dp2323
g81
g82
ssg70
g2317
sg63
(lp2324
S'now'
p2325
asbag56
(g77
g58
NtRp2326
(dp2327
g61
(dp2328
g88
g89
ssg70
g2317
sg63
(lp2329
S':'
asbag56
(g77
g58
NtRp2330
(dp2331
g61
(dp2332
sg70
g2317
sg63
(lp2333
g56
(g57
g58
NtRp2334
(dp2335
g61
(dp2336
g69
I5
ssg70
g2330
sg63
(lp2337
S'datetime.datetime(2011, 10, 27, 11, 9, 39, 752194)'
p2338
asbasbasbag56
(g72
g58
NtRp2339
(dp2340
g61
(dp2341
sg70
g66
sg63
(lp2342
g56
(g77
g58
NtRp2343
(dp2344
g61
(dp2345
g81
g82
ssg70
g2339
sg63
(lp2346
S'post_vars'
p2347
asbag56
(g77
g58
NtRp2348
(dp2349
g61
(dp2350
g88
g89
ssg70
g2339
sg63
(lp2351
S':'
asbag56
(g77
g58
NtRp2352
(dp2353
g61
(dp2354
sg70
g2339
sg63
(lp2355
g56
(g57
g58
NtRp2356
(dp2357
g61
(dp2358
g69
I5
ssg70
g2352
sg63
(lp2359
g56
(g65
g58
NtRp2360
(dp2361
g61
(dp2362
g69
I4
ssg70
Nsg63
(lp2363
sbasbasbasbag56
(g72
g58
NtRp2364
(dp2365
g61
(dp2366
sg70
g66
sg63
(lp2367
g56
(g77
g58
NtRp2368
(dp2369
g61
(dp2370
g81
g82
ssg70
g2364
sg63
(lp2371
S'raw_args'
p2372
asbag56
(g77
g58
NtRp2373
(dp2374
g61
(dp2375
g88
g89
ssg70
g2364
sg63
(lp2376
S':'
asbag56
(g77
g58
NtRp2377
(dp2378
g61
(dp2379
sg70
g2364
sg63
(lp2380
g56
(g57
g58
NtRp2381
(dp2382
g61
(dp2383
g69
I5
ssg70
g2377
sg63
(lp2384
S'run/ddl/14/The_Thing_2011_TS_XviD_READNFO___MiSTERE.avi'
p2385
asbasbasbag56
(g72
g58
NtRp2386
(dp2387
g61
(dp2388
sg70
g66
sg63
(lp2389
g56
(g77
g58
NtRp2390
(dp2391
g61
(dp2392
g81
g82
ssg70
g2386
sg63
(lp2393
S'url'
p2394
asbag56
(g77
g58
NtRp2395
(dp2396
g61
(dp2397
g88
g89
ssg70
g2386
sg63
(lp2398
S':'
asbag56
(g77
g58
NtRp2399
(dp2400
g61
(dp2401
sg70
g2386
sg63
(lp2402
g56
(g57
g58
NtRp2403
(dp2404
g61
(dp2405
g69
I5
ssg70
g2399
sg63
(lp2406
S'/ddlagoon/ddl/get/run/ddl/14/The_Thing_2011_TS_XviD_READNFO___MiSTERE.avi'
p2407
asbasbasbag56
(g72
g58
NtRp2408
(dp2409
g61
(dp2410
sg70
g66
sg63
(lp2411
g56
(g77
g58
NtRp2412
(dp2413
g61
(dp2414
g81
g82
ssg70
g2408
sg63
(lp2415
S'utcnow'
p2416
asbag56
(g77
g58
NtRp2417
(dp2418
g61
(dp2419
g88
g89
ssg70
g2408
sg63
(lp2420
S':'
asbag56
(g77
g58
NtRp2421
(dp2422
g61
(dp2423
sg70
g2408
sg63
(lp2424
g56
(g57
g58
NtRp2425
(dp2426
g61
(dp2427
g69
I5
ssg70
g2421
sg63
(lp2428
S'datetime.datetime(2011, 10, 27, 10, 9, 39, 752234)'
p2429
asbasbasbag56
(g72
g58
NtRp2430
(dp2431
g61
(dp2432
sg70
g66
sg63
(lp2433
g56
(g77
g58
NtRp2434
(dp2435
g61
(dp2436
g81
g82
ssg70
g2430
sg63
(lp2437
S'uuid'
p2438
asbag56
(g77
g58
NtRp2439
(dp2440
g61
(dp2441
g88
g89
ssg70
g2430
sg63
(lp2442
S':'
asbag56
(g77
g58
NtRp2443
(dp2444
g61
(dp2445
sg70
g2430
sg63
(lp2446
g56
(g57
g58
NtRp2447
(dp2448
g61
(dp2449
g69
I5
ssg70
g2443
sg63
(lp2450
S'ddlagoon/127.0.0.1.2011-10-27.11-09-39.2da6c96e-c4c6-4646-b246-dd05f07cf4ac'
p2451
asbasbasbag56
(g72
g58
NtRp2452
(dp2453
g61
(dp2454
sg70
g66
sg63
(lp2455
g56
(g77
g58
NtRp2456
(dp2457
g61
(dp2458
g81
g82
ssg70
g2452
sg63
(lp2459
S'vars'
p2460
asbag56
(g77
g58
NtRp2461
(dp2462
g61
(dp2463
g88
g89
ssg70
g2452
sg63
(lp2464
S':'
asbag56
(g77
g58
NtRp2465
(dp2466
g61
(dp2467
sg70
g2452
sg63
(lp2468
g56
(g57
g58
NtRp2469
(dp2470
g61
(dp2471
g69
I5
ssg70
g2465
sg63
(lp2472
g56
(g65
g58
NtRp2473
(dp2474
g61
(dp2475
g69
I4
ssg70
Nsg63
(lp2476
sbasbasbasbag56
(g72
g58
NtRp2477
(dp2478
g61
(dp2479
sg70
g66
sg63
(lp2480
g56
(g77
g58
NtRp2481
(dp2482
g61
(dp2483
g81
g82
ssg70
g2477
sg63
(lp2484
S'wsgi'
p2485
asbag56
(g77
g58
NtRp2486
(dp2487
g61
(dp2488
g88
g89
ssg70
g2477
sg63
(lp2489
S':'
asbag56
(g77
g58
NtRp2490
(dp2491
g61
(dp2492
sg70
g2477
sg63
(lp2493
g56
(g57
g58
NtRp2494
(dp2495
g61
(dp2496
g69
I5
ssg70
g2490
sg63
(lp2497
g56
(g65
g58
NtRp2498
(dp2499
g61
(dp2500
g69
I4
ssg70
Nsg63
(lp2501
g56
(g72
g58
NtRp2502
(dp2503
g61
(dp2504
sg70
g2498
sg63
(lp2505
g56
(g77
g58
NtRp2506
(dp2507
g61
(dp2508
g81
g82
ssg70
g2502
sg63
(lp2509
S'environ'
p2510
asbag56
(g77
g58
NtRp2511
(dp2512
g61
(dp2513
g88
g89
ssg70
g2502
sg63
(lp2514
S':'
asbag56
(g77
g58
NtRp2515
(dp2516
g61
(dp2517
sg70
g2502
sg63
(lp2518
g56
(g57
g58
NtRp2519
(dp2520
g61
(dp2521
g69
I4
ssg70
g2515
sg63
(lp2522
g56
(g65
g58
NtRp2523
(dp2524
g61
(dp2525
g69
I3
ssg70
Nsg63
(lp2526
g56
(g72
g58
NtRp2527
(dp2528
g61
(dp2529
sg70
g2523
sg63
(lp2530
g56
(g77
g58
NtRp2531
(dp2532
g61
(dp2533
g81
g82
ssg70
g2527
sg63
(lp2534
S'HTTP_ACCEPT'
p2535
asbag56
(g77
g58
NtRp2536
(dp2537
g61
(dp2538
g88
g89
ssg70
g2527
sg63
(lp2539
S':'
asbag56
(g77
g58
NtRp2540
(dp2541
g61
(dp2542
sg70
g2527
sg63
(lp2543
g56
(g57
g58
NtRp2544
(dp2545
g61
(dp2546
g69
I3
ssg70
g2540
sg63
(lp2547
g1054
asbasbasbag56
(g72
g58
NtRp2548
(dp2549
g61
(dp2550
sg70
g2523
sg63
(lp2551
g56
(g77
g58
NtRp2552
(dp2553
g61
(dp2554
g81
g82
ssg70
g2548
sg63
(lp2555
S'HTTP_ACCEPT_CHARSET'
p2556
asbag56
(g77
g58
NtRp2557
(dp2558
g61
(dp2559
g88
g89
ssg70
g2548
sg63
(lp2560
S':'
asbag56
(g77
g58
NtRp2561
(dp2562
g61
(dp2563
sg70
g2548
sg63
(lp2564
g56
(g57
g58
NtRp2565
(dp2566
g61
(dp2567
g69
I3
ssg70
g2561
sg63
(lp2568
g1076
asbasbasbag56
(g72
g58
NtRp2569
(dp2570
g61
(dp2571
sg70
g2523
sg63
(lp2572
g56
(g77
g58
NtRp2573
(dp2574
g61
(dp2575
g81
g82
ssg70
g2569
sg63
(lp2576
S'HTTP_ACCEPT_ENCODING'
p2577
asbag56
(g77
g58
NtRp2578
(dp2579
g61
(dp2580
g88
g89
ssg70
g2569
sg63
(lp2581
S':'
asbag56
(g77
g58
NtRp2582
(dp2583
g61
(dp2584
sg70
g2569
sg63
(lp2585
g56
(g57
g58
NtRp2586
(dp2587
g61
(dp2588
g69
I3
ssg70
g2582
sg63
(lp2589
g1098
asbasbasbag56
(g72
g58
NtRp2590
(dp2591
g61
(dp2592
sg70
g2523
sg63
(lp2593
g56
(g77
g58
NtRp2594
(dp2595
g61
(dp2596
g81
g82
ssg70
g2590
sg63
(lp2597
S'HTTP_ACCEPT_LANGUAGE'
p2598
asbag56
(g77
g58
NtRp2599
(dp2600
g61
(dp2601
g88
g89
ssg70
g2590
sg63
(lp2602
S':'
asbag56
(g77
g58
NtRp2603
(dp2604
g61
(dp2605
sg70
g2590
sg63
(lp2606
g56
(g57
g58
NtRp2607
(dp2608
g61
(dp2609
g69
I3
ssg70
g2603
sg63
(lp2610
g1120
asbasbasbag56
(g72
g58
NtRp2611
(dp2612
g61
(dp2613
sg70
g2523
sg63
(lp2614
g56
(g77
g58
NtRp2615
(dp2616
g61
(dp2617
g81
g82
ssg70
g2611
sg63
(lp2618
S'HTTP_CACHE_CONTROL'
p2619
asbag56
(g77
g58
NtRp2620
(dp2621
g61
(dp2622
g88
g89
ssg70
g2611
sg63
(lp2623
S':'
asbag56
(g77
g58
NtRp2624
(dp2625
g61
(dp2626
sg70
g2611
sg63
(lp2627
g56
(g57
g58
NtRp2628
(dp2629
g61
(dp2630
g69
I3
ssg70
g2624
sg63
(lp2631
g1142
asbasbasbag56
(g72
g58
NtRp2632
(dp2633
g61
(dp2634
sg70
g2523
sg63
(lp2635
g56
(g77
g58
NtRp2636
(dp2637
g61
(dp2638
g81
g82
ssg70
g2632
sg63
(lp2639
S'HTTP_CONNECTION'
p2640
asbag56
(g77
g58
NtRp2641
(dp2642
g61
(dp2643
g88
g89
ssg70
g2632
sg63
(lp2644
S':'
asbag56
(g77
g58
NtRp2645
(dp2646
g61
(dp2647
sg70
g2632
sg63
(lp2648
g56
(g57
g58
NtRp2649
(dp2650
g61
(dp2651
g69
I3
ssg70
g2645
sg63
(lp2652
g1164
asbasbasbag56
(g72
g58
NtRp2653
(dp2654
g61
(dp2655
sg70
g2523
sg63
(lp2656
g56
(g77
g58
NtRp2657
(dp2658
g61
(dp2659
g81
g82
ssg70
g2653
sg63
(lp2660
S'HTTP_COOKIE'
p2661
asbag56
(g77
g58
NtRp2662
(dp2663
g61
(dp2664
g88
g89
ssg70
g2653
sg63
(lp2665
S':'
asbag56
(g77
g58
NtRp2666
(dp2667
g61
(dp2668
sg70
g2653
sg63
(lp2669
g56
(g57
g58
NtRp2670
(dp2671
g61
(dp2672
g69
I3
ssg70
g2666
sg63
(lp2673
g1186
asbasbasbag56
(g72
g58
NtRp2674
(dp2675
g61
(dp2676
sg70
g2523
sg63
(lp2677
g56
(g77
g58
NtRp2678
(dp2679
g61
(dp2680
g81
g82
ssg70
g2674
sg63
(lp2681
S'HTTP_HOST'
p2682
asbag56
(g77
g58
NtRp2683
(dp2684
g61
(dp2685
g88
g89
ssg70
g2674
sg63
(lp2686
S':'
asbag56
(g77
g58
NtRp2687
(dp2688
g61
(dp2689
sg70
g2674
sg63
(lp2690
g56
(g57
g58
NtRp2691
(dp2692
g61
(dp2693
g69
I3
ssg70
g2687
sg63
(lp2694
g1208
asbasbasbag56
(g72
g58
NtRp2695
(dp2696
g61
(dp2697
sg70
g2523
sg63
(lp2698
g56
(g77
g58
NtRp2699
(dp2700
g61
(dp2701
g81
g82
ssg70
g2695
sg63
(lp2702
S'HTTP_REFERER'
p2703
asbag56
(g77
g58
NtRp2704
(dp2705
g61
(dp2706
g88
g89
ssg70
g2695
sg63
(lp2707
S':'
asbag56
(g77
g58
NtRp2708
(dp2709
g61
(dp2710
sg70
g2695
sg63
(lp2711
g56
(g57
g58
NtRp2712
(dp2713
g61
(dp2714
g69
I3
ssg70
g2708
sg63
(lp2715
g1230
asbasbasbag56
(g72
g58
NtRp2716
(dp2717
g61
(dp2718
sg70
g2523
sg63
(lp2719
g56
(g77
g58
NtRp2720
(dp2721
g61
(dp2722
g81
g82
ssg70
g2716
sg63
(lp2723
S'HTTP_USER_AGENT'
p2724
asbag56
(g77
g58
NtRp2725
(dp2726
g61
(dp2727
g88
g89
ssg70
g2716
sg63
(lp2728
S':'
asbag56
(g77
g58
NtRp2729
(dp2730
g61
(dp2731
sg70
g2716
sg63
(lp2732
g56
(g57
g58
NtRp2733
(dp2734
g61
(dp2735
g69
I3
ssg70
g2729
sg63
(lp2736
g1252
asbasbasbag56
(g72
g58
NtRp2737
(dp2738
g61
(dp2739
sg70
g2523
sg63
(lp2740
g56
(g77
g58
NtRp2741
(dp2742
g61
(dp2743
g81
g82
ssg70
g2737
sg63
(lp2744
S'PATH_INFO'
p2745
asbag56
(g77
g58
NtRp2746
(dp2747
g61
(dp2748
g88
g89
ssg70
g2737
sg63
(lp2749
S':'
asbag56
(g77
g58
NtRp2750
(dp2751
g61
(dp2752
sg70
g2737
sg63
(lp2753
g56
(g57
g58
NtRp2754
(dp2755
g61
(dp2756
g69
I3
ssg70
g2750
sg63
(lp2757
g1295
asbasbasbag56
(g72
g58
NtRp2758
(dp2759
g61
(dp2760
sg70
g2523
sg63
(lp2761
g56
(g77
g58
NtRp2762
(dp2763
g61
(dp2764
g81
g82
ssg70
g2758
sg63
(lp2765
S'QUERY_STRING'
p2766
asbag56
(g77
g58
NtRp2767
(dp2768
g61
(dp2769
g88
g89
ssg70
g2758
sg63
(lp2770
S':'
asbag56
(g77
g58
NtRp2771
(dp2772
g61
(dp2773
sg70
g2758
sg63
(lp2774
g56
(g57
g58
NtRp2775
(dp2776
g61
(dp2777
g69
I3
ssg70
g2771
sg63
(lp2778
S''
asbasbasbag56
(g72
g58
NtRp2779
(dp2780
g61
(dp2781
sg70
g2523
sg63
(lp2782
g56
(g77
g58
NtRp2783
(dp2784
g61
(dp2785
g81
g82
ssg70
g2779
sg63
(lp2786
S'REMOTE_ADDR'
p2787
asbag56
(g77
g58
NtRp2788
(dp2789
g61
(dp2790
g88
g89
ssg70
g2779
sg63
(lp2791
S':'
asbag56
(g77
g58
NtRp2792
(dp2793
g61
(dp2794
sg70
g2779
sg63
(lp2795
g56
(g57
g58
NtRp2796
(dp2797
g61
(dp2798
g69
I3
ssg70
g2792
sg63
(lp2799
g241
asbasbasbag56
(g72
g58
NtRp2800
(dp2801
g61
(dp2802
sg70
g2523
sg63
(lp2803
g56
(g77
g58
NtRp2804
(dp2805
g61
(dp2806
g81
g82
ssg70
g2800
sg63
(lp2807
S'REMOTE_PORT'
p2808
asbag56
(g77
g58
NtRp2809
(dp2810
g61
(dp2811
g88
g89
ssg70
g2800
sg63
(lp2812
S':'
asbag56
(g77
g58
NtRp2813
(dp2814
g61
(dp2815
sg70
g2800
sg63
(lp2816
g56
(g57
g58
NtRp2817
(dp2818
g61
(dp2819
g69
I3
ssg70
g2813
sg63
(lp2820
g1359
asbasbasbag56
(g72
g58
NtRp2821
(dp2822
g61
(dp2823
sg70
g2523
sg63
(lp2824
g56
(g77
g58
NtRp2825
(dp2826
g61
(dp2827
g81
g82
ssg70
g2821
sg63
(lp2828
S'REQUEST_METHOD'
p2829
asbag56
(g77
g58
NtRp2830
(dp2831
g61
(dp2832
g88
g89
ssg70
g2821
sg63
(lp2833
S':'
asbag56
(g77
g58
NtRp2834
(dp2835
g61
(dp2836
sg70
g2821
sg63
(lp2837
g56
(g57
g58
NtRp2838
(dp2839
g61
(dp2840
g69
I3
ssg70
g2834
sg63
(lp2841
g1381
asbasbasbag56
(g72
g58
NtRp2842
(dp2843
g61
(dp2844
sg70
g2523
sg63
(lp2845
g56
(g77
g58
NtRp2846
(dp2847
g61
(dp2848
g81
g82
ssg70
g2842
sg63
(lp2849
S'REQUEST_URI'
p2850
asbag56
(g77
g58
NtRp2851
(dp2852
g61
(dp2853
g88
g89
ssg70
g2842
sg63
(lp2854
S':'
asbag56
(g77
g58
NtRp2855
(dp2856
g61
(dp2857
sg70
g2842
sg63
(lp2858
g56
(g57
g58
NtRp2859
(dp2860
g61
(dp2861
g69
I3
ssg70
g2855
sg63
(lp2862
g1295
asbasbasbag56
(g72
g58
NtRp2863
(dp2864
g61
(dp2865
sg70
g2523
sg63
(lp2866
g56
(g77
g58
NtRp2867
(dp2868
g61
(dp2869
g81
g82
ssg70
g2863
sg63
(lp2870
S'SCRIPT_NAME'
p2871
asbag56
(g77
g58
NtRp2872
(dp2873
g61
(dp2874
g88
g89
ssg70
g2863
sg63
(lp2875
S':'
asbag56
(g77
g58
NtRp2876
(dp2877
g61
(dp2878
sg70
g2863
sg63
(lp2879
g56
(g57
g58
NtRp2880
(dp2881
g61
(dp2882
g69
I3
ssg70
g2876
sg63
(lp2883
S''
asbasbasbag56
(g72
g58
NtRp2884
(dp2885
g61
(dp2886
sg70
g2523
sg63
(lp2887
g56
(g77
g58
NtRp2888
(dp2889
g61
(dp2890
g81
g82
ssg70
g2884
sg63
(lp2891
S'SERVER_NAME'
p2892
asbag56
(g77
g58
NtRp2893
(dp2894
g61
(dp2895
g88
g89
ssg70
g2884
sg63
(lp2896
S':'
asbag56
(g77
g58
NtRp2897
(dp2898
g61
(dp2899
sg70
g2884
sg63
(lp2900
g56
(g57
g58
NtRp2901
(dp2902
g61
(dp2903
g69
I3
ssg70
g2897
sg63
(lp2904
g1445
asbasbasbag56
(g72
g58
NtRp2905
(dp2906
g61
(dp2907
sg70
g2523
sg63
(lp2908
g56
(g77
g58
NtRp2909
(dp2910
g61
(dp2911
g81
g82
ssg70
g2905
sg63
(lp2912
S'SERVER_PORT'
p2913
asbag56
(g77
g58
NtRp2914
(dp2915
g61
(dp2916
g88
g89
ssg70
g2905
sg63
(lp2917
S':'
asbag56
(g77
g58
NtRp2918
(dp2919
g61
(dp2920
sg70
g2905
sg63
(lp2921
g56
(g57
g58
NtRp2922
(dp2923
g61
(dp2924
g69
I3
ssg70
g2918
sg63
(lp2925
g1467
asbasbasbag56
(g72
g58
NtRp2926
(dp2927
g61
(dp2928
sg70
g2523
sg63
(lp2929
g56
(g77
g58
NtRp2930
(dp2931
g61
(dp2932
g81
g82
ssg70
g2926
sg63
(lp2933
S'SERVER_PROTOCOL'
p2934
asbag56
(g77
g58
NtRp2935
(dp2936
g61
(dp2937
g88
g89
ssg70
g2926
sg63
(lp2938
S':'
asbag56
(g77
g58
NtRp2939
(dp2940
g61
(dp2941
sg70
g2926
sg63
(lp2942
g56
(g57
g58
NtRp2943
(dp2944
g61
(dp2945
g69
I3
ssg70
g2939
sg63
(lp2946
g1489
asbasbasbag56
(g72
g58
NtRp2947
(dp2948
g61
(dp2949
sg70
g2523
sg63
(lp2950
g56
(g77
g58
NtRp2951
(dp2952
g61
(dp2953
g81
g82
ssg70
g2947
sg63
(lp2954
S'SERVER_SOFTWARE'
p2955
asbag56
(g77
g58
NtRp2956
(dp2957
g61
(dp2958
g88
g89
ssg70
g2947
sg63
(lp2959
S':'
asbag56
(g77
g58
NtRp2960
(dp2961
g61
(dp2962
sg70
g2947
sg63
(lp2963
g56
(g57
g58
NtRp2964
(dp2965
g61
(dp2966
g69
I3
ssg70
g2960
sg63
(lp2967
g1511
asbasbasbag56
(g72
g58
NtRp2968
(dp2969
g61
(dp2970
sg70
g2523
sg63
(lp2971
g56
(g77
g58
NtRp2972
(dp2973
g61
(dp2974
g81
g82
ssg70
g2968
sg63
(lp2975
S'WEB2PY_ORIGINAL_URI'
p2976
asbag56
(g77
g58
NtRp2977
(dp2978
g61
(dp2979
g88
g89
ssg70
g2968
sg63
(lp2980
S':'
asbag56
(g77
g58
NtRp2981
(dp2982
g61
(dp2983
sg70
g2968
sg63
(lp2984
g56
(g57
g58
NtRp2985
(dp2986
g61
(dp2987
g69
I3
ssg70
g2981
sg63
(lp2988
g1295
asbasbasbag56
(g72
g58
NtRp2989
(dp2990
g61
(dp2991
sg70
g2523
sg63
(lp2992
g56
(g77
g58
NtRp2993
(dp2994
g61
(dp2995
g81
g82
ssg70
g2989
sg63
(lp2996
S'wsgi.errors'
p2997
asbag56
(g77
g58
NtRp2998
(dp2999
g61
(dp3000
g88
g89
ssg70
g2989
sg63
(lp3001
S':'
asbag56
(g77
g58
NtRp3002
(dp3003
g61
(dp3004
sg70
g2989
sg63
(lp3005
g56
(g57
g58
NtRp3006
(dp3007
g61
(dp3008
g69
I3
ssg70
g3002
sg63
(lp3009
S"<open file '<stderr>', mode 'w' at 0x7f0d1464c1e0>"
p3010
asbasbasbag56
(g72
g58
NtRp3011
(dp3012
g61
(dp3013
sg70
g2523
sg63
(lp3014
g56
(g77
g58
NtRp3015
(dp3016
g61
(dp3017
g81
g82
ssg70
g3011
sg63
(lp3018
S'wsgi.file_wrapper'
p3019
asbag56
(g77
g58
NtRp3020
(dp3021
g61
(dp3022
g88
g89
ssg70
g3011
sg63
(lp3023
S':'
asbag56
(g77
g58
NtRp3024
(dp3025
g61
(dp3026
sg70
g3011
sg63
(lp3027
g56
(g57
g58
NtRp3028
(dp3029
g61
(dp3030
g69
I3
ssg70
g3024
sg63
(lp3031
S'<class wsgiref.util.FileWrapper at 0x24c5110>'
p3032
asbasbasbag56
(g72
g58
NtRp3033
(dp3034
g61
(dp3035
sg70
g2523
sg63
(lp3036
g56
(g77
g58
NtRp3037
(dp3038
g61
(dp3039
g81
g82
ssg70
g3033
sg63
(lp3040
S'wsgi.input'
p3041
asbag56
(g77
g58
NtRp3042
(dp3043
g61
(dp3044
g88
g89
ssg70
g3033
sg63
(lp3045
S':'
asbag56
(g77
g58
NtRp3046
(dp3047
g61
(dp3048
sg70
g3033
sg63
(lp3049
g56
(g57
g58
NtRp3050
(dp3051
g61
(dp3052
g69
I3
ssg70
g3046
sg63
(lp3053
S'<cStringIO.StringO object at 0x324cf48>'
p3054
asbasbasbag56
(g72
g58
NtRp3055
(dp3056
g61
(dp3057
sg70
g2523
sg63
(lp3058
g56
(g77
g58
NtRp3059
(dp3060
g61
(dp3061
g81
g82
ssg70
g3055
sg63
(lp3062
S'wsgi.multiprocess'
p3063
asbag56
(g77
g58
NtRp3064
(dp3065
g61
(dp3066
g88
g89
ssg70
g3055
sg63
(lp3067
S':'
asbag56
(g77
g58
NtRp3068
(dp3069
g61
(dp3070
sg70
g3055
sg63
(lp3071
g56
(g57
g58
NtRp3072
(dp3073
g61
(dp3074
g69
I3
ssg70
g3068
sg63
(lp3075
g99
asbasbasbag56
(g72
g58
NtRp3076
(dp3077
g61
(dp3078
sg70
g2523
sg63
(lp3079
g56
(g77
g58
NtRp3080
(dp3081
g61
(dp3082
g81
g82
ssg70
g3076
sg63
(lp3083
S'wsgi.multithread'
p3084
asbag56
(g77
g58
NtRp3085
(dp3086
g61
(dp3087
g88
g89
ssg70
g3076
sg63
(lp3088
S':'
asbag56
(g77
g58
NtRp3089
(dp3090
g61
(dp3091
sg70
g3076
sg63
(lp3092
g56
(g57
g58
NtRp3093
(dp3094
g61
(dp3095
g69
I3
ssg70
g3089
sg63
(lp3096
g1772
asbasbasbag56
(g72
g58
NtRp3097
(dp3098
g61
(dp3099
sg70
g2523
sg63
(lp3100
g56
(g77
g58
NtRp3101
(dp3102
g61
(dp3103
g81
g82
ssg70
g3097
sg63
(lp3104
S'wsgi.run_once'
p3105
asbag56
(g77
g58
NtRp3106
(dp3107
g61
(dp3108
g88
g89
ssg70
g3097
sg63
(lp3109
S':'
asbag56
(g77
g58
NtRp3110
(dp3111
g61
(dp3112
sg70
g3097
sg63
(lp3113
g56
(g57
g58
NtRp3114
(dp3115
g61
(dp3116
g69
I3
ssg70
g3110
sg63
(lp3117
g99
asbasbasbag56
(g72
g58
NtRp3118
(dp3119
g61
(dp3120
sg70
g2523
sg63
(lp3121
g56
(g77
g58
NtRp3122
(dp3123
g61
(dp3124
g81
g82
ssg70
g3118
sg63
(lp3125
S'wsgi.url_scheme'
p3126
asbag56
(g77
g58
NtRp3127
(dp3128
g61
(dp3129
g88
g89
ssg70
g3118
sg63
(lp3130
S':'
asbag56
(g77
g58
NtRp3131
(dp3132
g61
(dp3133
sg70
g3118
sg63
(lp3134
g56
(g57
g58
NtRp3135
(dp3136
g61
(dp3137
g69
I3
ssg70
g3131
sg63
(lp3138
g1815
asbasbasbag56
(g72
g58
NtRp3139
(dp3140
g61
(dp3141
sg70
g2523
sg63
(lp3142
g56
(g77
g58
NtRp3143
(dp3144
g61
(dp3145
g81
g82
ssg70
g3139
sg63
(lp3146
S'wsgi.version'
p3147
asbag56
(g77
g58
NtRp3148
(dp3149
g61
(dp3150
g88
g89
ssg70
g3139
sg63
(lp3151
S':'
asbag56
(g77
g58
NtRp3152
(dp3153
g61
(dp3154
sg70
g3139
sg63
(lp3155
g56
(g57
g58
NtRp3156
(dp3157
g61
(dp3158
g69
I3
ssg70
g3152
sg63
(lp3159
S'1'
asbasbasbasbasbasbasbasbasbasbasbasbasbsS'frames'
p3160
(lp3161
(dp3162
S'file'
p3163
S'/windows/Users/Thomas/Dropbox/appz/2011/GAE/ddl-lagoon/gluon/restricted.py'
p3164
sS'dump'
p3165
(dp3166
S'environment'
p3167
S"{'A': <class 'gluon.html.A'>, 'Auth': <class 'gluon.tools.Auth'>, 'B': <class 'gluon.html.B'>, 'BEAUTIFY': <class 'gluon.html.BEAUTIFY'>, 'BODY': <class 'gluon.html.BODY'>, 'BR': <class 'gluon.html.BR'>, 'BUTTON': <class 'gluon.html.BUTTON'>, 'CAT': <class 'gluon.html.CAT'>, 'CENTER': <class 'gluon.html.CENTER'>, 'CLEANUP': <class 'gluon.validators.CLEANUP'>, ...}"
p3168
sS'ccode'
p3169
S'<code object <module> at 0x2df40a8, file "/windo...pplications/ddlagoon/controllers/ddl.py", line 1>'
p3170
ssS'lnum'
p3171
I194
sS'lines'
p3172
(dp3173
I192
S'        else:'
p3174
sI193
S'            ccode = compile2(code,layer)'
p3175
sI194
S'        exec ccode in environment'
p3176
sI195
S'    except HTTP:'
p3177
sI196
S'        raise'
p3178
sI197
S'    except Exception, error:'
p3179
sI198
S'        # XXX Show exception in Wing IDE if running in debugger'
p3180
sI189
S'    try:'
p3181
sI190
S'        if type(code) == types.CodeType:'
p3182
sI191
S'            ccode = code'
p3183
ssS'call'
p3184
S"(code='import tempfile\\nfrom time import mktime\\nif False...e, ddlFile)\\nresponse._vars=response._caller(get)\\n', environment={'A': <class 'gluon.html.A'>, 'Auth': <class 'gluon.tools.Auth'>, 'B': <class 'gluon.html.B'>, 'BEAUTIFY': <class 'gluon.html.BEAUTIFY'>, 'BODY': <class 'gluon.html.BODY'>, 'BR': <class 'gluon.html.BR'>, 'BUTTON': <class 'gluon.html.BUTTON'>, 'CAT': <class 'gluon.html.CAT'>, 'CENTER': <class 'gluon.html.CENTER'>, 'CLEANUP': <class 'gluon.validators.CLEANUP'>, ...}, layer='/windows/Users/Thomas/Dropbox/appz/2011/GAE/ddl-lagoon/applications/ddlagoon/controllers/ddl.py')"
p3185
sS'func'
p3186
S'restricted'
p3187
sa(dp3188
g3163
S'/windows/Users/Thomas/Dropbox/appz/2011/GAE/ddl-lagoon/applications/ddlagoon/controllers/ddl.py'
p3189
sg3165
(dp3190
sg3171
I42
sg3172
(dp3191
I32
S"            'links':ddl.links,"
p3192
sI33
S"            'version':ddl.version,"
p3193
sI34
S"            'time':int(mktime(ddl.date_added.timetuple()))"
p3194
sI35
S'        }'
p3195
sI36
S'        ddlJson = json.dumps(ddl, sort_keys=True, indent=4)'
p3196
sI37
S'        # temp file'
p3197
sI38
S'        ddlFile = tempfile.NamedTemporaryFile()'
p3198
sI39
S'        with open(ddlFile.name, "wb") as myFile:'
p3199
sI40
S'            myFile.write(ddlJson)'
p3200
sI41
S'        return response.download(ddlFile, ddlFile)'
p3201
ssg3184
S'()'
p3202
sg3186
S'<module>'
p3203
sa(dp3204
g3163
S'/windows/Users/Thomas/Dropbox/appz/2011/GAE/ddl-lagoon/gluon/globals.py'
p3205
sg3165
(dp3206
S'self'
p3207
S'undefined'
p3208
sS'f'
S'<function get>'
p3209
ssg3171
I149
sg3172
(dp3210
I144
S'        self.meta = Storage()      # used by web2py_ajax.html'
p3211
sI145
S'        self.menu = []             # used by the default view layout'
p3212
sI146
S'        self.files = []            # used by web2py_ajax.html'
p3213
sI147
S'        self.generic_patterns = [] # patterns to allow generic views'
p3214
sI148
S'        self._vars = None'
p3215
sI149
S'        self._caller = lambda f: f()'
p3216
sI150
S'        self._view_environment = None'
p3217
sI151
S'        self._custom_commit = None'
p3218
sI152
S'        self._custom_rollback = None'
p3219
sI153
S''
ssg3184
S'(f=<function get>)'
p3220
sg3186
S'<lambda>'
p3221
sa(dp3222
g3163
S'/windows/Users/Thomas/Dropbox/appz/2011/GAE/ddl-lagoon/applications/ddlagoon/controllers/ddl.py'
p3223
sg3165
(dp3224
S'global service'
p3225
S'<gluon.tools.Service object>'
p3226
ssg3171
I14
sg3172
(dp3227
I9
S'from gluon.contrib import simplejson as json'
p3228
sI10
S''
sI11
S"__author__ = 'thomas'"
p3229
sI12
S''
sI13
S'def get():'
p3230
sI14
S'    return service()'
p3231
sI15
S''
sI16
S'@service.xml'
p3232
sI17
S'def ddl(id="", filename=""):'
p3233
sI18
S'    # find the record'
p3234
ssg3184
S'()'
p3235
sg3186
S'get'
p3236
sa(dp3237
g3163
S'/windows/Users/Thomas/Dropbox/appz/2011/GAE/ddl-lagoon/gluon/tools.py'
p3238
sg3165
(dp3239
S'request.args'
p3240
S"['run', 'ddl', '14', 'The_Thing_2011_TS_XviD_READNFO___MiSTERE.avi']"
p3241
sS'self.serve_run'
p3242
S'<bound method Service.serve_run of <gluon.tools.Service object>>'
p3243
sS'self'
p3244
S'<gluon.tools.Service object>'
p3245
sS'request'
p3246
S"<Storage {'body': <cStringIO.StringO object at 0..._vars': <Storage {}>, 'post_vars': <Storage {}>}>"
p3247
ssg3171
I3834
sg3172
(dp3248
I3829
S'        request = current.request'
p3249
sI3830
S'        if len(request.args) < 1:'
p3250
sI3831
S'            raise HTTP(404, "Not Found")'
p3251
sI3832
S'        arg0 = request.args(0)'
p3252
sI3833
S"        if arg0 == 'run':"
p3253
sI3834
S'            return self.serve_run(request.args[1:])'
p3254
sI3835
S"        elif arg0 == 'rss':"
p3255
sI3836
S'            return self.serve_rss(request.args[1:])'
p3256
sI3837
S"        elif arg0 == 'csv':"
p3257
sI3838
S'            return self.serve_csv(request.args[1:])'
p3258
ssg3184
S'(self=<gluon.tools.Service object>)'
p3259
sg3186
S'__call__'
p3260
sa(dp3261
g3163
S'/windows/Users/Thomas/Dropbox/appz/2011/GAE/ddl-lagoon/gluon/tools.py'
p3262
sg3165
(dp3263
S'request.vars'
p3264
S'<Storage {}>'
p3265
sS'args'
p3266
S"['ddl', '14', 'The_Thing_2011_TS_XviD_READNFO___MiSTERE.avi']"
p3267
sS'request'
p3268
S"<Storage {'body': <cStringIO.StringO object at 0..._vars': <Storage {}>, 'post_vars': <Storage {}>}>"
p3269
sS'builtindict'
p3270
S"<type 'dict'>"
p3271
ssg3171
I3585
sg3172
(dp3272
I3584
S'            return str(universal_caller(self.run_procedures[args[0]],'
p3273
sI3585
S'                                        *args[1:], **dict(request.vars)))'
p3274
sI3586
S'        self.error()'
p3275
sI3587
S''
sI3588
S'    def serve_csv(self, args=None):'
p3276
sI3589
S'        request = current.request'
p3277
sI3580
S'        request = current.request'
p3278
sI3581
S'        if not args:'
p3279
sI3582
S'            args = request.args'
p3280
sI3583
S'        if args and args[0] in self.run_procedures:'
p3281
ssg3184
S"(self=<gluon.tools.Service object>, args=['ddl', '14', 'The_Thing_2011_TS_XviD_READNFO___MiSTERE.avi'])"
p3282
sg3186
S'serve_run'
p3283
sa(dp3284
g3163
S'/windows/Users/Thomas/Dropbox/appz/2011/GAE/ddl-lagoon/gluon/tools.py'
p3285
sg3165
(dp3286
S'arg_dict'
p3287
S"{'filename': 'The_Thing_2011_TS_XviD_READNFO___MiSTERE.avi', 'id': '14'}"
p3288
sS'f'
S'<function ddl>'
p3289
ssg3171
I3351
sg3172
(dp3290
I3346
S'        # However, we need to update the arg_dict with the values from the named arguments as well.'
p3291
sI3347
S'        for arg_name in named_args:'
p3292
sI3348
S'            if b.has_key(arg_name):'
p3293
sI3349
S'                arg_dict[arg_name] = b[arg_name]'
p3294
sI3350
S''
sI3351
S'        return f(**arg_dict)'
p3295
sI3352
S''
sI3353
S'    # Raise an error, the function cannot be called.'
p3296
sI3354
S'    raise HTTP(404, "Object does not exist")'
p3297
sI3355
S''
ssg3184
S"(f=<function ddl>, *a=('14', 'The_Thing_2011_TS_XviD_READNFO___MiSTERE.avi'), **b={})"
p3298
sg3186
S'universal_caller'
p3299
sa(dp3300
g3163
S'/windows/Users/Thomas/Dropbox/appz/2011/GAE/ddl-lagoon/applications/ddlagoon/controllers/ddl.py'
p3301
sg3165
(dp3302
S'ddlFile'
p3303
S"<open file '<fdopen>', mode 'w+b'>"
p3304
sS'response.download'
p3305
S"<bound method Response.download of <Storage {'st...x3bda9b0>, 'files': [], 'view': 'ddl/get.html'}>>"
p3306
sS'global response'
p3307
S"<Storage {'status': 200, 'body': <cStringIO.Stri...0x3bda9b0>, 'files': [], 'view': 'ddl/get.html'}>"
p3308
ssg3171
I41
sg3172
(dp3309
I32
S"            'links':ddl.links,"
p3310
sI33
S"            'version':ddl.version,"
p3311
sI34
S"            'time':int(mktime(ddl.date_added.timetuple()))"
p3312
sI35
S'        }'
p3313
sI36
S'        ddlJson = json.dumps(ddl, sort_keys=True, indent=4)'
p3314
sI37
S'        # temp file'
p3315
sI38
S'        ddlFile = tempfile.NamedTemporaryFile()'
p3316
sI39
S'        with open(ddlFile.name, "wb") as myFile:'
p3317
sI40
S'            myFile.write(ddlJson)'
p3318
sI41
S'        return response.download(ddlFile, ddlFile)'
p3319
ssg3184
S"(id='14', filename='The_Thing_2011_TS_XviD_READNFO___MiSTERE.avi')"
p3320
sg3186
S'ddl'
p3321
sa(dp3322
g3163
S'/windows/Users/Thomas/Dropbox/appz/2011/GAE/ddl-lagoon/gluon/globals.py'
p3323
sg3165
(dp3324
S'request.args'
p3325
g3208
sS'request'
p3326
S"<open file '<fdopen>', mode 'w+b'>"
p3327
ssg3171
I258
sg3172
(dp3328
I256
S''
sI257
S'        import contenttype as c'
p3329
sI258
S'        if not request.args:'
p3330
sI259
S'            raise HTTP(404)'
p3331
sI260
S'        name = request.args[-1]'
p3332
sI261
S"        items = re.compile('(?P<table>.*?)\\.(?P<field>.*?)\\..*')\\"
p3333
sI262
S'                           .match(name)'
p3334
sI253
S''
sI254
S'        downloads from http://..../download/filename'
p3335
sI255
S'        """'
p3336
ssg3184
S"(self=<Storage {'status': 200, 'body': <cStringIO.Stri...0x3bda9b0>, 'files': [], 'view': 'ddl/get.html'}>, request=<open file '<fdopen>', mode 'w+b'>, db=<open file '<fdopen>', mode 'w+b'>, chunk_size=65536, attachment=True)"
p3337
sg3186
S'download'
p3338
sa(dp3339
g3163
S'/usr/lib/python2.6/tempfile.py'
p3340
sg3165
(dp3341
S'a'
g3208
sS'builtingetattr'
p3342
S'<built-in function getattr>'
p3343
sS'name'
p3344
S"'args'"
p3345
sS'file'
p3346
S"<open file '<fdopen>', mode 'w+b'>"
p3347
ssg3171
I376
sg3172
(dp3348
I371
S'    def __getattr__(self, name):'
p3349
sI372
S'        # Attribute lookups are delegated to the underlying file'
p3350
sI373
S'        # and cached for non-numeric results'
p3351
sI374
S'        # (i.e. methods are cached, closed and friends are not)'
p3352
sI375
S"        file = self.__dict__['file']"
p3353
sI376
S'        a = getattr(file, name)'
p3354
sI377
S'        if not issubclass(type(a), type(0)):'
p3355
sI378
S'            setattr(self, name, a)'
p3356
sI379
S'        return a'
p3357
sI380
S''
ssg3184
S"(self=<open file '<fdopen>', mode 'w+b'>, name='args')"
p3358
sg3186
S'__getattr__'
p3359
sasS'pyver'
p3360
S'Python 2.6.7: /usr/bin/python2.6'
p3361
sS'session'
p3362
g56
(g57
g58
NtRp3363
(dp3364
g61
(dp3365
sg63
(lp3366
g56
(g65
g58
NtRp3367
(dp3368
g61
(dp3369
g69
I5
ssg70
Nsg63
(lp3370
sbasbsS'etype'
p3371
S"<type 'exceptions.AttributeError'>"
p3372
sS'date'
p3373
S'Thu Oct 27 11:09:39 2011'
p3374
sS'response'
p3375
g56
(g57
g58
NtRp3376
(dp3377
g61
(dp3378
sg63
(lp3379
g56
(g65
g58
NtRp3380
(dp3381
g61
(dp3382
g69
I5
ssg70
Nsg63
(lp3383
g56
(g72
g58
NtRp3384
(dp3385
g61
(dp3386
sg70
g3380
sg63
(lp3387
g56
(g77
g58
NtRp3388
(dp3389
g61
(dp3390
g81
g82
ssg70
g3384
sg63
(lp3391
g206
asbag56
(g77
g58
NtRp3392
(dp3393
g61
(dp3394
g88
g89
ssg70
g3384
sg63
(lp3395
S':'
asbag56
(g77
g58
NtRp3396
(dp3397
g61
(dp3398
sg70
g3384
sg63
(lp3399
g56
(g57
g58
NtRp3400
(dp3401
g61
(dp3402
g69
I5
ssg70
g3396
sg63
(lp3403
S'<cStringIO.StringO object at 0x3487f80>'
p3404
asbasbasbag56
(g72
g58
NtRp3405
(dp3406
g61
(dp3407
sg70
g3380
sg63
(lp3408
g56
(g77
g58
NtRp3409
(dp3410
g61
(dp3411
g81
g82
ssg70
g3405
sg63
(lp3412
g272
asbag56
(g77
g58
NtRp3413
(dp3414
g61
(dp3415
g88
g89
ssg70
g3405
sg63
(lp3416
S':'
asbag56
(g77
g58
NtRp3417
(dp3418
g61
(dp3419
sg70
g3405
sg63
(lp3420
g56
(g57
g58
NtRp3421
(dp3422
g61
(dp3423
g69
I5
ssg70
g3417
sg63
(lp3424
g56
(g65
g58
NtRp3425
(dp3426
g61
(dp3427
g69
I4
ssg70
Nsg63
(lp3428
g56
(g72
g58
NtRp3429
(dp3430
g61
(dp3431
sg70
g3425
sg63
(lp3432
g56
(g77
g58
NtRp3433
(dp3434
g61
(dp3435
g81
g82
ssg70
g3429
sg63
(lp3436
S'session_id_ddlagoon'
p3437
asbag56
(g77
g58
NtRp3438
(dp3439
g61
(dp3440
g88
g89
ssg70
g3429
sg63
(lp3441
S':'
asbag56
(g77
g58
NtRp3442
(dp3443
g61
(dp3444
sg70
g3429
sg63
(lp3445
g56
(g57
g58
NtRp3446
(dp3447
g61
(dp3448
g69
I4
ssg70
g3442
sg63
(lp3449
g56
(g65
g58
NtRp3450
(dp3451
g61
(dp3452
g69
I3
ssg70
Nsg63
(lp3453
g56
(g72
g58
NtRp3454
(dp3455
g61
(dp3456
sg70
g3450
sg63
(lp3457
g56
(g77
g58
NtRp3458
(dp3459
g61
(dp3460
g81
g82
ssg70
g3454
sg63
(lp3461
g322
asbag56
(g77
g58
NtRp3462
(dp3463
g61
(dp3464
g88
g89
ssg70
g3454
sg63
(lp3465
S':'
asbag56
(g77
g58
NtRp3466
(dp3467
g61
(dp3468
sg70
g3454
sg63
(lp3469
g56
(g57
g58
NtRp3470
(dp3471
g61
(dp3472
g69
I3
ssg70
g3466
sg63
(lp3473
S''
asbasbasbag56
(g72
g58
NtRp3474
(dp3475
g61
(dp3476
sg70
g3450
sg63
(lp3477
g56
(g77
g58
NtRp3478
(dp3479
g61
(dp3480
g81
g82
ssg70
g3474
sg63
(lp3481
g343
asbag56
(g77
g58
NtRp3482
(dp3483
g61
(dp3484
g88
g89
ssg70
g3474
sg63
(lp3485
S':'
asbag56
(g77
g58
NtRp3486
(dp3487
g61
(dp3488
sg70
g3474
sg63
(lp3489
g56
(g57
g58
NtRp3490
(dp3491
g61
(dp3492
g69
I3
ssg70
g3486
sg63
(lp3493
S''
asbasbasbag56
(g72
g58
NtRp3494
(dp3495
g61
(dp3496
sg70
g3450
sg63
(lp3497
g56
(g77
g58
NtRp3498
(dp3499
g61
(dp3500
g81
g82
ssg70
g3494
sg63
(lp3501
g364
asbag56
(g77
g58
NtRp3502
(dp3503
g61
(dp3504
g88
g89
ssg70
g3494
sg63
(lp3505
S':'
asbag56
(g77
g58
NtRp3506
(dp3507
g61
(dp3508
sg70
g3494
sg63
(lp3509
g56
(g57
g58
NtRp3510
(dp3511
g61
(dp3512
g69
I3
ssg70
g3506
sg63
(lp3513
S''
asbasbasbag56
(g72
g58
NtRp3514
(dp3515
g61
(dp3516
sg70
g3450
sg63
(lp3517
g56
(g77
g58
NtRp3518
(dp3519
g61
(dp3520
g81
g82
ssg70
g3514
sg63
(lp3521
g385
asbag56
(g77
g58
NtRp3522
(dp3523
g61
(dp3524
g88
g89
ssg70
g3514
sg63
(lp3525
S':'
asbag56
(g77
g58
NtRp3526
(dp3527
g61
(dp3528
sg70
g3514
sg63
(lp3529
g56
(g57
g58
NtRp3530
(dp3531
g61
(dp3532
g69
I3
ssg70
g3526
sg63
(lp3533
S''
asbasbasbag56
(g72
g58
NtRp3534
(dp3535
g61
(dp3536
sg70
g3450
sg63
(lp3537
g56
(g77
g58
NtRp3538
(dp3539
g61
(dp3540
g81
g82
ssg70
g3534
sg63
(lp3541
g406
asbag56
(g77
g58
NtRp3542
(dp3543
g61
(dp3544
g88
g89
ssg70
g3534
sg63
(lp3545
S':'
asbag56
(g77
g58
NtRp3546
(dp3547
g61
(dp3548
sg70
g3534
sg63
(lp3549
g56
(g57
g58
NtRp3550
(dp3551
g61
(dp3552
g69
I3
ssg70
g3546
sg63
(lp3553
S''
asbasbasbag56
(g72
g58
NtRp3554
(dp3555
g61
(dp3556
sg70
g3450
sg63
(lp3557
g56
(g77
g58
NtRp3558
(dp3559
g61
(dp3560
g81
g82
ssg70
g3554
sg63
(lp3561
g427
asbag56
(g77
g58
NtRp3562
(dp3563
g61
(dp3564
g88
g89
ssg70
g3554
sg63
(lp3565
S':'
asbag56
(g77
g58
NtRp3566
(dp3567
g61
(dp3568
sg70
g3554
sg63
(lp3569
g56
(g57
g58
NtRp3570
(dp3571
g61
(dp3572
g69
I3
ssg70
g3566
sg63
(lp3573
S'/'
asbasbasbag56
(g72
g58
NtRp3574
(dp3575
g61
(dp3576
sg70
g3450
sg63
(lp3577
g56
(g77
g58
NtRp3578
(dp3579
g61
(dp3580
g81
g82
ssg70
g3574
sg63
(lp3581
g448
asbag56
(g77
g58
NtRp3582
(dp3583
g61
(dp3584
g88
g89
ssg70
g3574
sg63
(lp3585
S':'
asbag56
(g77
g58
NtRp3586
(dp3587
g61
(dp3588
sg70
g3574
sg63
(lp3589
g56
(g57
g58
NtRp3590
(dp3591
g61
(dp3592
g69
I3
ssg70
g3586
sg63
(lp3593
S''
asbasbasbag56
(g72
g58
NtRp3594
(dp3595
g61
(dp3596
sg70
g3450
sg63
(lp3597
g56
(g77
g58
NtRp3598
(dp3599
g61
(dp3600
g81
g82
ssg70
g3594
sg63
(lp3601
g469
asbag56
(g77
g58
NtRp3602
(dp3603
g61
(dp3604
g88
g89
ssg70
g3594
sg63
(lp3605
S':'
asbag56
(g77
g58
NtRp3606
(dp3607
g61
(dp3608
sg70
g3594
sg63
(lp3609
g56
(g57
g58
NtRp3610
(dp3611
g61
(dp3612
g69
I3
ssg70
g3606
sg63
(lp3613
S''
asbasbasbasbasbasbasbasbasbasbasbag56
(g72
g58
NtRp3614
(dp3615
g61
(dp3616
sg70
g3380
sg63
(lp3617
g56
(g77
g58
NtRp3618
(dp3619
g61
(dp3620
g81
g82
ssg70
g3614
sg63
(lp3621
S'files'
p3622
asbag56
(g77
g58
NtRp3623
(dp3624
g61
(dp3625
g88
g89
ssg70
g3614
sg63
(lp3626
S':'
asbag56
(g77
g58
NtRp3627
(dp3628
g61
(dp3629
sg70
g3614
sg63
(lp3630
g56
(g57
g58
NtRp3631
(dp3632
g61
(dp3633
g69
I5
ssg70
g3627
sg63
(lp3634
g56
(g65
g58
NtRp3635
(dp3636
g61
(dp3637
g69
I4
ssg70
Nsg63
(lp3638
sbasbasbasbag56
(g72
g58
NtRp3639
(dp3640
g61
(dp3641
sg70
g3380
sg63
(lp3642
g56
(g77
g58
NtRp3643
(dp3644
g61
(dp3645
g81
g82
ssg70
g3639
sg63
(lp3646
S'flash'
p3647
asbag56
(g77
g58
NtRp3648
(dp3649
g61
(dp3650
g88
g89
ssg70
g3639
sg63
(lp3651
S':'
asbag56
(g77
g58
NtRp3652
(dp3653
g61
(dp3654
sg70
g3639
sg63
(lp3655
g56
(g57
g58
NtRp3656
(dp3657
g61
(dp3658
g69
I5
ssg70
g3652
sg63
(lp3659
S''
asbasbasbag56
(g72
g58
NtRp3660
(dp3661
g61
(dp3662
sg70
g3380
sg63
(lp3663
g56
(g77
g58
NtRp3664
(dp3665
g61
(dp3666
g81
g82
ssg70
g3660
sg63
(lp3667
S'generic_patterns'
p3668
asbag56
(g77
g58
NtRp3669
(dp3670
g61
(dp3671
g88
g89
ssg70
g3660
sg63
(lp3672
S':'
asbag56
(g77
g58
NtRp3673
(dp3674
g61
(dp3675
sg70
g3660
sg63
(lp3676
g56
(g57
g58
NtRp3677
(dp3678
g61
(dp3679
g69
I5
ssg70
g3673
sg63
(lp3680
g56
(g65
g58
NtRp3681
(dp3682
g61
(dp3683
g69
I4
ssg70
Nsg63
(lp3684
g56
(g72
g58
NtRp3685
(dp3686
g61
(dp3687
sg70
g3681
sg63
(lp3688
g56
(g77
g58
NtRp3689
(dp3690
g61
(dp3691
sg70
g3685
sg63
(lp3692
g56
(g57
g58
NtRp3693
(dp3694
g61
(dp3695
g69
I4
ssg70
g3689
sg63
(lp3696
S'*'
asbasbasbasbasbasbasbag56
(g72
g58
NtRp3697
(dp3698
g61
(dp3699
sg70
g3380
sg63
(lp3700
g56
(g77
g58
NtRp3701
(dp3702
g61
(dp3703
g81
g82
ssg70
g3697
sg63
(lp3704
S'headers'
p3705
asbag56
(g77
g58
NtRp3706
(dp3707
g61
(dp3708
g88
g89
ssg70
g3697
sg63
(lp3709
S':'
asbag56
(g77
g58
NtRp3710
(dp3711
g61
(dp3712
sg70
g3697
sg63
(lp3713
g56
(g57
g58
NtRp3714
(dp3715
g61
(dp3716
g69
I5
ssg70
g3710
sg63
(lp3717
g56
(g65
g58
NtRp3718
(dp3719
g61
(dp3720
g69
I4
ssg70
Nsg63
(lp3721
g56
(g72
g58
NtRp3722
(dp3723
g61
(dp3724
sg70
g3718
sg63
(lp3725
g56
(g77
g58
NtRp3726
(dp3727
g61
(dp3728
g81
g82
ssg70
g3722
sg63
(lp3729
S'Cache-Control'
p3730
asbag56
(g77
g58
NtRp3731
(dp3732
g61
(dp3733
g88
g89
ssg70
g3722
sg63
(lp3734
S':'
asbag56
(g77
g58
NtRp3735
(dp3736
g61
(dp3737
sg70
g3722
sg63
(lp3738
g56
(g57
g58
NtRp3739
(dp3740
g61
(dp3741
g69
I4
ssg70
g3735
sg63
(lp3742
S'no-store, no-cache, must-revalidate, post-check=0, pre-check=0'
p3743
asbasbasbag56
(g72
g58
NtRp3744
(dp3745
g61
(dp3746
sg70
g3718
sg63
(lp3747
g56
(g77
g58
NtRp3748
(dp3749
g61
(dp3750
g81
g82
ssg70
g3744
sg63
(lp3751
S'Content-Type'
p3752
asbag56
(g77
g58
NtRp3753
(dp3754
g61
(dp3755
g88
g89
ssg70
g3744
sg63
(lp3756
S':'
asbag56
(g77
g58
NtRp3757
(dp3758
g61
(dp3759
sg70
g3744
sg63
(lp3760
g56
(g57
g58
NtRp3761
(dp3762
g61
(dp3763
g69
I4
ssg70
g3757
sg63
(lp3764
S'text/html; charset=utf-8'
p3765
asbasbasbag56
(g72
g58
NtRp3766
(dp3767
g61
(dp3768
sg70
g3718
sg63
(lp3769
g56
(g77
g58
NtRp3770
(dp3771
g61
(dp3772
g81
g82
ssg70
g3766
sg63
(lp3773
S'Expires'
p3774
asbag56
(g77
g58
NtRp3775
(dp3776
g61
(dp3777
g88
g89
ssg70
g3766
sg63
(lp3778
S':'
asbag56
(g77
g58
NtRp3779
(dp3780
g61
(dp3781
sg70
g3766
sg63
(lp3782
g56
(g57
g58
NtRp3783
(dp3784
g61
(dp3785
g69
I4
ssg70
g3779
sg63
(lp3786
S'Thu, 27 Oct 2011 10:09:39 GMT'
p3787
asbasbasbag56
(g72
g58
NtRp3788
(dp3789
g61
(dp3790
sg70
g3718
sg63
(lp3791
g56
(g77
g58
NtRp3792
(dp3793
g61
(dp3794
g81
g82
ssg70
g3788
sg63
(lp3795
S'Pragma'
p3796
asbag56
(g77
g58
NtRp3797
(dp3798
g61
(dp3799
g88
g89
ssg70
g3788
sg63
(lp3800
S':'
asbag56
(g77
g58
NtRp3801
(dp3802
g61
(dp3803
sg70
g3788
sg63
(lp3804
g56
(g57
g58
NtRp3805
(dp3806
g61
(dp3807
g69
I4
ssg70
g3801
sg63
(lp3808
S'no-cache'
p3809
asbasbasbag56
(g72
g58
NtRp3810
(dp3811
g61
(dp3812
sg70
g3718
sg63
(lp3813
g56
(g77
g58
NtRp3814
(dp3815
g61
(dp3816
g81
g82
ssg70
g3810
sg63
(lp3817
S'X-Powered-By'
p3818
asbag56
(g77
g58
NtRp3819
(dp3820
g61
(dp3821
g88
g89
ssg70
g3810
sg63
(lp3822
S':'
asbag56
(g77
g58
NtRp3823
(dp3824
g61
(dp3825
sg70
g3810
sg63
(lp3826
g56
(g57
g58
NtRp3827
(dp3828
g61
(dp3829
g69
I4
ssg70
g3823
sg63
(lp3830
S'web2py'
p3831
asbasbasbasbasbasbasbag56
(g72
g58
NtRp3832
(dp3833
g61
(dp3834
sg70
g3380
sg63
(lp3835
g56
(g77
g58
NtRp3836
(dp3837
g61
(dp3838
g81
g82
ssg70
g3832
sg63
(lp3839
S'menu'
p3840
asbag56
(g77
g58
NtRp3841
(dp3842
g61
(dp3843
g88
g89
ssg70
g3832
sg63
(lp3844
S':'
asbag56
(g77
g58
NtRp3845
(dp3846
g61
(dp3847
sg70
g3832
sg63
(lp3848
g56
(g57
g58
NtRp3849
(dp3850
g61
(dp3851
g69
I5
ssg70
g3845
sg63
(lp3852
g56
(g65
g58
NtRp3853
(dp3854
g61
(dp3855
g69
I4
ssg70
Nsg63
(lp3856
g56
(g72
g58
NtRp3857
(dp3858
g61
(dp3859
sg70
g3853
sg63
(lp3860
g56
(g77
g58
NtRp3861
(dp3862
g61
(dp3863
sg70
g3857
sg63
(lp3864
g56
(g57
g58
NtRp3865
(dp3866
g61
(dp3867
g69
I4
ssg70
g3861
sg63
(lp3868
g56
(g65
g58
NtRp3869
(dp3870
g61
(dp3871
g69
I3
ssg70
Nsg63
(lp3872
g56
(g72
g58
NtRp3873
(dp3874
g61
(dp3875
sg70
g3869
sg63
(lp3876
g56
(g77
g58
NtRp3877
(dp3878
g61
(dp3879
sg70
g3873
sg63
(lp3880
g56
(g57
g58
NtRp3881
(dp3882
g61
(dp3883
g69
I3
ssg70
g3877
sg63
(lp3884
cgluon.languages
lazyT_unpickle
p3885
(S's\x04\x00\x00\x00Home'
tRp3886
asbasbasbag56
(g72
g58
NtRp3887
(dp3888
g61
(dp3889
sg70
g3869
sg63
(lp3890
g56
(g77
g58
NtRp3891
(dp3892
g61
(dp3893
sg70
g3887
sg63
(lp3894
g56
(g57
g58
NtRp3895
(dp3896
g61
(dp3897
g69
I3
ssg70
g3891
sg63
(lp3898
g99
asbasbasbag56
(g72
g58
NtRp3899
(dp3900
g61
(dp3901
sg70
g3869
sg63
(lp3902
g56
(g77
g58
NtRp3903
(dp3904
g61
(dp3905
sg70
g3899
sg63
(lp3906
g56
(g57
g58
NtRp3907
(dp3908
g61
(dp3909
g69
I3
ssg70
g3903
sg63
(lp3910
S'/ddlagoon/default/index'
p3911
asbasbasbag56
(g72
g58
NtRp3912
(dp3913
g61
(dp3914
sg70
g3869
sg63
(lp3915
g56
(g77
g58
NtRp3916
(dp3917
g61
(dp3918
sg70
g3912
sg63
(lp3919
g56
(g57
g58
NtRp3920
(dp3921
g61
(dp3922
g69
I3
ssg70
g3916
sg63
(lp3923
g56
(g65
g58
NtRp3924
(dp3925
g61
(dp3926
g69
I2
ssg70
Nsg63
(lp3927
sbasbasbasbasbasbasbasbag56
(g72
g58
NtRp3928
(dp3929
g61
(dp3930
sg70
g3853
sg63
(lp3931
g56
(g77
g58
NtRp3932
(dp3933
g61
(dp3934
sg70
g3928
sg63
(lp3935
g56
(g57
g58
NtRp3936
(dp3937
g61
(dp3938
g69
I4
ssg70
g3932
sg63
(lp3939
g56
(g65
g58
NtRp3940
(dp3941
g61
(dp3942
g69
I3
ssg70
Nsg63
(lp3943
g56
(g72
g58
NtRp3944
(dp3945
g61
(dp3946
sg70
g3940
sg63
(lp3947
g56
(g77
g58
NtRp3948
(dp3949
g61
(dp3950
sg70
g3944
sg63
(lp3951
g56
(g57
g58
NtRp3952
(dp3953
g61
(dp3954
g69
I3
ssg70
g3948
sg63
(lp3955
g3885
(S's\x08\x00\x00\x00This App'
tRp3956
asbasbasbag56
(g72
g58
NtRp3957
(dp3958
g61
(dp3959
sg70
g3940
sg63
(lp3960
g56
(g77
g58
NtRp3961
(dp3962
g61
(dp3963
sg70
g3957
sg63
(lp3964
g56
(g57
g58
NtRp3965
(dp3966
g61
(dp3967
g69
I3
ssg70
g3961
sg63
(lp3968
g99
asbasbasbag56
(g72
g58
NtRp3969
(dp3970
g61
(dp3971
sg70
g3940
sg63
(lp3972
g56
(g77
g58
NtRp3973
(dp3974
g61
(dp3975
sg70
g3969
sg63
(lp3976
g56
(g57
g58
NtRp3977
(dp3978
g61
(dp3979
g69
I3
ssg70
g3973
sg63
(lp3980
S'/admin/default/design/ddlagoon'
p3981
asbasbasbag56
(g72
g58
NtRp3982
(dp3983
g61
(dp3984
sg70
g3940
sg63
(lp3985
g56
(g77
g58
NtRp3986
(dp3987
g61
(dp3988
sg70
g3982
sg63
(lp3989
g56
(g57
g58
NtRp3990
(dp3991
g61
(dp3992
g69
I3
ssg70
g3986
sg63
(lp3993
g56
(g65
g58
NtRp3994
(dp3995
g61
(dp3996
g69
I2
ssg70
Nsg63
(lp3997
g56
(g72
g58
NtRp3998
(dp3999
g61
(dp4000
sg70
g3994
sg63
(lp4001
g56
(g77
g58
NtRp4002
(dp4003
g61
(dp4004
sg70
g3998
sg63
(lp4005
g56
(g57
g58
NtRp4006
(dp4007
g61
(dp4008
g69
I2
ssg70
g4002
sg63
(lp4009
g56
(g65
g58
NtRp4010
(dp4011
g61
(dp4012
g69
I1
ssg70
Nsg63
(lp4013
g56
(g72
g58
NtRp4014
(dp4015
g61
(dp4016
sg70
g4010
sg63
(lp4017
g56
(g77
g58
NtRp4018
(dp4019
g61
(dp4020
sg70
g4014
sg63
(lp4021
g56
(g57
g58
NtRp4022
(dp4023
g61
(dp4024
g69
I1
ssg70
g4018
sg63
(lp4025
g3885
(S's\n\x00\x00\x00Controller'
tRp4026
asbasbasbag56
(g72
g58
NtRp4027
(dp4028
g61
(dp4029
sg70
g4010
sg63
(lp4030
g56
(g77
g58
NtRp4031
(dp4032
g61
(dp4033
sg70
g4027
sg63
(lp4034
g56
(g57
g58
NtRp4035
(dp4036
g61
(dp4037
g69
I1
ssg70
g4031
sg63
(lp4038
I00
asbasbasbag56
(g72
g58
NtRp4039
(dp4040
g61
(dp4041
sg70
g4010
sg63
(lp4042
g56
(g77
g58
NtRp4043
(dp4044
g61
(dp4045
sg70
g4039
sg63
(lp4046
g56
(g57
g58
NtRp4047
(dp4048
g61
(dp4049
g69
I1
ssg70
g4043
sg63
(lp4050
S'/admin/default/edit/ddlagoon/controllers/ddl.py'
p4051
asbasbasbasbasbasbasbag56
(g72
g58
NtRp4052
(dp4053
g61
(dp4054
sg70
g3994
sg63
(lp4055
g56
(g77
g58
NtRp4056
(dp4057
g61
(dp4058
sg70
g4052
sg63
(lp4059
g56
(g57
g58
NtRp4060
(dp4061
g61
(dp4062
g69
I2
ssg70
g4056
sg63
(lp4063
g56
(g65
g58
NtRp4064
(dp4065
g61
(dp4066
g69
I1
ssg70
Nsg63
(lp4067
g56
(g72
g58
NtRp4068
(dp4069
g61
(dp4070
sg70
g4064
sg63
(lp4071
g56
(g77
g58
NtRp4072
(dp4073
g61
(dp4074
sg70
g4068
sg63
(lp4075
g56
(g57
g58
NtRp4076
(dp4077
g61
(dp4078
g69
I1
ssg70
g4072
sg63
(lp4079
g3885
(S's\x04\x00\x00\x00View'
tRp4080
asbasbasbag56
(g72
g58
NtRp4081
(dp4082
g61
(dp4083
sg70
g4064
sg63
(lp4084
g56
(g77
g58
NtRp4085
(dp4086
g61
(dp4087
sg70
g4081
sg63
(lp4088
g56
(g57
g58
NtRp4089
(dp4090
g61
(dp4091
g69
I1
ssg70
g4085
sg63
(lp4092
I00
asbasbasbag56
(g72
g58
NtRp4093
(dp4094
g61
(dp4095
sg70
g4064
sg63
(lp4096
g56
(g77
g58
NtRp4097
(dp4098
g61
(dp4099
sg70
g4093
sg63
(lp4100
g56
(g57
g58
NtRp4101
(dp4102
g61
(dp4103
g69
I1
ssg70
g4097
sg63
(lp4104
S'/admin/default/edit/ddlagoon/views/ddl/get.html'
p4105
asbasbasbasbasbasbasbag56
(g72
g58
NtRp4106
(dp4107
g61
(dp4108
sg70
g3994
sg63
(lp4109
g56
(g77
g58
NtRp4110
(dp4111
g61
(dp4112
sg70
g4106
sg63
(lp4113
g56
(g57
g58
NtRp4114
(dp4115
g61
(dp4116
g69
I2
ssg70
g4110
sg63
(lp4117
g56
(g65
g58
NtRp4118
(dp4119
g61
(dp4120
g69
I1
ssg70
Nsg63
(lp4121
g56
(g72
g58
NtRp4122
(dp4123
g61
(dp4124
sg70
g4118
sg63
(lp4125
g56
(g77
g58
NtRp4126
(dp4127
g61
(dp4128
sg70
g4122
sg63
(lp4129
g56
(g57
g58
NtRp4130
(dp4131
g61
(dp4132
g69
I1
ssg70
g4126
sg63
(lp4133
g3885
(S's\x06\x00\x00\x00Layout'
tRp4134
asbasbasbag56
(g72
g58
NtRp4135
(dp4136
g61
(dp4137
sg70
g4118
sg63
(lp4138
g56
(g77
g58
NtRp4139
(dp4140
g61
(dp4141
sg70
g4135
sg63
(lp4142
g56
(g57
g58
NtRp4143
(dp4144
g61
(dp4145
g69
I1
ssg70
g4139
sg63
(lp4146
I00
asbasbasbag56
(g72
g58
NtRp4147
(dp4148
g61
(dp4149
sg70
g4118
sg63
(lp4150
g56
(g77
g58
NtRp4151
(dp4152
g61
(dp4153
sg70
g4147
sg63
(lp4154
g56
(g57
g58
NtRp4155
(dp4156
g61
(dp4157
g69
I1
ssg70
g4151
sg63
(lp4158
S'/admin/default/edit/ddlagoon/views/layout.html'
p4159
asbasbasbasbasbasbasbag56
(g72
g58
NtRp4160
(dp4161
g61
(dp4162
sg70
g3994
sg63
(lp4163
g56
(g77
g58
NtRp4164
(dp4165
g61
(dp4166
sg70
g4160
sg63
(lp4167
g56
(g57
g58
NtRp4168
(dp4169
g61
(dp4170
g69
I2
ssg70
g4164
sg63
(lp4171
g56
(g65
g58
NtRp4172
(dp4173
g61
(dp4174
g69
I1
ssg70
Nsg63
(lp4175
g56
(g72
g58
NtRp4176
(dp4177
g61
(dp4178
sg70
g4172
sg63
(lp4179
g56
(g77
g58
NtRp4180
(dp4181
g61
(dp4182
sg70
g4176
sg63
(lp4183
g56
(g57
g58
NtRp4184
(dp4185
g61
(dp4186
g69
I1
ssg70
g4180
sg63
(lp4187
g3885
(S's\n\x00\x00\x00Stylesheet'
tRp4188
asbasbasbag56
(g72
g58
NtRp4189
(dp4190
g61
(dp4191
sg70
g4172
sg63
(lp4192
g56
(g77
g58
NtRp4193
(dp4194
g61
(dp4195
sg70
g4189
sg63
(lp4196
g56
(g57
g58
NtRp4197
(dp4198
g61
(dp4199
g69
I1
ssg70
g4193
sg63
(lp4200
I00
asbasbasbag56
(g72
g58
NtRp4201
(dp4202
g61
(dp4203
sg70
g4172
sg63
(lp4204
g56
(g77
g58
NtRp4205
(dp4206
g61
(dp4207
sg70
g4201
sg63
(lp4208
g56
(g57
g58
NtRp4209
(dp4210
g61
(dp4211
g69
I1
ssg70
g4205
sg63
(lp4212
S'/admin/default/edit/ddlagoon/static/base.css'
p4213
asbasbasbasbasbasbasbag56
(g72
g58
NtRp4214
(dp4215
g61
(dp4216
sg70
g3994
sg63
(lp4217
g56
(g77
g58
NtRp4218
(dp4219
g61
(dp4220
sg70
g4214
sg63
(lp4221
g56
(g57
g58
NtRp4222
(dp4223
g61
(dp4224
g69
I2
ssg70
g4218
sg63
(lp4225
g56
(g65
g58
NtRp4226
(dp4227
g61
(dp4228
g69
I1
ssg70
Nsg63
(lp4229
g56
(g72
g58
NtRp4230
(dp4231
g61
(dp4232
sg70
g4226
sg63
(lp4233
g56
(g77
g58
NtRp4234
(dp4235
g61
(dp4236
sg70
g4230
sg63
(lp4237
g56
(g57
g58
NtRp4238
(dp4239
g61
(dp4240
g69
I1
ssg70
g4234
sg63
(lp4241
g3885
(S's\x08\x00\x00\x00DB Model'
tRp4242
asbasbasbag56
(g72
g58
NtRp4243
(dp4244
g61
(dp4245
sg70
g4226
sg63
(lp4246
g56
(g77
g58
NtRp4247
(dp4248
g61
(dp4249
sg70
g4243
sg63
(lp4250
g56
(g57
g58
NtRp4251
(dp4252
g61
(dp4253
g69
I1
ssg70
g4247
sg63
(lp4254
I00
asbasbasbag56
(g72
g58
NtRp4255
(dp4256
g61
(dp4257
sg70
g4226
sg63
(lp4258
g56
(g77
g58
NtRp4259
(dp4260
g61
(dp4261
sg70
g4255
sg63
(lp4262
g56
(g57
g58
NtRp4263
(dp4264
g61
(dp4265
g69
I1
ssg70
g4259
sg63
(lp4266
S'/admin/default/edit/ddlagoon/models/db.py'
p4267
asbasbasbasbasbasbasbag56
(g72
g58
NtRp4268
(dp4269
g61
(dp4270
sg70
g3994
sg63
(lp4271
g56
(g77
g58
NtRp4272
(dp4273
g61
(dp4274
sg70
g4268
sg63
(lp4275
g56
(g57
g58
NtRp4276
(dp4277
g61
(dp4278
g69
I2
ssg70
g4272
sg63
(lp4279
g56
(g65
g58
NtRp4280
(dp4281
g61
(dp4282
g69
I1
ssg70
Nsg63
(lp4283
g56
(g72
g58
NtRp4284
(dp4285
g61
(dp4286
sg70
g4280
sg63
(lp4287
g56
(g77
g58
NtRp4288
(dp4289
g61
(dp4290
sg70
g4284
sg63
(lp4291
g56
(g57
g58
NtRp4292
(dp4293
g61
(dp4294
g69
I1
ssg70
g4288
sg63
(lp4295
g3885
(S's\n\x00\x00\x00Menu Model'
tRp4296
asbasbasbag56
(g72
g58
NtRp4297
(dp4298
g61
(dp4299
sg70
g4280
sg63
(lp4300
g56
(g77
g58
NtRp4301
(dp4302
g61
(dp4303
sg70
g4297
sg63
(lp4304
g56
(g57
g58
NtRp4305
(dp4306
g61
(dp4307
g69
I1
ssg70
g4301
sg63
(lp4308
I00
asbasbasbag56
(g72
g58
NtRp4309
(dp4310
g61
(dp4311
sg70
g4280
sg63
(lp4312
g56
(g77
g58
NtRp4313
(dp4314
g61
(dp4315
sg70
g4309
sg63
(lp4316
g56
(g57
g58
NtRp4317
(dp4318
g61
(dp4319
g69
I1
ssg70
g4313
sg63
(lp4320
S'/admin/default/edit/ddlagoon/models/menu.py'
p4321
asbasbasbasbasbasbasbag56
(g72
g58
NtRp4322
(dp4323
g61
(dp4324
sg70
g3994
sg63
(lp4325
g56
(g77
g58
NtRp4326
(dp4327
g61
(dp4328
sg70
g4322
sg63
(lp4329
g56
(g57
g58
NtRp4330
(dp4331
g61
(dp4332
g69
I2
ssg70
g4326
sg63
(lp4333
g56
(g65
g58
NtRp4334
(dp4335
g61
(dp4336
g69
I1
ssg70
Nsg63
(lp4337
g56
(g72
g58
NtRp4338
(dp4339
g61
(dp4340
sg70
g4334
sg63
(lp4341
g56
(g77
g58
NtRp4342
(dp4343
g61
(dp4344
sg70
g4338
sg63
(lp4345
g56
(g57
g58
NtRp4346
(dp4347
g61
(dp4348
g69
I1
ssg70
g4342
sg63
(lp4349
g3885
(S's\x08\x00\x00\x00Database'
tRp4350
asbasbasbag56
(g72
g58
NtRp4351
(dp4352
g61
(dp4353
sg70
g4334
sg63
(lp4354
g56
(g77
g58
NtRp4355
(dp4356
g61
(dp4357
sg70
g4351
sg63
(lp4358
g56
(g57
g58
NtRp4359
(dp4360
g61
(dp4361
g69
I1
ssg70
g4355
sg63
(lp4362
I00
asbasbasbag56
(g72
g58
NtRp4363
(dp4364
g61
(dp4365
sg70
g4334
sg63
(lp4366
g56
(g77
g58
NtRp4367
(dp4368
g61
(dp4369
sg70
g4363
sg63
(lp4370
g56
(g57
g58
NtRp4371
(dp4372
g61
(dp4373
g69
I1
ssg70
g4367
sg63
(lp4374
S'/ddlagoon/appadmin/index'
p4375
asbasbasbasbasbasbasbag56
(g72
g58
NtRp4376
(dp4377
g61
(dp4378
sg70
g3994
sg63
(lp4379
g56
(g77
g58
NtRp4380
(dp4381
g61
(dp4382
sg70
g4376
sg63
(lp4383
g56
(g57
g58
NtRp4384
(dp4385
g61
(dp4386
g69
I2
ssg70
g4380
sg63
(lp4387
g56
(g65
g58
NtRp4388
(dp4389
g61
(dp4390
g69
I1
ssg70
Nsg63
(lp4391
g56
(g72
g58
NtRp4392
(dp4393
g61
(dp4394
sg70
g4388
sg63
(lp4395
g56
(g77
g58
NtRp4396
(dp4397
g61
(dp4398
sg70
g4392
sg63
(lp4399
g56
(g57
g58
NtRp4400
(dp4401
g61
(dp4402
g69
I1
ssg70
g4396
sg63
(lp4403
g3885
(S's\x06\x00\x00\x00Errors'
tRp4404
asbasbasbag56
(g72
g58
NtRp4405
(dp4406
g61
(dp4407
sg70
g4388
sg63
(lp4408
g56
(g77
g58
NtRp4409
(dp4410
g61
(dp4411
sg70
g4405
sg63
(lp4412
g56
(g57
g58
NtRp4413
(dp4414
g61
(dp4415
g69
I1
ssg70
g4409
sg63
(lp4416
I00
asbasbasbag56
(g72
g58
NtRp4417
(dp4418
g61
(dp4419
sg70
g4388
sg63
(lp4420
g56
(g77
g58
NtRp4421
(dp4422
g61
(dp4423
sg70
g4417
sg63
(lp4424
g56
(g57
g58
NtRp4425
(dp4426
g61
(dp4427
g69
I1
ssg70
g4421
sg63
(lp4428
S'/admin/default/errors/ddlagoon'
p4429
asbasbasbasbasbasbasbag56
(g72
g58
NtRp4430
(dp4431
g61
(dp4432
sg70
g3994
sg63
(lp4433
g56
(g77
g58
NtRp4434
(dp4435
g61
(dp4436
sg70
g4430
sg63
(lp4437
g56
(g57
g58
NtRp4438
(dp4439
g61
(dp4440
g69
I2
ssg70
g4434
sg63
(lp4441
g56
(g65
g58
NtRp4442
(dp4443
g61
(dp4444
g69
I1
ssg70
Nsg63
(lp4445
g56
(g72
g58
NtRp4446
(dp4447
g61
(dp4448
sg70
g4442
sg63
(lp4449
g56
(g77
g58
NtRp4450
(dp4451
g61
(dp4452
sg70
g4446
sg63
(lp4453
g56
(g57
g58
NtRp4454
(dp4455
g61
(dp4456
g69
I1
ssg70
g4450
sg63
(lp4457
g3885
(S's\x05\x00\x00\x00About'
tRp4458
asbasbasbag56
(g72
g58
NtRp4459
(dp4460
g61
(dp4461
sg70
g4442
sg63
(lp4462
g56
(g77
g58
NtRp4463
(dp4464
g61
(dp4465
sg70
g4459
sg63
(lp4466
g56
(g57
g58
NtRp4467
(dp4468
g61
(dp4469
g69
I1
ssg70
g4463
sg63
(lp4470
I00
asbasbasbag56
(g72
g58
NtRp4471
(dp4472
g61
(dp4473
sg70
g4442
sg63
(lp4474
g56
(g77
g58
NtRp4475
(dp4476
g61
(dp4477
sg70
g4471
sg63
(lp4478
g56
(g57
g58
NtRp4479
(dp4480
g61
(dp4481
g69
I1
ssg70
g4475
sg63
(lp4482
S'/admin/default/about/ddlagoon'
p4483
asbasbasbasbasbasbasbasbasbasbasbasbasbasbasbag56
(g72
g58
NtRp4484
(dp4485
g61
(dp4486
sg70
g3853
sg63
(lp4487
g56
(g77
g58
NtRp4488
(dp4489
g61
(dp4490
sg70
g4484
sg63
(lp4491
g56
(g57
g58
NtRp4492
(dp4493
g61
(dp4494
g69
I4
ssg70
g4488
sg63
(lp4495
g56
(g65
g58
NtRp4496
(dp4497
g61
(dp4498
g69
I3
ssg70
Nsg63
(lp4499
g56
(g72
g58
NtRp4500
(dp4501
g61
(dp4502
sg70
g4496
sg63
(lp4503
g56
(g77
g58
NtRp4504
(dp4505
g61
(dp4506
sg70
g4500
sg63
(lp4507
g56
(g57
g58
NtRp4508
(dp4509
g61
(dp4510
g69
I3
ssg70
g4504
sg63
(lp4511
g3885
(S's\t\x00\x00\x00Resources'
tRp4512
asbasbasbag56
(g72
g58
NtRp4513
(dp4514
g61
(dp4515
sg70
g4496
sg63
(lp4516
g56
(g77
g58
NtRp4517
(dp4518
g61
(dp4519
sg70
g4513
sg63
(lp4520
g56
(g57
g58
NtRp4521
(dp4522
g61
(dp4523
g69
I3
ssg70
g4517
sg63
(lp4524
g99
asbasbasbag56
(g72
g58
NtRp4525
(dp4526
g61
(dp4527
sg70
g4496
sg63
(lp4528
g56
(g77
g58
NtRp4529
(dp4530
g61
(dp4531
sg70
g4525
sg63
(lp4532
g56
(g57
g58
NtRp4533
(dp4534
g61
(dp4535
g69
I3
ssg70
g4529
sg63
(lp4536
S'None'
p4537
asbasbasbag56
(g72
g58
NtRp4538
(dp4539
g61
(dp4540
sg70
g4496
sg63
(lp4541
g56
(g77
g58
NtRp4542
(dp4543
g61
(dp4544
sg70
g4538
sg63
(lp4545
g56
(g57
g58
NtRp4546
(dp4547
g61
(dp4548
g69
I3
ssg70
g4542
sg63
(lp4549
g56
(g65
g58
NtRp4550
(dp4551
g61
(dp4552
g69
I2
ssg70
Nsg63
(lp4553
g56
(g72
g58
NtRp4554
(dp4555
g61
(dp4556
sg70
g4550
sg63
(lp4557
g56
(g77
g58
NtRp4558
(dp4559
g61
(dp4560
sg70
g4554
sg63
(lp4561
g56
(g57
g58
NtRp4562
(dp4563
g61
(dp4564
g69
I2
ssg70
g4558
sg63
(lp4565
g56
(g65
g58
NtRp4566
(dp4567
g61
(dp4568
g69
I1
ssg70
Nsg63
(lp4569
g56
(g72
g58
NtRp4570
(dp4571
g61
(dp4572
sg70
g4566
sg63
(lp4573
g56
(g77
g58
NtRp4574
(dp4575
g61
(dp4576
sg70
g4570
sg63
(lp4577
g56
(g57
g58
NtRp4578
(dp4579
g61
(dp4580
g69
I1
ssg70
g4574
sg63
(lp4581
g3885
(S's\r\x00\x00\x00Documentation'
tRp4582
asbasbasbag56
(g72
g58
NtRp4583
(dp4584
g61
(dp4585
sg70
g4566
sg63
(lp4586
g56
(g77
g58
NtRp4587
(dp4588
g61
(dp4589
sg70
g4583
sg63
(lp4590
g56
(g57
g58
NtRp4591
(dp4592
g61
(dp4593
g69
I1
ssg70
g4587
sg63
(lp4594
I00
asbasbasbag56
(g72
g58
NtRp4595
(dp4596
g61
(dp4597
sg70
g4566
sg63
(lp4598
g56
(g77
g58
NtRp4599
(dp4600
g61
(dp4601
sg70
g4595
sg63
(lp4602
g56
(g57
g58
NtRp4603
(dp4604
g61
(dp4605
g69
I1
ssg70
g4599
sg63
(lp4606
S'http://www.web2py.com/book'
p4607
asbasbasbag56
(g72
g58
NtRp4608
(dp4609
g61
(dp4610
sg70
g4566
sg63
(lp4611
g56
(g77
g58
NtRp4612
(dp4613
g61
(dp4614
sg70
g4608
sg63
(lp4615
g56
(g57
g58
NtRp4616
(dp4617
g61
(dp4618
g69
I1
ssg70
g4612
sg63
(lp4619
(lp4620
(g3885
(S's\x07\x00\x00\x00Preface'
tRp4621
I00
S'http://www.web2py.com/book/default/chapter/00'
p4622
tp4623
a(g3885
(S's\x0c\x00\x00\x00Introduction'
tRp4624
I00
S'http://www.web2py.com/book/default/chapter/01'
p4625
tp4626
a(g3885
(S's\x06\x00\x00\x00Python'
tRp4627
I00
S'http://www.web2py.com/book/default/chapter/02'
p4628
tp4629
a(g3885
(S's\x08\x00\x00\x00Overview'
tRp4630
I00
S'http://www.web2py.com/book/default/chapter/03'
p4631
tp4632
a(g3885
(S's\x08\x00\x00\x00The Core'
tRp4633
I00
S'http://www.web2py.com/book/default/chapter/04'
p4634
tp4635
a(g3885
(S's\t\x00\x00\x00The Views'
tRp4636
I00
S'http://www.web2py.com/book/default/chapter/05'
p4637
tp4638
a(g3885
(S's\x08\x00\x00\x00Database'
tRp4639
I00
S'http://www.web2py.com/book/default/chapter/06'
p4640
tp4641
a(g3885
(S's\x14\x00\x00\x00Forms and Validators'
tRp4642
I00
S'http://www.web2py.com/book/default/chapter/07'
p4643
tp4644
a(g3885
(S's\x0e\x00\x00\x00Access Control'
tRp4645
I00
S'http://www.web2py.com/book/default/chapter/08'
p4646
tp4647
a(g3885
(S's\x08\x00\x00\x00Services'
tRp4648
I00
S'http://www.web2py.com/book/default/chapter/09'
p4649
tp4650
a(g3885
(S's\x0c\x00\x00\x00Ajax Recipes'
tRp4651
I00
S'http://www.web2py.com/book/default/chapter/10'
p4652
tp4653
a(g3885
(S's\x12\x00\x00\x00Deployment Recipes'
tRp4654
I00
S'http://www.web2py.com/book/default/chapter/11'
p4655
tp4656
a(g3885
(S's\r\x00\x00\x00Other Recipes'
tRp4657
I00
S'http://www.web2py.com/book/default/chapter/12'
p4658
tp4659
a(g3885
(S's\r\x00\x00\x00Buy this book'
tRp4660
I00
S'http://stores.lulu.com/web2py'
p4661
tp4662
aasbasbasbasbasbasbasbag56
(g72
g58
NtRp4663
(dp4664
g61
(dp4665
sg70
g4550
sg63
(lp4666
g56
(g77
g58
NtRp4667
(dp4668
g61
(dp4669
sg70
g4663
sg63
(lp4670
g56
(g57
g58
NtRp4671
(dp4672
g61
(dp4673
g69
I2
ssg70
g4667
sg63
(lp4674
g56
(g65
g58
NtRp4675
(dp4676
g61
(dp4677
g69
I1
ssg70
Nsg63
(lp4678
g56
(g72
g58
NtRp4679
(dp4680
g61
(dp4681
sg70
g4675
sg63
(lp4682
g56
(g77
g58
NtRp4683
(dp4684
g61
(dp4685
sg70
g4679
sg63
(lp4686
g56
(g57
g58
NtRp4687
(dp4688
g61
(dp4689
g69
I1
ssg70
g4683
sg63
(lp4690
g3885
(S's\t\x00\x00\x00Community'
tRp4691
asbasbasbag56
(g72
g58
NtRp4692
(dp4693
g61
(dp4694
sg70
g4675
sg63
(lp4695
g56
(g77
g58
NtRp4696
(dp4697
g61
(dp4698
sg70
g4692
sg63
(lp4699
g56
(g57
g58
NtRp4700
(dp4701
g61
(dp4702
g69
I1
ssg70
g4696
sg63
(lp4703
I00
asbasbasbag56
(g72
g58
NtRp4704
(dp4705
g61
(dp4706
sg70
g4675
sg63
(lp4707
g56
(g77
g58
NtRp4708
(dp4709
g61
(dp4710
sg70
g4704
sg63
(lp4711
g56
(g57
g58
NtRp4712
(dp4713
g61
(dp4714
g69
I1
ssg70
g4708
sg63
(lp4715
Nasbasbasbag56
(g72
g58
NtRp4716
(dp4717
g61
(dp4718
sg70
g4675
sg63
(lp4719
g56
(g77
g58
NtRp4720
(dp4721
g61
(dp4722
sg70
g4716
sg63
(lp4723
g56
(g57
g58
NtRp4724
(dp4725
g61
(dp4726
g69
I1
ssg70
g4720
sg63
(lp4727
(lp4728
(g3885
(S's\x06\x00\x00\x00Groups'
tRp4729
I00
S'http://www.web2py.com/examples/default/usergroups'
p4730
tp4731
a(g3885
(S's\x07\x00\x00\x00Twitter'
tRp4732
I00
S'http://twitter.com/web2py'
p4733
tp4734
a(g3885
(S's\t\x00\x00\x00Live chat'
tRp4735
I00
S'http://mibbit.com/?channel=%23web2py&server=irc.mibbit.net'
p4736
tp4737
a(g3885
(S's\n\x00\x00\x00User Voice'
tRp4738
I00
S'http://web2py.uservoice.com/'
p4739
tp4740
aasbasbasbasbasbasbasbag56
(g72
g58
NtRp4741
(dp4742
g61
(dp4743
sg70
g4550
sg63
(lp4744
g56
(g77
g58
NtRp4745
(dp4746
g61
(dp4747
sg70
g4741
sg63
(lp4748
g56
(g57
g58
NtRp4749
(dp4750
g61
(dp4751
g69
I2
ssg70
g4745
sg63
(lp4752
g56
(g65
g58
NtRp4753
(dp4754
g61
(dp4755
g69
I1
ssg70
Nsg63
(lp4756
g56
(g72
g58
NtRp4757
(dp4758
g61
(dp4759
sg70
g4753
sg63
(lp4760
g56
(g77
g58
NtRp4761
(dp4762
g61
(dp4763
sg70
g4757
sg63
(lp4764
g56
(g57
g58
NtRp4765
(dp4766
g61
(dp4767
g69
I1
ssg70
g4761
sg63
(lp4768
g3885
(S's\x06\x00\x00\x00Web2py'
tRp4769
asbasbasbag56
(g72
g58
NtRp4770
(dp4771
g61
(dp4772
sg70
g4753
sg63
(lp4773
g56
(g77
g58
NtRp4774
(dp4775
g61
(dp4776
sg70
g4770
sg63
(lp4777
g56
(g57
g58
NtRp4778
(dp4779
g61
(dp4780
g69
I1
ssg70
g4774
sg63
(lp4781
I00
asbasbasbag56
(g72
g58
NtRp4782
(dp4783
g61
(dp4784
sg70
g4753
sg63
(lp4785
g56
(g77
g58
NtRp4786
(dp4787
g61
(dp4788
sg70
g4782
sg63
(lp4789
g56
(g57
g58
NtRp4790
(dp4791
g61
(dp4792
g69
I1
ssg70
g4786
sg63
(lp4793
S'http://www.web2py.com'
p4794
asbasbasbag56
(g72
g58
NtRp4795
(dp4796
g61
(dp4797
sg70
g4753
sg63
(lp4798
g56
(g77
g58
NtRp4799
(dp4800
g61
(dp4801
sg70
g4795
sg63
(lp4802
g56
(g57
g58
NtRp4803
(dp4804
g61
(dp4805
g69
I1
ssg70
g4799
sg63
(lp4806
(lp4807
(g3885
(S's\x08\x00\x00\x00Download'
tRp4808
I00
S'http://www.web2py.com/examples/default/download'
p4809
tp4810
a(g3885
(S's\x07\x00\x00\x00Support'
tRp4811
I00
S'http://www.web2py.com/examples/default/support'
p4812
tp4813
a(g3885
(S's\x0e\x00\x00\x00Quick Examples'
tRp4814
I00
S'http://web2py.com/examples/default/examples'
p4815
tp4816
a(g3885
(S's\x03\x00\x00\x00FAQ'
tRp4817
I00
S'http://web2py.com/AlterEgo'
p4818
tp4819
a(g3885
(S's\x11\x00\x00\x00Free Applications'
tRp4820
I00
S'http://web2py.com/appliances'
p4821
tp4822
a(g3885
(S's\x07\x00\x00\x00Plugins'
tRp4823
I00
S'http://web2py.com/plugins'
p4824
tp4825
a(g3885
(S's\x07\x00\x00\x00Recipes'
tRp4826
I00
S'http://web2pyslices.com/'
p4827
tp4828
a(g3885
(S's\x04\x00\x00\x00Demo'
tRp4829
I00
S'http://web2py.com/demo_admin'
p4830
tp4831
a(g3885
(S's\x08\x00\x00\x00Semantic'
tRp4832
I00
S'http://web2py.com/semantic'
p4833
tp4834
a(g3885
(S's\x07\x00\x00\x00Layouts'
tRp4835
I00
S'http://web2py.com/layouts'
p4836
tp4837
a(g3885
(S's\x06\x00\x00\x00Videos'
tRp4838
I00
S'http://www.web2py.com/examples/default/videos/'
p4839
tp4840
aasbasbasbasbasbasbasbasbasbasbasbasbasbasbasbasbasbasbasbag56
(g72
g58
NtRp4841
(dp4842
g61
(dp4843
sg70
g3380
sg63
(lp4844
g56
(g77
g58
NtRp4845
(dp4846
g61
(dp4847
g81
g82
ssg70
g4841
sg63
(lp4848
S'meta'
p4849
asbag56
(g77
g58
NtRp4850
(dp4851
g61
(dp4852
g88
g89
ssg70
g4841
sg63
(lp4853
S':'
asbag56
(g77
g58
NtRp4854
(dp4855
g61
(dp4856
sg70
g4841
sg63
(lp4857
g56
(g57
g58
NtRp4858
(dp4859
g61
(dp4860
g69
I5
ssg70
g4854
sg63
(lp4861
g56
(g65
g58
NtRp4862
(dp4863
g61
(dp4864
g69
I4
ssg70
Nsg63
(lp4865
g56
(g72
g58
NtRp4866
(dp4867
g61
(dp4868
sg70
g4862
sg63
(lp4869
g56
(g77
g58
NtRp4870
(dp4871
g61
(dp4872
g81
g82
ssg70
g4866
sg63
(lp4873
S'author'
p4874
asbag56
(g77
g58
NtRp4875
(dp4876
g61
(dp4877
g88
g89
ssg70
g4866
sg63
(lp4878
S':'
asbag56
(g77
g58
NtRp4879
(dp4880
g61
(dp4881
sg70
g4866
sg63
(lp4882
g56
(g57
g58
NtRp4883
(dp4884
g61
(dp4885
g69
I4
ssg70
g4879
sg63
(lp4886
S'Your Name <you@example.com>'
p4887
asbasbasbag56
(g72
g58
NtRp4888
(dp4889
g61
(dp4890
sg70
g4862
sg63
(lp4891
g56
(g77
g58
NtRp4892
(dp4893
g61
(dp4894
g81
g82
ssg70
g4888
sg63
(lp4895
S'copyright'
p4896
asbag56
(g77
g58
NtRp4897
(dp4898
g61
(dp4899
g88
g89
ssg70
g4888
sg63
(lp4900
S':'
asbag56
(g77
g58
NtRp4901
(dp4902
g61
(dp4903
sg70
g4888
sg63
(lp4904
g56
(g57
g58
NtRp4905
(dp4906
g61
(dp4907
g69
I4
ssg70
g4901
sg63
(lp4908
S'Copyright 2011'
p4909
asbasbasbag56
(g72
g58
NtRp4910
(dp4911
g61
(dp4912
sg70
g4862
sg63
(lp4913
g56
(g77
g58
NtRp4914
(dp4915
g61
(dp4916
g81
g82
ssg70
g4910
sg63
(lp4917
S'description'
p4918
asbag56
(g77
g58
NtRp4919
(dp4920
g61
(dp4921
g88
g89
ssg70
g4910
sg63
(lp4922
S':'
asbag56
(g77
g58
NtRp4923
(dp4924
g61
(dp4925
sg70
g4910
sg63
(lp4926
g56
(g57
g58
NtRp4927
(dp4928
g61
(dp4929
g69
I4
ssg70
g4923
sg63
(lp4930
S'a cool new app'
p4931
asbasbasbag56
(g72
g58
NtRp4932
(dp4933
g61
(dp4934
sg70
g4862
sg63
(lp4935
g56
(g77
g58
NtRp4936
(dp4937
g61
(dp4938
g81
g82
ssg70
g4932
sg63
(lp4939
S'generator'
p4940
asbag56
(g77
g58
NtRp4941
(dp4942
g61
(dp4943
g88
g89
ssg70
g4932
sg63
(lp4944
S':'
asbag56
(g77
g58
NtRp4945
(dp4946
g61
(dp4947
sg70
g4932
sg63
(lp4948
g56
(g57
g58
NtRp4949
(dp4950
g61
(dp4951
g69
I4
ssg70
g4945
sg63
(lp4952
S'Web2py Web Framework'
p4953
asbasbasbag56
(g72
g58
NtRp4954
(dp4955
g61
(dp4956
sg70
g4862
sg63
(lp4957
g56
(g77
g58
NtRp4958
(dp4959
g61
(dp4960
g81
g82
ssg70
g4954
sg63
(lp4961
S'keywords'
p4962
asbag56
(g77
g58
NtRp4963
(dp4964
g61
(dp4965
g88
g89
ssg70
g4954
sg63
(lp4966
S':'
asbag56
(g77
g58
NtRp4967
(dp4968
g61
(dp4969
sg70
g4954
sg63
(lp4970
g56
(g57
g58
NtRp4971
(dp4972
g61
(dp4973
g69
I4
ssg70
g4967
sg63
(lp4974
S'web2py, python, framework'
p4975
asbasbasbasbasbasbasbag56
(g72
g58
NtRp4976
(dp4977
g61
(dp4978
sg70
g3380
sg63
(lp4979
g56
(g77
g58
NtRp4980
(dp4981
g61
(dp4982
g81
g82
ssg70
g4976
sg63
(lp4983
S'postprocessing'
p4984
asbag56
(g77
g58
NtRp4985
(dp4986
g61
(dp4987
g88
g89
ssg70
g4976
sg63
(lp4988
S':'
asbag56
(g77
g58
NtRp4989
(dp4990
g61
(dp4991
sg70
g4976
sg63
(lp4992
g56
(g57
g58
NtRp4993
(dp4994
g61
(dp4995
g69
I5
ssg70
g4989
sg63
(lp4996
g56
(g65
g58
NtRp4997
(dp4998
g61
(dp4999
g69
I4
ssg70
Nsg63
(lp5000
sbasbasbasbag56
(g72
g58
NtRp5001
(dp5002
g61
(dp5003
sg70
g3380
sg63
(lp5004
g56
(g77
g58
NtRp5005
(dp5006
g61
(dp5007
g81
g82
ssg70
g5001
sg63
(lp5008
S'session_filename'
p5009
asbag56
(g77
g58
NtRp5010
(dp5011
g61
(dp5012
g88
g89
ssg70
g5001
sg63
(lp5013
S':'
asbag56
(g77
g58
NtRp5014
(dp5015
g61
(dp5016
sg70
g5001
sg63
(lp5017
g56
(g57
g58
NtRp5018
(dp5019
g61
(dp5020
g69
I5
ssg70
g5014
sg63
(lp5021
S'/windows/Users/Thomas/Dropbox/appz/2011/GAE/ddl-lagoon/applications/ddlagoon/sessions/127.0.0.1-5b20942c-5449-4d52-9894-52f23bdbc8e6'
p5022
asbasbasbag56
(g72
g58
NtRp5023
(dp5024
g61
(dp5025
sg70
g3380
sg63
(lp5026
g56
(g77
g58
NtRp5027
(dp5028
g61
(dp5029
g81
g82
ssg70
g5023
sg63
(lp5030
S'session_id'
p5031
asbag56
(g77
g58
NtRp5032
(dp5033
g61
(dp5034
g88
g89
ssg70
g5023
sg63
(lp5035
S':'
asbag56
(g77
g58
NtRp5036
(dp5037
g61
(dp5038
sg70
g5023
sg63
(lp5039
g56
(g57
g58
NtRp5040
(dp5041
g61
(dp5042
g69
I5
ssg70
g5036
sg63
(lp5043
S'127.0.0.1-5b20942c-5449-4d52-9894-52f23bdbc8e6'
p5044
asbasbasbag56
(g72
g58
NtRp5045
(dp5046
g61
(dp5047
sg70
g3380
sg63
(lp5048
g56
(g77
g58
NtRp5049
(dp5050
g61
(dp5051
g81
g82
ssg70
g5045
sg63
(lp5052
S'session_id_name'
p5053
asbag56
(g77
g58
NtRp5054
(dp5055
g61
(dp5056
g88
g89
ssg70
g5045
sg63
(lp5057
S':'
asbag56
(g77
g58
NtRp5058
(dp5059
g61
(dp5060
sg70
g5045
sg63
(lp5061
g56
(g57
g58
NtRp5062
(dp5063
g61
(dp5064
g69
I5
ssg70
g5058
sg63
(lp5065
g3437
asbasbasbag56
(g72
g58
NtRp5066
(dp5067
g61
(dp5068
sg70
g3380
sg63
(lp5069
g56
(g77
g58
NtRp5070
(dp5071
g61
(dp5072
g81
g82
ssg70
g5066
sg63
(lp5073
S'session_new'
p5074
asbag56
(g77
g58
NtRp5075
(dp5076
g61
(dp5077
g88
g89
ssg70
g5066
sg63
(lp5078
S':'
asbag56
(g77
g58
NtRp5079
(dp5080
g61
(dp5081
sg70
g5066
sg63
(lp5082
g56
(g57
g58
NtRp5083
(dp5084
g61
(dp5085
g69
I5
ssg70
g5079
sg63
(lp5086
g1772
asbasbasbag56
(g72
g58
NtRp5087
(dp5088
g61
(dp5089
sg70
g3380
sg63
(lp5090
g56
(g77
g58
NtRp5091
(dp5092
g61
(dp5093
g81
g82
ssg70
g5087
sg63
(lp5094
S'status'
p5095
asbag56
(g77
g58
NtRp5096
(dp5097
g61
(dp5098
g88
g89
ssg70
g5087
sg63
(lp5099
S':'
asbag56
(g77
g58
NtRp5100
(dp5101
g61
(dp5102
sg70
g5087
sg63
(lp5103
g56
(g57
g58
NtRp5104
(dp5105
g61
(dp5106
g69
I5
ssg70
g5100
sg63
(lp5107
S'200'
p5108
asbasbasbag56
(g72
g58
NtRp5109
(dp5110
g61
(dp5111
sg70
g3380
sg63
(lp5112
g56
(g77
g58
NtRp5113
(dp5114
g61
(dp5115
g81
g82
ssg70
g5109
sg63
(lp5116
S'subtitle'
p5117
asbag56
(g77
g58
NtRp5118
(dp5119
g61
(dp5120
g88
g89
ssg70
g5109
sg63
(lp5121
S':'
asbag56
(g77
g58
NtRp5122
(dp5123
g61
(dp5124
sg70
g5109
sg63
(lp5125
g56
(g57
g58
NtRp5126
(dp5127
g61
(dp5128
g69
I5
ssg70
g5122
sg63
(lp5129
g3885
(S's\r\x00\x00\x00customize me!'
tRp5130
asbasbasbag56
(g72
g58
NtRp5131
(dp5132
g61
(dp5133
sg70
g3380
sg63
(lp5134
g56
(g77
g58
NtRp5135
(dp5136
g61
(dp5137
g81
g82
ssg70
g5131
sg63
(lp5138
S'title'
p5139
asbag56
(g77
g58
NtRp5140
(dp5141
g61
(dp5142
g88
g89
ssg70
g5131
sg63
(lp5143
S':'
asbag56
(g77
g58
NtRp5144
(dp5145
g61
(dp5146
sg70
g5131
sg63
(lp5147
g56
(g57
g58
NtRp5148
(dp5149
g61
(dp5150
g69
I5
ssg70
g5144
sg63
(lp5151
g121
asbasbasbag56
(g72
g58
NtRp5152
(dp5153
g61
(dp5154
sg70
g3380
sg63
(lp5155
g56
(g77
g58
NtRp5156
(dp5157
g61
(dp5158
g81
g82
ssg70
g5152
sg63
(lp5159
g2438
asbag56
(g77
g58
NtRp5160
(dp5161
g61
(dp5162
g88
g89
ssg70
g5152
sg63
(lp5163
S':'
asbag56
(g77
g58
NtRp5164
(dp5165
g61
(dp5166
sg70
g5152
sg63
(lp5167
g56
(g57
g58
NtRp5168
(dp5169
g61
(dp5170
g69
I5
ssg70
g5164
sg63
(lp5171
g2451
asbasbasbag56
(g72
g58
NtRp5172
(dp5173
g61
(dp5174
sg70
g3380
sg63
(lp5175
g56
(g77
g58
NtRp5176
(dp5177
g61
(dp5178
g81
g82
ssg70
g5172
sg63
(lp5179
S'view'
p5180
asbag56
(g77
g58
NtRp5181
(dp5182
g61
(dp5183
g88
g89
ssg70
g5172
sg63
(lp5184
S':'
asbag56
(g77
g58
NtRp5185
(dp5186
g61
(dp5187
sg70
g5172
sg63
(lp5188
g56
(g57
g58
NtRp5189
(dp5190
g61
(dp5191
g69
I5
ssg70
g5185
sg63
(lp5192
S'ddl/get.html'
p5193
asbasbasbasbasbsS'locals'
p5194
(dp5195
S'self'
p5196
S"<open file '<fdopen>', mode 'w+b'>"
p5197
sS'name'
p5198
S"'args'"
p5199
sg3163
S"<open file '<fdopen>', mode 'w+b'>"
p5200
sssS'traceback'
p5201
S'Traceback (most recent call last):\n  File "/windows/Users/Thomas/Dropbox/appz/2011/GAE/ddl-lagoon/gluon/restricted.py", line 194, in restricted\n    exec ccode in environment\n  File "/windows/Users/Thomas/Dropbox/appz/2011/GAE/ddl-lagoon/applications/ddlagoon/controllers/ddl.py", line 42, in <module>\n  File "/windows/Users/Thomas/Dropbox/appz/2011/GAE/ddl-lagoon/gluon/globals.py", line 149, in <lambda>\n    self._caller = lambda f: f()\n  File "/windows/Users/Thomas/Dropbox/appz/2011/GAE/ddl-lagoon/applications/ddlagoon/controllers/ddl.py", line 14, in get\n    return service()\n  File "/windows/Users/Thomas/Dropbox/appz/2011/GAE/ddl-lagoon/gluon/tools.py", line 3834, in __call__\n    return self.serve_run(request.args[1:])\n  File "/windows/Users/Thomas/Dropbox/appz/2011/GAE/ddl-lagoon/gluon/tools.py", line 3585, in serve_run\n    *args[1:], **dict(request.vars)))\n  File "/windows/Users/Thomas/Dropbox/appz/2011/GAE/ddl-lagoon/gluon/tools.py", line 3351, in universal_caller\n    return f(**arg_dict)\n  File "/windows/Users/Thomas/Dropbox/appz/2011/GAE/ddl-lagoon/applications/ddlagoon/controllers/ddl.py", line 41, in ddl\n    return response.download(ddlFile, ddlFile)\n  File "/windows/Users/Thomas/Dropbox/appz/2011/GAE/ddl-lagoon/gluon/globals.py", line 258, in download\n    if not request.args:\n  File "/usr/lib/python2.6/tempfile.py", line 376, in __getattr__\n    a = getattr(file, name)\nAttributeError: \'file\' object has no attribute \'args\'\n'
p5202
s.