(dp1
S'output'
p2
S''
sS'layer'
p3
S'/windows/Users/Thomas/Dropbox/appz/2011/GAE/ddl-lagoon/applications/ddlagoon/views/default/index.html'
p4
sS'code'
p5
S'left_sidebar_enabled=right_sidebar_enabled=True\nresponse.write(\'\\n\', escape=False)\nresponse.write(\'<!DOCTYPE html>\\n<html lang="\', escape=False)\nresponse.write(T.accepted_language or \'en\')\nresponse.write(\'" class="no-js"><!-- no-js need it for modernzr -->\\n  <head>\\n    \\n    <meta charset="utf-8" />        \\n    <!-- www.phpied.com/conditional-comments-block-downloads/ -->\\n    <!--[if IE]>\\n      <!-- Always force latest IE rendering engine \\n       (even in intranet) & Chrome Frame \\n       Remove this if you use the .htaccess -->\\n      <meta http-equiv="X-UA-Compatible" content="IE=edge,chrome=1">\\n    <![endif]-->    \\n\\n    <title>DDLagoon</title>\\n    \\n    <!-- http://dev.w3.org/html5/markup/meta.name.html -->\\n    <meta name="application-name" content="\', escape=False)\nresponse.write(request.application)\nresponse.write(\'" /> \\n    \\n    <!-- Speaking of Google, don\\\'t forget to set your site up: \\n     http://google.com/webmasters -->\\n    <meta name="google-site-verification" content="" />\\n    \\n    <!--  Mobile Viewport Fix\\n      j.mp/mobileviewport & davidbcalhoun.com/2010/viewport-metatag \\n      device-width: Occupy full width of the screen in its current orientation\\n      initial-scale = 1.0 retains dimensions instead of zooming out if page height > device height\\n      maximum-scale = 1.0 retains dimensions instead of zooming in if page width < device width\\n      -->\\n    <meta name="viewport" content="width=device-width, initial-scale=1.0, maximum-scale=1.0">\\n    \\n    <!-- Place favicon.ico and apple-touch-icon.png in the root of your domain and delete these references -->\\n    <link rel="shortcut icon" href="\', escape=False)\nresponse.write(URL(\'static\',\'favicon.ico\'))\nresponse.write(\'" type="image/x-icon">\\n    <link rel="apple-touch-icon" href="\', escape=False)\nresponse.write(URL(\'static\',\'favicon.png\'))\nresponse.write(\'">\\n\\n    <!-- For the less-enabled mobile browsers like Opera Mini -->\\n    <link rel="stylesheet" media="handheld" href="\', escape=False)\nresponse.write(URL(\'static\',\'css/handheld.css\'))\nresponse.write(\'">\\n    \\n    <!-- All JavaScript at the bottom, except for Modernizr which enables HTML5 elements & feature detects -->\\n    <script src="\', escape=False)\nresponse.write(URL(\'static\',\'js/modernizr-1.7.min.js\'))\nresponse.write(\'"></script>\\n    \\n    \', escape=False)\n#------  require CSS and JS files for this page (read info in base.css) ------\nresponse.write(\'\\n    \', escape=False)\nresponse.files.append(URL(\'static\',\'css/base.css\'))\nresponse.write(\'\\n    \', escape=False)\nresponse.files.append(URL(\'static\',\'css/superfish.css\'))\nresponse.write(\'\\n    \', escape=False)\nresponse.files.append(URL(\'static\',\'js/superfish.js\'))\nresponse.write(\'\\n    \', escape=False)\n#------ include web2py specific js code (jquery, calendar, form stuff) ------\nresponse.write(\'\\n    \', escape=False)\nresponse.files.insert(0,URL(\'static\',\'js/jquery.js\'))\nresponse.files.insert(1,URL(\'static\',\'css/anytime.css\'))\nresponse.files.insert(2,URL(\'static\',\'js/anytime.js\'))\nresponse.include_meta()\nresponse.include_files()\nresponse.write(\'\\n<script type="text/javascript"><!--\\n    // These variables are used by the web2py_ajax_init function in web2py_ajax.js (which is loaded below).\\n    var w2p_ajax_confirm_message = "\', escape=False)\nresponse.write(T(\'Are you sure you want to delete this object?\'))\nresponse.write(\'";\\n    var w2p_ajax_date_format = "\', escape=False)\nresponse.write(T(\'%Y-%m-%d\'))\nresponse.write(\'";\\n    var w2p_ajax_datetime_format = "\', escape=False)\nresponse.write(T(\'%Y-%m-%d %H:%M:%S\'))\nresponse.write(\'";\\n    //--></script>\\n    <script src="\', escape=False)\nresponse.write(URL(\'static\',\'js/web2py_ajax.js\'))\nresponse.write(\'" type="text/javascript"></script>\\n\', escape=False)\nresponse.write(\'\\n\\n    \', escape=False)\n#using sidebars need to know what sidebar you want to use\n#prior of using it, because of static width size of content, you can use\n#left_sidebar, right_sidebar, both or none (False left and right)\nleft_sidebar_enabled = globals().get(\'left_sidebar_enabled\',False)\nright_sidebar_enabled = globals().get(\'right_sidebar_enabled\',False)\nif left_sidebar_enabled and right_sidebar_enabled: width_content=\'63%\'\nelif left_sidebar_enabled != right_sidebar_enabled: width_content=\'740px\'\nelse: width_content=\'100%\'\nif left_sidebar_enabled: left_sidebar_style = \'style="display: block;"\'\nelse: left_sidebar_style = \'style="display: none;"\'\nif right_sidebar_enabled: right_sidebar_style = \'style="display: block;"\'\nelse: right_sidebar_style = \'style="display: none;"\'\nstyle_content = \'style="width: %s"\' % width_content\nresponse.write(\'\\n    \\n    <!-- uncomment here to load jquery-ui -->\\n    \\n    <link rel="stylesheet" href="http://ajax.googleapis.com/ajax/libs/jqueryui/1.8.16/themes/base/jquery-ui.css" type="text/css" media="all" />\\n    <script src="http://ajax.googleapis.com/ajax/libs/jqueryui/1.8.16/jquery-ui.min.js" type="text/javascript"></script>\\n    \\n   <!-- uncomment to load jquery-ui -->\\n    \\n    \\n  </head>\\n  \\n  <!-- paulirish.com/2008/conditional-stylesheets-vs-css-hacks-answer-neither/ -->  \\n  <!--[if lt IE 7 ]> <body class="ie6"> <![endif]-->\\n  <!--[if IE 7 ]>    <body class="ie7"> <![endif]-->\\n  <!--[if IE 8 ]>    <body class="ie8"> <![endif]-->\\n  <!--[if IE 9 ]>    <body class="ie9"> <![endif]-->\\n  <!--[if (gt IE 9)|!(IE)]><!--> <body> <!--<![endif]-->\\n    \\n    <div class="flash">\', escape=False)\nresponse.write(response.flash or \'\')\nresponse.write(\'</div> <!-- notification div -->\\n\\n        \\n\\n    <div id="container">                        \\n      \\n      <div id="wrapper">        \\n      \', escape=False)\ntry:\n    response.write(auth.navbar(action=URL(\'default\',\'user\')))\nexcept:pass\nresponse.write(\'\\n    \\n    <div id="header"> <!-- header and login nav -->\\n      \', escape=False)\nresponse.write(\' <!-- this is default header -->\\n      \\n      <h1>\\n        DDLagoon <span id="appname"> The lagoon of DDL</span>\\n      </h1>\\n      <div style="clear: both;"></div><!-- Clear the divs -->\\n      \', escape=False)\nresponse.write(\'\\n    </div><!-- header  -->\\n    \\n\\n    \\n    <div id="page"> <!-- Here my central body -->     \\n\\n      \', escape=False)\nif left_sidebar_enabled:\n    response.write(\'\\n          <div id="left_sidebar" \', escape=False)\n    response.write(XML(left_sidebar_style))\n    response.write(\' >\\n            <div style="padding: 4px;">\\n          \', escape=False)\n    response.write(\'Link 1<br />Link 2\', escape=False)\n    response.write(\'       \\n            </div>\\n          </div><!-- left_sidebar -->\\n      \', escape=False)\n    pass\nresponse.write(\'\\n\\n      <!-- content -->\\n      <div id="content" \', escape=False)\nresponse.write(XML(style_content))\nresponse.write(\' >\\n        \', escape=False)\nresponse.write(\'\\n\\n\', escape=False)\nif \'ddlz\' in globals():\n    response.write(\'\\n    <table>\\n        <thead><td>Filename</td><td>size</td><td>date</td><td>Uploader</td></thead>\\n    \', escape=False)\n    for ddl in ddlz:\n        response.write(\'\\n        <tr><td><a href="/ddlagoon/ddl/get/run/ddl/\', escape=False)\n        response.write(ddl.id)\n        response.write(\'/\', escape=False)\n        response.write(ddl.filename_url)\n        response.write(\'">\', escape=False)\n        response.write(ddl.filename)\n        response.write(\'</a></td><td>\', escape=False)\n        response.write(ddl.size_readable)\n        response.write(\'</td><td>\', escape=False)\n        response.write(ddl.date_added.split(" ")[0])\n        response.write(\'</td><td>\', escape=False)\n        response.write(ddl.uploader.nickname)\n        response.write(\'</td></tr>\\n    \', escape=False)\n        pass\n    response.write(\'\\n    </table>\\n\', escape=False)\nelse:\n    response.write(\'\\n    No DDL, snif!\\n\', escape=False)\n    pass\nresponse.write(\'\\n\\n\', escape=False)\nresponse.write(\'\\n\', escape=False)\nresponse.write(\'\\n\', escape=False)\nresponse.write(\' \\n      </div>\\n      <!-- content -->\\n\\n      \', escape=False)\nif right_sidebar_enabled:\n    response.write(\'\\n          <div id="right_sidebar" \', escape=False)\n    response.write(XML(right_sidebar_style))\n    response.write(\' >\\n            <div style="padding: 4px;">\\n              \', escape=False)\n    response.write(\'\\n            </div>\\n      </div><!-- right_sidebar -->\\n          \', escape=False)\n    pass\nresponse.write(\'\\n\\n\\n      <div style="clear: both;"></div><!-- Clear the divs -->\\n      \\n    </div><!-- page -->                         \\n    \\n    <div id="footer">\\n      \', escape=False)\nresponse.write(\' <!-- this is default footer -->\\n      <span style="float: left; padding-right: 6px;">\\n        DDLagoon\\n      </span>\\n\\n        <span style="float: right; padding-right: 6px;">\', escape=False)\nresponse.write(T(\'Copyright\'))\nresponse.write(\' &#169; 2011</span>\\n      <div style="clear: both;"></div><!-- Clear the divs -->\\n      \', escape=False)\nresponse.write(\'\\n\\n    </div><!-- footer -->           \\n      </div><!-- wrapper -->\\n    </div><!-- container -->        \\n    \\n    <!--[if lt IE 7 ]>\\n    <script src="\', escape=False)\nresponse.write(URL(\'static\',\'js/dd_belatedpng.js\'))\nresponse.write(\'"></script>\\n    <script> DD_belatedPNG.fix(\\\'img, .png_bg\\\'); //fix any <img> or .png_bg background-images </script>\\n    <![endif]-->\\n    \', escape=False)\nif response.google_analytics_id:\n    response.write("<script>/* http://mathiasbynens.be/notes/async-analytics-snippet */ var _gaq=[[\'_setAccount\',\'", escape=False)\n    response.write(response.google_analyitics_id)\n    response.write("\'],[\'_trackPageview\']];(function(d,t){var g=d.createElement(t),s=d.getElementsByTagName(t)[0];g.src=\'//www.google-analytics.com/ga.js\';s.parentNode.insertBefore(g,s)}(document,\'script\')) </script>", escape=False)\n    pass\nresponse.write(\'\\n  </body>\\n</html>\\n\', escape=False)'
p6
sS'snapshot'
p7
(dp8
S'exception'
p9
(dp10
S'__hash__'
p11
S"<method-wrapper '__hash__' of exceptions.AttributeError object>"
p12
sS'__setattr__'
p13
S"<method-wrapper '__setattr__' of exceptions.AttributeError object>"
p14
sS'__reduce_ex__'
p15
S'<built-in method __reduce_ex__ of exceptions.AttributeError object>'
p16
sS'__getslice__'
p17
S"<method-wrapper '__getslice__' of exceptions.AttributeError object>"
p18
sS'__getitem__'
p19
S"<method-wrapper '__getitem__' of exceptions.AttributeError object>"
p20
sS'__setstate__'
p21
S'<built-in method __setstate__ of exceptions.AttributeError object>'
p22
sS'args'
p23
S'("\'datetime.datetime\' object has no attribute \'split\'",)'
p24
sS'__reduce__'
p25
S'<built-in method __reduce__ of exceptions.AttributeError object>'
p26
sS'__str__'
p27
S"<method-wrapper '__str__' of exceptions.AttributeError object>"
p28
sS'__format__'
p29
S'<built-in method __format__ of exceptions.AttributeError object>'
p30
sS'__getattribute__'
p31
S"<method-wrapper '__getattribute__' of exceptions.AttributeError object>"
p32
sS'__class__'
p33
S"<type 'exceptions.AttributeError'>"
p34
sS'__unicode__'
p35
S'<built-in method __unicode__ of exceptions.AttributeError object>'
p36
sS'__delattr__'
p37
S"<method-wrapper '__delattr__' of exceptions.AttributeError object>"
p38
sS'__subclasshook__'
p39
S'<built-in method __subclasshook__ of type object>'
p40
sS'__repr__'
p41
S"<method-wrapper '__repr__' of exceptions.AttributeError object>"
p42
sS'__dict__'
p43
S'{}'
p44
sS'__sizeof__'
p45
S'<built-in method __sizeof__ of exceptions.AttributeError object>'
p46
sS'__doc__'
p47
S"'Attribute not found.'"
p48
sS'__init__'
p49
S"<method-wrapper '__init__' of exceptions.AttributeError object>"
p50
sS'__new__'
p51
S'<built-in method __new__ of type object>'
p52
ssS'evalue'
p53
S"'datetime.datetime' object has no attribute 'split'"
p54
sS'request'
p55
ccopy_reg
_reconstructor
p56
(cgluon.html
BEAUTIFY
p57
c__builtin__
object
p58
NtRp59
(dp60
S'attributes'
p61
(dp62
sS'components'
p63
(lp64
g56
(cgluon.html
TABLE
p65
g58
NtRp66
(dp67
g61
(dp68
S'level'
p69
I5
ssS'parent'
p70
Nsg63
(lp71
g56
(cgluon.html
TR
p72
g58
NtRp73
(dp74
g61
(dp75
sg70
g66
sg63
(lp76
g56
(cgluon.html
TD
p77
g58
NtRp78
(dp79
g61
(dp80
S'_style'
p81
S'font-weight:bold;'
p82
ssg70
g73
sg63
(lp83
S'ajax'
p84
asbag56
(g77
g58
NtRp85
(dp86
g61
(dp87
S'_valign'
p88
S'top'
p89
ssg70
g73
sg63
(lp90
S':'
asbag56
(g77
g58
NtRp91
(dp92
g61
(dp93
sg70
g73
sg63
(lp94
g56
(g57
g58
NtRp95
(dp96
g61
(dp97
g69
I5
ssg70
g91
sg63
(lp98
S'False'
p99
asbasbasbag56
(g72
g58
NtRp100
(dp101
g61
(dp102
sg70
g66
sg63
(lp103
g56
(g77
g58
NtRp104
(dp105
g61
(dp106
g81
g82
ssg70
g100
sg63
(lp107
S'application'
p108
asbag56
(g77
g58
NtRp109
(dp110
g61
(dp111
g88
g89
ssg70
g100
sg63
(lp112
S':'
asbag56
(g77
g58
NtRp113
(dp114
g61
(dp115
sg70
g100
sg63
(lp116
g56
(g57
g58
NtRp117
(dp118
g61
(dp119
g69
I5
ssg70
g113
sg63
(lp120
S'ddlagoon'
p121
asbasbasbag56
(g72
g58
NtRp122
(dp123
g61
(dp124
sg70
g66
sg63
(lp125
g56
(g77
g58
NtRp126
(dp127
g61
(dp128
g81
g82
ssg70
g122
sg63
(lp129
g23
asbag56
(g77
g58
NtRp130
(dp131
g61
(dp132
g88
g89
ssg70
g122
sg63
(lp133
S':'
asbag56
(g77
g58
NtRp134
(dp135
g61
(dp136
sg70
g122
sg63
(lp137
g56
(g57
g58
NtRp138
(dp139
g61
(dp140
g69
I5
ssg70
g134
sg63
(lp141
g56
(g65
g58
NtRp142
(dp143
g61
(dp144
g69
I4
ssg70
Nsg63
(lp145
sbasbasbasbag56
(g72
g58
NtRp146
(dp147
g61
(dp148
sg70
g66
sg63
(lp149
g56
(g77
g58
NtRp150
(dp151
g61
(dp152
g81
g82
ssg70
g146
sg63
(lp153
S'body'
p154
asbag56
(g77
g58
NtRp155
(dp156
g61
(dp157
g88
g89
ssg70
g146
sg63
(lp158
S':'
asbag56
(g77
g58
NtRp159
(dp160
g61
(dp161
sg70
g146
sg63
(lp162
g56
(g57
g58
NtRp163
(dp164
g61
(dp165
g69
I5
ssg70
g159
sg63
(lp166
S'<cStringIO.StringO object at 0x274b0a0>'
p167
asbasbasbag56
(g72
g58
NtRp168
(dp169
g61
(dp170
sg70
g66
sg63
(lp171
g56
(g77
g58
NtRp172
(dp173
g61
(dp174
g81
g82
ssg70
g168
sg63
(lp175
S'client'
p176
asbag56
(g77
g58
NtRp177
(dp178
g61
(dp179
g88
g89
ssg70
g168
sg63
(lp180
S':'
asbag56
(g77
g58
NtRp181
(dp182
g61
(dp183
sg70
g168
sg63
(lp184
g56
(g57
g58
NtRp185
(dp186
g61
(dp187
g69
I5
ssg70
g181
sg63
(lp188
S'127.0.0.1'
p189
asbasbasbag56
(g72
g58
NtRp190
(dp191
g61
(dp192
sg70
g66
sg63
(lp193
g56
(g77
g58
NtRp194
(dp195
g61
(dp196
g81
g82
ssg70
g190
sg63
(lp197
S'controller'
p198
asbag56
(g77
g58
NtRp199
(dp200
g61
(dp201
g88
g89
ssg70
g190
sg63
(lp202
S':'
asbag56
(g77
g58
NtRp203
(dp204
g61
(dp205
sg70
g190
sg63
(lp206
g56
(g57
g58
NtRp207
(dp208
g61
(dp209
g69
I5
ssg70
g203
sg63
(lp210
S'default'
p211
asbasbasbag56
(g72
g58
NtRp212
(dp213
g61
(dp214
sg70
g66
sg63
(lp215
g56
(g77
g58
NtRp216
(dp217
g61
(dp218
g81
g82
ssg70
g212
sg63
(lp219
S'cookies'
p220
asbag56
(g77
g58
NtRp221
(dp222
g61
(dp223
g88
g89
ssg70
g212
sg63
(lp224
S':'
asbag56
(g77
g58
NtRp225
(dp226
g61
(dp227
sg70
g212
sg63
(lp228
g56
(g57
g58
NtRp229
(dp230
g61
(dp231
g69
I5
ssg70
g225
sg63
(lp232
g56
(g65
g58
NtRp233
(dp234
g61
(dp235
g69
I4
ssg70
Nsg63
(lp236
g56
(g72
g58
NtRp237
(dp238
g61
(dp239
sg70
g233
sg63
(lp240
g56
(g77
g58
NtRp241
(dp242
g61
(dp243
g81
g82
ssg70
g237
sg63
(lp244
S'session_id_welcome'
p245
asbag56
(g77
g58
NtRp246
(dp247
g61
(dp248
g88
g89
ssg70
g237
sg63
(lp249
S':'
asbag56
(g77
g58
NtRp250
(dp251
g61
(dp252
sg70
g237
sg63
(lp253
g56
(g57
g58
NtRp254
(dp255
g61
(dp256
g69
I4
ssg70
g250
sg63
(lp257
g56
(g65
g58
NtRp258
(dp259
g61
(dp260
g69
I3
ssg70
Nsg63
(lp261
g56
(g72
g58
NtRp262
(dp263
g61
(dp264
sg70
g258
sg63
(lp265
g56
(g77
g58
NtRp266
(dp267
g61
(dp268
g81
g82
ssg70
g262
sg63
(lp269
S'comment'
p270
asbag56
(g77
g58
NtRp271
(dp272
g61
(dp273
g88
g89
ssg70
g262
sg63
(lp274
S':'
asbag56
(g77
g58
NtRp275
(dp276
g61
(dp277
sg70
g262
sg63
(lp278
g56
(g57
g58
NtRp279
(dp280
g61
(dp281
g69
I3
ssg70
g275
sg63
(lp282
S''
asbasbasbag56
(g72
g58
NtRp283
(dp284
g61
(dp285
sg70
g258
sg63
(lp286
g56
(g77
g58
NtRp287
(dp288
g61
(dp289
g81
g82
ssg70
g283
sg63
(lp290
S'domain'
p291
asbag56
(g77
g58
NtRp292
(dp293
g61
(dp294
g88
g89
ssg70
g283
sg63
(lp295
S':'
asbag56
(g77
g58
NtRp296
(dp297
g61
(dp298
sg70
g283
sg63
(lp299
g56
(g57
g58
NtRp300
(dp301
g61
(dp302
g69
I3
ssg70
g296
sg63
(lp303
S''
asbasbasbag56
(g72
g58
NtRp304
(dp305
g61
(dp306
sg70
g258
sg63
(lp307
g56
(g77
g58
NtRp308
(dp309
g61
(dp310
g81
g82
ssg70
g304
sg63
(lp311
S'expires'
p312
asbag56
(g77
g58
NtRp313
(dp314
g61
(dp315
g88
g89
ssg70
g304
sg63
(lp316
S':'
asbag56
(g77
g58
NtRp317
(dp318
g61
(dp319
sg70
g304
sg63
(lp320
g56
(g57
g58
NtRp321
(dp322
g61
(dp323
g69
I3
ssg70
g317
sg63
(lp324
S''
asbasbasbag56
(g72
g58
NtRp325
(dp326
g61
(dp327
sg70
g258
sg63
(lp328
g56
(g77
g58
NtRp329
(dp330
g61
(dp331
g81
g82
ssg70
g325
sg63
(lp332
S'httponly'
p333
asbag56
(g77
g58
NtRp334
(dp335
g61
(dp336
g88
g89
ssg70
g325
sg63
(lp337
S':'
asbag56
(g77
g58
NtRp338
(dp339
g61
(dp340
sg70
g325
sg63
(lp341
g56
(g57
g58
NtRp342
(dp343
g61
(dp344
g69
I3
ssg70
g338
sg63
(lp345
S''
asbasbasbag56
(g72
g58
NtRp346
(dp347
g61
(dp348
sg70
g258
sg63
(lp349
g56
(g77
g58
NtRp350
(dp351
g61
(dp352
g81
g82
ssg70
g346
sg63
(lp353
S'max-age'
p354
asbag56
(g77
g58
NtRp355
(dp356
g61
(dp357
g88
g89
ssg70
g346
sg63
(lp358
S':'
asbag56
(g77
g58
NtRp359
(dp360
g61
(dp361
sg70
g346
sg63
(lp362
g56
(g57
g58
NtRp363
(dp364
g61
(dp365
g69
I3
ssg70
g359
sg63
(lp366
S''
asbasbasbag56
(g72
g58
NtRp367
(dp368
g61
(dp369
sg70
g258
sg63
(lp370
g56
(g77
g58
NtRp371
(dp372
g61
(dp373
g81
g82
ssg70
g367
sg63
(lp374
S'path'
p375
asbag56
(g77
g58
NtRp376
(dp377
g61
(dp378
g88
g89
ssg70
g367
sg63
(lp379
S':'
asbag56
(g77
g58
NtRp380
(dp381
g61
(dp382
sg70
g367
sg63
(lp383
g56
(g57
g58
NtRp384
(dp385
g61
(dp386
g69
I3
ssg70
g380
sg63
(lp387
S''
asbasbasbag56
(g72
g58
NtRp388
(dp389
g61
(dp390
sg70
g258
sg63
(lp391
g56
(g77
g58
NtRp392
(dp393
g61
(dp394
g81
g82
ssg70
g388
sg63
(lp395
S'secure'
p396
asbag56
(g77
g58
NtRp397
(dp398
g61
(dp399
g88
g89
ssg70
g388
sg63
(lp400
S':'
asbag56
(g77
g58
NtRp401
(dp402
g61
(dp403
sg70
g388
sg63
(lp404
g56
(g57
g58
NtRp405
(dp406
g61
(dp407
g69
I3
ssg70
g401
sg63
(lp408
S''
asbasbasbag56
(g72
g58
NtRp409
(dp410
g61
(dp411
sg70
g258
sg63
(lp412
g56
(g77
g58
NtRp413
(dp414
g61
(dp415
g81
g82
ssg70
g409
sg63
(lp416
S'version'
p417
asbag56
(g77
g58
NtRp418
(dp419
g61
(dp420
g88
g89
ssg70
g409
sg63
(lp421
S':'
asbag56
(g77
g58
NtRp422
(dp423
g61
(dp424
sg70
g409
sg63
(lp425
g56
(g57
g58
NtRp426
(dp427
g61
(dp428
g69
I3
ssg70
g422
sg63
(lp429
S''
asbasbasbasbasbasbasbasbasbasbasbag56
(g72
g58
NtRp430
(dp431
g61
(dp432
sg70
g66
sg63
(lp433
g56
(g77
g58
NtRp434
(dp435
g61
(dp436
g81
g82
ssg70
g430
sg63
(lp437
S'env'
p438
asbag56
(g77
g58
NtRp439
(dp440
g61
(dp441
g88
g89
ssg70
g430
sg63
(lp442
S':'
asbag56
(g77
g58
NtRp443
(dp444
g61
(dp445
sg70
g430
sg63
(lp446
g56
(g57
g58
NtRp447
(dp448
g61
(dp449
g69
I5
ssg70
g443
sg63
(lp450
g56
(g65
g58
NtRp451
(dp452
g61
(dp453
g69
I4
ssg70
Nsg63
(lp454
g56
(g72
g58
NtRp455
(dp456
g61
(dp457
sg70
g451
sg63
(lp458
g56
(g77
g58
NtRp459
(dp460
g61
(dp461
g81
g82
ssg70
g455
sg63
(lp462
S'app_folders'
p463
asbag56
(g77
g58
NtRp464
(dp465
g61
(dp466
g88
g89
ssg70
g455
sg63
(lp467
S':'
asbag56
(g77
g58
NtRp468
(dp469
g61
(dp470
sg70
g455
sg63
(lp471
g56
(g57
g58
NtRp472
(dp473
g61
(dp474
g69
I4
ssg70
g468
sg63
(lp475
S"set(['/windows/Users/Thomas/Dropbox/appz/2011/GAE/ddl-lagoon/applications/ddlagoon/', '/windows/Users/Thomas/Dropbox/appz/2011/GAE/ddl-lagoon/applications/welcome/'])"
p476
asbasbasbag56
(g72
g58
NtRp477
(dp478
g61
(dp479
sg70
g451
sg63
(lp480
g56
(g77
g58
NtRp481
(dp482
g61
(dp483
g81
g82
ssg70
g477
sg63
(lp484
S'applications_parent'
p485
asbag56
(g77
g58
NtRp486
(dp487
g61
(dp488
g88
g89
ssg70
g477
sg63
(lp489
S':'
asbag56
(g77
g58
NtRp490
(dp491
g61
(dp492
sg70
g477
sg63
(lp493
g56
(g57
g58
NtRp494
(dp495
g61
(dp496
g69
I4
ssg70
g490
sg63
(lp497
S'/windows/Users/Thomas/Dropbox/appz/2011/GAE/ddl-lagoon'
p498
asbasbasbag56
(g72
g58
NtRp499
(dp500
g61
(dp501
sg70
g451
sg63
(lp502
g56
(g77
g58
NtRp503
(dp504
g61
(dp505
g81
g82
ssg70
g499
sg63
(lp506
S'cmd_args'
p507
asbag56
(g77
g58
NtRp508
(dp509
g61
(dp510
g88
g89
ssg70
g499
sg63
(lp511
S':'
asbag56
(g77
g58
NtRp512
(dp513
g61
(dp514
sg70
g499
sg63
(lp515
g56
(g57
g58
NtRp516
(dp517
g61
(dp518
g69
I4
ssg70
g512
sg63
(lp519
g56
(g65
g58
NtRp520
(dp521
g61
(dp522
g69
I3
ssg70
Nsg63
(lp523
sbasbasbasbag56
(g72
g58
NtRp524
(dp525
g61
(dp526
sg70
g451
sg63
(lp527
g56
(g77
g58
NtRp528
(dp529
g61
(dp530
g81
g82
ssg70
g524
sg63
(lp531
S'cmd_options'
p532
asbag56
(g77
g58
NtRp533
(dp534
g61
(dp535
g88
g89
ssg70
g524
sg63
(lp536
S':'
asbag56
(g77
g58
NtRp537
(dp538
g61
(dp539
sg70
g524
sg63
(lp540
g56
(g57
g58
NtRp541
(dp542
g61
(dp543
g69
I4
ssg70
g537
sg63
(lp544
S"<Values at 0x2569cf8: {'verbose': False, 'ip': '127.0.0.1', 'shutdown_timeout': 5, 'taskbar': False, 'nocron': False, 'pid_filename': 'httpserver.pid', 'maxthreads': None, 'softcron': False, 'server_name': 'VPCF22AJ', 'bpython': False, 'nogui': False, 'port': 8000, 'extcron': False, 'debuglevel': 30, 'test': None, 'folder': '/windows/Users/Thomas/Dropbox/appz/2011/GAE/ddl-lagoon', 'config': '', 'import_models': False, 'winservice': '', 'shell': None, 'run': '', 'log_filename': 'httpserver.log', 'args': [''], 'ssl_ca_certificate': None, 'scheduler': None, 'profiler_filename': None, 'ssl_private_key': '', 'password': 'admin', 'request_queue_size': 5, 'ssl_certificate': '', 'cronjob': False, 'plain': False, 'quiet': False, 'interfaces': None, 'minthreads': None, 'timeout': 10, 'numthreads': None, 'nobanner': False}>"
p545
asbasbasbag56
(g72
g58
NtRp546
(dp547
g61
(dp548
sg70
g451
sg63
(lp549
g56
(g77
g58
NtRp550
(dp551
g61
(dp552
g81
g82
ssg70
g546
sg63
(lp553
S'db_sessions'
p554
asbag56
(g77
g58
NtRp555
(dp556
g61
(dp557
g88
g89
ssg70
g546
sg63
(lp558
S':'
asbag56
(g77
g58
NtRp559
(dp560
g61
(dp561
sg70
g546
sg63
(lp562
g56
(g57
g58
NtRp563
(dp564
g61
(dp565
g69
I4
ssg70
g559
sg63
(lp566
S'set([])'
p567
asbasbasbag56
(g72
g58
NtRp568
(dp569
g61
(dp570
sg70
g451
sg63
(lp571
g56
(g77
g58
NtRp572
(dp573
g61
(dp574
g81
g82
ssg70
g568
sg63
(lp575
S'debugging'
p576
asbag56
(g77
g58
NtRp577
(dp578
g61
(dp579
g88
g89
ssg70
g568
sg63
(lp580
S':'
asbag56
(g77
g58
NtRp581
(dp582
g61
(dp583
sg70
g568
sg63
(lp584
g56
(g57
g58
NtRp585
(dp586
g61
(dp587
g69
I4
ssg70
g581
sg63
(lp588
g99
asbasbasbag56
(g72
g58
NtRp589
(dp590
g61
(dp591
sg70
g451
sg63
(lp592
g56
(g77
g58
NtRp593
(dp594
g61
(dp595
g81
g82
ssg70
g589
sg63
(lp596
S'gluon_parent'
p597
asbag56
(g77
g58
NtRp598
(dp599
g61
(dp600
g88
g89
ssg70
g589
sg63
(lp601
S':'
asbag56
(g77
g58
NtRp602
(dp603
g61
(dp604
sg70
g589
sg63
(lp605
g56
(g57
g58
NtRp606
(dp607
g61
(dp608
g69
I4
ssg70
g602
sg63
(lp609
S'/windows/Users/Thomas/Dropbox/appz/2011/GAE/ddl-lagoon'
p610
asbasbasbag56
(g72
g58
NtRp611
(dp612
g61
(dp613
sg70
g451
sg63
(lp614
g56
(g77
g58
NtRp615
(dp616
g61
(dp617
g81
g82
ssg70
g611
sg63
(lp618
S'http_accept'
p619
asbag56
(g77
g58
NtRp620
(dp621
g61
(dp622
g88
g89
ssg70
g611
sg63
(lp623
S':'
asbag56
(g77
g58
NtRp624
(dp625
g61
(dp626
sg70
g611
sg63
(lp627
g56
(g57
g58
NtRp628
(dp629
g61
(dp630
g69
I4
ssg70
g624
sg63
(lp631
S'text/html,application/xhtml+xml,application/xml;q=0.9,*/*;q=0.8'
p632
asbasbasbag56
(g72
g58
NtRp633
(dp634
g61
(dp635
sg70
g451
sg63
(lp636
g56
(g77
g58
NtRp637
(dp638
g61
(dp639
g81
g82
ssg70
g633
sg63
(lp640
S'http_accept_charset'
p641
asbag56
(g77
g58
NtRp642
(dp643
g61
(dp644
g88
g89
ssg70
g633
sg63
(lp645
S':'
asbag56
(g77
g58
NtRp646
(dp647
g61
(dp648
sg70
g633
sg63
(lp649
g56
(g57
g58
NtRp650
(dp651
g61
(dp652
g69
I4
ssg70
g646
sg63
(lp653
S'ISO-8859-1,utf-8;q=0.7,*;q=0.3'
p654
asbasbasbag56
(g72
g58
NtRp655
(dp656
g61
(dp657
sg70
g451
sg63
(lp658
g56
(g77
g58
NtRp659
(dp660
g61
(dp661
g81
g82
ssg70
g655
sg63
(lp662
S'http_accept_encoding'
p663
asbag56
(g77
g58
NtRp664
(dp665
g61
(dp666
g88
g89
ssg70
g655
sg63
(lp667
S':'
asbag56
(g77
g58
NtRp668
(dp669
g61
(dp670
sg70
g655
sg63
(lp671
g56
(g57
g58
NtRp672
(dp673
g61
(dp674
g69
I4
ssg70
g668
sg63
(lp675
S'gzip,deflate,sdch'
p676
asbasbasbag56
(g72
g58
NtRp677
(dp678
g61
(dp679
sg70
g451
sg63
(lp680
g56
(g77
g58
NtRp681
(dp682
g61
(dp683
g81
g82
ssg70
g677
sg63
(lp684
S'http_accept_language'
p685
asbag56
(g77
g58
NtRp686
(dp687
g61
(dp688
g88
g89
ssg70
g677
sg63
(lp689
S':'
asbag56
(g77
g58
NtRp690
(dp691
g61
(dp692
sg70
g677
sg63
(lp693
g56
(g57
g58
NtRp694
(dp695
g61
(dp696
g69
I4
ssg70
g690
sg63
(lp697
S'en-US,en;q=0.8,fr;q=0.6'
p698
asbasbasbag56
(g72
g58
NtRp699
(dp700
g61
(dp701
sg70
g451
sg63
(lp702
g56
(g77
g58
NtRp703
(dp704
g61
(dp705
g81
g82
ssg70
g699
sg63
(lp706
S'http_connection'
p707
asbag56
(g77
g58
NtRp708
(dp709
g61
(dp710
g88
g89
ssg70
g699
sg63
(lp711
S':'
asbag56
(g77
g58
NtRp712
(dp713
g61
(dp714
sg70
g699
sg63
(lp715
g56
(g57
g58
NtRp716
(dp717
g61
(dp718
g69
I4
ssg70
g712
sg63
(lp719
S'keep-alive'
p720
asbasbasbag56
(g72
g58
NtRp721
(dp722
g61
(dp723
sg70
g451
sg63
(lp724
g56
(g77
g58
NtRp725
(dp726
g61
(dp727
g81
g82
ssg70
g721
sg63
(lp728
S'http_cookie'
p729
asbag56
(g77
g58
NtRp730
(dp731
g61
(dp732
g88
g89
ssg70
g721
sg63
(lp733
S':'
asbag56
(g77
g58
NtRp734
(dp735
g61
(dp736
sg70
g721
sg63
(lp737
g56
(g57
g58
NtRp738
(dp739
g61
(dp740
g69
I4
ssg70
g734
sg63
(lp741
S'__utma_a2a=5510587673.1349489975.1317933049.1319659660.1319659660.47; session_id_welcome=127.0.0.1-f7fb4a09-ce09-4815-abcc-fca1d9093faf'
p742
asbasbasbag56
(g72
g58
NtRp743
(dp744
g61
(dp745
sg70
g451
sg63
(lp746
g56
(g77
g58
NtRp747
(dp748
g61
(dp749
g81
g82
ssg70
g743
sg63
(lp750
S'http_host'
p751
asbag56
(g77
g58
NtRp752
(dp753
g61
(dp754
g88
g89
ssg70
g743
sg63
(lp755
S':'
asbag56
(g77
g58
NtRp756
(dp757
g61
(dp758
sg70
g743
sg63
(lp759
g56
(g57
g58
NtRp760
(dp761
g61
(dp762
g69
I4
ssg70
g756
sg63
(lp763
S'127.0.0.1:8000'
p764
asbasbasbag56
(g72
g58
NtRp765
(dp766
g61
(dp767
sg70
g451
sg63
(lp768
g56
(g77
g58
NtRp769
(dp770
g61
(dp771
g81
g82
ssg70
g765
sg63
(lp772
S'http_user_agent'
p773
asbag56
(g77
g58
NtRp774
(dp775
g61
(dp776
g88
g89
ssg70
g765
sg63
(lp777
S':'
asbag56
(g77
g58
NtRp778
(dp779
g61
(dp780
sg70
g765
sg63
(lp781
g56
(g57
g58
NtRp782
(dp783
g61
(dp784
g69
I4
ssg70
g778
sg63
(lp785
S'Mozilla/5.0 (X11; Linux x86_64) AppleWebKit/535.2 (KHTML, like Gecko) Chrome/15.0.874.106 Safari/535.2'
p786
asbasbasbag56
(g72
g58
NtRp787
(dp788
g61
(dp789
sg70
g451
sg63
(lp790
g56
(g77
g58
NtRp791
(dp792
g61
(dp793
g81
g82
ssg70
g787
sg63
(lp794
S'is_jython'
p795
asbag56
(g77
g58
NtRp796
(dp797
g61
(dp798
g88
g89
ssg70
g787
sg63
(lp799
S':'
asbag56
(g77
g58
NtRp800
(dp801
g61
(dp802
sg70
g787
sg63
(lp803
g56
(g57
g58
NtRp804
(dp805
g61
(dp806
g69
I4
ssg70
g800
sg63
(lp807
g99
asbasbasbag56
(g72
g58
NtRp808
(dp809
g61
(dp810
sg70
g451
sg63
(lp811
g56
(g77
g58
NtRp812
(dp813
g61
(dp814
g81
g82
ssg70
g808
sg63
(lp815
S'path_info'
p816
asbag56
(g77
g58
NtRp817
(dp818
g61
(dp819
g88
g89
ssg70
g808
sg63
(lp820
S':'
asbag56
(g77
g58
NtRp821
(dp822
g61
(dp823
sg70
g808
sg63
(lp824
g56
(g57
g58
NtRp825
(dp826
g61
(dp827
g69
I4
ssg70
g821
sg63
(lp828
S'/ddlagoon/default'
p829
asbasbasbag56
(g72
g58
NtRp830
(dp831
g61
(dp832
sg70
g451
sg63
(lp833
g56
(g77
g58
NtRp834
(dp835
g61
(dp836
g81
g82
ssg70
g830
sg63
(lp837
S'query_string'
p838
asbag56
(g77
g58
NtRp839
(dp840
g61
(dp841
g88
g89
ssg70
g830
sg63
(lp842
S':'
asbag56
(g77
g58
NtRp843
(dp844
g61
(dp845
sg70
g830
sg63
(lp846
g56
(g57
g58
NtRp847
(dp848
g61
(dp849
g69
I4
ssg70
g843
sg63
(lp850
S''
asbasbasbag56
(g72
g58
NtRp851
(dp852
g61
(dp853
sg70
g451
sg63
(lp854
g56
(g77
g58
NtRp855
(dp856
g61
(dp857
g81
g82
ssg70
g851
sg63
(lp858
S'remote_addr'
p859
asbag56
(g77
g58
NtRp860
(dp861
g61
(dp862
g88
g89
ssg70
g851
sg63
(lp863
S':'
asbag56
(g77
g58
NtRp864
(dp865
g61
(dp866
sg70
g851
sg63
(lp867
g56
(g57
g58
NtRp868
(dp869
g61
(dp870
g69
I4
ssg70
g864
sg63
(lp871
g189
asbasbasbag56
(g72
g58
NtRp872
(dp873
g61
(dp874
sg70
g451
sg63
(lp875
g56
(g77
g58
NtRp876
(dp877
g61
(dp878
g81
g82
ssg70
g872
sg63
(lp879
S'remote_port'
p880
asbag56
(g77
g58
NtRp881
(dp882
g61
(dp883
g88
g89
ssg70
g872
sg63
(lp884
S':'
asbag56
(g77
g58
NtRp885
(dp886
g61
(dp887
sg70
g872
sg63
(lp888
g56
(g57
g58
NtRp889
(dp890
g61
(dp891
g69
I4
ssg70
g885
sg63
(lp892
S'44437'
p893
asbasbasbag56
(g72
g58
NtRp894
(dp895
g61
(dp896
sg70
g451
sg63
(lp897
g56
(g77
g58
NtRp898
(dp899
g61
(dp900
g81
g82
ssg70
g894
sg63
(lp901
S'request_method'
p902
asbag56
(g77
g58
NtRp903
(dp904
g61
(dp905
g88
g89
ssg70
g894
sg63
(lp906
S':'
asbag56
(g77
g58
NtRp907
(dp908
g61
(dp909
sg70
g894
sg63
(lp910
g56
(g57
g58
NtRp911
(dp912
g61
(dp913
g69
I4
ssg70
g907
sg63
(lp914
S'GET'
p915
asbasbasbag56
(g72
g58
NtRp916
(dp917
g61
(dp918
sg70
g451
sg63
(lp919
g56
(g77
g58
NtRp920
(dp921
g61
(dp922
g81
g82
ssg70
g916
sg63
(lp923
S'request_uri'
p924
asbag56
(g77
g58
NtRp925
(dp926
g61
(dp927
g88
g89
ssg70
g916
sg63
(lp928
S':'
asbag56
(g77
g58
NtRp929
(dp930
g61
(dp931
sg70
g916
sg63
(lp932
g56
(g57
g58
NtRp933
(dp934
g61
(dp935
g69
I4
ssg70
g929
sg63
(lp936
g829
asbasbasbag56
(g72
g58
NtRp937
(dp938
g61
(dp939
sg70
g451
sg63
(lp940
g56
(g77
g58
NtRp941
(dp942
g61
(dp943
g81
g82
ssg70
g937
sg63
(lp944
S'script_name'
p945
asbag56
(g77
g58
NtRp946
(dp947
g61
(dp948
g88
g89
ssg70
g937
sg63
(lp949
S':'
asbag56
(g77
g58
NtRp950
(dp951
g61
(dp952
sg70
g937
sg63
(lp953
g56
(g57
g58
NtRp954
(dp955
g61
(dp956
g69
I4
ssg70
g950
sg63
(lp957
S''
asbasbasbag56
(g72
g58
NtRp958
(dp959
g61
(dp960
sg70
g451
sg63
(lp961
g56
(g77
g58
NtRp962
(dp963
g61
(dp964
g81
g82
ssg70
g958
sg63
(lp965
S'server_name'
p966
asbag56
(g77
g58
NtRp967
(dp968
g61
(dp969
g88
g89
ssg70
g958
sg63
(lp970
S':'
asbag56
(g77
g58
NtRp971
(dp972
g61
(dp973
sg70
g958
sg63
(lp974
g56
(g57
g58
NtRp975
(dp976
g61
(dp977
g69
I4
ssg70
g971
sg63
(lp978
S'VPCF22AJ'
p979
asbasbasbag56
(g72
g58
NtRp980
(dp981
g61
(dp982
sg70
g451
sg63
(lp983
g56
(g77
g58
NtRp984
(dp985
g61
(dp986
g81
g82
ssg70
g980
sg63
(lp987
S'server_port'
p988
asbag56
(g77
g58
NtRp989
(dp990
g61
(dp991
g88
g89
ssg70
g980
sg63
(lp992
S':'
asbag56
(g77
g58
NtRp993
(dp994
g61
(dp995
sg70
g980
sg63
(lp996
g56
(g57
g58
NtRp997
(dp998
g61
(dp999
g69
I4
ssg70
g993
sg63
(lp1000
S'8000'
p1001
asbasbasbag56
(g72
g58
NtRp1002
(dp1003
g61
(dp1004
sg70
g451
sg63
(lp1005
g56
(g77
g58
NtRp1006
(dp1007
g61
(dp1008
g81
g82
ssg70
g1002
sg63
(lp1009
S'server_protocol'
p1010
asbag56
(g77
g58
NtRp1011
(dp1012
g61
(dp1013
g88
g89
ssg70
g1002
sg63
(lp1014
S':'
asbag56
(g77
g58
NtRp1015
(dp1016
g61
(dp1017
sg70
g1002
sg63
(lp1018
g56
(g57
g58
NtRp1019
(dp1020
g61
(dp1021
g69
I4
ssg70
g1015
sg63
(lp1022
S'HTTP/1.1'
p1023
asbasbasbag56
(g72
g58
NtRp1024
(dp1025
g61
(dp1026
sg70
g451
sg63
(lp1027
g56
(g77
g58
NtRp1028
(dp1029
g61
(dp1030
g81
g82
ssg70
g1024
sg63
(lp1031
S'server_software'
p1032
asbag56
(g77
g58
NtRp1033
(dp1034
g61
(dp1035
g88
g89
ssg70
g1024
sg63
(lp1036
S':'
asbag56
(g77
g58
NtRp1037
(dp1038
g61
(dp1039
sg70
g1024
sg63
(lp1040
g56
(g57
g58
NtRp1041
(dp1042
g61
(dp1043
g69
I4
ssg70
g1037
sg63
(lp1044
S'Rocket 1.2.4'
p1045
asbasbasbag56
(g72
g58
NtRp1046
(dp1047
g61
(dp1048
sg70
g451
sg63
(lp1049
g56
(g77
g58
NtRp1050
(dp1051
g61
(dp1052
g81
g82
ssg70
g1046
sg63
(lp1053
S'web2py_crontype'
p1054
asbag56
(g77
g58
NtRp1055
(dp1056
g61
(dp1057
g88
g89
ssg70
g1046
sg63
(lp1058
S':'
asbag56
(g77
g58
NtRp1059
(dp1060
g61
(dp1061
sg70
g1046
sg63
(lp1062
g56
(g57
g58
NtRp1063
(dp1064
g61
(dp1065
g69
I4
ssg70
g1059
sg63
(lp1066
S'hard'
p1067
asbasbasbag56
(g72
g58
NtRp1068
(dp1069
g61
(dp1070
sg70
g451
sg63
(lp1071
g56
(g77
g58
NtRp1072
(dp1073
g61
(dp1074
g81
g82
ssg70
g1068
sg63
(lp1075
S'web2py_original_uri'
p1076
asbag56
(g77
g58
NtRp1077
(dp1078
g61
(dp1079
g88
g89
ssg70
g1068
sg63
(lp1080
S':'
asbag56
(g77
g58
NtRp1081
(dp1082
g61
(dp1083
sg70
g1068
sg63
(lp1084
g56
(g57
g58
NtRp1085
(dp1086
g61
(dp1087
g69
I4
ssg70
g1081
sg63
(lp1088
g829
asbasbasbag56
(g72
g58
NtRp1089
(dp1090
g61
(dp1091
sg70
g451
sg63
(lp1092
g56
(g77
g58
NtRp1093
(dp1094
g61
(dp1095
g81
g82
ssg70
g1089
sg63
(lp1096
S'web2py_path'
p1097
asbag56
(g77
g58
NtRp1098
(dp1099
g61
(dp1100
g88
g89
ssg70
g1089
sg63
(lp1101
S':'
asbag56
(g77
g58
NtRp1102
(dp1103
g61
(dp1104
sg70
g1089
sg63
(lp1105
g56
(g57
g58
NtRp1106
(dp1107
g61
(dp1108
g69
I4
ssg70
g1102
sg63
(lp1109
g498
asbasbasbag56
(g72
g58
NtRp1110
(dp1111
g61
(dp1112
sg70
g451
sg63
(lp1113
g56
(g77
g58
NtRp1114
(dp1115
g61
(dp1116
g81
g82
ssg70
g1110
sg63
(lp1117
S'web2py_version'
p1118
asbag56
(g77
g58
NtRp1119
(dp1120
g61
(dp1121
g88
g89
ssg70
g1110
sg63
(lp1122
S':'
asbag56
(g77
g58
NtRp1123
(dp1124
g61
(dp1125
sg70
g1110
sg63
(lp1126
g56
(g57
g58
NtRp1127
(dp1128
g61
(dp1129
g69
I4
ssg70
g1123
sg63
(lp1130
g56
(g65
g58
NtRp1131
(dp1132
g61
(dp1133
g69
I3
ssg70
Nsg63
(lp1134
g56
(g72
g58
NtRp1135
(dp1136
g61
(dp1137
sg70
g1131
sg63
(lp1138
g56
(g77
g58
NtRp1139
(dp1140
g61
(dp1141
sg70
g1135
sg63
(lp1142
g56
(g57
g58
NtRp1143
(dp1144
g61
(dp1145
g69
I3
ssg70
g1139
sg63
(lp1146
S'1'
asbasbasbag56
(g72
g58
NtRp1147
(dp1148
g61
(dp1149
sg70
g1131
sg63
(lp1150
g56
(g77
g58
NtRp1151
(dp1152
g61
(dp1153
sg70
g1147
sg63
(lp1154
g56
(g57
g58
NtRp1155
(dp1156
g61
(dp1157
g69
I3
ssg70
g1151
sg63
(lp1158
S'99'
p1159
asbasbasbag56
(g72
g58
NtRp1160
(dp1161
g61
(dp1162
sg70
g1131
sg63
(lp1163
g56
(g77
g58
NtRp1164
(dp1165
g61
(dp1166
sg70
g1160
sg63
(lp1167
g56
(g57
g58
NtRp1168
(dp1169
g61
(dp1170
g69
I3
ssg70
g1164
sg63
(lp1171
S'2'
asbasbasbag56
(g72
g58
NtRp1172
(dp1173
g61
(dp1174
sg70
g1131
sg63
(lp1175
g56
(g77
g58
NtRp1176
(dp1177
g61
(dp1178
sg70
g1172
sg63
(lp1179
g56
(g57
g58
NtRp1180
(dp1181
g61
(dp1182
g69
I3
ssg70
g1176
sg63
(lp1183
S'datetime.datetime(2011, 9, 26, 6, 55, 33)'
p1184
asbasbasbag56
(g72
g58
NtRp1185
(dp1186
g61
(dp1187
sg70
g1131
sg63
(lp1188
g56
(g77
g58
NtRp1189
(dp1190
g61
(dp1191
sg70
g1185
sg63
(lp1192
g56
(g57
g58
NtRp1193
(dp1194
g61
(dp1195
g69
I3
ssg70
g1189
sg63
(lp1196
S'stable'
p1197
asbasbasbasbasbasbasbag56
(g72
g58
NtRp1198
(dp1199
g61
(dp1200
sg70
g451
sg63
(lp1201
g56
(g77
g58
NtRp1202
(dp1203
g61
(dp1204
g81
g82
ssg70
g1198
sg63
(lp1205
S'wsgi_errors'
p1206
asbag56
(g77
g58
NtRp1207
(dp1208
g61
(dp1209
g88
g89
ssg70
g1198
sg63
(lp1210
S':'
asbag56
(g77
g58
NtRp1211
(dp1212
g61
(dp1213
sg70
g1198
sg63
(lp1214
g56
(g57
g58
NtRp1215
(dp1216
g61
(dp1217
g69
I4
ssg70
g1211
sg63
(lp1218
S"<open file '<stderr>', mode 'w' at 0x7f0d1464c1e0>"
p1219
asbasbasbag56
(g72
g58
NtRp1220
(dp1221
g61
(dp1222
sg70
g451
sg63
(lp1223
g56
(g77
g58
NtRp1224
(dp1225
g61
(dp1226
g81
g82
ssg70
g1220
sg63
(lp1227
S'wsgi_file_wrapper'
p1228
asbag56
(g77
g58
NtRp1229
(dp1230
g61
(dp1231
g88
g89
ssg70
g1220
sg63
(lp1232
S':'
asbag56
(g77
g58
NtRp1233
(dp1234
g61
(dp1235
sg70
g1220
sg63
(lp1236
g56
(g57
g58
NtRp1237
(dp1238
g61
(dp1239
g69
I4
ssg70
g1233
sg63
(lp1240
S'<class wsgiref.util.FileWrapper at 0x24c5110>'
p1241
asbasbasbag56
(g72
g58
NtRp1242
(dp1243
g61
(dp1244
sg70
g451
sg63
(lp1245
g56
(g77
g58
NtRp1246
(dp1247
g61
(dp1248
g81
g82
ssg70
g1242
sg63
(lp1249
S'wsgi_input'
p1250
asbag56
(g77
g58
NtRp1251
(dp1252
g61
(dp1253
g88
g89
ssg70
g1242
sg63
(lp1254
S':'
asbag56
(g77
g58
NtRp1255
(dp1256
g61
(dp1257
sg70
g1242
sg63
(lp1258
g56
(g57
g58
NtRp1259
(dp1260
g61
(dp1261
g69
I4
ssg70
g1255
sg63
(lp1262
S'<socket._fileobject object at 0x25cc650>'
p1263
asbasbasbag56
(g72
g58
NtRp1264
(dp1265
g61
(dp1266
sg70
g451
sg63
(lp1267
g56
(g77
g58
NtRp1268
(dp1269
g61
(dp1270
g81
g82
ssg70
g1264
sg63
(lp1271
S'wsgi_multiprocess'
p1272
asbag56
(g77
g58
NtRp1273
(dp1274
g61
(dp1275
g88
g89
ssg70
g1264
sg63
(lp1276
S':'
asbag56
(g77
g58
NtRp1277
(dp1278
g61
(dp1279
sg70
g1264
sg63
(lp1280
g56
(g57
g58
NtRp1281
(dp1282
g61
(dp1283
g69
I4
ssg70
g1277
sg63
(lp1284
g99
asbasbasbag56
(g72
g58
NtRp1285
(dp1286
g61
(dp1287
sg70
g451
sg63
(lp1288
g56
(g77
g58
NtRp1289
(dp1290
g61
(dp1291
g81
g82
ssg70
g1285
sg63
(lp1292
S'wsgi_multithread'
p1293
asbag56
(g77
g58
NtRp1294
(dp1295
g61
(dp1296
g88
g89
ssg70
g1285
sg63
(lp1297
S':'
asbag56
(g77
g58
NtRp1298
(dp1299
g61
(dp1300
sg70
g1285
sg63
(lp1301
g56
(g57
g58
NtRp1302
(dp1303
g61
(dp1304
g69
I4
ssg70
g1298
sg63
(lp1305
S'True'
p1306
asbasbasbag56
(g72
g58
NtRp1307
(dp1308
g61
(dp1309
sg70
g451
sg63
(lp1310
g56
(g77
g58
NtRp1311
(dp1312
g61
(dp1313
g81
g82
ssg70
g1307
sg63
(lp1314
S'wsgi_run_once'
p1315
asbag56
(g77
g58
NtRp1316
(dp1317
g61
(dp1318
g88
g89
ssg70
g1307
sg63
(lp1319
S':'
asbag56
(g77
g58
NtRp1320
(dp1321
g61
(dp1322
sg70
g1307
sg63
(lp1323
g56
(g57
g58
NtRp1324
(dp1325
g61
(dp1326
g69
I4
ssg70
g1320
sg63
(lp1327
g99
asbasbasbag56
(g72
g58
NtRp1328
(dp1329
g61
(dp1330
sg70
g451
sg63
(lp1331
g56
(g77
g58
NtRp1332
(dp1333
g61
(dp1334
g81
g82
ssg70
g1328
sg63
(lp1335
S'wsgi_url_scheme'
p1336
asbag56
(g77
g58
NtRp1337
(dp1338
g61
(dp1339
g88
g89
ssg70
g1328
sg63
(lp1340
S':'
asbag56
(g77
g58
NtRp1341
(dp1342
g61
(dp1343
sg70
g1328
sg63
(lp1344
g56
(g57
g58
NtRp1345
(dp1346
g61
(dp1347
g69
I4
ssg70
g1341
sg63
(lp1348
S'http'
p1349
asbasbasbag56
(g72
g58
NtRp1350
(dp1351
g61
(dp1352
sg70
g451
sg63
(lp1353
g56
(g77
g58
NtRp1354
(dp1355
g61
(dp1356
g81
g82
ssg70
g1350
sg63
(lp1357
S'wsgi_version'
p1358
asbag56
(g77
g58
NtRp1359
(dp1360
g61
(dp1361
g88
g89
ssg70
g1350
sg63
(lp1362
S':'
asbag56
(g77
g58
NtRp1363
(dp1364
g61
(dp1365
sg70
g1350
sg63
(lp1366
g56
(g57
g58
NtRp1367
(dp1368
g61
(dp1369
g69
I4
ssg70
g1363
sg63
(lp1370
g56
(g65
g58
NtRp1371
(dp1372
g61
(dp1373
g69
I3
ssg70
Nsg63
(lp1374
g56
(g72
g58
NtRp1375
(dp1376
g61
(dp1377
sg70
g1371
sg63
(lp1378
g56
(g77
g58
NtRp1379
(dp1380
g61
(dp1381
sg70
g1375
sg63
(lp1382
g56
(g57
g58
NtRp1383
(dp1384
g61
(dp1385
g69
I3
ssg70
g1379
sg63
(lp1386
S'1'
asbasbasbag56
(g72
g58
NtRp1387
(dp1388
g61
(dp1389
sg70
g1371
sg63
(lp1390
g56
(g77
g58
NtRp1391
(dp1392
g61
(dp1393
sg70
g1387
sg63
(lp1394
g56
(g57
g58
NtRp1395
(dp1396
g61
(dp1397
g69
I3
ssg70
g1391
sg63
(lp1398
S'0'
asbasbasbasbasbasbasbasbasbasbasbag56
(g72
g58
NtRp1399
(dp1400
g61
(dp1401
sg70
g66
sg63
(lp1402
g56
(g77
g58
NtRp1403
(dp1404
g61
(dp1405
g81
g82
ssg70
g1399
sg63
(lp1406
S'extension'
p1407
asbag56
(g77
g58
NtRp1408
(dp1409
g61
(dp1410
g88
g89
ssg70
g1399
sg63
(lp1411
S':'
asbag56
(g77
g58
NtRp1412
(dp1413
g61
(dp1414
sg70
g1399
sg63
(lp1415
g56
(g57
g58
NtRp1416
(dp1417
g61
(dp1418
g69
I5
ssg70
g1412
sg63
(lp1419
S'html'
p1420
asbasbasbag56
(g72
g58
NtRp1421
(dp1422
g61
(dp1423
sg70
g66
sg63
(lp1424
g56
(g77
g58
NtRp1425
(dp1426
g61
(dp1427
g81
g82
ssg70
g1421
sg63
(lp1428
S'folder'
p1429
asbag56
(g77
g58
NtRp1430
(dp1431
g61
(dp1432
g88
g89
ssg70
g1421
sg63
(lp1433
S':'
asbag56
(g77
g58
NtRp1434
(dp1435
g61
(dp1436
sg70
g1421
sg63
(lp1437
g56
(g57
g58
NtRp1438
(dp1439
g61
(dp1440
g69
I5
ssg70
g1434
sg63
(lp1441
S'/windows/Users/Thomas/Dropbox/appz/2011/GAE/ddl-lagoon/applications/ddlagoon/'
p1442
asbasbasbag56
(g72
g58
NtRp1443
(dp1444
g61
(dp1445
sg70
g66
sg63
(lp1446
g56
(g77
g58
NtRp1447
(dp1448
g61
(dp1449
g81
g82
ssg70
g1443
sg63
(lp1450
S'function'
p1451
asbag56
(g77
g58
NtRp1452
(dp1453
g61
(dp1454
g88
g89
ssg70
g1443
sg63
(lp1455
S':'
asbag56
(g77
g58
NtRp1456
(dp1457
g61
(dp1458
sg70
g1443
sg63
(lp1459
g56
(g57
g58
NtRp1460
(dp1461
g61
(dp1462
g69
I5
ssg70
g1456
sg63
(lp1463
S'index'
p1464
asbasbasbag56
(g72
g58
NtRp1465
(dp1466
g61
(dp1467
sg70
g66
sg63
(lp1468
g56
(g77
g58
NtRp1469
(dp1470
g61
(dp1471
g81
g82
ssg70
g1465
sg63
(lp1472
S'get_vars'
p1473
asbag56
(g77
g58
NtRp1474
(dp1475
g61
(dp1476
g88
g89
ssg70
g1465
sg63
(lp1477
S':'
asbag56
(g77
g58
NtRp1478
(dp1479
g61
(dp1480
sg70
g1465
sg63
(lp1481
g56
(g57
g58
NtRp1482
(dp1483
g61
(dp1484
g69
I5
ssg70
g1478
sg63
(lp1485
g56
(g65
g58
NtRp1486
(dp1487
g61
(dp1488
g69
I4
ssg70
Nsg63
(lp1489
sbasbasbasbag56
(g72
g58
NtRp1490
(dp1491
g61
(dp1492
sg70
g66
sg63
(lp1493
g56
(g77
g58
NtRp1494
(dp1495
g61
(dp1496
g81
g82
ssg70
g1490
sg63
(lp1497
S'global_settings'
p1498
asbag56
(g77
g58
NtRp1499
(dp1500
g61
(dp1501
g88
g89
ssg70
g1490
sg63
(lp1502
S':'
asbag56
(g77
g58
NtRp1503
(dp1504
g61
(dp1505
sg70
g1490
sg63
(lp1506
g56
(g57
g58
NtRp1507
(dp1508
g61
(dp1509
g69
I5
ssg70
g1503
sg63
(lp1510
g56
(g65
g58
NtRp1511
(dp1512
g61
(dp1513
g69
I4
ssg70
Nsg63
(lp1514
g56
(g72
g58
NtRp1515
(dp1516
g61
(dp1517
sg70
g1511
sg63
(lp1518
g56
(g77
g58
NtRp1519
(dp1520
g61
(dp1521
g81
g82
ssg70
g1515
sg63
(lp1522
g463
asbag56
(g77
g58
NtRp1523
(dp1524
g61
(dp1525
g88
g89
ssg70
g1515
sg63
(lp1526
S':'
asbag56
(g77
g58
NtRp1527
(dp1528
g61
(dp1529
sg70
g1515
sg63
(lp1530
g56
(g57
g58
NtRp1531
(dp1532
g61
(dp1533
g69
I4
ssg70
g1527
sg63
(lp1534
S"set(['/windows/Users/Thomas/Dropbox/appz/2011/GAE/ddl-lagoon/applications/ddlagoon/', '/windows/Users/Thomas/Dropbox/appz/2011/GAE/ddl-lagoon/applications/welcome/'])"
p1535
asbasbasbag56
(g72
g58
NtRp1536
(dp1537
g61
(dp1538
sg70
g1511
sg63
(lp1539
g56
(g77
g58
NtRp1540
(dp1541
g61
(dp1542
g81
g82
ssg70
g1536
sg63
(lp1543
g485
asbag56
(g77
g58
NtRp1544
(dp1545
g61
(dp1546
g88
g89
ssg70
g1536
sg63
(lp1547
S':'
asbag56
(g77
g58
NtRp1548
(dp1549
g61
(dp1550
sg70
g1536
sg63
(lp1551
g56
(g57
g58
NtRp1552
(dp1553
g61
(dp1554
g69
I4
ssg70
g1548
sg63
(lp1555
g498
asbasbasbag56
(g72
g58
NtRp1556
(dp1557
g61
(dp1558
sg70
g1511
sg63
(lp1559
g56
(g77
g58
NtRp1560
(dp1561
g61
(dp1562
g81
g82
ssg70
g1556
sg63
(lp1563
g507
asbag56
(g77
g58
NtRp1564
(dp1565
g61
(dp1566
g88
g89
ssg70
g1556
sg63
(lp1567
S':'
asbag56
(g77
g58
NtRp1568
(dp1569
g61
(dp1570
sg70
g1556
sg63
(lp1571
g56
(g57
g58
NtRp1572
(dp1573
g61
(dp1574
g69
I4
ssg70
g1568
sg63
(lp1575
g56
(g65
g58
NtRp1576
(dp1577
g61
(dp1578
g69
I3
ssg70
Nsg63
(lp1579
sbasbasbasbag56
(g72
g58
NtRp1580
(dp1581
g61
(dp1582
sg70
g1511
sg63
(lp1583
g56
(g77
g58
NtRp1584
(dp1585
g61
(dp1586
g81
g82
ssg70
g1580
sg63
(lp1587
g532
asbag56
(g77
g58
NtRp1588
(dp1589
g61
(dp1590
g88
g89
ssg70
g1580
sg63
(lp1591
S':'
asbag56
(g77
g58
NtRp1592
(dp1593
g61
(dp1594
sg70
g1580
sg63
(lp1595
g56
(g57
g58
NtRp1596
(dp1597
g61
(dp1598
g69
I4
ssg70
g1592
sg63
(lp1599
S"<Values at 0x2569cf8: {'verbose': False, 'ip': '127.0.0.1', 'shutdown_timeout': 5, 'taskbar': False, 'nocron': False, 'pid_filename': 'httpserver.pid', 'maxthreads': None, 'softcron': False, 'server_name': 'VPCF22AJ', 'bpython': False, 'nogui': False, 'port': 8000, 'extcron': False, 'debuglevel': 30, 'test': None, 'folder': '/windows/Users/Thomas/Dropbox/appz/2011/GAE/ddl-lagoon', 'config': '', 'import_models': False, 'winservice': '', 'shell': None, 'run': '', 'log_filename': 'httpserver.log', 'args': [''], 'ssl_ca_certificate': None, 'scheduler': None, 'profiler_filename': None, 'ssl_private_key': '', 'password': 'admin', 'request_queue_size': 5, 'ssl_certificate': '', 'cronjob': False, 'plain': False, 'quiet': False, 'interfaces': None, 'minthreads': None, 'timeout': 10, 'numthreads': None, 'nobanner': False}>"
p1600
asbasbasbag56
(g72
g58
NtRp1601
(dp1602
g61
(dp1603
sg70
g1511
sg63
(lp1604
g56
(g77
g58
NtRp1605
(dp1606
g61
(dp1607
g81
g82
ssg70
g1601
sg63
(lp1608
g554
asbag56
(g77
g58
NtRp1609
(dp1610
g61
(dp1611
g88
g89
ssg70
g1601
sg63
(lp1612
S':'
asbag56
(g77
g58
NtRp1613
(dp1614
g61
(dp1615
sg70
g1601
sg63
(lp1616
g56
(g57
g58
NtRp1617
(dp1618
g61
(dp1619
g69
I4
ssg70
g1613
sg63
(lp1620
S'set([])'
p1621
asbasbasbag56
(g72
g58
NtRp1622
(dp1623
g61
(dp1624
sg70
g1511
sg63
(lp1625
g56
(g77
g58
NtRp1626
(dp1627
g61
(dp1628
g81
g82
ssg70
g1622
sg63
(lp1629
g576
asbag56
(g77
g58
NtRp1630
(dp1631
g61
(dp1632
g88
g89
ssg70
g1622
sg63
(lp1633
S':'
asbag56
(g77
g58
NtRp1634
(dp1635
g61
(dp1636
sg70
g1622
sg63
(lp1637
g56
(g57
g58
NtRp1638
(dp1639
g61
(dp1640
g69
I4
ssg70
g1634
sg63
(lp1641
g99
asbasbasbag56
(g72
g58
NtRp1642
(dp1643
g61
(dp1644
sg70
g1511
sg63
(lp1645
g56
(g77
g58
NtRp1646
(dp1647
g61
(dp1648
g81
g82
ssg70
g1642
sg63
(lp1649
g597
asbag56
(g77
g58
NtRp1650
(dp1651
g61
(dp1652
g88
g89
ssg70
g1642
sg63
(lp1653
S':'
asbag56
(g77
g58
NtRp1654
(dp1655
g61
(dp1656
sg70
g1642
sg63
(lp1657
g56
(g57
g58
NtRp1658
(dp1659
g61
(dp1660
g69
I4
ssg70
g1654
sg63
(lp1661
g610
asbasbasbag56
(g72
g58
NtRp1662
(dp1663
g61
(dp1664
sg70
g1511
sg63
(lp1665
g56
(g77
g58
NtRp1666
(dp1667
g61
(dp1668
g81
g82
ssg70
g1662
sg63
(lp1669
g795
asbag56
(g77
g58
NtRp1670
(dp1671
g61
(dp1672
g88
g89
ssg70
g1662
sg63
(lp1673
S':'
asbag56
(g77
g58
NtRp1674
(dp1675
g61
(dp1676
sg70
g1662
sg63
(lp1677
g56
(g57
g58
NtRp1678
(dp1679
g61
(dp1680
g69
I4
ssg70
g1674
sg63
(lp1681
g99
asbasbasbag56
(g72
g58
NtRp1682
(dp1683
g61
(dp1684
sg70
g1511
sg63
(lp1685
g56
(g77
g58
NtRp1686
(dp1687
g61
(dp1688
g81
g82
ssg70
g1682
sg63
(lp1689
g1054
asbag56
(g77
g58
NtRp1690
(dp1691
g61
(dp1692
g88
g89
ssg70
g1682
sg63
(lp1693
S':'
asbag56
(g77
g58
NtRp1694
(dp1695
g61
(dp1696
sg70
g1682
sg63
(lp1697
g56
(g57
g58
NtRp1698
(dp1699
g61
(dp1700
g69
I4
ssg70
g1694
sg63
(lp1701
g1067
asbasbasbag56
(g72
g58
NtRp1702
(dp1703
g61
(dp1704
sg70
g1511
sg63
(lp1705
g56
(g77
g58
NtRp1706
(dp1707
g61
(dp1708
g81
g82
ssg70
g1702
sg63
(lp1709
g1118
asbag56
(g77
g58
NtRp1710
(dp1711
g61
(dp1712
g88
g89
ssg70
g1702
sg63
(lp1713
S':'
asbag56
(g77
g58
NtRp1714
(dp1715
g61
(dp1716
sg70
g1702
sg63
(lp1717
g56
(g57
g58
NtRp1718
(dp1719
g61
(dp1720
g69
I4
ssg70
g1714
sg63
(lp1721
g56
(g65
g58
NtRp1722
(dp1723
g61
(dp1724
g69
I3
ssg70
Nsg63
(lp1725
g56
(g72
g58
NtRp1726
(dp1727
g61
(dp1728
sg70
g1722
sg63
(lp1729
g56
(g77
g58
NtRp1730
(dp1731
g61
(dp1732
sg70
g1726
sg63
(lp1733
g56
(g57
g58
NtRp1734
(dp1735
g61
(dp1736
g69
I3
ssg70
g1730
sg63
(lp1737
S'1'
asbasbasbag56
(g72
g58
NtRp1738
(dp1739
g61
(dp1740
sg70
g1722
sg63
(lp1741
g56
(g77
g58
NtRp1742
(dp1743
g61
(dp1744
sg70
g1738
sg63
(lp1745
g56
(g57
g58
NtRp1746
(dp1747
g61
(dp1748
g69
I3
ssg70
g1742
sg63
(lp1749
S'99'
p1750
asbasbasbag56
(g72
g58
NtRp1751
(dp1752
g61
(dp1753
sg70
g1722
sg63
(lp1754
g56
(g77
g58
NtRp1755
(dp1756
g61
(dp1757
sg70
g1751
sg63
(lp1758
g56
(g57
g58
NtRp1759
(dp1760
g61
(dp1761
g69
I3
ssg70
g1755
sg63
(lp1762
S'2'
asbasbasbag56
(g72
g58
NtRp1763
(dp1764
g61
(dp1765
sg70
g1722
sg63
(lp1766
g56
(g77
g58
NtRp1767
(dp1768
g61
(dp1769
sg70
g1763
sg63
(lp1770
g56
(g57
g58
NtRp1771
(dp1772
g61
(dp1773
g69
I3
ssg70
g1767
sg63
(lp1774
S'datetime.datetime(2011, 9, 26, 6, 55, 33)'
p1775
asbasbasbag56
(g72
g58
NtRp1776
(dp1777
g61
(dp1778
sg70
g1722
sg63
(lp1779
g56
(g77
g58
NtRp1780
(dp1781
g61
(dp1782
sg70
g1776
sg63
(lp1783
g56
(g57
g58
NtRp1784
(dp1785
g61
(dp1786
g69
I3
ssg70
g1780
sg63
(lp1787
g1197
asbasbasbasbasbasbasbasbasbasbasbag56
(g72
g58
NtRp1788
(dp1789
g61
(dp1790
sg70
g66
sg63
(lp1791
g56
(g77
g58
NtRp1792
(dp1793
g61
(dp1794
g81
g82
ssg70
g1788
sg63
(lp1795
S'is_https'
p1796
asbag56
(g77
g58
NtRp1797
(dp1798
g61
(dp1799
g88
g89
ssg70
g1788
sg63
(lp1800
S':'
asbag56
(g77
g58
NtRp1801
(dp1802
g61
(dp1803
sg70
g1788
sg63
(lp1804
g56
(g57
g58
NtRp1805
(dp1806
g61
(dp1807
g69
I5
ssg70
g1801
sg63
(lp1808
g99
asbasbasbag56
(g72
g58
NtRp1809
(dp1810
g61
(dp1811
sg70
g66
sg63
(lp1812
g56
(g77
g58
NtRp1813
(dp1814
g61
(dp1815
g81
g82
ssg70
g1809
sg63
(lp1816
S'is_local'
p1817
asbag56
(g77
g58
NtRp1818
(dp1819
g61
(dp1820
g88
g89
ssg70
g1809
sg63
(lp1821
S':'
asbag56
(g77
g58
NtRp1822
(dp1823
g61
(dp1824
sg70
g1809
sg63
(lp1825
g56
(g57
g58
NtRp1826
(dp1827
g61
(dp1828
g69
I5
ssg70
g1822
sg63
(lp1829
g1306
asbasbasbag56
(g72
g58
NtRp1830
(dp1831
g61
(dp1832
sg70
g66
sg63
(lp1833
g56
(g77
g58
NtRp1834
(dp1835
g61
(dp1836
g81
g82
ssg70
g1830
sg63
(lp1837
S'is_restful'
p1838
asbag56
(g77
g58
NtRp1839
(dp1840
g61
(dp1841
g88
g89
ssg70
g1830
sg63
(lp1842
S':'
asbag56
(g77
g58
NtRp1843
(dp1844
g61
(dp1845
sg70
g1830
sg63
(lp1846
g56
(g57
g58
NtRp1847
(dp1848
g61
(dp1849
g69
I5
ssg70
g1843
sg63
(lp1850
g99
asbasbasbag56
(g72
g58
NtRp1851
(dp1852
g61
(dp1853
sg70
g66
sg63
(lp1854
g56
(g77
g58
NtRp1855
(dp1856
g61
(dp1857
g81
g82
ssg70
g1851
sg63
(lp1858
S'now'
p1859
asbag56
(g77
g58
NtRp1860
(dp1861
g61
(dp1862
g88
g89
ssg70
g1851
sg63
(lp1863
S':'
asbag56
(g77
g58
NtRp1864
(dp1865
g61
(dp1866
sg70
g1851
sg63
(lp1867
g56
(g57
g58
NtRp1868
(dp1869
g61
(dp1870
g69
I5
ssg70
g1864
sg63
(lp1871
S'datetime.datetime(2011, 10, 27, 8, 59, 55, 177575)'
p1872
asbasbasbag56
(g72
g58
NtRp1873
(dp1874
g61
(dp1875
sg70
g66
sg63
(lp1876
g56
(g77
g58
NtRp1877
(dp1878
g61
(dp1879
g81
g82
ssg70
g1873
sg63
(lp1880
S'post_vars'
p1881
asbag56
(g77
g58
NtRp1882
(dp1883
g61
(dp1884
g88
g89
ssg70
g1873
sg63
(lp1885
S':'
asbag56
(g77
g58
NtRp1886
(dp1887
g61
(dp1888
sg70
g1873
sg63
(lp1889
g56
(g57
g58
NtRp1890
(dp1891
g61
(dp1892
g69
I5
ssg70
g1886
sg63
(lp1893
g56
(g65
g58
NtRp1894
(dp1895
g61
(dp1896
g69
I4
ssg70
Nsg63
(lp1897
sbasbasbasbag56
(g72
g58
NtRp1898
(dp1899
g61
(dp1900
sg70
g66
sg63
(lp1901
g56
(g77
g58
NtRp1902
(dp1903
g61
(dp1904
g81
g82
ssg70
g1898
sg63
(lp1905
S'url'
p1906
asbag56
(g77
g58
NtRp1907
(dp1908
g61
(dp1909
g88
g89
ssg70
g1898
sg63
(lp1910
S':'
asbag56
(g77
g58
NtRp1911
(dp1912
g61
(dp1913
sg70
g1898
sg63
(lp1914
g56
(g57
g58
NtRp1915
(dp1916
g61
(dp1917
g69
I5
ssg70
g1911
sg63
(lp1918
S'/ddlagoon/default/index'
p1919
asbasbasbag56
(g72
g58
NtRp1920
(dp1921
g61
(dp1922
sg70
g66
sg63
(lp1923
g56
(g77
g58
NtRp1924
(dp1925
g61
(dp1926
g81
g82
ssg70
g1920
sg63
(lp1927
S'utcnow'
p1928
asbag56
(g77
g58
NtRp1929
(dp1930
g61
(dp1931
g88
g89
ssg70
g1920
sg63
(lp1932
S':'
asbag56
(g77
g58
NtRp1933
(dp1934
g61
(dp1935
sg70
g1920
sg63
(lp1936
g56
(g57
g58
NtRp1937
(dp1938
g61
(dp1939
g69
I5
ssg70
g1933
sg63
(lp1940
S'datetime.datetime(2011, 10, 27, 7, 59, 55, 177591)'
p1941
asbasbasbag56
(g72
g58
NtRp1942
(dp1943
g61
(dp1944
sg70
g66
sg63
(lp1945
g56
(g77
g58
NtRp1946
(dp1947
g61
(dp1948
g81
g82
ssg70
g1942
sg63
(lp1949
S'uuid'
p1950
asbag56
(g77
g58
NtRp1951
(dp1952
g61
(dp1953
g88
g89
ssg70
g1942
sg63
(lp1954
S':'
asbag56
(g77
g58
NtRp1955
(dp1956
g61
(dp1957
sg70
g1942
sg63
(lp1958
g56
(g57
g58
NtRp1959
(dp1960
g61
(dp1961
g69
I5
ssg70
g1955
sg63
(lp1962
S'ddlagoon/127.0.0.1.2011-10-27.08-59-55.0ea5a0c0-c2c9-4155-a119-244d4bae4312'
p1963
asbasbasbag56
(g72
g58
NtRp1964
(dp1965
g61
(dp1966
sg70
g66
sg63
(lp1967
g56
(g77
g58
NtRp1968
(dp1969
g61
(dp1970
g81
g82
ssg70
g1964
sg63
(lp1971
S'vars'
p1972
asbag56
(g77
g58
NtRp1973
(dp1974
g61
(dp1975
g88
g89
ssg70
g1964
sg63
(lp1976
S':'
asbag56
(g77
g58
NtRp1977
(dp1978
g61
(dp1979
sg70
g1964
sg63
(lp1980
g56
(g57
g58
NtRp1981
(dp1982
g61
(dp1983
g69
I5
ssg70
g1977
sg63
(lp1984
g56
(g65
g58
NtRp1985
(dp1986
g61
(dp1987
g69
I4
ssg70
Nsg63
(lp1988
sbasbasbasbag56
(g72
g58
NtRp1989
(dp1990
g61
(dp1991
sg70
g66
sg63
(lp1992
g56
(g77
g58
NtRp1993
(dp1994
g61
(dp1995
g81
g82
ssg70
g1989
sg63
(lp1996
S'wsgi'
p1997
asbag56
(g77
g58
NtRp1998
(dp1999
g61
(dp2000
g88
g89
ssg70
g1989
sg63
(lp2001
S':'
asbag56
(g77
g58
NtRp2002
(dp2003
g61
(dp2004
sg70
g1989
sg63
(lp2005
g56
(g57
g58
NtRp2006
(dp2007
g61
(dp2008
g69
I5
ssg70
g2002
sg63
(lp2009
g56
(g65
g58
NtRp2010
(dp2011
g61
(dp2012
g69
I4
ssg70
Nsg63
(lp2013
g56
(g72
g58
NtRp2014
(dp2015
g61
(dp2016
sg70
g2010
sg63
(lp2017
g56
(g77
g58
NtRp2018
(dp2019
g61
(dp2020
g81
g82
ssg70
g2014
sg63
(lp2021
S'environ'
p2022
asbag56
(g77
g58
NtRp2023
(dp2024
g61
(dp2025
g88
g89
ssg70
g2014
sg63
(lp2026
S':'
asbag56
(g77
g58
NtRp2027
(dp2028
g61
(dp2029
sg70
g2014
sg63
(lp2030
g56
(g57
g58
NtRp2031
(dp2032
g61
(dp2033
g69
I4
ssg70
g2027
sg63
(lp2034
g56
(g65
g58
NtRp2035
(dp2036
g61
(dp2037
g69
I3
ssg70
Nsg63
(lp2038
g56
(g72
g58
NtRp2039
(dp2040
g61
(dp2041
sg70
g2035
sg63
(lp2042
g56
(g77
g58
NtRp2043
(dp2044
g61
(dp2045
g81
g82
ssg70
g2039
sg63
(lp2046
S'HTTP_ACCEPT'
p2047
asbag56
(g77
g58
NtRp2048
(dp2049
g61
(dp2050
g88
g89
ssg70
g2039
sg63
(lp2051
S':'
asbag56
(g77
g58
NtRp2052
(dp2053
g61
(dp2054
sg70
g2039
sg63
(lp2055
g56
(g57
g58
NtRp2056
(dp2057
g61
(dp2058
g69
I3
ssg70
g2052
sg63
(lp2059
g632
asbasbasbag56
(g72
g58
NtRp2060
(dp2061
g61
(dp2062
sg70
g2035
sg63
(lp2063
g56
(g77
g58
NtRp2064
(dp2065
g61
(dp2066
g81
g82
ssg70
g2060
sg63
(lp2067
S'HTTP_ACCEPT_CHARSET'
p2068
asbag56
(g77
g58
NtRp2069
(dp2070
g61
(dp2071
g88
g89
ssg70
g2060
sg63
(lp2072
S':'
asbag56
(g77
g58
NtRp2073
(dp2074
g61
(dp2075
sg70
g2060
sg63
(lp2076
g56
(g57
g58
NtRp2077
(dp2078
g61
(dp2079
g69
I3
ssg70
g2073
sg63
(lp2080
g654
asbasbasbag56
(g72
g58
NtRp2081
(dp2082
g61
(dp2083
sg70
g2035
sg63
(lp2084
g56
(g77
g58
NtRp2085
(dp2086
g61
(dp2087
g81
g82
ssg70
g2081
sg63
(lp2088
S'HTTP_ACCEPT_ENCODING'
p2089
asbag56
(g77
g58
NtRp2090
(dp2091
g61
(dp2092
g88
g89
ssg70
g2081
sg63
(lp2093
S':'
asbag56
(g77
g58
NtRp2094
(dp2095
g61
(dp2096
sg70
g2081
sg63
(lp2097
g56
(g57
g58
NtRp2098
(dp2099
g61
(dp2100
g69
I3
ssg70
g2094
sg63
(lp2101
g676
asbasbasbag56
(g72
g58
NtRp2102
(dp2103
g61
(dp2104
sg70
g2035
sg63
(lp2105
g56
(g77
g58
NtRp2106
(dp2107
g61
(dp2108
g81
g82
ssg70
g2102
sg63
(lp2109
S'HTTP_ACCEPT_LANGUAGE'
p2110
asbag56
(g77
g58
NtRp2111
(dp2112
g61
(dp2113
g88
g89
ssg70
g2102
sg63
(lp2114
S':'
asbag56
(g77
g58
NtRp2115
(dp2116
g61
(dp2117
sg70
g2102
sg63
(lp2118
g56
(g57
g58
NtRp2119
(dp2120
g61
(dp2121
g69
I3
ssg70
g2115
sg63
(lp2122
g698
asbasbasbag56
(g72
g58
NtRp2123
(dp2124
g61
(dp2125
sg70
g2035
sg63
(lp2126
g56
(g77
g58
NtRp2127
(dp2128
g61
(dp2129
g81
g82
ssg70
g2123
sg63
(lp2130
S'HTTP_CONNECTION'
p2131
asbag56
(g77
g58
NtRp2132
(dp2133
g61
(dp2134
g88
g89
ssg70
g2123
sg63
(lp2135
S':'
asbag56
(g77
g58
NtRp2136
(dp2137
g61
(dp2138
sg70
g2123
sg63
(lp2139
g56
(g57
g58
NtRp2140
(dp2141
g61
(dp2142
g69
I3
ssg70
g2136
sg63
(lp2143
g720
asbasbasbag56
(g72
g58
NtRp2144
(dp2145
g61
(dp2146
sg70
g2035
sg63
(lp2147
g56
(g77
g58
NtRp2148
(dp2149
g61
(dp2150
g81
g82
ssg70
g2144
sg63
(lp2151
S'HTTP_COOKIE'
p2152
asbag56
(g77
g58
NtRp2153
(dp2154
g61
(dp2155
g88
g89
ssg70
g2144
sg63
(lp2156
S':'
asbag56
(g77
g58
NtRp2157
(dp2158
g61
(dp2159
sg70
g2144
sg63
(lp2160
g56
(g57
g58
NtRp2161
(dp2162
g61
(dp2163
g69
I3
ssg70
g2157
sg63
(lp2164
g742
asbasbasbag56
(g72
g58
NtRp2165
(dp2166
g61
(dp2167
sg70
g2035
sg63
(lp2168
g56
(g77
g58
NtRp2169
(dp2170
g61
(dp2171
g81
g82
ssg70
g2165
sg63
(lp2172
S'HTTP_HOST'
p2173
asbag56
(g77
g58
NtRp2174
(dp2175
g61
(dp2176
g88
g89
ssg70
g2165
sg63
(lp2177
S':'
asbag56
(g77
g58
NtRp2178
(dp2179
g61
(dp2180
sg70
g2165
sg63
(lp2181
g56
(g57
g58
NtRp2182
(dp2183
g61
(dp2184
g69
I3
ssg70
g2178
sg63
(lp2185
g764
asbasbasbag56
(g72
g58
NtRp2186
(dp2187
g61
(dp2188
sg70
g2035
sg63
(lp2189
g56
(g77
g58
NtRp2190
(dp2191
g61
(dp2192
g81
g82
ssg70
g2186
sg63
(lp2193
S'HTTP_USER_AGENT'
p2194
asbag56
(g77
g58
NtRp2195
(dp2196
g61
(dp2197
g88
g89
ssg70
g2186
sg63
(lp2198
S':'
asbag56
(g77
g58
NtRp2199
(dp2200
g61
(dp2201
sg70
g2186
sg63
(lp2202
g56
(g57
g58
NtRp2203
(dp2204
g61
(dp2205
g69
I3
ssg70
g2199
sg63
(lp2206
g786
asbasbasbag56
(g72
g58
NtRp2207
(dp2208
g61
(dp2209
sg70
g2035
sg63
(lp2210
g56
(g77
g58
NtRp2211
(dp2212
g61
(dp2213
g81
g82
ssg70
g2207
sg63
(lp2214
S'PATH_INFO'
p2215
asbag56
(g77
g58
NtRp2216
(dp2217
g61
(dp2218
g88
g89
ssg70
g2207
sg63
(lp2219
S':'
asbag56
(g77
g58
NtRp2220
(dp2221
g61
(dp2222
sg70
g2207
sg63
(lp2223
g56
(g57
g58
NtRp2224
(dp2225
g61
(dp2226
g69
I3
ssg70
g2220
sg63
(lp2227
g829
asbasbasbag56
(g72
g58
NtRp2228
(dp2229
g61
(dp2230
sg70
g2035
sg63
(lp2231
g56
(g77
g58
NtRp2232
(dp2233
g61
(dp2234
g81
g82
ssg70
g2228
sg63
(lp2235
S'QUERY_STRING'
p2236
asbag56
(g77
g58
NtRp2237
(dp2238
g61
(dp2239
g88
g89
ssg70
g2228
sg63
(lp2240
S':'
asbag56
(g77
g58
NtRp2241
(dp2242
g61
(dp2243
sg70
g2228
sg63
(lp2244
g56
(g57
g58
NtRp2245
(dp2246
g61
(dp2247
g69
I3
ssg70
g2241
sg63
(lp2248
S''
asbasbasbag56
(g72
g58
NtRp2249
(dp2250
g61
(dp2251
sg70
g2035
sg63
(lp2252
g56
(g77
g58
NtRp2253
(dp2254
g61
(dp2255
g81
g82
ssg70
g2249
sg63
(lp2256
S'REMOTE_ADDR'
p2257
asbag56
(g77
g58
NtRp2258
(dp2259
g61
(dp2260
g88
g89
ssg70
g2249
sg63
(lp2261
S':'
asbag56
(g77
g58
NtRp2262
(dp2263
g61
(dp2264
sg70
g2249
sg63
(lp2265
g56
(g57
g58
NtRp2266
(dp2267
g61
(dp2268
g69
I3
ssg70
g2262
sg63
(lp2269
g189
asbasbasbag56
(g72
g58
NtRp2270
(dp2271
g61
(dp2272
sg70
g2035
sg63
(lp2273
g56
(g77
g58
NtRp2274
(dp2275
g61
(dp2276
g81
g82
ssg70
g2270
sg63
(lp2277
S'REMOTE_PORT'
p2278
asbag56
(g77
g58
NtRp2279
(dp2280
g61
(dp2281
g88
g89
ssg70
g2270
sg63
(lp2282
S':'
asbag56
(g77
g58
NtRp2283
(dp2284
g61
(dp2285
sg70
g2270
sg63
(lp2286
g56
(g57
g58
NtRp2287
(dp2288
g61
(dp2289
g69
I3
ssg70
g2283
sg63
(lp2290
g893
asbasbasbag56
(g72
g58
NtRp2291
(dp2292
g61
(dp2293
sg70
g2035
sg63
(lp2294
g56
(g77
g58
NtRp2295
(dp2296
g61
(dp2297
g81
g82
ssg70
g2291
sg63
(lp2298
S'REQUEST_METHOD'
p2299
asbag56
(g77
g58
NtRp2300
(dp2301
g61
(dp2302
g88
g89
ssg70
g2291
sg63
(lp2303
S':'
asbag56
(g77
g58
NtRp2304
(dp2305
g61
(dp2306
sg70
g2291
sg63
(lp2307
g56
(g57
g58
NtRp2308
(dp2309
g61
(dp2310
g69
I3
ssg70
g2304
sg63
(lp2311
g915
asbasbasbag56
(g72
g58
NtRp2312
(dp2313
g61
(dp2314
sg70
g2035
sg63
(lp2315
g56
(g77
g58
NtRp2316
(dp2317
g61
(dp2318
g81
g82
ssg70
g2312
sg63
(lp2319
S'REQUEST_URI'
p2320
asbag56
(g77
g58
NtRp2321
(dp2322
g61
(dp2323
g88
g89
ssg70
g2312
sg63
(lp2324
S':'
asbag56
(g77
g58
NtRp2325
(dp2326
g61
(dp2327
sg70
g2312
sg63
(lp2328
g56
(g57
g58
NtRp2329
(dp2330
g61
(dp2331
g69
I3
ssg70
g2325
sg63
(lp2332
g829
asbasbasbag56
(g72
g58
NtRp2333
(dp2334
g61
(dp2335
sg70
g2035
sg63
(lp2336
g56
(g77
g58
NtRp2337
(dp2338
g61
(dp2339
g81
g82
ssg70
g2333
sg63
(lp2340
S'SCRIPT_NAME'
p2341
asbag56
(g77
g58
NtRp2342
(dp2343
g61
(dp2344
g88
g89
ssg70
g2333
sg63
(lp2345
S':'
asbag56
(g77
g58
NtRp2346
(dp2347
g61
(dp2348
sg70
g2333
sg63
(lp2349
g56
(g57
g58
NtRp2350
(dp2351
g61
(dp2352
g69
I3
ssg70
g2346
sg63
(lp2353
S''
asbasbasbag56
(g72
g58
NtRp2354
(dp2355
g61
(dp2356
sg70
g2035
sg63
(lp2357
g56
(g77
g58
NtRp2358
(dp2359
g61
(dp2360
g81
g82
ssg70
g2354
sg63
(lp2361
S'SERVER_NAME'
p2362
asbag56
(g77
g58
NtRp2363
(dp2364
g61
(dp2365
g88
g89
ssg70
g2354
sg63
(lp2366
S':'
asbag56
(g77
g58
NtRp2367
(dp2368
g61
(dp2369
sg70
g2354
sg63
(lp2370
g56
(g57
g58
NtRp2371
(dp2372
g61
(dp2373
g69
I3
ssg70
g2367
sg63
(lp2374
g979
asbasbasbag56
(g72
g58
NtRp2375
(dp2376
g61
(dp2377
sg70
g2035
sg63
(lp2378
g56
(g77
g58
NtRp2379
(dp2380
g61
(dp2381
g81
g82
ssg70
g2375
sg63
(lp2382
S'SERVER_PORT'
p2383
asbag56
(g77
g58
NtRp2384
(dp2385
g61
(dp2386
g88
g89
ssg70
g2375
sg63
(lp2387
S':'
asbag56
(g77
g58
NtRp2388
(dp2389
g61
(dp2390
sg70
g2375
sg63
(lp2391
g56
(g57
g58
NtRp2392
(dp2393
g61
(dp2394
g69
I3
ssg70
g2388
sg63
(lp2395
g1001
asbasbasbag56
(g72
g58
NtRp2396
(dp2397
g61
(dp2398
sg70
g2035
sg63
(lp2399
g56
(g77
g58
NtRp2400
(dp2401
g61
(dp2402
g81
g82
ssg70
g2396
sg63
(lp2403
S'SERVER_PROTOCOL'
p2404
asbag56
(g77
g58
NtRp2405
(dp2406
g61
(dp2407
g88
g89
ssg70
g2396
sg63
(lp2408
S':'
asbag56
(g77
g58
NtRp2409
(dp2410
g61
(dp2411
sg70
g2396
sg63
(lp2412
g56
(g57
g58
NtRp2413
(dp2414
g61
(dp2415
g69
I3
ssg70
g2409
sg63
(lp2416
g1023
asbasbasbag56
(g72
g58
NtRp2417
(dp2418
g61
(dp2419
sg70
g2035
sg63
(lp2420
g56
(g77
g58
NtRp2421
(dp2422
g61
(dp2423
g81
g82
ssg70
g2417
sg63
(lp2424
S'SERVER_SOFTWARE'
p2425
asbag56
(g77
g58
NtRp2426
(dp2427
g61
(dp2428
g88
g89
ssg70
g2417
sg63
(lp2429
S':'
asbag56
(g77
g58
NtRp2430
(dp2431
g61
(dp2432
sg70
g2417
sg63
(lp2433
g56
(g57
g58
NtRp2434
(dp2435
g61
(dp2436
g69
I3
ssg70
g2430
sg63
(lp2437
g1045
asbasbasbag56
(g72
g58
NtRp2438
(dp2439
g61
(dp2440
sg70
g2035
sg63
(lp2441
g56
(g77
g58
NtRp2442
(dp2443
g61
(dp2444
g81
g82
ssg70
g2438
sg63
(lp2445
S'WEB2PY_ORIGINAL_URI'
p2446
asbag56
(g77
g58
NtRp2447
(dp2448
g61
(dp2449
g88
g89
ssg70
g2438
sg63
(lp2450
S':'
asbag56
(g77
g58
NtRp2451
(dp2452
g61
(dp2453
sg70
g2438
sg63
(lp2454
g56
(g57
g58
NtRp2455
(dp2456
g61
(dp2457
g69
I3
ssg70
g2451
sg63
(lp2458
g829
asbasbasbag56
(g72
g58
NtRp2459
(dp2460
g61
(dp2461
sg70
g2035
sg63
(lp2462
g56
(g77
g58
NtRp2463
(dp2464
g61
(dp2465
g81
g82
ssg70
g2459
sg63
(lp2466
S'wsgi.errors'
p2467
asbag56
(g77
g58
NtRp2468
(dp2469
g61
(dp2470
g88
g89
ssg70
g2459
sg63
(lp2471
S':'
asbag56
(g77
g58
NtRp2472
(dp2473
g61
(dp2474
sg70
g2459
sg63
(lp2475
g56
(g57
g58
NtRp2476
(dp2477
g61
(dp2478
g69
I3
ssg70
g2472
sg63
(lp2479
S"<open file '<stderr>', mode 'w' at 0x7f0d1464c1e0>"
p2480
asbasbasbag56
(g72
g58
NtRp2481
(dp2482
g61
(dp2483
sg70
g2035
sg63
(lp2484
g56
(g77
g58
NtRp2485
(dp2486
g61
(dp2487
g81
g82
ssg70
g2481
sg63
(lp2488
S'wsgi.file_wrapper'
p2489
asbag56
(g77
g58
NtRp2490
(dp2491
g61
(dp2492
g88
g89
ssg70
g2481
sg63
(lp2493
S':'
asbag56
(g77
g58
NtRp2494
(dp2495
g61
(dp2496
sg70
g2481
sg63
(lp2497
g56
(g57
g58
NtRp2498
(dp2499
g61
(dp2500
g69
I3
ssg70
g2494
sg63
(lp2501
S'<class wsgiref.util.FileWrapper at 0x24c5110>'
p2502
asbasbasbag56
(g72
g58
NtRp2503
(dp2504
g61
(dp2505
sg70
g2035
sg63
(lp2506
g56
(g77
g58
NtRp2507
(dp2508
g61
(dp2509
g81
g82
ssg70
g2503
sg63
(lp2510
S'wsgi.input'
p2511
asbag56
(g77
g58
NtRp2512
(dp2513
g61
(dp2514
g88
g89
ssg70
g2503
sg63
(lp2515
S':'
asbag56
(g77
g58
NtRp2516
(dp2517
g61
(dp2518
sg70
g2503
sg63
(lp2519
g56
(g57
g58
NtRp2520
(dp2521
g61
(dp2522
g69
I3
ssg70
g2516
sg63
(lp2523
S'<cStringIO.StringO object at 0x274b0a0>'
p2524
asbasbasbag56
(g72
g58
NtRp2525
(dp2526
g61
(dp2527
sg70
g2035
sg63
(lp2528
g56
(g77
g58
NtRp2529
(dp2530
g61
(dp2531
g81
g82
ssg70
g2525
sg63
(lp2532
S'wsgi.multiprocess'
p2533
asbag56
(g77
g58
NtRp2534
(dp2535
g61
(dp2536
g88
g89
ssg70
g2525
sg63
(lp2537
S':'
asbag56
(g77
g58
NtRp2538
(dp2539
g61
(dp2540
sg70
g2525
sg63
(lp2541
g56
(g57
g58
NtRp2542
(dp2543
g61
(dp2544
g69
I3
ssg70
g2538
sg63
(lp2545
g99
asbasbasbag56
(g72
g58
NtRp2546
(dp2547
g61
(dp2548
sg70
g2035
sg63
(lp2549
g56
(g77
g58
NtRp2550
(dp2551
g61
(dp2552
g81
g82
ssg70
g2546
sg63
(lp2553
S'wsgi.multithread'
p2554
asbag56
(g77
g58
NtRp2555
(dp2556
g61
(dp2557
g88
g89
ssg70
g2546
sg63
(lp2558
S':'
asbag56
(g77
g58
NtRp2559
(dp2560
g61
(dp2561
sg70
g2546
sg63
(lp2562
g56
(g57
g58
NtRp2563
(dp2564
g61
(dp2565
g69
I3
ssg70
g2559
sg63
(lp2566
g1306
asbasbasbag56
(g72
g58
NtRp2567
(dp2568
g61
(dp2569
sg70
g2035
sg63
(lp2570
g56
(g77
g58
NtRp2571
(dp2572
g61
(dp2573
g81
g82
ssg70
g2567
sg63
(lp2574
S'wsgi.run_once'
p2575
asbag56
(g77
g58
NtRp2576
(dp2577
g61
(dp2578
g88
g89
ssg70
g2567
sg63
(lp2579
S':'
asbag56
(g77
g58
NtRp2580
(dp2581
g61
(dp2582
sg70
g2567
sg63
(lp2583
g56
(g57
g58
NtRp2584
(dp2585
g61
(dp2586
g69
I3
ssg70
g2580
sg63
(lp2587
g99
asbasbasbag56
(g72
g58
NtRp2588
(dp2589
g61
(dp2590
sg70
g2035
sg63
(lp2591
g56
(g77
g58
NtRp2592
(dp2593
g61
(dp2594
g81
g82
ssg70
g2588
sg63
(lp2595
S'wsgi.url_scheme'
p2596
asbag56
(g77
g58
NtRp2597
(dp2598
g61
(dp2599
g88
g89
ssg70
g2588
sg63
(lp2600
S':'
asbag56
(g77
g58
NtRp2601
(dp2602
g61
(dp2603
sg70
g2588
sg63
(lp2604
g56
(g57
g58
NtRp2605
(dp2606
g61
(dp2607
g69
I3
ssg70
g2601
sg63
(lp2608
g1349
asbasbasbag56
(g72
g58
NtRp2609
(dp2610
g61
(dp2611
sg70
g2035
sg63
(lp2612
g56
(g77
g58
NtRp2613
(dp2614
g61
(dp2615
g81
g82
ssg70
g2609
sg63
(lp2616
S'wsgi.version'
p2617
asbag56
(g77
g58
NtRp2618
(dp2619
g61
(dp2620
g88
g89
ssg70
g2609
sg63
(lp2621
S':'
asbag56
(g77
g58
NtRp2622
(dp2623
g61
(dp2624
sg70
g2609
sg63
(lp2625
g56
(g57
g58
NtRp2626
(dp2627
g61
(dp2628
g69
I3
ssg70
g2622
sg63
(lp2629
S'1'
asbasbasbasbasbasbasbasbasbasbasbasbasbsS'frames'
p2630
(lp2631
(dp2632
S'file'
p2633
S'/windows/Users/Thomas/Dropbox/appz/2011/GAE/ddl-lagoon/gluon/restricted.py'
p2634
sS'dump'
p2635
(dp2636
S'environment'
p2637
S"{'A': <class 'gluon.html.A'>, 'Auth': <class 'gluon.tools.Auth'>, 'B': <class 'gluon.html.B'>, 'BEAUTIFY': <class 'gluon.html.BEAUTIFY'>, 'BODY': <class 'gluon.html.BODY'>, 'BR': <class 'gluon.html.BR'>, 'BUTTON': <class 'gluon.html.BUTTON'>, 'CAT': <class 'gluon.html.CAT'>, 'CENTER': <class 'gluon.html.CENTER'>, 'CLEANUP': <class 'gluon.validators.CLEANUP'>, ...}"
p2638
sS'ccode'
p2639
S'<code object <module> at 0x288e378, file "/windo...tions/ddlagoon/views/default/index.html", line 1>'
p2640
ssS'lnum'
p2641
I194
sS'lines'
p2642
(dp2643
I192
S'        else:'
p2644
sI193
S'            ccode = compile2(code,layer)'
p2645
sI194
S'        exec ccode in environment'
p2646
sI195
S'    except HTTP:'
p2647
sI196
S'        raise'
p2648
sI197
S'    except Exception, error:'
p2649
sI198
S'        # XXX Show exception in Wing IDE if running in debugger'
p2650
sI189
S'    try:'
p2651
sI190
S'        if type(code) == types.CodeType:'
p2652
sI191
S'            ccode = code'
p2653
ssS'call'
p2654
S'(code="left_sidebar_enabled=right_sidebar_enabled=True\\n...nse.write(\'\\\\n  </body>\\\\n</html>\\\\n\', escape=False)", environment={\'A\': <class \'gluon.html.A\'>, \'Auth\': <class \'gluon.tools.Auth\'>, \'B\': <class \'gluon.html.B\'>, \'BEAUTIFY\': <class \'gluon.html.BEAUTIFY\'>, \'BODY\': <class \'gluon.html.BODY\'>, \'BR\': <class \'gluon.html.BR\'>, \'BUTTON\': <class \'gluon.html.BUTTON\'>, \'CAT\': <class \'gluon.html.CAT\'>, \'CENTER\': <class \'gluon.html.CENTER\'>, \'CLEANUP\': <class \'gluon.validators.CLEANUP\'>, ...}, layer=\'/windows/Users/Thomas/Dropbox/appz/2011/GAE/ddl-...on/applications/ddlagoon/views/default/index.html\')'
p2655
sS'func'
p2656
S'restricted'
p2657
sa(dp2658
g2633
S'/windows/Users/Thomas/Dropbox/appz/2011/GAE/ddl-lagoon/applications/ddlagoon/views/default/index.html'
p2659
sg2635
(dp2660
sg2641
I86
sg2642
(dp2661
I96
S"response.write('\\n', escape=False)"
p2662
sI77
S'        response.write(\'\\n        <tr><td><a href="/ddlagoon/ddl/get/run/ddl/\', escape=False)'
p2663
sI78
S'        response.write(ddl.id)'
p2664
sI79
S"        response.write('/', escape=False)"
p2665
sI80
S'        response.write(ddl.filename_url)'
p2666
sI81
S'        response.write(\'">\', escape=False)'
p2667
sI82
S'        response.write(ddl.filename)'
p2668
sI83
S"        response.write('</a></td><td>', escape=False)"
p2669
sI84
S'        response.write(ddl.size_readable)'
p2670
sI85
S"        response.write('</td><td>', escape=False)"
p2671
sI86
S'        response.write(ddl.date_added.split(" ")[0])'
p2672
sI87
S"        response.write('</td><td>', escape=False)"
p2673
sI88
S'        response.write(ddl.uploader.nickname)'
p2674
sI89
S"        response.write('</td></tr>\\n    ', escape=False)"
p2675
sI90
S'        pass'
p2676
sI91
S"    response.write('\\n    </table>\\n', escape=False)"
p2677
sI92
S'else:'
p2678
sI93
S"    response.write('\\n    No DDL, snif!\\n', escape=False)"
p2679
sI94
S'    pass'
p2680
sI95
S"response.write('\\n\\n', escape=False)"
p2681
ssg2654
S'()'
p2682
sg2656
S'<module>'
p2683
sasS'pyver'
p2684
S'Python 2.6.7: /usr/bin/python2.6'
p2685
sS'session'
p2686
g56
(g57
g58
NtRp2687
(dp2688
g61
(dp2689
sg63
(lp2690
g56
(g65
g58
NtRp2691
(dp2692
g61
(dp2693
g69
I5
ssg70
Nsg63
(lp2694
sbasbsS'etype'
p2695
S"<type 'exceptions.AttributeError'>"
p2696
sS'date'
p2697
S'Thu Oct 27 08:59:55 2011'
p2698
sS'response'
p2699
g56
(g57
g58
NtRp2700
(dp2701
g61
(dp2702
sg63
(lp2703
g56
(g65
g58
NtRp2704
(dp2705
g61
(dp2706
g69
I5
ssg70
Nsg63
(lp2707
g56
(g72
g58
NtRp2708
(dp2709
g61
(dp2710
sg70
g2704
sg63
(lp2711
g56
(g77
g58
NtRp2712
(dp2713
g61
(dp2714
g81
g82
ssg70
g2708
sg63
(lp2715
g154
asbag56
(g77
g58
NtRp2716
(dp2717
g61
(dp2718
g88
g89
ssg70
g2708
sg63
(lp2719
S':'
asbag56
(g77
g58
NtRp2720
(dp2721
g61
(dp2722
sg70
g2708
sg63
(lp2723
g56
(g57
g58
NtRp2724
(dp2725
g61
(dp2726
g69
I5
ssg70
g2720
sg63
(lp2727
S'<cStringIO.StringO object at 0x2748ae8>'
p2728
asbasbasbag56
(g72
g58
NtRp2729
(dp2730
g61
(dp2731
sg70
g2704
sg63
(lp2732
g56
(g77
g58
NtRp2733
(dp2734
g61
(dp2735
g81
g82
ssg70
g2729
sg63
(lp2736
g220
asbag56
(g77
g58
NtRp2737
(dp2738
g61
(dp2739
g88
g89
ssg70
g2729
sg63
(lp2740
S':'
asbag56
(g77
g58
NtRp2741
(dp2742
g61
(dp2743
sg70
g2729
sg63
(lp2744
g56
(g57
g58
NtRp2745
(dp2746
g61
(dp2747
g69
I5
ssg70
g2741
sg63
(lp2748
g56
(g65
g58
NtRp2749
(dp2750
g61
(dp2751
g69
I4
ssg70
Nsg63
(lp2752
g56
(g72
g58
NtRp2753
(dp2754
g61
(dp2755
sg70
g2749
sg63
(lp2756
g56
(g77
g58
NtRp2757
(dp2758
g61
(dp2759
g81
g82
ssg70
g2753
sg63
(lp2760
S'session_id_ddlagoon'
p2761
asbag56
(g77
g58
NtRp2762
(dp2763
g61
(dp2764
g88
g89
ssg70
g2753
sg63
(lp2765
S':'
asbag56
(g77
g58
NtRp2766
(dp2767
g61
(dp2768
sg70
g2753
sg63
(lp2769
g56
(g57
g58
NtRp2770
(dp2771
g61
(dp2772
g69
I4
ssg70
g2766
sg63
(lp2773
g56
(g65
g58
NtRp2774
(dp2775
g61
(dp2776
g69
I3
ssg70
Nsg63
(lp2777
g56
(g72
g58
NtRp2778
(dp2779
g61
(dp2780
sg70
g2774
sg63
(lp2781
g56
(g77
g58
NtRp2782
(dp2783
g61
(dp2784
g81
g82
ssg70
g2778
sg63
(lp2785
g270
asbag56
(g77
g58
NtRp2786
(dp2787
g61
(dp2788
g88
g89
ssg70
g2778
sg63
(lp2789
S':'
asbag56
(g77
g58
NtRp2790
(dp2791
g61
(dp2792
sg70
g2778
sg63
(lp2793
g56
(g57
g58
NtRp2794
(dp2795
g61
(dp2796
g69
I3
ssg70
g2790
sg63
(lp2797
S''
asbasbasbag56
(g72
g58
NtRp2798
(dp2799
g61
(dp2800
sg70
g2774
sg63
(lp2801
g56
(g77
g58
NtRp2802
(dp2803
g61
(dp2804
g81
g82
ssg70
g2798
sg63
(lp2805
g291
asbag56
(g77
g58
NtRp2806
(dp2807
g61
(dp2808
g88
g89
ssg70
g2798
sg63
(lp2809
S':'
asbag56
(g77
g58
NtRp2810
(dp2811
g61
(dp2812
sg70
g2798
sg63
(lp2813
g56
(g57
g58
NtRp2814
(dp2815
g61
(dp2816
g69
I3
ssg70
g2810
sg63
(lp2817
S''
asbasbasbag56
(g72
g58
NtRp2818
(dp2819
g61
(dp2820
sg70
g2774
sg63
(lp2821
g56
(g77
g58
NtRp2822
(dp2823
g61
(dp2824
g81
g82
ssg70
g2818
sg63
(lp2825
g312
asbag56
(g77
g58
NtRp2826
(dp2827
g61
(dp2828
g88
g89
ssg70
g2818
sg63
(lp2829
S':'
asbag56
(g77
g58
NtRp2830
(dp2831
g61
(dp2832
sg70
g2818
sg63
(lp2833
g56
(g57
g58
NtRp2834
(dp2835
g61
(dp2836
g69
I3
ssg70
g2830
sg63
(lp2837
S''
asbasbasbag56
(g72
g58
NtRp2838
(dp2839
g61
(dp2840
sg70
g2774
sg63
(lp2841
g56
(g77
g58
NtRp2842
(dp2843
g61
(dp2844
g81
g82
ssg70
g2838
sg63
(lp2845
g333
asbag56
(g77
g58
NtRp2846
(dp2847
g61
(dp2848
g88
g89
ssg70
g2838
sg63
(lp2849
S':'
asbag56
(g77
g58
NtRp2850
(dp2851
g61
(dp2852
sg70
g2838
sg63
(lp2853
g56
(g57
g58
NtRp2854
(dp2855
g61
(dp2856
g69
I3
ssg70
g2850
sg63
(lp2857
S''
asbasbasbag56
(g72
g58
NtRp2858
(dp2859
g61
(dp2860
sg70
g2774
sg63
(lp2861
g56
(g77
g58
NtRp2862
(dp2863
g61
(dp2864
g81
g82
ssg70
g2858
sg63
(lp2865
g354
asbag56
(g77
g58
NtRp2866
(dp2867
g61
(dp2868
g88
g89
ssg70
g2858
sg63
(lp2869
S':'
asbag56
(g77
g58
NtRp2870
(dp2871
g61
(dp2872
sg70
g2858
sg63
(lp2873
g56
(g57
g58
NtRp2874
(dp2875
g61
(dp2876
g69
I3
ssg70
g2870
sg63
(lp2877
S''
asbasbasbag56
(g72
g58
NtRp2878
(dp2879
g61
(dp2880
sg70
g2774
sg63
(lp2881
g56
(g77
g58
NtRp2882
(dp2883
g61
(dp2884
g81
g82
ssg70
g2878
sg63
(lp2885
g375
asbag56
(g77
g58
NtRp2886
(dp2887
g61
(dp2888
g88
g89
ssg70
g2878
sg63
(lp2889
S':'
asbag56
(g77
g58
NtRp2890
(dp2891
g61
(dp2892
sg70
g2878
sg63
(lp2893
g56
(g57
g58
NtRp2894
(dp2895
g61
(dp2896
g69
I3
ssg70
g2890
sg63
(lp2897
S'/'
asbasbasbag56
(g72
g58
NtRp2898
(dp2899
g61
(dp2900
sg70
g2774
sg63
(lp2901
g56
(g77
g58
NtRp2902
(dp2903
g61
(dp2904
g81
g82
ssg70
g2898
sg63
(lp2905
g396
asbag56
(g77
g58
NtRp2906
(dp2907
g61
(dp2908
g88
g89
ssg70
g2898
sg63
(lp2909
S':'
asbag56
(g77
g58
NtRp2910
(dp2911
g61
(dp2912
sg70
g2898
sg63
(lp2913
g56
(g57
g58
NtRp2914
(dp2915
g61
(dp2916
g69
I3
ssg70
g2910
sg63
(lp2917
S''
asbasbasbag56
(g72
g58
NtRp2918
(dp2919
g61
(dp2920
sg70
g2774
sg63
(lp2921
g56
(g77
g58
NtRp2922
(dp2923
g61
(dp2924
g81
g82
ssg70
g2918
sg63
(lp2925
g417
asbag56
(g77
g58
NtRp2926
(dp2927
g61
(dp2928
g88
g89
ssg70
g2918
sg63
(lp2929
S':'
asbag56
(g77
g58
NtRp2930
(dp2931
g61
(dp2932
sg70
g2918
sg63
(lp2933
g56
(g57
g58
NtRp2934
(dp2935
g61
(dp2936
g69
I3
ssg70
g2930
sg63
(lp2937
S''
asbasbasbasbasbasbasbasbasbasbasbag56
(g72
g58
NtRp2938
(dp2939
g61
(dp2940
sg70
g2704
sg63
(lp2941
g56
(g77
g58
NtRp2942
(dp2943
g61
(dp2944
g81
g82
ssg70
g2938
sg63
(lp2945
S'files'
p2946
asbag56
(g77
g58
NtRp2947
(dp2948
g61
(dp2949
g88
g89
ssg70
g2938
sg63
(lp2950
S':'
asbag56
(g77
g58
NtRp2951
(dp2952
g61
(dp2953
sg70
g2938
sg63
(lp2954
g56
(g57
g58
NtRp2955
(dp2956
g61
(dp2957
g69
I5
ssg70
g2951
sg63
(lp2958
g56
(g65
g58
NtRp2959
(dp2960
g61
(dp2961
g69
I4
ssg70
Nsg63
(lp2962
g56
(g72
g58
NtRp2963
(dp2964
g61
(dp2965
sg70
g2959
sg63
(lp2966
g56
(g77
g58
NtRp2967
(dp2968
g61
(dp2969
sg70
g2963
sg63
(lp2970
g56
(g57
g58
NtRp2971
(dp2972
g61
(dp2973
g69
I4
ssg70
g2967
sg63
(lp2974
S'/ddlagoon/static/js/jquery.js'
p2975
asbasbasbag56
(g72
g58
NtRp2976
(dp2977
g61
(dp2978
sg70
g2959
sg63
(lp2979
g56
(g77
g58
NtRp2980
(dp2981
g61
(dp2982
sg70
g2976
sg63
(lp2983
g56
(g57
g58
NtRp2984
(dp2985
g61
(dp2986
g69
I4
ssg70
g2980
sg63
(lp2987
S'/ddlagoon/static/css/anytime.css'
p2988
asbasbasbag56
(g72
g58
NtRp2989
(dp2990
g61
(dp2991
sg70
g2959
sg63
(lp2992
g56
(g77
g58
NtRp2993
(dp2994
g61
(dp2995
sg70
g2989
sg63
(lp2996
g56
(g57
g58
NtRp2997
(dp2998
g61
(dp2999
g69
I4
ssg70
g2993
sg63
(lp3000
S'/ddlagoon/static/js/anytime.js'
p3001
asbasbasbag56
(g72
g58
NtRp3002
(dp3003
g61
(dp3004
sg70
g2959
sg63
(lp3005
g56
(g77
g58
NtRp3006
(dp3007
g61
(dp3008
sg70
g3002
sg63
(lp3009
g56
(g57
g58
NtRp3010
(dp3011
g61
(dp3012
g69
I4
ssg70
g3006
sg63
(lp3013
S'/ddlagoon/static/css/base.css'
p3014
asbasbasbag56
(g72
g58
NtRp3015
(dp3016
g61
(dp3017
sg70
g2959
sg63
(lp3018
g56
(g77
g58
NtRp3019
(dp3020
g61
(dp3021
sg70
g3015
sg63
(lp3022
g56
(g57
g58
NtRp3023
(dp3024
g61
(dp3025
g69
I4
ssg70
g3019
sg63
(lp3026
S'/ddlagoon/static/css/superfish.css'
p3027
asbasbasbag56
(g72
g58
NtRp3028
(dp3029
g61
(dp3030
sg70
g2959
sg63
(lp3031
g56
(g77
g58
NtRp3032
(dp3033
g61
(dp3034
sg70
g3028
sg63
(lp3035
g56
(g57
g58
NtRp3036
(dp3037
g61
(dp3038
g69
I4
ssg70
g3032
sg63
(lp3039
S'/ddlagoon/static/js/superfish.js'
p3040
asbasbasbasbasbasbasbag56
(g72
g58
NtRp3041
(dp3042
g61
(dp3043
sg70
g2704
sg63
(lp3044
g56
(g77
g58
NtRp3045
(dp3046
g61
(dp3047
g81
g82
ssg70
g3041
sg63
(lp3048
S'flash'
p3049
asbag56
(g77
g58
NtRp3050
(dp3051
g61
(dp3052
g88
g89
ssg70
g3041
sg63
(lp3053
S':'
asbag56
(g77
g58
NtRp3054
(dp3055
g61
(dp3056
sg70
g3041
sg63
(lp3057
g56
(g57
g58
NtRp3058
(dp3059
g61
(dp3060
g69
I5
ssg70
g3054
sg63
(lp3061
S''
asbasbasbag56
(g72
g58
NtRp3062
(dp3063
g61
(dp3064
sg70
g2704
sg63
(lp3065
g56
(g77
g58
NtRp3066
(dp3067
g61
(dp3068
g81
g82
ssg70
g3062
sg63
(lp3069
S'generic_patterns'
p3070
asbag56
(g77
g58
NtRp3071
(dp3072
g61
(dp3073
g88
g89
ssg70
g3062
sg63
(lp3074
S':'
asbag56
(g77
g58
NtRp3075
(dp3076
g61
(dp3077
sg70
g3062
sg63
(lp3078
g56
(g57
g58
NtRp3079
(dp3080
g61
(dp3081
g69
I5
ssg70
g3075
sg63
(lp3082
g56
(g65
g58
NtRp3083
(dp3084
g61
(dp3085
g69
I4
ssg70
Nsg63
(lp3086
g56
(g72
g58
NtRp3087
(dp3088
g61
(dp3089
sg70
g3083
sg63
(lp3090
g56
(g77
g58
NtRp3091
(dp3092
g61
(dp3093
sg70
g3087
sg63
(lp3094
g56
(g57
g58
NtRp3095
(dp3096
g61
(dp3097
g69
I4
ssg70
g3091
sg63
(lp3098
S'*'
asbasbasbasbasbasbasbag56
(g72
g58
NtRp3099
(dp3100
g61
(dp3101
sg70
g2704
sg63
(lp3102
g56
(g77
g58
NtRp3103
(dp3104
g61
(dp3105
g81
g82
ssg70
g3099
sg63
(lp3106
S'headers'
p3107
asbag56
(g77
g58
NtRp3108
(dp3109
g61
(dp3110
g88
g89
ssg70
g3099
sg63
(lp3111
S':'
asbag56
(g77
g58
NtRp3112
(dp3113
g61
(dp3114
sg70
g3099
sg63
(lp3115
g56
(g57
g58
NtRp3116
(dp3117
g61
(dp3118
g69
I5
ssg70
g3112
sg63
(lp3119
g56
(g65
g58
NtRp3120
(dp3121
g61
(dp3122
g69
I4
ssg70
Nsg63
(lp3123
g56
(g72
g58
NtRp3124
(dp3125
g61
(dp3126
sg70
g3120
sg63
(lp3127
g56
(g77
g58
NtRp3128
(dp3129
g61
(dp3130
g81
g82
ssg70
g3124
sg63
(lp3131
S'Cache-Control'
p3132
asbag56
(g77
g58
NtRp3133
(dp3134
g61
(dp3135
g88
g89
ssg70
g3124
sg63
(lp3136
S':'
asbag56
(g77
g58
NtRp3137
(dp3138
g61
(dp3139
sg70
g3124
sg63
(lp3140
g56
(g57
g58
NtRp3141
(dp3142
g61
(dp3143
g69
I4
ssg70
g3137
sg63
(lp3144
S'no-store, no-cache, must-revalidate, post-check=0, pre-check=0'
p3145
asbasbasbag56
(g72
g58
NtRp3146
(dp3147
g61
(dp3148
sg70
g3120
sg63
(lp3149
g56
(g77
g58
NtRp3150
(dp3151
g61
(dp3152
g81
g82
ssg70
g3146
sg63
(lp3153
S'Content-Type'
p3154
asbag56
(g77
g58
NtRp3155
(dp3156
g61
(dp3157
g88
g89
ssg70
g3146
sg63
(lp3158
S':'
asbag56
(g77
g58
NtRp3159
(dp3160
g61
(dp3161
sg70
g3146
sg63
(lp3162
g56
(g57
g58
NtRp3163
(dp3164
g61
(dp3165
g69
I4
ssg70
g3159
sg63
(lp3166
S'text/html; charset=utf-8'
p3167
asbasbasbag56
(g72
g58
NtRp3168
(dp3169
g61
(dp3170
sg70
g3120
sg63
(lp3171
g56
(g77
g58
NtRp3172
(dp3173
g61
(dp3174
g81
g82
ssg70
g3168
sg63
(lp3175
S'Expires'
p3176
asbag56
(g77
g58
NtRp3177
(dp3178
g61
(dp3179
g88
g89
ssg70
g3168
sg63
(lp3180
S':'
asbag56
(g77
g58
NtRp3181
(dp3182
g61
(dp3183
sg70
g3168
sg63
(lp3184
g56
(g57
g58
NtRp3185
(dp3186
g61
(dp3187
g69
I4
ssg70
g3181
sg63
(lp3188
S'Thu, 27 Oct 2011 07:59:55 GMT'
p3189
asbasbasbag56
(g72
g58
NtRp3190
(dp3191
g61
(dp3192
sg70
g3120
sg63
(lp3193
g56
(g77
g58
NtRp3194
(dp3195
g61
(dp3196
g81
g82
ssg70
g3190
sg63
(lp3197
S'Pragma'
p3198
asbag56
(g77
g58
NtRp3199
(dp3200
g61
(dp3201
g88
g89
ssg70
g3190
sg63
(lp3202
S':'
asbag56
(g77
g58
NtRp3203
(dp3204
g61
(dp3205
sg70
g3190
sg63
(lp3206
g56
(g57
g58
NtRp3207
(dp3208
g61
(dp3209
g69
I4
ssg70
g3203
sg63
(lp3210
S'no-cache'
p3211
asbasbasbag56
(g72
g58
NtRp3212
(dp3213
g61
(dp3214
sg70
g3120
sg63
(lp3215
g56
(g77
g58
NtRp3216
(dp3217
g61
(dp3218
g81
g82
ssg70
g3212
sg63
(lp3219
S'X-Powered-By'
p3220
asbag56
(g77
g58
NtRp3221
(dp3222
g61
(dp3223
g88
g89
ssg70
g3212
sg63
(lp3224
S':'
asbag56
(g77
g58
NtRp3225
(dp3226
g61
(dp3227
sg70
g3212
sg63
(lp3228
g56
(g57
g58
NtRp3229
(dp3230
g61
(dp3231
g69
I4
ssg70
g3225
sg63
(lp3232
S'web2py'
p3233
asbasbasbasbasbasbasbag56
(g72
g58
NtRp3234
(dp3235
g61
(dp3236
sg70
g2704
sg63
(lp3237
g56
(g77
g58
NtRp3238
(dp3239
g61
(dp3240
g81
g82
ssg70
g3234
sg63
(lp3241
S'menu'
p3242
asbag56
(g77
g58
NtRp3243
(dp3244
g61
(dp3245
g88
g89
ssg70
g3234
sg63
(lp3246
S':'
asbag56
(g77
g58
NtRp3247
(dp3248
g61
(dp3249
sg70
g3234
sg63
(lp3250
g56
(g57
g58
NtRp3251
(dp3252
g61
(dp3253
g69
I5
ssg70
g3247
sg63
(lp3254
g56
(g65
g58
NtRp3255
(dp3256
g61
(dp3257
g69
I4
ssg70
Nsg63
(lp3258
g56
(g72
g58
NtRp3259
(dp3260
g61
(dp3261
sg70
g3255
sg63
(lp3262
g56
(g77
g58
NtRp3263
(dp3264
g61
(dp3265
sg70
g3259
sg63
(lp3266
g56
(g57
g58
NtRp3267
(dp3268
g61
(dp3269
g69
I4
ssg70
g3263
sg63
(lp3270
g56
(g65
g58
NtRp3271
(dp3272
g61
(dp3273
g69
I3
ssg70
Nsg63
(lp3274
g56
(g72
g58
NtRp3275
(dp3276
g61
(dp3277
sg70
g3271
sg63
(lp3278
g56
(g77
g58
NtRp3279
(dp3280
g61
(dp3281
sg70
g3275
sg63
(lp3282
g56
(g57
g58
NtRp3283
(dp3284
g61
(dp3285
g69
I3
ssg70
g3279
sg63
(lp3286
cgluon.languages
lazyT_unpickle
p3287
(S's\x04\x00\x00\x00Home'
tRp3288
asbasbasbag56
(g72
g58
NtRp3289
(dp3290
g61
(dp3291
sg70
g3271
sg63
(lp3292
g56
(g77
g58
NtRp3293
(dp3294
g61
(dp3295
sg70
g3289
sg63
(lp3296
g56
(g57
g58
NtRp3297
(dp3298
g61
(dp3299
g69
I3
ssg70
g3293
sg63
(lp3300
g99
asbasbasbag56
(g72
g58
NtRp3301
(dp3302
g61
(dp3303
sg70
g3271
sg63
(lp3304
g56
(g77
g58
NtRp3305
(dp3306
g61
(dp3307
sg70
g3301
sg63
(lp3308
g56
(g57
g58
NtRp3309
(dp3310
g61
(dp3311
g69
I3
ssg70
g3305
sg63
(lp3312
S'/ddlagoon/default/index'
p3313
asbasbasbag56
(g72
g58
NtRp3314
(dp3315
g61
(dp3316
sg70
g3271
sg63
(lp3317
g56
(g77
g58
NtRp3318
(dp3319
g61
(dp3320
sg70
g3314
sg63
(lp3321
g56
(g57
g58
NtRp3322
(dp3323
g61
(dp3324
g69
I3
ssg70
g3318
sg63
(lp3325
g56
(g65
g58
NtRp3326
(dp3327
g61
(dp3328
g69
I2
ssg70
Nsg63
(lp3329
sbasbasbasbasbasbasbasbag56
(g72
g58
NtRp3330
(dp3331
g61
(dp3332
sg70
g3255
sg63
(lp3333
g56
(g77
g58
NtRp3334
(dp3335
g61
(dp3336
sg70
g3330
sg63
(lp3337
g56
(g57
g58
NtRp3338
(dp3339
g61
(dp3340
g69
I4
ssg70
g3334
sg63
(lp3341
g56
(g65
g58
NtRp3342
(dp3343
g61
(dp3344
g69
I3
ssg70
Nsg63
(lp3345
g56
(g72
g58
NtRp3346
(dp3347
g61
(dp3348
sg70
g3342
sg63
(lp3349
g56
(g77
g58
NtRp3350
(dp3351
g61
(dp3352
sg70
g3346
sg63
(lp3353
g56
(g57
g58
NtRp3354
(dp3355
g61
(dp3356
g69
I3
ssg70
g3350
sg63
(lp3357
g3287
(S's\x08\x00\x00\x00This App'
tRp3358
asbasbasbag56
(g72
g58
NtRp3359
(dp3360
g61
(dp3361
sg70
g3342
sg63
(lp3362
g56
(g77
g58
NtRp3363
(dp3364
g61
(dp3365
sg70
g3359
sg63
(lp3366
g56
(g57
g58
NtRp3367
(dp3368
g61
(dp3369
g69
I3
ssg70
g3363
sg63
(lp3370
g99
asbasbasbag56
(g72
g58
NtRp3371
(dp3372
g61
(dp3373
sg70
g3342
sg63
(lp3374
g56
(g77
g58
NtRp3375
(dp3376
g61
(dp3377
sg70
g3371
sg63
(lp3378
g56
(g57
g58
NtRp3379
(dp3380
g61
(dp3381
g69
I3
ssg70
g3375
sg63
(lp3382
S'/admin/default/design/ddlagoon'
p3383
asbasbasbag56
(g72
g58
NtRp3384
(dp3385
g61
(dp3386
sg70
g3342
sg63
(lp3387
g56
(g77
g58
NtRp3388
(dp3389
g61
(dp3390
sg70
g3384
sg63
(lp3391
g56
(g57
g58
NtRp3392
(dp3393
g61
(dp3394
g69
I3
ssg70
g3388
sg63
(lp3395
g56
(g65
g58
NtRp3396
(dp3397
g61
(dp3398
g69
I2
ssg70
Nsg63
(lp3399
g56
(g72
g58
NtRp3400
(dp3401
g61
(dp3402
sg70
g3396
sg63
(lp3403
g56
(g77
g58
NtRp3404
(dp3405
g61
(dp3406
sg70
g3400
sg63
(lp3407
g56
(g57
g58
NtRp3408
(dp3409
g61
(dp3410
g69
I2
ssg70
g3404
sg63
(lp3411
g56
(g65
g58
NtRp3412
(dp3413
g61
(dp3414
g69
I1
ssg70
Nsg63
(lp3415
g56
(g72
g58
NtRp3416
(dp3417
g61
(dp3418
sg70
g3412
sg63
(lp3419
g56
(g77
g58
NtRp3420
(dp3421
g61
(dp3422
sg70
g3416
sg63
(lp3423
g56
(g57
g58
NtRp3424
(dp3425
g61
(dp3426
g69
I1
ssg70
g3420
sg63
(lp3427
g3287
(S's\n\x00\x00\x00Controller'
tRp3428
asbasbasbag56
(g72
g58
NtRp3429
(dp3430
g61
(dp3431
sg70
g3412
sg63
(lp3432
g56
(g77
g58
NtRp3433
(dp3434
g61
(dp3435
sg70
g3429
sg63
(lp3436
g56
(g57
g58
NtRp3437
(dp3438
g61
(dp3439
g69
I1
ssg70
g3433
sg63
(lp3440
I00
asbasbasbag56
(g72
g58
NtRp3441
(dp3442
g61
(dp3443
sg70
g3412
sg63
(lp3444
g56
(g77
g58
NtRp3445
(dp3446
g61
(dp3447
sg70
g3441
sg63
(lp3448
g56
(g57
g58
NtRp3449
(dp3450
g61
(dp3451
g69
I1
ssg70
g3445
sg63
(lp3452
S'/admin/default/edit/ddlagoon/controllers/default.py'
p3453
asbasbasbasbasbasbasbag56
(g72
g58
NtRp3454
(dp3455
g61
(dp3456
sg70
g3396
sg63
(lp3457
g56
(g77
g58
NtRp3458
(dp3459
g61
(dp3460
sg70
g3454
sg63
(lp3461
g56
(g57
g58
NtRp3462
(dp3463
g61
(dp3464
g69
I2
ssg70
g3458
sg63
(lp3465
g56
(g65
g58
NtRp3466
(dp3467
g61
(dp3468
g69
I1
ssg70
Nsg63
(lp3469
g56
(g72
g58
NtRp3470
(dp3471
g61
(dp3472
sg70
g3466
sg63
(lp3473
g56
(g77
g58
NtRp3474
(dp3475
g61
(dp3476
sg70
g3470
sg63
(lp3477
g56
(g57
g58
NtRp3478
(dp3479
g61
(dp3480
g69
I1
ssg70
g3474
sg63
(lp3481
g3287
(S's\x04\x00\x00\x00View'
tRp3482
asbasbasbag56
(g72
g58
NtRp3483
(dp3484
g61
(dp3485
sg70
g3466
sg63
(lp3486
g56
(g77
g58
NtRp3487
(dp3488
g61
(dp3489
sg70
g3483
sg63
(lp3490
g56
(g57
g58
NtRp3491
(dp3492
g61
(dp3493
g69
I1
ssg70
g3487
sg63
(lp3494
I00
asbasbasbag56
(g72
g58
NtRp3495
(dp3496
g61
(dp3497
sg70
g3466
sg63
(lp3498
g56
(g77
g58
NtRp3499
(dp3500
g61
(dp3501
sg70
g3495
sg63
(lp3502
g56
(g57
g58
NtRp3503
(dp3504
g61
(dp3505
g69
I1
ssg70
g3499
sg63
(lp3506
S'/admin/default/edit/ddlagoon/views/default/index.html'
p3507
asbasbasbasbasbasbasbag56
(g72
g58
NtRp3508
(dp3509
g61
(dp3510
sg70
g3396
sg63
(lp3511
g56
(g77
g58
NtRp3512
(dp3513
g61
(dp3514
sg70
g3508
sg63
(lp3515
g56
(g57
g58
NtRp3516
(dp3517
g61
(dp3518
g69
I2
ssg70
g3512
sg63
(lp3519
g56
(g65
g58
NtRp3520
(dp3521
g61
(dp3522
g69
I1
ssg70
Nsg63
(lp3523
g56
(g72
g58
NtRp3524
(dp3525
g61
(dp3526
sg70
g3520
sg63
(lp3527
g56
(g77
g58
NtRp3528
(dp3529
g61
(dp3530
sg70
g3524
sg63
(lp3531
g56
(g57
g58
NtRp3532
(dp3533
g61
(dp3534
g69
I1
ssg70
g3528
sg63
(lp3535
g3287
(S's\x06\x00\x00\x00Layout'
tRp3536
asbasbasbag56
(g72
g58
NtRp3537
(dp3538
g61
(dp3539
sg70
g3520
sg63
(lp3540
g56
(g77
g58
NtRp3541
(dp3542
g61
(dp3543
sg70
g3537
sg63
(lp3544
g56
(g57
g58
NtRp3545
(dp3546
g61
(dp3547
g69
I1
ssg70
g3541
sg63
(lp3548
I00
asbasbasbag56
(g72
g58
NtRp3549
(dp3550
g61
(dp3551
sg70
g3520
sg63
(lp3552
g56
(g77
g58
NtRp3553
(dp3554
g61
(dp3555
sg70
g3549
sg63
(lp3556
g56
(g57
g58
NtRp3557
(dp3558
g61
(dp3559
g69
I1
ssg70
g3553
sg63
(lp3560
S'/admin/default/edit/ddlagoon/views/layout.html'
p3561
asbasbasbasbasbasbasbag56
(g72
g58
NtRp3562
(dp3563
g61
(dp3564
sg70
g3396
sg63
(lp3565
g56
(g77
g58
NtRp3566
(dp3567
g61
(dp3568
sg70
g3562
sg63
(lp3569
g56
(g57
g58
NtRp3570
(dp3571
g61
(dp3572
g69
I2
ssg70
g3566
sg63
(lp3573
g56
(g65
g58
NtRp3574
(dp3575
g61
(dp3576
g69
I1
ssg70
Nsg63
(lp3577
g56
(g72
g58
NtRp3578
(dp3579
g61
(dp3580
sg70
g3574
sg63
(lp3581
g56
(g77
g58
NtRp3582
(dp3583
g61
(dp3584
sg70
g3578
sg63
(lp3585
g56
(g57
g58
NtRp3586
(dp3587
g61
(dp3588
g69
I1
ssg70
g3582
sg63
(lp3589
g3287
(S's\n\x00\x00\x00Stylesheet'
tRp3590
asbasbasbag56
(g72
g58
NtRp3591
(dp3592
g61
(dp3593
sg70
g3574
sg63
(lp3594
g56
(g77
g58
NtRp3595
(dp3596
g61
(dp3597
sg70
g3591
sg63
(lp3598
g56
(g57
g58
NtRp3599
(dp3600
g61
(dp3601
g69
I1
ssg70
g3595
sg63
(lp3602
I00
asbasbasbag56
(g72
g58
NtRp3603
(dp3604
g61
(dp3605
sg70
g3574
sg63
(lp3606
g56
(g77
g58
NtRp3607
(dp3608
g61
(dp3609
sg70
g3603
sg63
(lp3610
g56
(g57
g58
NtRp3611
(dp3612
g61
(dp3613
g69
I1
ssg70
g3607
sg63
(lp3614
S'/admin/default/edit/ddlagoon/static/base.css'
p3615
asbasbasbasbasbasbasbag56
(g72
g58
NtRp3616
(dp3617
g61
(dp3618
sg70
g3396
sg63
(lp3619
g56
(g77
g58
NtRp3620
(dp3621
g61
(dp3622
sg70
g3616
sg63
(lp3623
g56
(g57
g58
NtRp3624
(dp3625
g61
(dp3626
g69
I2
ssg70
g3620
sg63
(lp3627
g56
(g65
g58
NtRp3628
(dp3629
g61
(dp3630
g69
I1
ssg70
Nsg63
(lp3631
g56
(g72
g58
NtRp3632
(dp3633
g61
(dp3634
sg70
g3628
sg63
(lp3635
g56
(g77
g58
NtRp3636
(dp3637
g61
(dp3638
sg70
g3632
sg63
(lp3639
g56
(g57
g58
NtRp3640
(dp3641
g61
(dp3642
g69
I1
ssg70
g3636
sg63
(lp3643
g3287
(S's\x08\x00\x00\x00DB Model'
tRp3644
asbasbasbag56
(g72
g58
NtRp3645
(dp3646
g61
(dp3647
sg70
g3628
sg63
(lp3648
g56
(g77
g58
NtRp3649
(dp3650
g61
(dp3651
sg70
g3645
sg63
(lp3652
g56
(g57
g58
NtRp3653
(dp3654
g61
(dp3655
g69
I1
ssg70
g3649
sg63
(lp3656
I00
asbasbasbag56
(g72
g58
NtRp3657
(dp3658
g61
(dp3659
sg70
g3628
sg63
(lp3660
g56
(g77
g58
NtRp3661
(dp3662
g61
(dp3663
sg70
g3657
sg63
(lp3664
g56
(g57
g58
NtRp3665
(dp3666
g61
(dp3667
g69
I1
ssg70
g3661
sg63
(lp3668
S'/admin/default/edit/ddlagoon/models/db.py'
p3669
asbasbasbasbasbasbasbag56
(g72
g58
NtRp3670
(dp3671
g61
(dp3672
sg70
g3396
sg63
(lp3673
g56
(g77
g58
NtRp3674
(dp3675
g61
(dp3676
sg70
g3670
sg63
(lp3677
g56
(g57
g58
NtRp3678
(dp3679
g61
(dp3680
g69
I2
ssg70
g3674
sg63
(lp3681
g56
(g65
g58
NtRp3682
(dp3683
g61
(dp3684
g69
I1
ssg70
Nsg63
(lp3685
g56
(g72
g58
NtRp3686
(dp3687
g61
(dp3688
sg70
g3682
sg63
(lp3689
g56
(g77
g58
NtRp3690
(dp3691
g61
(dp3692
sg70
g3686
sg63
(lp3693
g56
(g57
g58
NtRp3694
(dp3695
g61
(dp3696
g69
I1
ssg70
g3690
sg63
(lp3697
g3287
(S's\n\x00\x00\x00Menu Model'
tRp3698
asbasbasbag56
(g72
g58
NtRp3699
(dp3700
g61
(dp3701
sg70
g3682
sg63
(lp3702
g56
(g77
g58
NtRp3703
(dp3704
g61
(dp3705
sg70
g3699
sg63
(lp3706
g56
(g57
g58
NtRp3707
(dp3708
g61
(dp3709
g69
I1
ssg70
g3703
sg63
(lp3710
I00
asbasbasbag56
(g72
g58
NtRp3711
(dp3712
g61
(dp3713
sg70
g3682
sg63
(lp3714
g56
(g77
g58
NtRp3715
(dp3716
g61
(dp3717
sg70
g3711
sg63
(lp3718
g56
(g57
g58
NtRp3719
(dp3720
g61
(dp3721
g69
I1
ssg70
g3715
sg63
(lp3722
S'/admin/default/edit/ddlagoon/models/menu.py'
p3723
asbasbasbasbasbasbasbag56
(g72
g58
NtRp3724
(dp3725
g61
(dp3726
sg70
g3396
sg63
(lp3727
g56
(g77
g58
NtRp3728
(dp3729
g61
(dp3730
sg70
g3724
sg63
(lp3731
g56
(g57
g58
NtRp3732
(dp3733
g61
(dp3734
g69
I2
ssg70
g3728
sg63
(lp3735
g56
(g65
g58
NtRp3736
(dp3737
g61
(dp3738
g69
I1
ssg70
Nsg63
(lp3739
g56
(g72
g58
NtRp3740
(dp3741
g61
(dp3742
sg70
g3736
sg63
(lp3743
g56
(g77
g58
NtRp3744
(dp3745
g61
(dp3746
sg70
g3740
sg63
(lp3747
g56
(g57
g58
NtRp3748
(dp3749
g61
(dp3750
g69
I1
ssg70
g3744
sg63
(lp3751
g3287
(S's\x08\x00\x00\x00Database'
tRp3752
asbasbasbag56
(g72
g58
NtRp3753
(dp3754
g61
(dp3755
sg70
g3736
sg63
(lp3756
g56
(g77
g58
NtRp3757
(dp3758
g61
(dp3759
sg70
g3753
sg63
(lp3760
g56
(g57
g58
NtRp3761
(dp3762
g61
(dp3763
g69
I1
ssg70
g3757
sg63
(lp3764
I00
asbasbasbag56
(g72
g58
NtRp3765
(dp3766
g61
(dp3767
sg70
g3736
sg63
(lp3768
g56
(g77
g58
NtRp3769
(dp3770
g61
(dp3771
sg70
g3765
sg63
(lp3772
g56
(g57
g58
NtRp3773
(dp3774
g61
(dp3775
g69
I1
ssg70
g3769
sg63
(lp3776
S'/ddlagoon/appadmin/index'
p3777
asbasbasbasbasbasbasbag56
(g72
g58
NtRp3778
(dp3779
g61
(dp3780
sg70
g3396
sg63
(lp3781
g56
(g77
g58
NtRp3782
(dp3783
g61
(dp3784
sg70
g3778
sg63
(lp3785
g56
(g57
g58
NtRp3786
(dp3787
g61
(dp3788
g69
I2
ssg70
g3782
sg63
(lp3789
g56
(g65
g58
NtRp3790
(dp3791
g61
(dp3792
g69
I1
ssg70
Nsg63
(lp3793
g56
(g72
g58
NtRp3794
(dp3795
g61
(dp3796
sg70
g3790
sg63
(lp3797
g56
(g77
g58
NtRp3798
(dp3799
g61
(dp3800
sg70
g3794
sg63
(lp3801
g56
(g57
g58
NtRp3802
(dp3803
g61
(dp3804
g69
I1
ssg70
g3798
sg63
(lp3805
g3287
(S's\x06\x00\x00\x00Errors'
tRp3806
asbasbasbag56
(g72
g58
NtRp3807
(dp3808
g61
(dp3809
sg70
g3790
sg63
(lp3810
g56
(g77
g58
NtRp3811
(dp3812
g61
(dp3813
sg70
g3807
sg63
(lp3814
g56
(g57
g58
NtRp3815
(dp3816
g61
(dp3817
g69
I1
ssg70
g3811
sg63
(lp3818
I00
asbasbasbag56
(g72
g58
NtRp3819
(dp3820
g61
(dp3821
sg70
g3790
sg63
(lp3822
g56
(g77
g58
NtRp3823
(dp3824
g61
(dp3825
sg70
g3819
sg63
(lp3826
g56
(g57
g58
NtRp3827
(dp3828
g61
(dp3829
g69
I1
ssg70
g3823
sg63
(lp3830
S'/admin/default/errors/ddlagoon'
p3831
asbasbasbasbasbasbasbag56
(g72
g58
NtRp3832
(dp3833
g61
(dp3834
sg70
g3396
sg63
(lp3835
g56
(g77
g58
NtRp3836
(dp3837
g61
(dp3838
sg70
g3832
sg63
(lp3839
g56
(g57
g58
NtRp3840
(dp3841
g61
(dp3842
g69
I2
ssg70
g3836
sg63
(lp3843
g56
(g65
g58
NtRp3844
(dp3845
g61
(dp3846
g69
I1
ssg70
Nsg63
(lp3847
g56
(g72
g58
NtRp3848
(dp3849
g61
(dp3850
sg70
g3844
sg63
(lp3851
g56
(g77
g58
NtRp3852
(dp3853
g61
(dp3854
sg70
g3848
sg63
(lp3855
g56
(g57
g58
NtRp3856
(dp3857
g61
(dp3858
g69
I1
ssg70
g3852
sg63
(lp3859
g3287
(S's\x05\x00\x00\x00About'
tRp3860
asbasbasbag56
(g72
g58
NtRp3861
(dp3862
g61
(dp3863
sg70
g3844
sg63
(lp3864
g56
(g77
g58
NtRp3865
(dp3866
g61
(dp3867
sg70
g3861
sg63
(lp3868
g56
(g57
g58
NtRp3869
(dp3870
g61
(dp3871
g69
I1
ssg70
g3865
sg63
(lp3872
I00
asbasbasbag56
(g72
g58
NtRp3873
(dp3874
g61
(dp3875
sg70
g3844
sg63
(lp3876
g56
(g77
g58
NtRp3877
(dp3878
g61
(dp3879
sg70
g3873
sg63
(lp3880
g56
(g57
g58
NtRp3881
(dp3882
g61
(dp3883
g69
I1
ssg70
g3877
sg63
(lp3884
S'/admin/default/about/ddlagoon'
p3885
asbasbasbasbasbasbasbasbasbasbasbasbasbasbasbag56
(g72
g58
NtRp3886
(dp3887
g61
(dp3888
sg70
g3255
sg63
(lp3889
g56
(g77
g58
NtRp3890
(dp3891
g61
(dp3892
sg70
g3886
sg63
(lp3893
g56
(g57
g58
NtRp3894
(dp3895
g61
(dp3896
g69
I4
ssg70
g3890
sg63
(lp3897
g56
(g65
g58
NtRp3898
(dp3899
g61
(dp3900
g69
I3
ssg70
Nsg63
(lp3901
g56
(g72
g58
NtRp3902
(dp3903
g61
(dp3904
sg70
g3898
sg63
(lp3905
g56
(g77
g58
NtRp3906
(dp3907
g61
(dp3908
sg70
g3902
sg63
(lp3909
g56
(g57
g58
NtRp3910
(dp3911
g61
(dp3912
g69
I3
ssg70
g3906
sg63
(lp3913
g3287
(S's\t\x00\x00\x00Resources'
tRp3914
asbasbasbag56
(g72
g58
NtRp3915
(dp3916
g61
(dp3917
sg70
g3898
sg63
(lp3918
g56
(g77
g58
NtRp3919
(dp3920
g61
(dp3921
sg70
g3915
sg63
(lp3922
g56
(g57
g58
NtRp3923
(dp3924
g61
(dp3925
g69
I3
ssg70
g3919
sg63
(lp3926
g99
asbasbasbag56
(g72
g58
NtRp3927
(dp3928
g61
(dp3929
sg70
g3898
sg63
(lp3930
g56
(g77
g58
NtRp3931
(dp3932
g61
(dp3933
sg70
g3927
sg63
(lp3934
g56
(g57
g58
NtRp3935
(dp3936
g61
(dp3937
g69
I3
ssg70
g3931
sg63
(lp3938
S'None'
p3939
asbasbasbag56
(g72
g58
NtRp3940
(dp3941
g61
(dp3942
sg70
g3898
sg63
(lp3943
g56
(g77
g58
NtRp3944
(dp3945
g61
(dp3946
sg70
g3940
sg63
(lp3947
g56
(g57
g58
NtRp3948
(dp3949
g61
(dp3950
g69
I3
ssg70
g3944
sg63
(lp3951
g56
(g65
g58
NtRp3952
(dp3953
g61
(dp3954
g69
I2
ssg70
Nsg63
(lp3955
g56
(g72
g58
NtRp3956
(dp3957
g61
(dp3958
sg70
g3952
sg63
(lp3959
g56
(g77
g58
NtRp3960
(dp3961
g61
(dp3962
sg70
g3956
sg63
(lp3963
g56
(g57
g58
NtRp3964
(dp3965
g61
(dp3966
g69
I2
ssg70
g3960
sg63
(lp3967
g56
(g65
g58
NtRp3968
(dp3969
g61
(dp3970
g69
I1
ssg70
Nsg63
(lp3971
g56
(g72
g58
NtRp3972
(dp3973
g61
(dp3974
sg70
g3968
sg63
(lp3975
g56
(g77
g58
NtRp3976
(dp3977
g61
(dp3978
sg70
g3972
sg63
(lp3979
g56
(g57
g58
NtRp3980
(dp3981
g61
(dp3982
g69
I1
ssg70
g3976
sg63
(lp3983
g3287
(S's\r\x00\x00\x00Documentation'
tRp3984
asbasbasbag56
(g72
g58
NtRp3985
(dp3986
g61
(dp3987
sg70
g3968
sg63
(lp3988
g56
(g77
g58
NtRp3989
(dp3990
g61
(dp3991
sg70
g3985
sg63
(lp3992
g56
(g57
g58
NtRp3993
(dp3994
g61
(dp3995
g69
I1
ssg70
g3989
sg63
(lp3996
I00
asbasbasbag56
(g72
g58
NtRp3997
(dp3998
g61
(dp3999
sg70
g3968
sg63
(lp4000
g56
(g77
g58
NtRp4001
(dp4002
g61
(dp4003
sg70
g3997
sg63
(lp4004
g56
(g57
g58
NtRp4005
(dp4006
g61
(dp4007
g69
I1
ssg70
g4001
sg63
(lp4008
S'http://www.web2py.com/book'
p4009
asbasbasbag56
(g72
g58
NtRp4010
(dp4011
g61
(dp4012
sg70
g3968
sg63
(lp4013
g56
(g77
g58
NtRp4014
(dp4015
g61
(dp4016
sg70
g4010
sg63
(lp4017
g56
(g57
g58
NtRp4018
(dp4019
g61
(dp4020
g69
I1
ssg70
g4014
sg63
(lp4021
(lp4022
(g3287
(S's\x07\x00\x00\x00Preface'
tRp4023
I00
S'http://www.web2py.com/book/default/chapter/00'
p4024
tp4025
a(g3287
(S's\x0c\x00\x00\x00Introduction'
tRp4026
I00
S'http://www.web2py.com/book/default/chapter/01'
p4027
tp4028
a(g3287
(S's\x06\x00\x00\x00Python'
tRp4029
I00
S'http://www.web2py.com/book/default/chapter/02'
p4030
tp4031
a(g3287
(S's\x08\x00\x00\x00Overview'
tRp4032
I00
S'http://www.web2py.com/book/default/chapter/03'
p4033
tp4034
a(g3287
(S's\x08\x00\x00\x00The Core'
tRp4035
I00
S'http://www.web2py.com/book/default/chapter/04'
p4036
tp4037
a(g3287
(S's\t\x00\x00\x00The Views'
tRp4038
I00
S'http://www.web2py.com/book/default/chapter/05'
p4039
tp4040
a(g3287
(S's\x08\x00\x00\x00Database'
tRp4041
I00
S'http://www.web2py.com/book/default/chapter/06'
p4042
tp4043
a(g3287
(S's\x14\x00\x00\x00Forms and Validators'
tRp4044
I00
S'http://www.web2py.com/book/default/chapter/07'
p4045
tp4046
a(g3287
(S's\x0e\x00\x00\x00Access Control'
tRp4047
I00
S'http://www.web2py.com/book/default/chapter/08'
p4048
tp4049
a(g3287
(S's\x08\x00\x00\x00Services'
tRp4050
I00
S'http://www.web2py.com/book/default/chapter/09'
p4051
tp4052
a(g3287
(S's\x0c\x00\x00\x00Ajax Recipes'
tRp4053
I00
S'http://www.web2py.com/book/default/chapter/10'
p4054
tp4055
a(g3287
(S's\x12\x00\x00\x00Deployment Recipes'
tRp4056
I00
S'http://www.web2py.com/book/default/chapter/11'
p4057
tp4058
a(g3287
(S's\r\x00\x00\x00Other Recipes'
tRp4059
I00
S'http://www.web2py.com/book/default/chapter/12'
p4060
tp4061
a(g3287
(S's\r\x00\x00\x00Buy this book'
tRp4062
I00
S'http://stores.lulu.com/web2py'
p4063
tp4064
aasbasbasbasbasbasbasbag56
(g72
g58
NtRp4065
(dp4066
g61
(dp4067
sg70
g3952
sg63
(lp4068
g56
(g77
g58
NtRp4069
(dp4070
g61
(dp4071
sg70
g4065
sg63
(lp4072
g56
(g57
g58
NtRp4073
(dp4074
g61
(dp4075
g69
I2
ssg70
g4069
sg63
(lp4076
g56
(g65
g58
NtRp4077
(dp4078
g61
(dp4079
g69
I1
ssg70
Nsg63
(lp4080
g56
(g72
g58
NtRp4081
(dp4082
g61
(dp4083
sg70
g4077
sg63
(lp4084
g56
(g77
g58
NtRp4085
(dp4086
g61
(dp4087
sg70
g4081
sg63
(lp4088
g56
(g57
g58
NtRp4089
(dp4090
g61
(dp4091
g69
I1
ssg70
g4085
sg63
(lp4092
g3287
(S's\t\x00\x00\x00Community'
tRp4093
asbasbasbag56
(g72
g58
NtRp4094
(dp4095
g61
(dp4096
sg70
g4077
sg63
(lp4097
g56
(g77
g58
NtRp4098
(dp4099
g61
(dp4100
sg70
g4094
sg63
(lp4101
g56
(g57
g58
NtRp4102
(dp4103
g61
(dp4104
g69
I1
ssg70
g4098
sg63
(lp4105
I00
asbasbasbag56
(g72
g58
NtRp4106
(dp4107
g61
(dp4108
sg70
g4077
sg63
(lp4109
g56
(g77
g58
NtRp4110
(dp4111
g61
(dp4112
sg70
g4106
sg63
(lp4113
g56
(g57
g58
NtRp4114
(dp4115
g61
(dp4116
g69
I1
ssg70
g4110
sg63
(lp4117
Nasbasbasbag56
(g72
g58
NtRp4118
(dp4119
g61
(dp4120
sg70
g4077
sg63
(lp4121
g56
(g77
g58
NtRp4122
(dp4123
g61
(dp4124
sg70
g4118
sg63
(lp4125
g56
(g57
g58
NtRp4126
(dp4127
g61
(dp4128
g69
I1
ssg70
g4122
sg63
(lp4129
(lp4130
(g3287
(S's\x06\x00\x00\x00Groups'
tRp4131
I00
S'http://www.web2py.com/examples/default/usergroups'
p4132
tp4133
a(g3287
(S's\x07\x00\x00\x00Twitter'
tRp4134
I00
S'http://twitter.com/web2py'
p4135
tp4136
a(g3287
(S's\t\x00\x00\x00Live chat'
tRp4137
I00
S'http://mibbit.com/?channel=%23web2py&server=irc.mibbit.net'
p4138
tp4139
a(g3287
(S's\n\x00\x00\x00User Voice'
tRp4140
I00
S'http://web2py.uservoice.com/'
p4141
tp4142
aasbasbasbasbasbasbasbag56
(g72
g58
NtRp4143
(dp4144
g61
(dp4145
sg70
g3952
sg63
(lp4146
g56
(g77
g58
NtRp4147
(dp4148
g61
(dp4149
sg70
g4143
sg63
(lp4150
g56
(g57
g58
NtRp4151
(dp4152
g61
(dp4153
g69
I2
ssg70
g4147
sg63
(lp4154
g56
(g65
g58
NtRp4155
(dp4156
g61
(dp4157
g69
I1
ssg70
Nsg63
(lp4158
g56
(g72
g58
NtRp4159
(dp4160
g61
(dp4161
sg70
g4155
sg63
(lp4162
g56
(g77
g58
NtRp4163
(dp4164
g61
(dp4165
sg70
g4159
sg63
(lp4166
g56
(g57
g58
NtRp4167
(dp4168
g61
(dp4169
g69
I1
ssg70
g4163
sg63
(lp4170
g3287
(S's\x06\x00\x00\x00Web2py'
tRp4171
asbasbasbag56
(g72
g58
NtRp4172
(dp4173
g61
(dp4174
sg70
g4155
sg63
(lp4175
g56
(g77
g58
NtRp4176
(dp4177
g61
(dp4178
sg70
g4172
sg63
(lp4179
g56
(g57
g58
NtRp4180
(dp4181
g61
(dp4182
g69
I1
ssg70
g4176
sg63
(lp4183
I00
asbasbasbag56
(g72
g58
NtRp4184
(dp4185
g61
(dp4186
sg70
g4155
sg63
(lp4187
g56
(g77
g58
NtRp4188
(dp4189
g61
(dp4190
sg70
g4184
sg63
(lp4191
g56
(g57
g58
NtRp4192
(dp4193
g61
(dp4194
g69
I1
ssg70
g4188
sg63
(lp4195
S'http://www.web2py.com'
p4196
asbasbasbag56
(g72
g58
NtRp4197
(dp4198
g61
(dp4199
sg70
g4155
sg63
(lp4200
g56
(g77
g58
NtRp4201
(dp4202
g61
(dp4203
sg70
g4197
sg63
(lp4204
g56
(g57
g58
NtRp4205
(dp4206
g61
(dp4207
g69
I1
ssg70
g4201
sg63
(lp4208
(lp4209
(g3287
(S's\x08\x00\x00\x00Download'
tRp4210
I00
S'http://www.web2py.com/examples/default/download'
p4211
tp4212
a(g3287
(S's\x07\x00\x00\x00Support'
tRp4213
I00
S'http://www.web2py.com/examples/default/support'
p4214
tp4215
a(g3287
(S's\x0e\x00\x00\x00Quick Examples'
tRp4216
I00
S'http://web2py.com/examples/default/examples'
p4217
tp4218
a(g3287
(S's\x03\x00\x00\x00FAQ'
tRp4219
I00
S'http://web2py.com/AlterEgo'
p4220
tp4221
a(g3287
(S's\x11\x00\x00\x00Free Applications'
tRp4222
I00
S'http://web2py.com/appliances'
p4223
tp4224
a(g3287
(S's\x07\x00\x00\x00Plugins'
tRp4225
I00
S'http://web2py.com/plugins'
p4226
tp4227
a(g3287
(S's\x07\x00\x00\x00Recipes'
tRp4228
I00
S'http://web2pyslices.com/'
p4229
tp4230
a(g3287
(S's\x04\x00\x00\x00Demo'
tRp4231
I00
S'http://web2py.com/demo_admin'
p4232
tp4233
a(g3287
(S's\x08\x00\x00\x00Semantic'
tRp4234
I00
S'http://web2py.com/semantic'
p4235
tp4236
a(g3287
(S's\x07\x00\x00\x00Layouts'
tRp4237
I00
S'http://web2py.com/layouts'
p4238
tp4239
a(g3287
(S's\x06\x00\x00\x00Videos'
tRp4240
I00
S'http://www.web2py.com/examples/default/videos/'
p4241
tp4242
aasbasbasbasbasbasbasbasbasbasbasbasbasbasbasbasbasbasbasbag56
(g72
g58
NtRp4243
(dp4244
g61
(dp4245
sg70
g2704
sg63
(lp4246
g56
(g77
g58
NtRp4247
(dp4248
g61
(dp4249
g81
g82
ssg70
g4243
sg63
(lp4250
S'meta'
p4251
asbag56
(g77
g58
NtRp4252
(dp4253
g61
(dp4254
g88
g89
ssg70
g4243
sg63
(lp4255
S':'
asbag56
(g77
g58
NtRp4256
(dp4257
g61
(dp4258
sg70
g4243
sg63
(lp4259
g56
(g57
g58
NtRp4260
(dp4261
g61
(dp4262
g69
I5
ssg70
g4256
sg63
(lp4263
g56
(g65
g58
NtRp4264
(dp4265
g61
(dp4266
g69
I4
ssg70
Nsg63
(lp4267
g56
(g72
g58
NtRp4268
(dp4269
g61
(dp4270
sg70
g4264
sg63
(lp4271
g56
(g77
g58
NtRp4272
(dp4273
g61
(dp4274
g81
g82
ssg70
g4268
sg63
(lp4275
S'author'
p4276
asbag56
(g77
g58
NtRp4277
(dp4278
g61
(dp4279
g88
g89
ssg70
g4268
sg63
(lp4280
S':'
asbag56
(g77
g58
NtRp4281
(dp4282
g61
(dp4283
sg70
g4268
sg63
(lp4284
g56
(g57
g58
NtRp4285
(dp4286
g61
(dp4287
g69
I4
ssg70
g4281
sg63
(lp4288
S'Your Name <you@example.com>'
p4289
asbasbasbag56
(g72
g58
NtRp4290
(dp4291
g61
(dp4292
sg70
g4264
sg63
(lp4293
g56
(g77
g58
NtRp4294
(dp4295
g61
(dp4296
g81
g82
ssg70
g4290
sg63
(lp4297
S'copyright'
p4298
asbag56
(g77
g58
NtRp4299
(dp4300
g61
(dp4301
g88
g89
ssg70
g4290
sg63
(lp4302
S':'
asbag56
(g77
g58
NtRp4303
(dp4304
g61
(dp4305
sg70
g4290
sg63
(lp4306
g56
(g57
g58
NtRp4307
(dp4308
g61
(dp4309
g69
I4
ssg70
g4303
sg63
(lp4310
S'Copyright 2011'
p4311
asbasbasbag56
(g72
g58
NtRp4312
(dp4313
g61
(dp4314
sg70
g4264
sg63
(lp4315
g56
(g77
g58
NtRp4316
(dp4317
g61
(dp4318
g81
g82
ssg70
g4312
sg63
(lp4319
S'description'
p4320
asbag56
(g77
g58
NtRp4321
(dp4322
g61
(dp4323
g88
g89
ssg70
g4312
sg63
(lp4324
S':'
asbag56
(g77
g58
NtRp4325
(dp4326
g61
(dp4327
sg70
g4312
sg63
(lp4328
g56
(g57
g58
NtRp4329
(dp4330
g61
(dp4331
g69
I4
ssg70
g4325
sg63
(lp4332
S'a cool new app'
p4333
asbasbasbag56
(g72
g58
NtRp4334
(dp4335
g61
(dp4336
sg70
g4264
sg63
(lp4337
g56
(g77
g58
NtRp4338
(dp4339
g61
(dp4340
g81
g82
ssg70
g4334
sg63
(lp4341
S'generator'
p4342
asbag56
(g77
g58
NtRp4343
(dp4344
g61
(dp4345
g88
g89
ssg70
g4334
sg63
(lp4346
S':'
asbag56
(g77
g58
NtRp4347
(dp4348
g61
(dp4349
sg70
g4334
sg63
(lp4350
g56
(g57
g58
NtRp4351
(dp4352
g61
(dp4353
g69
I4
ssg70
g4347
sg63
(lp4354
S'Web2py Web Framework'
p4355
asbasbasbag56
(g72
g58
NtRp4356
(dp4357
g61
(dp4358
sg70
g4264
sg63
(lp4359
g56
(g77
g58
NtRp4360
(dp4361
g61
(dp4362
g81
g82
ssg70
g4356
sg63
(lp4363
S'keywords'
p4364
asbag56
(g77
g58
NtRp4365
(dp4366
g61
(dp4367
g88
g89
ssg70
g4356
sg63
(lp4368
S':'
asbag56
(g77
g58
NtRp4369
(dp4370
g61
(dp4371
sg70
g4356
sg63
(lp4372
g56
(g57
g58
NtRp4373
(dp4374
g61
(dp4375
g69
I4
ssg70
g4369
sg63
(lp4376
S'web2py, python, framework'
p4377
asbasbasbasbasbasbasbag56
(g72
g58
NtRp4378
(dp4379
g61
(dp4380
sg70
g2704
sg63
(lp4381
g56
(g77
g58
NtRp4382
(dp4383
g61
(dp4384
g81
g82
ssg70
g4378
sg63
(lp4385
S'postprocessing'
p4386
asbag56
(g77
g58
NtRp4387
(dp4388
g61
(dp4389
g88
g89
ssg70
g4378
sg63
(lp4390
S':'
asbag56
(g77
g58
NtRp4391
(dp4392
g61
(dp4393
sg70
g4378
sg63
(lp4394
g56
(g57
g58
NtRp4395
(dp4396
g61
(dp4397
g69
I5
ssg70
g4391
sg63
(lp4398
g56
(g65
g58
NtRp4399
(dp4400
g61
(dp4401
g69
I4
ssg70
Nsg63
(lp4402
sbasbasbasbag56
(g72
g58
NtRp4403
(dp4404
g61
(dp4405
sg70
g2704
sg63
(lp4406
g56
(g77
g58
NtRp4407
(dp4408
g61
(dp4409
g81
g82
ssg70
g4403
sg63
(lp4410
S'session_filename'
p4411
asbag56
(g77
g58
NtRp4412
(dp4413
g61
(dp4414
g88
g89
ssg70
g4403
sg63
(lp4415
S':'
asbag56
(g77
g58
NtRp4416
(dp4417
g61
(dp4418
sg70
g4403
sg63
(lp4419
g56
(g57
g58
NtRp4420
(dp4421
g61
(dp4422
g69
I5
ssg70
g4416
sg63
(lp4423
S'/windows/Users/Thomas/Dropbox/appz/2011/GAE/ddl-lagoon/applications/ddlagoon/sessions/127.0.0.1-79983c58-0a61-4562-844a-9d0c0b7d0d81'
p4424
asbasbasbag56
(g72
g58
NtRp4425
(dp4426
g61
(dp4427
sg70
g2704
sg63
(lp4428
g56
(g77
g58
NtRp4429
(dp4430
g61
(dp4431
g81
g82
ssg70
g4425
sg63
(lp4432
S'session_id'
p4433
asbag56
(g77
g58
NtRp4434
(dp4435
g61
(dp4436
g88
g89
ssg70
g4425
sg63
(lp4437
S':'
asbag56
(g77
g58
NtRp4438
(dp4439
g61
(dp4440
sg70
g4425
sg63
(lp4441
g56
(g57
g58
NtRp4442
(dp4443
g61
(dp4444
g69
I5
ssg70
g4438
sg63
(lp4445
S'127.0.0.1-79983c58-0a61-4562-844a-9d0c0b7d0d81'
p4446
asbasbasbag56
(g72
g58
NtRp4447
(dp4448
g61
(dp4449
sg70
g2704
sg63
(lp4450
g56
(g77
g58
NtRp4451
(dp4452
g61
(dp4453
g81
g82
ssg70
g4447
sg63
(lp4454
S'session_id_name'
p4455
asbag56
(g77
g58
NtRp4456
(dp4457
g61
(dp4458
g88
g89
ssg70
g4447
sg63
(lp4459
S':'
asbag56
(g77
g58
NtRp4460
(dp4461
g61
(dp4462
sg70
g4447
sg63
(lp4463
g56
(g57
g58
NtRp4464
(dp4465
g61
(dp4466
g69
I5
ssg70
g4460
sg63
(lp4467
g2761
asbasbasbag56
(g72
g58
NtRp4468
(dp4469
g61
(dp4470
sg70
g2704
sg63
(lp4471
g56
(g77
g58
NtRp4472
(dp4473
g61
(dp4474
g81
g82
ssg70
g4468
sg63
(lp4475
S'session_new'
p4476
asbag56
(g77
g58
NtRp4477
(dp4478
g61
(dp4479
g88
g89
ssg70
g4468
sg63
(lp4480
S':'
asbag56
(g77
g58
NtRp4481
(dp4482
g61
(dp4483
sg70
g4468
sg63
(lp4484
g56
(g57
g58
NtRp4485
(dp4486
g61
(dp4487
g69
I5
ssg70
g4481
sg63
(lp4488
g1306
asbasbasbag56
(g72
g58
NtRp4489
(dp4490
g61
(dp4491
sg70
g2704
sg63
(lp4492
g56
(g77
g58
NtRp4493
(dp4494
g61
(dp4495
g81
g82
ssg70
g4489
sg63
(lp4496
S'status'
p4497
asbag56
(g77
g58
NtRp4498
(dp4499
g61
(dp4500
g88
g89
ssg70
g4489
sg63
(lp4501
S':'
asbag56
(g77
g58
NtRp4502
(dp4503
g61
(dp4504
sg70
g4489
sg63
(lp4505
g56
(g57
g58
NtRp4506
(dp4507
g61
(dp4508
g69
I5
ssg70
g4502
sg63
(lp4509
S'200'
p4510
asbasbasbag56
(g72
g58
NtRp4511
(dp4512
g61
(dp4513
sg70
g2704
sg63
(lp4514
g56
(g77
g58
NtRp4515
(dp4516
g61
(dp4517
g81
g82
ssg70
g4511
sg63
(lp4518
S'subtitle'
p4519
asbag56
(g77
g58
NtRp4520
(dp4521
g61
(dp4522
g88
g89
ssg70
g4511
sg63
(lp4523
S':'
asbag56
(g77
g58
NtRp4524
(dp4525
g61
(dp4526
sg70
g4511
sg63
(lp4527
g56
(g57
g58
NtRp4528
(dp4529
g61
(dp4530
g69
I5
ssg70
g4524
sg63
(lp4531
g3287
(S's\r\x00\x00\x00customize me!'
tRp4532
asbasbasbag56
(g72
g58
NtRp4533
(dp4534
g61
(dp4535
sg70
g2704
sg63
(lp4536
g56
(g77
g58
NtRp4537
(dp4538
g61
(dp4539
g81
g82
ssg70
g4533
sg63
(lp4540
S'title'
p4541
asbag56
(g77
g58
NtRp4542
(dp4543
g61
(dp4544
g88
g89
ssg70
g4533
sg63
(lp4545
S':'
asbag56
(g77
g58
NtRp4546
(dp4547
g61
(dp4548
sg70
g4533
sg63
(lp4549
g56
(g57
g58
NtRp4550
(dp4551
g61
(dp4552
g69
I5
ssg70
g4546
sg63
(lp4553
g121
asbasbasbag56
(g72
g58
NtRp4554
(dp4555
g61
(dp4556
sg70
g2704
sg63
(lp4557
g56
(g77
g58
NtRp4558
(dp4559
g61
(dp4560
g81
g82
ssg70
g4554
sg63
(lp4561
g1950
asbag56
(g77
g58
NtRp4562
(dp4563
g61
(dp4564
g88
g89
ssg70
g4554
sg63
(lp4565
S':'
asbag56
(g77
g58
NtRp4566
(dp4567
g61
(dp4568
sg70
g4554
sg63
(lp4569
g56
(g57
g58
NtRp4570
(dp4571
g61
(dp4572
g69
I5
ssg70
g4566
sg63
(lp4573
g1963
asbasbasbag56
(g72
g58
NtRp4574
(dp4575
g61
(dp4576
sg70
g2704
sg63
(lp4577
g56
(g77
g58
NtRp4578
(dp4579
g61
(dp4580
g81
g82
ssg70
g4574
sg63
(lp4581
S'view'
p4582
asbag56
(g77
g58
NtRp4583
(dp4584
g61
(dp4585
g88
g89
ssg70
g4574
sg63
(lp4586
S':'
asbag56
(g77
g58
NtRp4587
(dp4588
g61
(dp4589
sg70
g4574
sg63
(lp4590
g56
(g57
g58
NtRp4591
(dp4592
g61
(dp4593
g69
I5
ssg70
g4587
sg63
(lp4594
S'default/index.html'
p4595
asbasbasbasbasbsS'locals'
p4596
(dp4597
S'Service'
p4598
S"<class 'gluon.tools.Service'>"
p4599
sS'OBJECT'
p4600
S"<class 'gluon.html.OBJECT'>"
p4601
sS'SQLDB'
p4602
S"<class 'gluon.dal.DAL'>"
p4603
sg2686
S"<Storage {'_Session__hash': '\\xc8[\\xd5\\xc1#\\xd8e\\x10\\xe3\\x06\\x0ba\\xddT\\x92m'}>"
p4604
sS'LINK'
p4605
S"<class 'gluon.html.LINK'>"
p4606
sS'BR'
p4607
S"<class 'gluon.html.BR'>"
p4608
sS'local_import'
p4609
S'<function <lambda>>'
p4610
sS'OPTGROUP'
p4611
S"<class 'gluon.html.OPTGROUP'>"
p4612
sS'PRE'
p4613
S"<class 'gluon.html.PRE'>"
p4614
sS'IS_INT_IN_RANGE'
p4615
S"<class 'gluon.validators.IS_INT_IN_RANGE'>"
p4616
sS'left_sidebar_enabled'
p4617
g1306
sS'IS_LOWER'
p4618
S"<class 'gluon.validators.IS_LOWER'>"
p4619
sS'IS_STRONG'
p4620
S"<class 'gluon.validators.IS_STRONG'>"
p4621
sS'cache'
p4622
S'<gluon.cache.Cache object>'
p4623
sS'IS_IN_DB'
p4624
S"<class 'gluon.validators.IS_IN_DB'>"
p4625
sS'TAG'
p4626
S'<gluon.html.__TAG__ object>'
p4627
sS'SQLField'
p4628
S"<class 'gluon.dal.Field'>"
p4629
sS'mail'
p4630
S'<gluon.tools.Mail object>'
p4631
sS'BODY'
p4632
S"<class 'gluon.html.BODY'>"
p4633
sS'IS_DATE_IN_RANGE'
p4634
S"<class 'gluon.validators.IS_DATE_IN_RANGE'>"
p4635
sS'TH'
p4636
S"<class 'gluon.html.TH'>"
p4637
sS'URL'
p4638
S'<function URL>'
p4639
sS'__file__'
p4640
S"'/windows/Users/Thomas/Dropbox/appz/2011/GAE/ddl-...on/applications/ddlagoon/views/default/index.html'"
p4641
sS'db'
p4642
S"<DAL {'auth_event': <Table {'origin': <gluon.dal..., 'id': <gluon.dal.Field object at 0x27bd210>}>}>"
p4643
sS'auth'
p4644
S'<gluon.tools.Auth object>'
p4645
sS'P'
S"<class 'gluon.html.P'>"
p4646
sS'TFOOT'
p4647
S"<class 'gluon.html.TFOOT'>"
p4648
sS'XHTML'
p4649
S"<class 'gluon.html.XHTML'>"
p4650
sS'ON'
p4651
g1306
sS'OL'
p4652
S"<class 'gluon.html.OL'>"
p4653
sS'TEXTAREA'
p4654
S"<class 'gluon.html.TEXTAREA'>"
p4655
sS'MENU'
p4656
S"<class 'gluon.html.MENU'>"
p4657
sS'IS_IMAGE'
p4658
S"<class 'gluon.validators.IS_IMAGE'>"
p4659
sS'LOAD'
p4660
S'<gluon.compileapp.LoadFactory object>'
p4661
sS'CODE'
p4662
S"<class 'gluon.html.CODE'>"
p4663
sS'HTTP'
p4664
S"<class 'gluon.http.HTTP'>"
p4665
sS'HR'
p4666
S"<class 'gluon.html.HR'>"
p4667
sS'IS_DATETIME'
p4668
S"<class 'gluon.validators.IS_DATETIME'>"
p4669
sS'HEAD'
p4670
S"<class 'gluon.html.HEAD'>"
p4671
sS'LABEL'
p4672
S"<class 'gluon.html.LABEL'>"
p4673
sS'META'
p4674
S"<class 'gluon.html.META'>"
p4675
sS'plugins'
p4676
S'<gluon.tools.PluginManager object>'
p4677
sS'SELECT'
p4678
S"<class 'gluon.html.SELECT'>"
p4679
sS'use_janrain'
p4680
S'<function use_janrain>'
p4681
sS'CENTER'
p4682
S"<class 'gluon.html.CENTER'>"
p4683
sS'prettydate'
p4684
S'<function prettydate>'
p4685
sS'Crud'
p4686
S"<class 'gluon.tools.Crud'>"
p4687
sS'Auth'
p4688
S"<class 'gluon.tools.Auth'>"
p4689
sS'IS_EQUAL_TO'
p4690
S"<class 'gluon.validators.IS_EQUAL_TO'>"
p4691
sS'HTML'
p4692
S"<class 'gluon.html.HTML'>"
p4693
sS'ddl'
p4694
S"<Row {'last_time_downloaded': None, 'version': 1..., 'date_created': None, 'web_description': None}>"
p4695
sS'SQLFORM'
p4696
S"<class 'gluon.sqlhtml.SQLFORM'>"
p4697
sS'EM'
p4698
S"<class 'gluon.html.EM'>"
p4699
sS'redirect'
p4700
S'<function redirect>'
p4701
sS'FIELDSET'
p4702
S"<class 'gluon.html.FIELDSET'>"
p4703
sS'__builtins__'
p4704
S"{'ArithmeticError': <type 'exceptions.ArithmeticError'>, 'AssertionError': <type 'exceptions.AssertionError'>, 'AttributeError': <type 'exceptions.AttributeError'>, 'BaseException': <type 'exceptions.BaseException'>, 'BufferError': <type 'exceptions.BufferError'>, 'BytesWarning': <type 'exceptions.BytesWarning'>, 'DeprecationWarning': <type 'exceptions.DeprecationWarning'>, 'EOFError': <type 'exceptions.EOFError'>, 'Ellipsis': Ellipsis, 'EnvironmentError': <type 'exceptions.EnvironmentError'>, ...}"
p4705
sS'embed64'
p4706
S'<function embed64>'
p4707
sS'IS_LIST_OF'
p4708
S"<class 'gluon.validators.IS_LIST_OF'>"
p4709
sS'INPUT'
p4710
S"<class 'gluon.html.INPUT'>"
p4711
sS'EMBED'
p4712
S"<class 'gluon.html.EMBED'>"
p4713
sS'_'
S'<function _>'
p4714
sS'width_content'
p4715
S"'63%'"
p4716
sS'H2'
p4717
S"<class 'gluon.html.H2'>"
p4718
sS'H3'
p4719
S"<class 'gluon.html.H3'>"
p4720
sS'BUTTON'
p4721
S"<class 'gluon.html.BUTTON'>"
p4722
sS'H1'
p4723
S"<class 'gluon.html.H1'>"
p4724
sS'H6'
p4725
S"<class 'gluon.html.H6'>"
p4726
sS'H4'
p4727
S"<class 'gluon.html.H4'>"
p4728
sS'H5'
p4729
S"<class 'gluon.html.H5'>"
p4730
sS'UL'
p4731
S"<class 'gluon.html.UL'>"
p4732
sS'IS_UPPER'
p4733
S"<class 'gluon.validators.IS_UPPER'>"
p4734
sS'xmlescape'
p4735
S'<function xmlescape>'
p4736
sS'IS_TIME'
p4737
S"<class 'gluon.validators.IS_TIME'>"
p4738
sS'OPTION'
p4739
S"<class 'gluon.html.OPTION'>"
p4740
sS'TITLE'
p4741
S"<class 'gluon.html.TITLE'>"
p4742
sS'CRYPT'
p4743
S"<class 'gluon.validators.CRYPT'>"
p4744
sS'IS_EMPTY_OR'
p4745
S"<class 'gluon.validators.IS_EMPTY_OR'>"
p4746
sS'MARKMIN'
p4747
S"<class 'gluon.html.MARKMIN'>"
p4748
sS'message'
p4749
S"<lazyT 'Hello World'>"
p4750
sS'COL'
p4751
S"<class 'gluon.html.COL'>"
p4752
sS'service'
p4753
S'<gluon.tools.Service object>'
p4754
sS'SCRIPT'
p4755
S"<class 'gluon.html.SCRIPT'>"
p4756
sS'getCurrentTime'
p4757
S'<function getCurrentTime>'
p4758
sS'TABLE'
p4759
S"<class 'gluon.html.TABLE'>"
p4760
sS'IS_IPV4'
p4761
S"<class 'gluon.validators.IS_IPV4'>"
p4762
sS'IS_LENGTH'
p4763
S"<class 'gluon.validators.IS_LENGTH'>"
p4764
sS'XML'
p4765
S"<class 'gluon.html.XML'>"
p4766
sS'B'
S"<class 'gluon.html.B'>"
p4767
sS'IMG'
p4768
S"<class 'gluon.html.IMG'>"
p4769
sS'SQLTABLE'
p4770
S"<class 'gluon.sqlhtml.SQLTABLE'>"
p4771
sS'IS_MATCH'
p4772
S"<class 'gluon.validators.IS_MATCH'>"
p4773
sS'IS_ALPHANUMERIC'
p4774
S"<class 'gluon.validators.IS_ALPHANUMERIC'>"
p4775
sS'ddlz'
p4776
S'<gluon.dal.Rows object>'
p4777
sS'SPAN'
p4778
S"<class 'gluon.html.SPAN'>"
p4779
sS'IS_SLUG'
p4780
S"<class 'gluon.validators.IS_SLUG'>"
p4781
sS'CLEANUP'
p4782
S"<class 'gluon.validators.CLEANUP'>"
p4783
sS'IS_DATE'
p4784
S"<class 'gluon.validators.IS_DATE'>"
p4785
sS'IS_EMAIL'
p4786
S"<class 'gluon.validators.IS_EMAIL'>"
p4787
sS'IS_NOT_EMPTY'
p4788
S"<class 'gluon.validators.IS_NOT_EMPTY'>"
p4789
sg55
S"<Storage {'body': <cStringIO.StringO object at 0..._vars': <Storage {}>, 'post_vars': <Storage {}>}>"
p4790
sS'BEAUTIFY'
p4791
S"<class 'gluon.html.BEAUTIFY'>"
p4792
sS'TBODY'
p4793
S"<class 'gluon.html.TBODY'>"
p4794
sS'CAT'
p4795
S"<class 'gluon.html.CAT'>"
p4796
sS'Field'
p4797
S"<class 'gluon.dal.Field'>"
p4798
sS'DIV'
p4799
S"<class 'gluon.html.DIV'>"
p4800
sS'LEGEND'
p4801
S"<class 'gluon.html.LEGEND'>"
p4802
sS'COLGROUP'
p4803
S"<class 'gluon.html.COLGROUP'>"
p4804
sS'DAL'
p4805
S"<class 'gluon.dal.DAL'>"
p4806
sS'pathutils'
p4807
S"<module 'applications.ddlagoon.pathutils' from 'applications/ddlagoon/pathutils.pyc'>"
p4808
sS'TT'
p4809
S"<class 'gluon.html.TT'>"
p4810
sS'TR'
p4811
S"<class 'gluon.html.TR'>"
p4812
sS'LI'
p4813
S"<class 'gluon.html.LI'>"
p4814
sS'right_sidebar_enabled'
p4815
g1306
sS'IFRAME'
p4816
S"<class 'gluon.html.IFRAME'>"
p4817
sS'TD'
p4818
S"<class 'gluon.html.TD'>"
p4819
sS'PluginManager'
p4820
S"<class 'gluon.tools.PluginManager'>"
p4821
sS'IS_URL'
p4822
S"<class 'gluon.validators.IS_URL'>"
p4823
sS'A'
S"<class 'gluon.html.A'>"
p4824
sS'STYLE'
p4825
S"<class 'gluon.html.STYLE'>"
p4826
sS'IS_DATETIME_IN_RANGE'
p4827
S"<class 'gluon.validators.IS_DATETIME_IN_RANGE'>"
p4828
sS'generateNickname'
p4829
S'<function generateNickname>'
p4830
sS'FORM'
p4831
S"<class 'gluon.html.FORM'>"
p4832
sS'I'
S"<class 'gluon.html.I'>"
p4833
sS'crud'
p4834
S'<gluon.tools.Crud object>'
p4835
sS'right_sidebar_style'
p4836
S'\'style="display: block;"\''
p4837
sS'IS_NOT_IN_DB'
p4838
S"<class 'gluon.validators.IS_NOT_IN_DB'>"
p4839
sg2699
S"<Storage {'status': 200, 'body': <cStringIO.Stri...js/superfish.js'], 'view': 'default/index.html'}>"
p4840
sS'THEAD'
p4841
S"<class 'gluon.html.THEAD'>"
p4842
sS'IS_NULL_OR'
p4843
S"<class 'gluon.validators.IS_EMPTY_OR'>"
p4844
sS'left_sidebar_style'
p4845
S'\'style="display: block;"\''
p4846
sS'generateUploaderKey'
p4847
S'<function generateUploaderKey>'
p4848
sS'IS_FLOAT_IN_RANGE'
p4849
S"<class 'gluon.validators.IS_FLOAT_IN_RANGE'>"
p4850
sS'IS_EXPR'
p4851
S"<class 'gluon.validators.IS_EXPR'>"
p4852
sS'T'
S'<gluon.languages.translator object>'
p4853
sS'IS_IN_SET'
p4854
S"<class 'gluon.validators.IS_IN_SET'>"
p4855
sS'IS_UPLOAD_FILENAME'
p4856
S"<class 'gluon.validators.IS_UPLOAD_FILENAME'>"
p4857
sS'style_content'
p4858
S'\'style="width: 63%"\''
p4859
sS're'
p4860
S"<module 're' from '/usr/lib/python2.6/re.pyc'>"
p4861
sS'IS_DECIMAL_IN_RANGE'
p4862
S"<class 'gluon.validators.IS_DECIMAL_IN_RANGE'>"
p4863
sssS'traceback'
p4864
S'Traceback (most recent call last):\n  File "/windows/Users/Thomas/Dropbox/appz/2011/GAE/ddl-lagoon/gluon/restricted.py", line 194, in restricted\n    exec ccode in environment\n  File "/windows/Users/Thomas/Dropbox/appz/2011/GAE/ddl-lagoon/applications/ddlagoon/views/default/index.html", line 86, in <module>\nAttributeError: \'datetime.datetime\' object has no attribute \'split\'\n'
p4865
s.