(dp1
S'output'
p2
S''
sS'layer'
p3
S'C:\\Users\\Thomas\\Dropbox\\appz\\2011\\ddlagoon\\public_html\\applications\\ddlagoon\\views\\default/how_to_upload.html'
p4
sS'code'
p5
S'left_sidebar_enabled=right_sidebar_enabled=True\nresponse.write(\'\\r\\n\', escape=False)\nresponse.write(\'<!DOCTYPE html>\\n<html lang="\', escape=False)\nresponse.write(T.accepted_language or \'en\')\nresponse.write(\'" class="no-js"><!-- no-js need it for modernzr -->\\n  <head>\\n    \\n    <meta charset="utf-8" />        \\n    <!-- www.phpied.com/conditional-comments-block-downloads/ -->\\n    <!--[if IE]>\\n      <!-- Always force latest IE rendering engine \\n       (even in intranet) & Chrome Frame \\n       Remove this if you use the .htaccess -->\\n      <meta http-equiv="X-UA-Compatible" content="IE=edge,chrome=1">\\n    <![endif]-->    \\n\\n    <title>DDLagoon</title>\\n    \\n    <!-- http://dev.w3.org/html5/markup/meta.name.html -->\\n    <meta name="application-name" content="\', escape=False)\nresponse.write(request.application)\nresponse.write(\'" /> \\n    \\n    <!-- Speaking of Google, don\\\'t forget to set your site up: \\n     http://google.com/webmasters -->\\n    <meta name="google-site-verification" content="" />\\n    \\n    <!--  Mobile Viewport Fix\\n      j.mp/mobileviewport & davidbcalhoun.com/2010/viewport-metatag \\n      device-width: Occupy full width of the screen in its current orientation\\n      initial-scale = 1.0 retains dimensions instead of zooming out if page height > device height\\n      maximum-scale = 1.0 retains dimensions instead of zooming in if page width < device width\\n      -->\\n    <meta name="viewport" content="width=device-width, initial-scale=1.0, maximum-scale=1.0">\\n    \\n    <!-- Place favicon.ico and apple-touch-icon.png in the root of your domain and delete these references -->\\n    <link rel="shortcut icon" href="\', escape=False)\nresponse.write(URL(\'static\',\'favicon.ico\'))\nresponse.write(\'" type="image/x-icon">\\n    <link rel="apple-touch-icon" href="\', escape=False)\nresponse.write(URL(\'static\',\'favicon.png\'))\nresponse.write(\'">\\n\\n    <!-- For the less-enabled mobile browsers like Opera Mini -->\\n    <link rel="stylesheet" media="handheld" href="\', escape=False)\nresponse.write(URL(\'static\',\'css/handheld.css\'))\nresponse.write(\'">\\n    \\n    <!-- All JavaScript at the bottom, except for Modernizr which enables HTML5 elements & feature detects -->\\n    <script src="\', escape=False)\nresponse.write(URL(\'static\',\'js/modernizr-1.7.min.js\'))\nresponse.write(\'"></script>\\n    \\n    \', escape=False)\n#------  require CSS and JS files for this page (read info in base.css) ------\nresponse.write(\'\\n    \', escape=False)\nresponse.files.append(URL(\'static\',\'css/base.css\'))\nresponse.write(\'\\n    \', escape=False)\nresponse.files.append(URL(\'static\',\'css/superfish.css\'))\nresponse.write(\'\\n    \', escape=False)\nresponse.files.append(URL(\'static\',\'js/superfish.js\'))\nresponse.write(\'\\n    \', escape=False)\n#------ include web2py specific js code (jquery, calendar, form stuff) ------\nresponse.write(\'\\n    \', escape=False)\nresponse.files.insert(0,URL(\'static\',\'js/jquery.js\'))\nresponse.files.insert(1,URL(\'static\',\'css/anytime.css\'))\nresponse.files.insert(2,URL(\'static\',\'js/anytime.js\'))\nresponse.include_meta()\nresponse.include_files()\nresponse.write(\'\\n<script type="text/javascript"><!--\\n    // These variables are used by the web2py_ajax_init function in web2py_ajax.js (which is loaded below).\\n    var w2p_ajax_confirm_message = "\', escape=False)\nresponse.write(T(\'Are you sure you want to delete this object?\'))\nresponse.write(\'";\\n    var w2p_ajax_date_format = "\', escape=False)\nresponse.write(T(\'%Y-%m-%d\'))\nresponse.write(\'";\\n    var w2p_ajax_datetime_format = "\', escape=False)\nresponse.write(T(\'%Y-%m-%d %H:%M:%S\'))\nresponse.write(\'";\\n    //--></script>\\n    <script src="\', escape=False)\nresponse.write(URL(\'static\',\'js/web2py_ajax.js\'))\nresponse.write(\'" type="text/javascript"></script>\\n\', escape=False)\nresponse.write(\'\\n\\n    \', escape=False)\n#using sidebars need to know what sidebar you want to use\n#prior of using it, because of static width size of content, you can use\n#left_sidebar, right_sidebar, both or none (False left and right)\nleft_sidebar_enabled = globals().get(\'left_sidebar_enabled\',False)\nright_sidebar_enabled = globals().get(\'right_sidebar_enabled\',False)\nif left_sidebar_enabled and right_sidebar_enabled: width_content=\'63%\'\nelif left_sidebar_enabled != right_sidebar_enabled: width_content=\'740px\'\nelse: width_content=\'100%\'\nif left_sidebar_enabled: left_sidebar_style = \'style="display: block;"\'\nelse: left_sidebar_style = \'style="display: none;"\'\nif right_sidebar_enabled: right_sidebar_style = \'style="display: block;"\'\nelse: right_sidebar_style = \'style="display: none;"\'\nstyle_content = \'style="width: %s"\' % width_content\nresponse.write(\'\\n    \\n    <!-- uncomment here to load jquery-ui -->\\n    \\n    <link rel="stylesheet" href="http://ajax.googleapis.com/ajax/libs/jqueryui/1.8.16/themes/base/jquery-ui.css" type="text/css" media="all" />\\n    <script src="http://ajax.googleapis.com/ajax/libs/jqueryui/1.8.16/jquery-ui.min.js" type="text/javascript"></script>\\n    \\n   <!-- uncomment to load jquery-ui -->\\n    \\n    \\n  </head>\\n  \\n  <!-- paulirish.com/2008/conditional-stylesheets-vs-css-hacks-answer-neither/ -->  \\n  <!--[if lt IE 7 ]> <body class="ie6"> <![endif]-->\\n  <!--[if IE 7 ]>    <body class="ie7"> <![endif]-->\\n  <!--[if IE 8 ]>    <body class="ie8"> <![endif]-->\\n  <!--[if IE 9 ]>    <body class="ie9"> <![endif]-->\\n  <!--[if (gt IE 9)|!(IE)]><!--> <body> <!--<![endif]-->\\n    \\n    <div class="flash">\', escape=False)\nresponse.write(response.flash or \'\')\nresponse.write(\'</div> <!-- notification div -->\\n\\n        \\n\\n    <div id="container">                        \\n      \\n      <div id="wrapper">        \\n      \', escape=False)\ntry:\n    response.write(auth.navbar(action=URL(\'default\',\'user\')))\nexcept:pass\nresponse.write(\'\\n    \\n    <div id="header"> <!-- header and login nav -->\\n      \', escape=False)\nresponse.write(\' <!-- this is default header -->\\n      \\n      <h1>\\n        DDLagoon <span id="appname"> The lagoon of DDL</span>\\n      </h1>\\n      <div style="clear: both;"></div><!-- Clear the divs -->\\n      \', escape=False)\nresponse.write(\'\\n    </div><!-- header  -->\\n    \\n\\n    \\n    <div id="page"> <!-- Here my central body -->     \\n\\n      \', escape=False)\nif left_sidebar_enabled:\n    response.write(\'\\n          <div id="left_sidebar" \', escape=False)\n    response.write(XML(left_sidebar_style))\n    response.write(\' >\\n            <div style="padding: 4px;">\\n          \', escape=False)\n    response.write(\'<a href="/ddlagoon/default">Home</a> \', escape=False)\n    response.write(\'       \\n            </div>\\n          </div><!-- left_sidebar -->\\n      \', escape=False)\n    pass\nresponse.write(\'\\n\\n      <!-- content -->\\n      <div id="content" \', escape=False)\nresponse.write(XML(style_content))\nresponse.write(\' >\\n        \', escape=False)\nresponse.write(\'\\r\\n\\r\\n        \', escape=False)\nresponse.write(tuto[\'start\'])\nresponse.write(\'<br />\\r\\n        <img src="/ddlagoon/static/images/tuto_upload/01.png" /><br /><br />\\r\\n        \', escape=False)\nresponse.write(tuto[\'go_to_profile_pre\'])\nresponse.write(\' <a href="/ddlagoon/user/profile" target="_blank">\', escape=False)\nresponse.write(tuto[\'profile\'])\nresponse.write(\'</a> \', escape=False)\nresponse.write(tuto[\'go_to_profile_suf\'])\nresponse.write(\'<br /><br />\\r\\n        \', escape=False)\nresponse.write(tuto[\'login\'])\nresponse.write(\'<br />\\r\\n        <img src="http://content.screencast.com/users/Sp00ky31/folders/Jing/media/5ba743b3-efe8-4a04-a522-d7da8e6a74a2/2011-11-08_2132.png" />\\r\\n        \\r\\n\', escape=False)\nresponse.write(\'\\r\\n\', escape=False)\nresponse.write(\'\\r\\n\', escape=False)\nresponse.write(\' \\n      </div>\\n      <!-- content -->\\n\\n      \', escape=False)\nif right_sidebar_enabled:\n    response.write(\'\\n          <div id="right_sidebar" \', escape=False)\n    response.write(XML(right_sidebar_style))\n    response.write(\' >\\n            <div style="padding: 4px;">\\n              \', escape=False)\n    response.write(\'\\n            </div>\\n      </div><!-- right_sidebar -->\\n          \', escape=False)\n    pass\nresponse.write(\'\\n\\n\\n      <div style="clear: both;"></div><!-- Clear the divs -->\\n      \\n    </div><!-- page -->                         \\n    \\n    <div id="footer">\\n      \', escape=False)\nresponse.write(\' <!-- this is default footer -->\\n      <span style="float: left; padding-right: 6px;">\\n        <a href="/ddlagoon/default">DDLagoon</a>\\n      </span>\\n\\n        <span style="float: right; padding-right: 6px;">\', escape=False)\nresponse.write(T(\'Copyright\'))\nresponse.write(\' &#169; 2011</span>\\n      <div style="clear: both;"></div><!-- Clear the divs -->\\n      \', escape=False)\nresponse.write(\'\\n\\n    </div><!-- footer -->           \\n      </div><!-- wrapper -->\\n    </div><!-- container -->        \\n    \\n    <!--[if lt IE 7 ]>\\n    <script src="\', escape=False)\nresponse.write(URL(\'static\',\'js/dd_belatedpng.js\'))\nresponse.write(\'"></script>\\n    <script> DD_belatedPNG.fix(\\\'img, .png_bg\\\'); //fix any <img> or .png_bg background-images </script>\\n    <![endif]-->\\n    \', escape=False)\nif response.google_analytics_id:\n    response.write("<script>/* http://mathiasbynens.be/notes/async-analytics-snippet */ var _gaq=[[\'_setAccount\',\'", escape=False)\n    response.write(response.google_analyitics_id)\n    response.write("\'],[\'_trackPageview\']];(function(d,t){var g=d.createElement(t),s=d.getElementsByTagName(t)[0];g.src=\'//www.google-analytics.com/ga.js\';s.parentNode.insertBefore(g,s)}(document,\'script\')) </script>", escape=False)\n    pass\nresponse.write(\'\\n  </body>\\n</html>\\n\', escape=False)'
p6
sS'snapshot'
p7
(dp8
S'exception'
p9
(dp10
S'__hash__'
p11
S"<method-wrapper '__hash__' of exceptions.KeyError object>"
p12
sS'__setattr__'
p13
S"<method-wrapper '__setattr__' of exceptions.KeyError object>"
p14
sS'__reduce_ex__'
p15
S'<built-in method __reduce_ex__ of exceptions.KeyError object>'
p16
sS'__getslice__'
p17
S"<method-wrapper '__getslice__' of exceptions.KeyError object>"
p18
sS'__getitem__'
p19
S"<method-wrapper '__getitem__' of exceptions.KeyError object>"
p20
sS'__setstate__'
p21
S'<built-in method __setstate__ of exceptions.KeyError object>'
p22
sS'__reduce__'
p23
S'<built-in method __reduce__ of exceptions.KeyError object>'
p24
sS'__str__'
p25
S"<method-wrapper '__str__' of exceptions.KeyError object>"
p26
sS'__format__'
p27
S'<built-in method __format__ of exceptions.KeyError object>'
p28
sS'__getattribute__'
p29
S"<method-wrapper '__getattribute__' of exceptions.KeyError object>"
p30
sS'__class__'
p31
S"<type 'exceptions.KeyError'>"
p32
sS'__unicode__'
p33
S'<built-in method __unicode__ of exceptions.KeyError object>'
p34
sS'__delattr__'
p35
S"<method-wrapper '__delattr__' of exceptions.KeyError object>"
p36
sS'__subclasshook__'
p37
S'<built-in method __subclasshook__ of type object>'
p38
sS'__repr__'
p39
S"<method-wrapper '__repr__' of exceptions.KeyError object>"
p40
sS'__dict__'
p41
S'{}'
p42
sS'args'
p43
S"('go_to_profile_pre',)"
p44
sS'__sizeof__'
p45
S'<built-in method __sizeof__ of exceptions.KeyError object>'
p46
sS'__doc__'
p47
S"'Mapping key not found.'"
p48
sS'__init__'
p49
S"<method-wrapper '__init__' of exceptions.KeyError object>"
p50
sS'__new__'
p51
S'<built-in method __new__ of type object>'
p52
ssS'evalue'
p53
S"'go_to_profile_pre'"
p54
sS'request'
p55
ccopy_reg
_reconstructor
p56
(cgluon.html
BEAUTIFY
p57
c__builtin__
object
p58
NtRp59
(dp60
S'attributes'
p61
(dp62
sS'components'
p63
(lp64
g56
(cgluon.html
TABLE
p65
g58
NtRp66
(dp67
g61
(dp68
S'level'
p69
I5
ssS'parent'
p70
Nsg63
(lp71
g56
(cgluon.html
TR
p72
g58
NtRp73
(dp74
g61
(dp75
sg70
g66
sg63
(lp76
g56
(cgluon.html
TD
p77
g58
NtRp78
(dp79
g61
(dp80
S'_style'
p81
S'font-weight:bold;'
p82
ssg70
g73
sg63
(lp83
S'ajax'
p84
asbag56
(g77
g58
NtRp85
(dp86
g61
(dp87
S'_valign'
p88
S'top'
p89
ssg70
g73
sg63
(lp90
S':'
asbag56
(g77
g58
NtRp91
(dp92
g61
(dp93
sg70
g73
sg63
(lp94
g56
(g57
g58
NtRp95
(dp96
g61
(dp97
g69
I5
ssg70
g91
sg63
(lp98
S'False'
p99
asbasbasbag56
(g72
g58
NtRp100
(dp101
g61
(dp102
sg70
g66
sg63
(lp103
g56
(g77
g58
NtRp104
(dp105
g61
(dp106
g81
g82
ssg70
g100
sg63
(lp107
S'application'
p108
asbag56
(g77
g58
NtRp109
(dp110
g61
(dp111
g88
g89
ssg70
g100
sg63
(lp112
S':'
asbag56
(g77
g58
NtRp113
(dp114
g61
(dp115
sg70
g100
sg63
(lp116
g56
(g57
g58
NtRp117
(dp118
g61
(dp119
g69
I5
ssg70
g113
sg63
(lp120
S'ddlagoon'
p121
asbasbasbag56
(g72
g58
NtRp122
(dp123
g61
(dp124
sg70
g66
sg63
(lp125
g56
(g77
g58
NtRp126
(dp127
g61
(dp128
g81
g82
ssg70
g122
sg63
(lp129
g43
asbag56
(g77
g58
NtRp130
(dp131
g61
(dp132
g88
g89
ssg70
g122
sg63
(lp133
S':'
asbag56
(g77
g58
NtRp134
(dp135
g61
(dp136
sg70
g122
sg63
(lp137
g56
(g57
g58
NtRp138
(dp139
g61
(dp140
g69
I5
ssg70
g134
sg63
(lp141
g56
(g65
g58
NtRp142
(dp143
g61
(dp144
g69
I4
ssg70
Nsg63
(lp145
sbasbasbasbag56
(g72
g58
NtRp146
(dp147
g61
(dp148
sg70
g66
sg63
(lp149
g56
(g77
g58
NtRp150
(dp151
g61
(dp152
g81
g82
ssg70
g146
sg63
(lp153
S'body'
p154
asbag56
(g77
g58
NtRp155
(dp156
g61
(dp157
g88
g89
ssg70
g146
sg63
(lp158
S':'
asbag56
(g77
g58
NtRp159
(dp160
g61
(dp161
sg70
g146
sg63
(lp162
g56
(g57
g58
NtRp163
(dp164
g61
(dp165
g69
I5
ssg70
g159
sg63
(lp166
S'<cStringIO.StringO object at 0x00000000078A4378>'
p167
asbasbasbag56
(g72
g58
NtRp168
(dp169
g61
(dp170
sg70
g66
sg63
(lp171
g56
(g77
g58
NtRp172
(dp173
g61
(dp174
g81
g82
ssg70
g168
sg63
(lp175
S'client'
p176
asbag56
(g77
g58
NtRp177
(dp178
g61
(dp179
g88
g89
ssg70
g168
sg63
(lp180
S':'
asbag56
(g77
g58
NtRp181
(dp182
g61
(dp183
sg70
g168
sg63
(lp184
g56
(g57
g58
NtRp185
(dp186
g61
(dp187
g69
I5
ssg70
g181
sg63
(lp188
S'127.0.0.1'
p189
asbasbasbag56
(g72
g58
NtRp190
(dp191
g61
(dp192
sg70
g66
sg63
(lp193
g56
(g77
g58
NtRp194
(dp195
g61
(dp196
g81
g82
ssg70
g190
sg63
(lp197
S'controller'
p198
asbag56
(g77
g58
NtRp199
(dp200
g61
(dp201
g88
g89
ssg70
g190
sg63
(lp202
S':'
asbag56
(g77
g58
NtRp203
(dp204
g61
(dp205
sg70
g190
sg63
(lp206
g56
(g57
g58
NtRp207
(dp208
g61
(dp209
g69
I5
ssg70
g203
sg63
(lp210
S'default'
p211
asbasbasbag56
(g72
g58
NtRp212
(dp213
g61
(dp214
sg70
g66
sg63
(lp215
g56
(g77
g58
NtRp216
(dp217
g61
(dp218
g81
g82
ssg70
g212
sg63
(lp219
S'cookies'
p220
asbag56
(g77
g58
NtRp221
(dp222
g61
(dp223
g88
g89
ssg70
g212
sg63
(lp224
S':'
asbag56
(g77
g58
NtRp225
(dp226
g61
(dp227
sg70
g212
sg63
(lp228
g56
(g57
g58
NtRp229
(dp230
g61
(dp231
g69
I5
ssg70
g225
sg63
(lp232
g56
(g65
g58
NtRp233
(dp234
g61
(dp235
g69
I4
ssg70
Nsg63
(lp236
g56
(g72
g58
NtRp237
(dp238
g61
(dp239
sg70
g233
sg63
(lp240
g56
(g77
g58
NtRp241
(dp242
g61
(dp243
g81
g82
ssg70
g237
sg63
(lp244
S'session_id_admin'
p245
asbag56
(g77
g58
NtRp246
(dp247
g61
(dp248
g88
g89
ssg70
g237
sg63
(lp249
S':'
asbag56
(g77
g58
NtRp250
(dp251
g61
(dp252
sg70
g237
sg63
(lp253
g56
(g57
g58
NtRp254
(dp255
g61
(dp256
g69
I4
ssg70
g250
sg63
(lp257
g56
(g65
g58
NtRp258
(dp259
g61
(dp260
g69
I3
ssg70
Nsg63
(lp261
g56
(g72
g58
NtRp262
(dp263
g61
(dp264
sg70
g258
sg63
(lp265
g56
(g77
g58
NtRp266
(dp267
g61
(dp268
g81
g82
ssg70
g262
sg63
(lp269
S'comment'
p270
asbag56
(g77
g58
NtRp271
(dp272
g61
(dp273
g88
g89
ssg70
g262
sg63
(lp274
S':'
asbag56
(g77
g58
NtRp275
(dp276
g61
(dp277
sg70
g262
sg63
(lp278
g56
(g57
g58
NtRp279
(dp280
g61
(dp281
g69
I3
ssg70
g275
sg63
(lp282
S''
asbasbasbag56
(g72
g58
NtRp283
(dp284
g61
(dp285
sg70
g258
sg63
(lp286
g56
(g77
g58
NtRp287
(dp288
g61
(dp289
g81
g82
ssg70
g283
sg63
(lp290
S'domain'
p291
asbag56
(g77
g58
NtRp292
(dp293
g61
(dp294
g88
g89
ssg70
g283
sg63
(lp295
S':'
asbag56
(g77
g58
NtRp296
(dp297
g61
(dp298
sg70
g283
sg63
(lp299
g56
(g57
g58
NtRp300
(dp301
g61
(dp302
g69
I3
ssg70
g296
sg63
(lp303
S''
asbasbasbag56
(g72
g58
NtRp304
(dp305
g61
(dp306
sg70
g258
sg63
(lp307
g56
(g77
g58
NtRp308
(dp309
g61
(dp310
g81
g82
ssg70
g304
sg63
(lp311
S'expires'
p312
asbag56
(g77
g58
NtRp313
(dp314
g61
(dp315
g88
g89
ssg70
g304
sg63
(lp316
S':'
asbag56
(g77
g58
NtRp317
(dp318
g61
(dp319
sg70
g304
sg63
(lp320
g56
(g57
g58
NtRp321
(dp322
g61
(dp323
g69
I3
ssg70
g317
sg63
(lp324
S''
asbasbasbag56
(g72
g58
NtRp325
(dp326
g61
(dp327
sg70
g258
sg63
(lp328
g56
(g77
g58
NtRp329
(dp330
g61
(dp331
g81
g82
ssg70
g325
sg63
(lp332
S'httponly'
p333
asbag56
(g77
g58
NtRp334
(dp335
g61
(dp336
g88
g89
ssg70
g325
sg63
(lp337
S':'
asbag56
(g77
g58
NtRp338
(dp339
g61
(dp340
sg70
g325
sg63
(lp341
g56
(g57
g58
NtRp342
(dp343
g61
(dp344
g69
I3
ssg70
g338
sg63
(lp345
S''
asbasbasbag56
(g72
g58
NtRp346
(dp347
g61
(dp348
sg70
g258
sg63
(lp349
g56
(g77
g58
NtRp350
(dp351
g61
(dp352
g81
g82
ssg70
g346
sg63
(lp353
S'max-age'
p354
asbag56
(g77
g58
NtRp355
(dp356
g61
(dp357
g88
g89
ssg70
g346
sg63
(lp358
S':'
asbag56
(g77
g58
NtRp359
(dp360
g61
(dp361
sg70
g346
sg63
(lp362
g56
(g57
g58
NtRp363
(dp364
g61
(dp365
g69
I3
ssg70
g359
sg63
(lp366
S''
asbasbasbag56
(g72
g58
NtRp367
(dp368
g61
(dp369
sg70
g258
sg63
(lp370
g56
(g77
g58
NtRp371
(dp372
g61
(dp373
g81
g82
ssg70
g367
sg63
(lp374
S'path'
p375
asbag56
(g77
g58
NtRp376
(dp377
g61
(dp378
g88
g89
ssg70
g367
sg63
(lp379
S':'
asbag56
(g77
g58
NtRp380
(dp381
g61
(dp382
sg70
g367
sg63
(lp383
g56
(g57
g58
NtRp384
(dp385
g61
(dp386
g69
I3
ssg70
g380
sg63
(lp387
S''
asbasbasbag56
(g72
g58
NtRp388
(dp389
g61
(dp390
sg70
g258
sg63
(lp391
g56
(g77
g58
NtRp392
(dp393
g61
(dp394
g81
g82
ssg70
g388
sg63
(lp395
S'secure'
p396
asbag56
(g77
g58
NtRp397
(dp398
g61
(dp399
g88
g89
ssg70
g388
sg63
(lp400
S':'
asbag56
(g77
g58
NtRp401
(dp402
g61
(dp403
sg70
g388
sg63
(lp404
g56
(g57
g58
NtRp405
(dp406
g61
(dp407
g69
I3
ssg70
g401
sg63
(lp408
S''
asbasbasbag56
(g72
g58
NtRp409
(dp410
g61
(dp411
sg70
g258
sg63
(lp412
g56
(g77
g58
NtRp413
(dp414
g61
(dp415
g81
g82
ssg70
g409
sg63
(lp416
S'version'
p417
asbag56
(g77
g58
NtRp418
(dp419
g61
(dp420
g88
g89
ssg70
g409
sg63
(lp421
S':'
asbag56
(g77
g58
NtRp422
(dp423
g61
(dp424
sg70
g409
sg63
(lp425
g56
(g57
g58
NtRp426
(dp427
g61
(dp428
g69
I3
ssg70
g422
sg63
(lp429
S''
asbasbasbasbasbasbasbag56
(g72
g58
NtRp430
(dp431
g61
(dp432
sg70
g233
sg63
(lp433
g56
(g77
g58
NtRp434
(dp435
g61
(dp436
g81
g82
ssg70
g430
sg63
(lp437
S'session_id_ddlagoon'
p438
asbag56
(g77
g58
NtRp439
(dp440
g61
(dp441
g88
g89
ssg70
g430
sg63
(lp442
S':'
asbag56
(g77
g58
NtRp443
(dp444
g61
(dp445
sg70
g430
sg63
(lp446
g56
(g57
g58
NtRp447
(dp448
g61
(dp449
g69
I4
ssg70
g443
sg63
(lp450
g56
(g65
g58
NtRp451
(dp452
g61
(dp453
g69
I3
ssg70
Nsg63
(lp454
g56
(g72
g58
NtRp455
(dp456
g61
(dp457
sg70
g451
sg63
(lp458
g56
(g77
g58
NtRp459
(dp460
g61
(dp461
g81
g82
ssg70
g455
sg63
(lp462
g270
asbag56
(g77
g58
NtRp463
(dp464
g61
(dp465
g88
g89
ssg70
g455
sg63
(lp466
S':'
asbag56
(g77
g58
NtRp467
(dp468
g61
(dp469
sg70
g455
sg63
(lp470
g56
(g57
g58
NtRp471
(dp472
g61
(dp473
g69
I3
ssg70
g467
sg63
(lp474
S''
asbasbasbag56
(g72
g58
NtRp475
(dp476
g61
(dp477
sg70
g451
sg63
(lp478
g56
(g77
g58
NtRp479
(dp480
g61
(dp481
g81
g82
ssg70
g475
sg63
(lp482
g291
asbag56
(g77
g58
NtRp483
(dp484
g61
(dp485
g88
g89
ssg70
g475
sg63
(lp486
S':'
asbag56
(g77
g58
NtRp487
(dp488
g61
(dp489
sg70
g475
sg63
(lp490
g56
(g57
g58
NtRp491
(dp492
g61
(dp493
g69
I3
ssg70
g487
sg63
(lp494
S''
asbasbasbag56
(g72
g58
NtRp495
(dp496
g61
(dp497
sg70
g451
sg63
(lp498
g56
(g77
g58
NtRp499
(dp500
g61
(dp501
g81
g82
ssg70
g495
sg63
(lp502
g312
asbag56
(g77
g58
NtRp503
(dp504
g61
(dp505
g88
g89
ssg70
g495
sg63
(lp506
S':'
asbag56
(g77
g58
NtRp507
(dp508
g61
(dp509
sg70
g495
sg63
(lp510
g56
(g57
g58
NtRp511
(dp512
g61
(dp513
g69
I3
ssg70
g507
sg63
(lp514
S''
asbasbasbag56
(g72
g58
NtRp515
(dp516
g61
(dp517
sg70
g451
sg63
(lp518
g56
(g77
g58
NtRp519
(dp520
g61
(dp521
g81
g82
ssg70
g515
sg63
(lp522
g333
asbag56
(g77
g58
NtRp523
(dp524
g61
(dp525
g88
g89
ssg70
g515
sg63
(lp526
S':'
asbag56
(g77
g58
NtRp527
(dp528
g61
(dp529
sg70
g515
sg63
(lp530
g56
(g57
g58
NtRp531
(dp532
g61
(dp533
g69
I3
ssg70
g527
sg63
(lp534
S''
asbasbasbag56
(g72
g58
NtRp535
(dp536
g61
(dp537
sg70
g451
sg63
(lp538
g56
(g77
g58
NtRp539
(dp540
g61
(dp541
g81
g82
ssg70
g535
sg63
(lp542
g354
asbag56
(g77
g58
NtRp543
(dp544
g61
(dp545
g88
g89
ssg70
g535
sg63
(lp546
S':'
asbag56
(g77
g58
NtRp547
(dp548
g61
(dp549
sg70
g535
sg63
(lp550
g56
(g57
g58
NtRp551
(dp552
g61
(dp553
g69
I3
ssg70
g547
sg63
(lp554
S''
asbasbasbag56
(g72
g58
NtRp555
(dp556
g61
(dp557
sg70
g451
sg63
(lp558
g56
(g77
g58
NtRp559
(dp560
g61
(dp561
g81
g82
ssg70
g555
sg63
(lp562
g375
asbag56
(g77
g58
NtRp563
(dp564
g61
(dp565
g88
g89
ssg70
g555
sg63
(lp566
S':'
asbag56
(g77
g58
NtRp567
(dp568
g61
(dp569
sg70
g555
sg63
(lp570
g56
(g57
g58
NtRp571
(dp572
g61
(dp573
g69
I3
ssg70
g567
sg63
(lp574
S''
asbasbasbag56
(g72
g58
NtRp575
(dp576
g61
(dp577
sg70
g451
sg63
(lp578
g56
(g77
g58
NtRp579
(dp580
g61
(dp581
g81
g82
ssg70
g575
sg63
(lp582
g396
asbag56
(g77
g58
NtRp583
(dp584
g61
(dp585
g88
g89
ssg70
g575
sg63
(lp586
S':'
asbag56
(g77
g58
NtRp587
(dp588
g61
(dp589
sg70
g575
sg63
(lp590
g56
(g57
g58
NtRp591
(dp592
g61
(dp593
g69
I3
ssg70
g587
sg63
(lp594
S''
asbasbasbag56
(g72
g58
NtRp595
(dp596
g61
(dp597
sg70
g451
sg63
(lp598
g56
(g77
g58
NtRp599
(dp600
g61
(dp601
g81
g82
ssg70
g595
sg63
(lp602
g417
asbag56
(g77
g58
NtRp603
(dp604
g61
(dp605
g88
g89
ssg70
g595
sg63
(lp606
S':'
asbag56
(g77
g58
NtRp607
(dp608
g61
(dp609
sg70
g595
sg63
(lp610
g56
(g57
g58
NtRp611
(dp612
g61
(dp613
g69
I3
ssg70
g607
sg63
(lp614
S''
asbasbasbasbasbasbasbag56
(g72
g58
NtRp615
(dp616
g61
(dp617
sg70
g233
sg63
(lp618
g56
(g77
g58
NtRp619
(dp620
g61
(dp621
g81
g82
ssg70
g615
sg63
(lp622
S'session_id_welcome'
p623
asbag56
(g77
g58
NtRp624
(dp625
g61
(dp626
g88
g89
ssg70
g615
sg63
(lp627
S':'
asbag56
(g77
g58
NtRp628
(dp629
g61
(dp630
sg70
g615
sg63
(lp631
g56
(g57
g58
NtRp632
(dp633
g61
(dp634
g69
I4
ssg70
g628
sg63
(lp635
g56
(g65
g58
NtRp636
(dp637
g61
(dp638
g69
I3
ssg70
Nsg63
(lp639
g56
(g72
g58
NtRp640
(dp641
g61
(dp642
sg70
g636
sg63
(lp643
g56
(g77
g58
NtRp644
(dp645
g61
(dp646
g81
g82
ssg70
g640
sg63
(lp647
g270
asbag56
(g77
g58
NtRp648
(dp649
g61
(dp650
g88
g89
ssg70
g640
sg63
(lp651
S':'
asbag56
(g77
g58
NtRp652
(dp653
g61
(dp654
sg70
g640
sg63
(lp655
g56
(g57
g58
NtRp656
(dp657
g61
(dp658
g69
I3
ssg70
g652
sg63
(lp659
S''
asbasbasbag56
(g72
g58
NtRp660
(dp661
g61
(dp662
sg70
g636
sg63
(lp663
g56
(g77
g58
NtRp664
(dp665
g61
(dp666
g81
g82
ssg70
g660
sg63
(lp667
g291
asbag56
(g77
g58
NtRp668
(dp669
g61
(dp670
g88
g89
ssg70
g660
sg63
(lp671
S':'
asbag56
(g77
g58
NtRp672
(dp673
g61
(dp674
sg70
g660
sg63
(lp675
g56
(g57
g58
NtRp676
(dp677
g61
(dp678
g69
I3
ssg70
g672
sg63
(lp679
S''
asbasbasbag56
(g72
g58
NtRp680
(dp681
g61
(dp682
sg70
g636
sg63
(lp683
g56
(g77
g58
NtRp684
(dp685
g61
(dp686
g81
g82
ssg70
g680
sg63
(lp687
g312
asbag56
(g77
g58
NtRp688
(dp689
g61
(dp690
g88
g89
ssg70
g680
sg63
(lp691
S':'
asbag56
(g77
g58
NtRp692
(dp693
g61
(dp694
sg70
g680
sg63
(lp695
g56
(g57
g58
NtRp696
(dp697
g61
(dp698
g69
I3
ssg70
g692
sg63
(lp699
S''
asbasbasbag56
(g72
g58
NtRp700
(dp701
g61
(dp702
sg70
g636
sg63
(lp703
g56
(g77
g58
NtRp704
(dp705
g61
(dp706
g81
g82
ssg70
g700
sg63
(lp707
g333
asbag56
(g77
g58
NtRp708
(dp709
g61
(dp710
g88
g89
ssg70
g700
sg63
(lp711
S':'
asbag56
(g77
g58
NtRp712
(dp713
g61
(dp714
sg70
g700
sg63
(lp715
g56
(g57
g58
NtRp716
(dp717
g61
(dp718
g69
I3
ssg70
g712
sg63
(lp719
S''
asbasbasbag56
(g72
g58
NtRp720
(dp721
g61
(dp722
sg70
g636
sg63
(lp723
g56
(g77
g58
NtRp724
(dp725
g61
(dp726
g81
g82
ssg70
g720
sg63
(lp727
g354
asbag56
(g77
g58
NtRp728
(dp729
g61
(dp730
g88
g89
ssg70
g720
sg63
(lp731
S':'
asbag56
(g77
g58
NtRp732
(dp733
g61
(dp734
sg70
g720
sg63
(lp735
g56
(g57
g58
NtRp736
(dp737
g61
(dp738
g69
I3
ssg70
g732
sg63
(lp739
S''
asbasbasbag56
(g72
g58
NtRp740
(dp741
g61
(dp742
sg70
g636
sg63
(lp743
g56
(g77
g58
NtRp744
(dp745
g61
(dp746
g81
g82
ssg70
g740
sg63
(lp747
g375
asbag56
(g77
g58
NtRp748
(dp749
g61
(dp750
g88
g89
ssg70
g740
sg63
(lp751
S':'
asbag56
(g77
g58
NtRp752
(dp753
g61
(dp754
sg70
g740
sg63
(lp755
g56
(g57
g58
NtRp756
(dp757
g61
(dp758
g69
I3
ssg70
g752
sg63
(lp759
S''
asbasbasbag56
(g72
g58
NtRp760
(dp761
g61
(dp762
sg70
g636
sg63
(lp763
g56
(g77
g58
NtRp764
(dp765
g61
(dp766
g81
g82
ssg70
g760
sg63
(lp767
g396
asbag56
(g77
g58
NtRp768
(dp769
g61
(dp770
g88
g89
ssg70
g760
sg63
(lp771
S':'
asbag56
(g77
g58
NtRp772
(dp773
g61
(dp774
sg70
g760
sg63
(lp775
g56
(g57
g58
NtRp776
(dp777
g61
(dp778
g69
I3
ssg70
g772
sg63
(lp779
S''
asbasbasbag56
(g72
g58
NtRp780
(dp781
g61
(dp782
sg70
g636
sg63
(lp783
g56
(g77
g58
NtRp784
(dp785
g61
(dp786
g81
g82
ssg70
g780
sg63
(lp787
g417
asbag56
(g77
g58
NtRp788
(dp789
g61
(dp790
g88
g89
ssg70
g780
sg63
(lp791
S':'
asbag56
(g77
g58
NtRp792
(dp793
g61
(dp794
sg70
g780
sg63
(lp795
g56
(g57
g58
NtRp796
(dp797
g61
(dp798
g69
I3
ssg70
g792
sg63
(lp799
S''
asbasbasbasbasbasbasbasbasbasbasbag56
(g72
g58
NtRp800
(dp801
g61
(dp802
sg70
g66
sg63
(lp803
g56
(g77
g58
NtRp804
(dp805
g61
(dp806
g81
g82
ssg70
g800
sg63
(lp807
S'env'
p808
asbag56
(g77
g58
NtRp809
(dp810
g61
(dp811
g88
g89
ssg70
g800
sg63
(lp812
S':'
asbag56
(g77
g58
NtRp813
(dp814
g61
(dp815
sg70
g800
sg63
(lp816
g56
(g57
g58
NtRp817
(dp818
g61
(dp819
g69
I5
ssg70
g813
sg63
(lp820
g56
(g65
g58
NtRp821
(dp822
g61
(dp823
g69
I4
ssg70
Nsg63
(lp824
g56
(g72
g58
NtRp825
(dp826
g61
(dp827
sg70
g821
sg63
(lp828
g56
(g77
g58
NtRp829
(dp830
g61
(dp831
g81
g82
ssg70
g825
sg63
(lp832
S'app_folders'
p833
asbag56
(g77
g58
NtRp834
(dp835
g61
(dp836
g88
g89
ssg70
g825
sg63
(lp837
S':'
asbag56
(g77
g58
NtRp838
(dp839
g61
(dp840
sg70
g825
sg63
(lp841
g56
(g57
g58
NtRp842
(dp843
g61
(dp844
g69
I4
ssg70
g838
sg63
(lp845
S"set(['C:\\\\Users\\\\Thomas\\\\Dropbox\\\\appz\\\\2011\\\\ddlagoon\\\\public_html\\\\applications\\\\welcome\\\\', 'C:\\\\Users\\\\Thomas\\\\Dropbox\\\\appz\\\\2011\\\\ddlagoon\\\\public_html\\\\applications\\\\admin\\\\', 'C:\\\\Users\\\\Thomas\\\\Dropbox\\\\appz\\\\2011\\\\ddlagoon\\\\public_html\\\\applications\\\\ddlagoon\\\\'])"
p846
asbasbasbag56
(g72
g58
NtRp847
(dp848
g61
(dp849
sg70
g821
sg63
(lp850
g56
(g77
g58
NtRp851
(dp852
g61
(dp853
g81
g82
ssg70
g847
sg63
(lp854
S'applications_parent'
p855
asbag56
(g77
g58
NtRp856
(dp857
g61
(dp858
g88
g89
ssg70
g847
sg63
(lp859
S':'
asbag56
(g77
g58
NtRp860
(dp861
g61
(dp862
sg70
g847
sg63
(lp863
g56
(g57
g58
NtRp864
(dp865
g61
(dp866
g69
I4
ssg70
g860
sg63
(lp867
S'C:\\Users\\Thomas\\Dropbox\\appz\\2011\\ddlagoon\\public_html'
p868
asbasbasbag56
(g72
g58
NtRp869
(dp870
g61
(dp871
sg70
g821
sg63
(lp872
g56
(g77
g58
NtRp873
(dp874
g61
(dp875
g81
g82
ssg70
g869
sg63
(lp876
S'cmd_args'
p877
asbag56
(g77
g58
NtRp878
(dp879
g61
(dp880
g88
g89
ssg70
g869
sg63
(lp881
S':'
asbag56
(g77
g58
NtRp882
(dp883
g61
(dp884
sg70
g869
sg63
(lp885
g56
(g57
g58
NtRp886
(dp887
g61
(dp888
g69
I4
ssg70
g882
sg63
(lp889
g56
(g65
g58
NtRp890
(dp891
g61
(dp892
g69
I3
ssg70
Nsg63
(lp893
sbasbasbasbag56
(g72
g58
NtRp894
(dp895
g61
(dp896
sg70
g821
sg63
(lp897
g56
(g77
g58
NtRp898
(dp899
g61
(dp900
g81
g82
ssg70
g894
sg63
(lp901
S'cmd_options'
p902
asbag56
(g77
g58
NtRp903
(dp904
g61
(dp905
g88
g89
ssg70
g894
sg63
(lp906
S':'
asbag56
(g77
g58
NtRp907
(dp908
g61
(dp909
sg70
g894
sg63
(lp910
g56
(g57
g58
NtRp911
(dp912
g61
(dp913
g69
I4
ssg70
g907
sg63
(lp914
S"<Values at 0x3519c48: {'verbose': False, 'ip': '127.0.0.1', 'shutdown_timeout': 5, 'taskbar': False, 'nocron': False, 'pid_filename': 'httpserver.pid', 'maxthreads': None, 'softcron': False, 'server_name': 'VAIO-VP22', 'bpython': False, 'nogui': False, 'port': 8000, 'extcron': False, 'debuglevel': 30, 'test': None, 'folder': 'C:\\\\Users\\\\Thomas\\\\Dropbox\\\\appz\\\\2011\\\\ddlagoon\\\\public_html', 'config': '', 'import_models': False, 'winservice': '', 'shell': None, 'run': '', 'log_filename': 'httpserver.log', 'args': [''], 'ssl_ca_certificate': None, 'scheduler': None, 'profiler_filename': None, 'ssl_private_key': '', 'password': '<ask>', 'request_queue_size': 5, 'ssl_certificate': '', 'cronjob': False, 'plain': False, 'quiet': False, 'interfaces': None, 'minthreads': None, 'timeout': 10, 'numthreads': None, 'nobanner': False}>"
p915
asbasbasbag56
(g72
g58
NtRp916
(dp917
g61
(dp918
sg70
g821
sg63
(lp919
g56
(g77
g58
NtRp920
(dp921
g61
(dp922
g81
g82
ssg70
g916
sg63
(lp923
S'db_sessions'
p924
asbag56
(g77
g58
NtRp925
(dp926
g61
(dp927
g88
g89
ssg70
g916
sg63
(lp928
S':'
asbag56
(g77
g58
NtRp929
(dp930
g61
(dp931
sg70
g916
sg63
(lp932
g56
(g57
g58
NtRp933
(dp934
g61
(dp935
g69
I4
ssg70
g929
sg63
(lp936
S'set([])'
p937
asbasbasbag56
(g72
g58
NtRp938
(dp939
g61
(dp940
sg70
g821
sg63
(lp941
g56
(g77
g58
NtRp942
(dp943
g61
(dp944
g81
g82
ssg70
g938
sg63
(lp945
S'debugging'
p946
asbag56
(g77
g58
NtRp947
(dp948
g61
(dp949
g88
g89
ssg70
g938
sg63
(lp950
S':'
asbag56
(g77
g58
NtRp951
(dp952
g61
(dp953
sg70
g938
sg63
(lp954
g56
(g57
g58
NtRp955
(dp956
g61
(dp957
g69
I4
ssg70
g951
sg63
(lp958
g99
asbasbasbag56
(g72
g58
NtRp959
(dp960
g61
(dp961
sg70
g821
sg63
(lp962
g56
(g77
g58
NtRp963
(dp964
g61
(dp965
g81
g82
ssg70
g959
sg63
(lp966
S'gluon_parent'
p967
asbag56
(g77
g58
NtRp968
(dp969
g61
(dp970
g88
g89
ssg70
g959
sg63
(lp971
S':'
asbag56
(g77
g58
NtRp972
(dp973
g61
(dp974
sg70
g959
sg63
(lp975
g56
(g57
g58
NtRp976
(dp977
g61
(dp978
g69
I4
ssg70
g972
sg63
(lp979
S'C:\\Users\\Thomas\\Dropbox\\appz\\2011\\ddlagoon\\public_html'
p980
asbasbasbag56
(g72
g58
NtRp981
(dp982
g61
(dp983
sg70
g821
sg63
(lp984
g56
(g77
g58
NtRp985
(dp986
g61
(dp987
g81
g82
ssg70
g981
sg63
(lp988
S'http_accept'
p989
asbag56
(g77
g58
NtRp990
(dp991
g61
(dp992
g88
g89
ssg70
g981
sg63
(lp993
S':'
asbag56
(g77
g58
NtRp994
(dp995
g61
(dp996
sg70
g981
sg63
(lp997
g56
(g57
g58
NtRp998
(dp999
g61
(dp1000
g69
I4
ssg70
g994
sg63
(lp1001
S'text/html,application/xhtml+xml,application/xml;q=0.9,*/*;q=0.8'
p1002
asbasbasbag56
(g72
g58
NtRp1003
(dp1004
g61
(dp1005
sg70
g821
sg63
(lp1006
g56
(g77
g58
NtRp1007
(dp1008
g61
(dp1009
g81
g82
ssg70
g1003
sg63
(lp1010
S'http_accept_charset'
p1011
asbag56
(g77
g58
NtRp1012
(dp1013
g61
(dp1014
g88
g89
ssg70
g1003
sg63
(lp1015
S':'
asbag56
(g77
g58
NtRp1016
(dp1017
g61
(dp1018
sg70
g1003
sg63
(lp1019
g56
(g57
g58
NtRp1020
(dp1021
g61
(dp1022
g69
I4
ssg70
g1016
sg63
(lp1023
S'ISO-8859-1,utf-8;q=0.7,*;q=0.3'
p1024
asbasbasbag56
(g72
g58
NtRp1025
(dp1026
g61
(dp1027
sg70
g821
sg63
(lp1028
g56
(g77
g58
NtRp1029
(dp1030
g61
(dp1031
g81
g82
ssg70
g1025
sg63
(lp1032
S'http_accept_encoding'
p1033
asbag56
(g77
g58
NtRp1034
(dp1035
g61
(dp1036
g88
g89
ssg70
g1025
sg63
(lp1037
S':'
asbag56
(g77
g58
NtRp1038
(dp1039
g61
(dp1040
sg70
g1025
sg63
(lp1041
g56
(g57
g58
NtRp1042
(dp1043
g61
(dp1044
g69
I4
ssg70
g1038
sg63
(lp1045
S'gzip;q=1.0, deflate;q=0.8, chunked;q=0.6'
p1046
asbasbasbag56
(g72
g58
NtRp1047
(dp1048
g61
(dp1049
sg70
g821
sg63
(lp1050
g56
(g77
g58
NtRp1051
(dp1052
g61
(dp1053
g81
g82
ssg70
g1047
sg63
(lp1054
S'http_accept_language'
p1055
asbag56
(g77
g58
NtRp1056
(dp1057
g61
(dp1058
g88
g89
ssg70
g1047
sg63
(lp1059
S':'
asbag56
(g77
g58
NtRp1060
(dp1061
g61
(dp1062
sg70
g1047
sg63
(lp1063
g56
(g57
g58
NtRp1064
(dp1065
g61
(dp1066
g69
I4
ssg70
g1060
sg63
(lp1067
S'en-GB,fr;q=0.8'
p1068
asbasbasbag56
(g72
g58
NtRp1069
(dp1070
g61
(dp1071
sg70
g821
sg63
(lp1072
g56
(g77
g58
NtRp1073
(dp1074
g61
(dp1075
g81
g82
ssg70
g1069
sg63
(lp1076
S'http_cache_control'
p1077
asbag56
(g77
g58
NtRp1078
(dp1079
g61
(dp1080
g88
g89
ssg70
g1069
sg63
(lp1081
S':'
asbag56
(g77
g58
NtRp1082
(dp1083
g61
(dp1084
sg70
g1069
sg63
(lp1085
g56
(g57
g58
NtRp1086
(dp1087
g61
(dp1088
g69
I4
ssg70
g1082
sg63
(lp1089
S'max-age=0'
p1090
asbasbasbag56
(g72
g58
NtRp1091
(dp1092
g61
(dp1093
sg70
g821
sg63
(lp1094
g56
(g77
g58
NtRp1095
(dp1096
g61
(dp1097
g81
g82
ssg70
g1091
sg63
(lp1098
S'http_connection'
p1099
asbag56
(g77
g58
NtRp1100
(dp1101
g61
(dp1102
g88
g89
ssg70
g1091
sg63
(lp1103
S':'
asbag56
(g77
g58
NtRp1104
(dp1105
g61
(dp1106
sg70
g1091
sg63
(lp1107
g56
(g57
g58
NtRp1108
(dp1109
g61
(dp1110
g69
I4
ssg70
g1104
sg63
(lp1111
S'keep-alive'
p1112
asbasbasbag56
(g72
g58
NtRp1113
(dp1114
g61
(dp1115
sg70
g821
sg63
(lp1116
g56
(g77
g58
NtRp1117
(dp1118
g61
(dp1119
g81
g82
ssg70
g1113
sg63
(lp1120
S'http_cookie'
p1121
asbag56
(g77
g58
NtRp1122
(dp1123
g61
(dp1124
g88
g89
ssg70
g1113
sg63
(lp1125
S':'
asbag56
(g77
g58
NtRp1126
(dp1127
g61
(dp1128
sg70
g1113
sg63
(lp1129
g56
(g57
g58
NtRp1130
(dp1131
g61
(dp1132
g69
I4
ssg70
g1126
sg63
(lp1133
S'session_id_welcome=127.0.0.1-c3edc5ca-0abb-4021-9aa8-a6f618227a72; session_id_admin=127.0.0.1-48f08b1e-2bdb-499f-b4e5-bab982ba5e3a; session_id_ddlagoon=127.0.0.1-cd2ebb63-b2ad-427b-ac9a-f22fc95b9789'
p1134
asbasbasbag56
(g72
g58
NtRp1135
(dp1136
g61
(dp1137
sg70
g821
sg63
(lp1138
g56
(g77
g58
NtRp1139
(dp1140
g61
(dp1141
g81
g82
ssg70
g1135
sg63
(lp1142
S'http_host'
p1143
asbag56
(g77
g58
NtRp1144
(dp1145
g61
(dp1146
g88
g89
ssg70
g1135
sg63
(lp1147
S':'
asbag56
(g77
g58
NtRp1148
(dp1149
g61
(dp1150
sg70
g1135
sg63
(lp1151
g56
(g57
g58
NtRp1152
(dp1153
g61
(dp1154
g69
I4
ssg70
g1148
sg63
(lp1155
S'127.0.0.1:8080'
p1156
asbasbasbag56
(g72
g58
NtRp1157
(dp1158
g61
(dp1159
sg70
g821
sg63
(lp1160
g56
(g77
g58
NtRp1161
(dp1162
g61
(dp1163
g81
g82
ssg70
g1157
sg63
(lp1164
S'http_referer'
p1165
asbag56
(g77
g58
NtRp1166
(dp1167
g61
(dp1168
g88
g89
ssg70
g1157
sg63
(lp1169
S':'
asbag56
(g77
g58
NtRp1170
(dp1171
g61
(dp1172
sg70
g1157
sg63
(lp1173
g56
(g57
g58
NtRp1174
(dp1175
g61
(dp1176
g69
I4
ssg70
g1170
sg63
(lp1177
S'http://ddlagoon.rpxnow.com/redirect?loc=f43663948acfe8ac1a4e8ee7a04eb2ec1bc62f48'
p1178
asbasbasbag56
(g72
g58
NtRp1179
(dp1180
g61
(dp1181
sg70
g821
sg63
(lp1182
g56
(g77
g58
NtRp1183
(dp1184
g61
(dp1185
g81
g82
ssg70
g1179
sg63
(lp1186
S'http_user_agent'
p1187
asbag56
(g77
g58
NtRp1188
(dp1189
g61
(dp1190
g88
g89
ssg70
g1179
sg63
(lp1191
S':'
asbag56
(g77
g58
NtRp1192
(dp1193
g61
(dp1194
sg70
g1179
sg63
(lp1195
g56
(g57
g58
NtRp1196
(dp1197
g61
(dp1198
g69
I4
ssg70
g1192
sg63
(lp1199
S'Mozilla/5.0 (Windows NT 6.1; WOW64) AppleWebKit/535.2 (KHTML, like Gecko) Chrome/15.0.874.106 Safari/535.2'
p1200
asbasbasbag56
(g72
g58
NtRp1201
(dp1202
g61
(dp1203
sg70
g821
sg63
(lp1204
g56
(g77
g58
NtRp1205
(dp1206
g61
(dp1207
g81
g82
ssg70
g1201
sg63
(lp1208
S'is_jython'
p1209
asbag56
(g77
g58
NtRp1210
(dp1211
g61
(dp1212
g88
g89
ssg70
g1201
sg63
(lp1213
S':'
asbag56
(g77
g58
NtRp1214
(dp1215
g61
(dp1216
sg70
g1201
sg63
(lp1217
g56
(g57
g58
NtRp1218
(dp1219
g61
(dp1220
g69
I4
ssg70
g1214
sg63
(lp1221
g99
asbasbasbag56
(g72
g58
NtRp1222
(dp1223
g61
(dp1224
sg70
g821
sg63
(lp1225
g56
(g77
g58
NtRp1226
(dp1227
g61
(dp1228
g81
g82
ssg70
g1222
sg63
(lp1229
S'path_info'
p1230
asbag56
(g77
g58
NtRp1231
(dp1232
g61
(dp1233
g88
g89
ssg70
g1222
sg63
(lp1234
S':'
asbag56
(g77
g58
NtRp1235
(dp1236
g61
(dp1237
sg70
g1222
sg63
(lp1238
g56
(g57
g58
NtRp1239
(dp1240
g61
(dp1241
g69
I4
ssg70
g1235
sg63
(lp1242
S'/ddlagoon/default/how_to_upload'
p1243
asbasbasbag56
(g72
g58
NtRp1244
(dp1245
g61
(dp1246
sg70
g821
sg63
(lp1247
g56
(g77
g58
NtRp1248
(dp1249
g61
(dp1250
g81
g82
ssg70
g1244
sg63
(lp1251
S'query_string'
p1252
asbag56
(g77
g58
NtRp1253
(dp1254
g61
(dp1255
g88
g89
ssg70
g1244
sg63
(lp1256
S':'
asbag56
(g77
g58
NtRp1257
(dp1258
g61
(dp1259
sg70
g1244
sg63
(lp1260
g56
(g57
g58
NtRp1261
(dp1262
g61
(dp1263
g69
I4
ssg70
g1257
sg63
(lp1264
S''
asbasbasbag56
(g72
g58
NtRp1265
(dp1266
g61
(dp1267
sg70
g821
sg63
(lp1268
g56
(g77
g58
NtRp1269
(dp1270
g61
(dp1271
g81
g82
ssg70
g1265
sg63
(lp1272
S'remote_addr'
p1273
asbag56
(g77
g58
NtRp1274
(dp1275
g61
(dp1276
g88
g89
ssg70
g1265
sg63
(lp1277
S':'
asbag56
(g77
g58
NtRp1278
(dp1279
g61
(dp1280
sg70
g1265
sg63
(lp1281
g56
(g57
g58
NtRp1282
(dp1283
g61
(dp1284
g69
I4
ssg70
g1278
sg63
(lp1285
g189
asbasbasbag56
(g72
g58
NtRp1286
(dp1287
g61
(dp1288
sg70
g821
sg63
(lp1289
g56
(g77
g58
NtRp1290
(dp1291
g61
(dp1292
g81
g82
ssg70
g1286
sg63
(lp1293
S'remote_port'
p1294
asbag56
(g77
g58
NtRp1295
(dp1296
g61
(dp1297
g88
g89
ssg70
g1286
sg63
(lp1298
S':'
asbag56
(g77
g58
NtRp1299
(dp1300
g61
(dp1301
sg70
g1286
sg63
(lp1302
g56
(g57
g58
NtRp1303
(dp1304
g61
(dp1305
g69
I4
ssg70
g1299
sg63
(lp1306
S'51494'
p1307
asbasbasbag56
(g72
g58
NtRp1308
(dp1309
g61
(dp1310
sg70
g821
sg63
(lp1311
g56
(g77
g58
NtRp1312
(dp1313
g61
(dp1314
g81
g82
ssg70
g1308
sg63
(lp1315
S'request_method'
p1316
asbag56
(g77
g58
NtRp1317
(dp1318
g61
(dp1319
g88
g89
ssg70
g1308
sg63
(lp1320
S':'
asbag56
(g77
g58
NtRp1321
(dp1322
g61
(dp1323
sg70
g1308
sg63
(lp1324
g56
(g57
g58
NtRp1325
(dp1326
g61
(dp1327
g69
I4
ssg70
g1321
sg63
(lp1328
S'GET'
p1329
asbasbasbag56
(g72
g58
NtRp1330
(dp1331
g61
(dp1332
sg70
g821
sg63
(lp1333
g56
(g77
g58
NtRp1334
(dp1335
g61
(dp1336
g81
g82
ssg70
g1330
sg63
(lp1337
S'script_name'
p1338
asbag56
(g77
g58
NtRp1339
(dp1340
g61
(dp1341
g88
g89
ssg70
g1330
sg63
(lp1342
S':'
asbag56
(g77
g58
NtRp1343
(dp1344
g61
(dp1345
sg70
g1330
sg63
(lp1346
g56
(g57
g58
NtRp1347
(dp1348
g61
(dp1349
g69
I4
ssg70
g1343
sg63
(lp1350
S''
asbasbasbag56
(g72
g58
NtRp1351
(dp1352
g61
(dp1353
sg70
g821
sg63
(lp1354
g56
(g77
g58
NtRp1355
(dp1356
g61
(dp1357
g81
g82
ssg70
g1351
sg63
(lp1358
S'server_name'
p1359
asbag56
(g77
g58
NtRp1360
(dp1361
g61
(dp1362
g88
g89
ssg70
g1351
sg63
(lp1363
S':'
asbag56
(g77
g58
NtRp1364
(dp1365
g61
(dp1366
sg70
g1351
sg63
(lp1367
g56
(g57
g58
NtRp1368
(dp1369
g61
(dp1370
g69
I4
ssg70
g1364
sg63
(lp1371
S'VAIO-VP22'
p1372
asbasbasbag56
(g72
g58
NtRp1373
(dp1374
g61
(dp1375
sg70
g821
sg63
(lp1376
g56
(g77
g58
NtRp1377
(dp1378
g61
(dp1379
g81
g82
ssg70
g1373
sg63
(lp1380
S'server_port'
p1381
asbag56
(g77
g58
NtRp1382
(dp1383
g61
(dp1384
g88
g89
ssg70
g1373
sg63
(lp1385
S':'
asbag56
(g77
g58
NtRp1386
(dp1387
g61
(dp1388
sg70
g1373
sg63
(lp1389
g56
(g57
g58
NtRp1390
(dp1391
g61
(dp1392
g69
I4
ssg70
g1386
sg63
(lp1393
S'8080'
p1394
asbasbasbag56
(g72
g58
NtRp1395
(dp1396
g61
(dp1397
sg70
g821
sg63
(lp1398
g56
(g77
g58
NtRp1399
(dp1400
g61
(dp1401
g81
g82
ssg70
g1395
sg63
(lp1402
S'server_protocol'
p1403
asbag56
(g77
g58
NtRp1404
(dp1405
g61
(dp1406
g88
g89
ssg70
g1395
sg63
(lp1407
S':'
asbag56
(g77
g58
NtRp1408
(dp1409
g61
(dp1410
sg70
g1395
sg63
(lp1411
g56
(g57
g58
NtRp1412
(dp1413
g61
(dp1414
g69
I4
ssg70
g1408
sg63
(lp1415
S'HTTP/1.1'
p1416
asbasbasbag56
(g72
g58
NtRp1417
(dp1418
g61
(dp1419
sg70
g821
sg63
(lp1420
g56
(g77
g58
NtRp1421
(dp1422
g61
(dp1423
g81
g82
ssg70
g1417
sg63
(lp1424
S'server_software'
p1425
asbag56
(g77
g58
NtRp1426
(dp1427
g61
(dp1428
g88
g89
ssg70
g1417
sg63
(lp1429
S':'
asbag56
(g77
g58
NtRp1430
(dp1431
g61
(dp1432
sg70
g1417
sg63
(lp1433
g56
(g57
g58
NtRp1434
(dp1435
g61
(dp1436
g69
I4
ssg70
g1430
sg63
(lp1437
S'Rocket 1.2.4'
p1438
asbasbasbag56
(g72
g58
NtRp1439
(dp1440
g61
(dp1441
sg70
g821
sg63
(lp1442
g56
(g77
g58
NtRp1443
(dp1444
g61
(dp1445
g81
g82
ssg70
g1439
sg63
(lp1446
S'web2py_crontype'
p1447
asbag56
(g77
g58
NtRp1448
(dp1449
g61
(dp1450
g88
g89
ssg70
g1439
sg63
(lp1451
S':'
asbag56
(g77
g58
NtRp1452
(dp1453
g61
(dp1454
sg70
g1439
sg63
(lp1455
g56
(g57
g58
NtRp1456
(dp1457
g61
(dp1458
g69
I4
ssg70
g1452
sg63
(lp1459
S'hard'
p1460
asbasbasbag56
(g72
g58
NtRp1461
(dp1462
g61
(dp1463
sg70
g821
sg63
(lp1464
g56
(g77
g58
NtRp1465
(dp1466
g61
(dp1467
g81
g82
ssg70
g1461
sg63
(lp1468
S'web2py_path'
p1469
asbag56
(g77
g58
NtRp1470
(dp1471
g61
(dp1472
g88
g89
ssg70
g1461
sg63
(lp1473
S':'
asbag56
(g77
g58
NtRp1474
(dp1475
g61
(dp1476
sg70
g1461
sg63
(lp1477
g56
(g57
g58
NtRp1478
(dp1479
g61
(dp1480
g69
I4
ssg70
g1474
sg63
(lp1481
g868
asbasbasbag56
(g72
g58
NtRp1482
(dp1483
g61
(dp1484
sg70
g821
sg63
(lp1485
g56
(g77
g58
NtRp1486
(dp1487
g61
(dp1488
g81
g82
ssg70
g1482
sg63
(lp1489
S'web2py_version'
p1490
asbag56
(g77
g58
NtRp1491
(dp1492
g61
(dp1493
g88
g89
ssg70
g1482
sg63
(lp1494
S':'
asbag56
(g77
g58
NtRp1495
(dp1496
g61
(dp1497
sg70
g1482
sg63
(lp1498
g56
(g57
g58
NtRp1499
(dp1500
g61
(dp1501
g69
I4
ssg70
g1495
sg63
(lp1502
g56
(g65
g58
NtRp1503
(dp1504
g61
(dp1505
g69
I3
ssg70
Nsg63
(lp1506
g56
(g72
g58
NtRp1507
(dp1508
g61
(dp1509
sg70
g1503
sg63
(lp1510
g56
(g77
g58
NtRp1511
(dp1512
g61
(dp1513
sg70
g1507
sg63
(lp1514
g56
(g57
g58
NtRp1515
(dp1516
g61
(dp1517
g69
I3
ssg70
g1511
sg63
(lp1518
S'1'
asbasbasbag56
(g72
g58
NtRp1519
(dp1520
g61
(dp1521
sg70
g1503
sg63
(lp1522
g56
(g77
g58
NtRp1523
(dp1524
g61
(dp1525
sg70
g1519
sg63
(lp1526
g56
(g57
g58
NtRp1527
(dp1528
g61
(dp1529
g69
I3
ssg70
g1523
sg63
(lp1530
S'99'
p1531
asbasbasbag56
(g72
g58
NtRp1532
(dp1533
g61
(dp1534
sg70
g1503
sg63
(lp1535
g56
(g77
g58
NtRp1536
(dp1537
g61
(dp1538
sg70
g1532
sg63
(lp1539
g56
(g57
g58
NtRp1540
(dp1541
g61
(dp1542
g69
I3
ssg70
g1536
sg63
(lp1543
S'2'
asbasbasbag56
(g72
g58
NtRp1544
(dp1545
g61
(dp1546
sg70
g1503
sg63
(lp1547
g56
(g77
g58
NtRp1548
(dp1549
g61
(dp1550
sg70
g1544
sg63
(lp1551
g56
(g57
g58
NtRp1552
(dp1553
g61
(dp1554
g69
I3
ssg70
g1548
sg63
(lp1555
S'datetime.datetime(2011, 9, 26, 6, 55, 33)'
p1556
asbasbasbag56
(g72
g58
NtRp1557
(dp1558
g61
(dp1559
sg70
g1503
sg63
(lp1560
g56
(g77
g58
NtRp1561
(dp1562
g61
(dp1563
sg70
g1557
sg63
(lp1564
g56
(g57
g58
NtRp1565
(dp1566
g61
(dp1567
g69
I3
ssg70
g1561
sg63
(lp1568
S'stable'
p1569
asbasbasbasbasbasbasbag56
(g72
g58
NtRp1570
(dp1571
g61
(dp1572
sg70
g821
sg63
(lp1573
g56
(g77
g58
NtRp1574
(dp1575
g61
(dp1576
g81
g82
ssg70
g1570
sg63
(lp1577
S'wsgi_errors'
p1578
asbag56
(g77
g58
NtRp1579
(dp1580
g61
(dp1581
g88
g89
ssg70
g1570
sg63
(lp1582
S':'
asbag56
(g77
g58
NtRp1583
(dp1584
g61
(dp1585
sg70
g1570
sg63
(lp1586
g56
(g57
g58
NtRp1587
(dp1588
g61
(dp1589
g69
I4
ssg70
g1583
sg63
(lp1590
S"<open file '<stderr>', mode 'w' at 0x0000000001C9E1E0>"
p1591
asbasbasbag56
(g72
g58
NtRp1592
(dp1593
g61
(dp1594
sg70
g821
sg63
(lp1595
g56
(g77
g58
NtRp1596
(dp1597
g61
(dp1598
g81
g82
ssg70
g1592
sg63
(lp1599
S'wsgi_file_wrapper'
p1600
asbag56
(g77
g58
NtRp1601
(dp1602
g61
(dp1603
g88
g89
ssg70
g1592
sg63
(lp1604
S':'
asbag56
(g77
g58
NtRp1605
(dp1606
g61
(dp1607
sg70
g1592
sg63
(lp1608
g56
(g57
g58
NtRp1609
(dp1610
g61
(dp1611
g69
I4
ssg70
g1605
sg63
(lp1612
S'<class wsgiref.util.FileWrapper at 0x0000000003408468>'
p1613
asbasbasbag56
(g72
g58
NtRp1614
(dp1615
g61
(dp1616
sg70
g821
sg63
(lp1617
g56
(g77
g58
NtRp1618
(dp1619
g61
(dp1620
g81
g82
ssg70
g1614
sg63
(lp1621
S'wsgi_input'
p1622
asbag56
(g77
g58
NtRp1623
(dp1624
g61
(dp1625
g88
g89
ssg70
g1614
sg63
(lp1626
S':'
asbag56
(g77
g58
NtRp1627
(dp1628
g61
(dp1629
sg70
g1614
sg63
(lp1630
g56
(g57
g58
NtRp1631
(dp1632
g61
(dp1633
g69
I4
ssg70
g1627
sg63
(lp1634
S'<socket._fileobject object at 0x0000000007285C00>'
p1635
asbasbasbag56
(g72
g58
NtRp1636
(dp1637
g61
(dp1638
sg70
g821
sg63
(lp1639
g56
(g77
g58
NtRp1640
(dp1641
g61
(dp1642
g81
g82
ssg70
g1636
sg63
(lp1643
S'wsgi_multiprocess'
p1644
asbag56
(g77
g58
NtRp1645
(dp1646
g61
(dp1647
g88
g89
ssg70
g1636
sg63
(lp1648
S':'
asbag56
(g77
g58
NtRp1649
(dp1650
g61
(dp1651
sg70
g1636
sg63
(lp1652
g56
(g57
g58
NtRp1653
(dp1654
g61
(dp1655
g69
I4
ssg70
g1649
sg63
(lp1656
g99
asbasbasbag56
(g72
g58
NtRp1657
(dp1658
g61
(dp1659
sg70
g821
sg63
(lp1660
g56
(g77
g58
NtRp1661
(dp1662
g61
(dp1663
g81
g82
ssg70
g1657
sg63
(lp1664
S'wsgi_multithread'
p1665
asbag56
(g77
g58
NtRp1666
(dp1667
g61
(dp1668
g88
g89
ssg70
g1657
sg63
(lp1669
S':'
asbag56
(g77
g58
NtRp1670
(dp1671
g61
(dp1672
sg70
g1657
sg63
(lp1673
g56
(g57
g58
NtRp1674
(dp1675
g61
(dp1676
g69
I4
ssg70
g1670
sg63
(lp1677
S'True'
p1678
asbasbasbag56
(g72
g58
NtRp1679
(dp1680
g61
(dp1681
sg70
g821
sg63
(lp1682
g56
(g77
g58
NtRp1683
(dp1684
g61
(dp1685
g81
g82
ssg70
g1679
sg63
(lp1686
S'wsgi_run_once'
p1687
asbag56
(g77
g58
NtRp1688
(dp1689
g61
(dp1690
g88
g89
ssg70
g1679
sg63
(lp1691
S':'
asbag56
(g77
g58
NtRp1692
(dp1693
g61
(dp1694
sg70
g1679
sg63
(lp1695
g56
(g57
g58
NtRp1696
(dp1697
g61
(dp1698
g69
I4
ssg70
g1692
sg63
(lp1699
g99
asbasbasbag56
(g72
g58
NtRp1700
(dp1701
g61
(dp1702
sg70
g821
sg63
(lp1703
g56
(g77
g58
NtRp1704
(dp1705
g61
(dp1706
g81
g82
ssg70
g1700
sg63
(lp1707
S'wsgi_url_scheme'
p1708
asbag56
(g77
g58
NtRp1709
(dp1710
g61
(dp1711
g88
g89
ssg70
g1700
sg63
(lp1712
S':'
asbag56
(g77
g58
NtRp1713
(dp1714
g61
(dp1715
sg70
g1700
sg63
(lp1716
g56
(g57
g58
NtRp1717
(dp1718
g61
(dp1719
g69
I4
ssg70
g1713
sg63
(lp1720
S'http'
p1721
asbasbasbag56
(g72
g58
NtRp1722
(dp1723
g61
(dp1724
sg70
g821
sg63
(lp1725
g56
(g77
g58
NtRp1726
(dp1727
g61
(dp1728
g81
g82
ssg70
g1722
sg63
(lp1729
S'wsgi_version'
p1730
asbag56
(g77
g58
NtRp1731
(dp1732
g61
(dp1733
g88
g89
ssg70
g1722
sg63
(lp1734
S':'
asbag56
(g77
g58
NtRp1735
(dp1736
g61
(dp1737
sg70
g1722
sg63
(lp1738
g56
(g57
g58
NtRp1739
(dp1740
g61
(dp1741
g69
I4
ssg70
g1735
sg63
(lp1742
g56
(g65
g58
NtRp1743
(dp1744
g61
(dp1745
g69
I3
ssg70
Nsg63
(lp1746
g56
(g72
g58
NtRp1747
(dp1748
g61
(dp1749
sg70
g1743
sg63
(lp1750
g56
(g77
g58
NtRp1751
(dp1752
g61
(dp1753
sg70
g1747
sg63
(lp1754
g56
(g57
g58
NtRp1755
(dp1756
g61
(dp1757
g69
I3
ssg70
g1751
sg63
(lp1758
S'1'
asbasbasbag56
(g72
g58
NtRp1759
(dp1760
g61
(dp1761
sg70
g1743
sg63
(lp1762
g56
(g77
g58
NtRp1763
(dp1764
g61
(dp1765
sg70
g1759
sg63
(lp1766
g56
(g57
g58
NtRp1767
(dp1768
g61
(dp1769
g69
I3
ssg70
g1763
sg63
(lp1770
S'0'
asbasbasbasbasbasbasbasbasbasbasbag56
(g72
g58
NtRp1771
(dp1772
g61
(dp1773
sg70
g66
sg63
(lp1774
g56
(g77
g58
NtRp1775
(dp1776
g61
(dp1777
g81
g82
ssg70
g1771
sg63
(lp1778
S'extension'
p1779
asbag56
(g77
g58
NtRp1780
(dp1781
g61
(dp1782
g88
g89
ssg70
g1771
sg63
(lp1783
S':'
asbag56
(g77
g58
NtRp1784
(dp1785
g61
(dp1786
sg70
g1771
sg63
(lp1787
g56
(g57
g58
NtRp1788
(dp1789
g61
(dp1790
g69
I5
ssg70
g1784
sg63
(lp1791
S'html'
p1792
asbasbasbag56
(g72
g58
NtRp1793
(dp1794
g61
(dp1795
sg70
g66
sg63
(lp1796
g56
(g77
g58
NtRp1797
(dp1798
g61
(dp1799
g81
g82
ssg70
g1793
sg63
(lp1800
S'folder'
p1801
asbag56
(g77
g58
NtRp1802
(dp1803
g61
(dp1804
g88
g89
ssg70
g1793
sg63
(lp1805
S':'
asbag56
(g77
g58
NtRp1806
(dp1807
g61
(dp1808
sg70
g1793
sg63
(lp1809
g56
(g57
g58
NtRp1810
(dp1811
g61
(dp1812
g69
I5
ssg70
g1806
sg63
(lp1813
S'C:\\Users\\Thomas\\Dropbox\\appz\\2011\\ddlagoon\\public_html\\applications\\ddlagoon\\'
p1814
asbasbasbag56
(g72
g58
NtRp1815
(dp1816
g61
(dp1817
sg70
g66
sg63
(lp1818
g56
(g77
g58
NtRp1819
(dp1820
g61
(dp1821
g81
g82
ssg70
g1815
sg63
(lp1822
S'function'
p1823
asbag56
(g77
g58
NtRp1824
(dp1825
g61
(dp1826
g88
g89
ssg70
g1815
sg63
(lp1827
S':'
asbag56
(g77
g58
NtRp1828
(dp1829
g61
(dp1830
sg70
g1815
sg63
(lp1831
g56
(g57
g58
NtRp1832
(dp1833
g61
(dp1834
g69
I5
ssg70
g1828
sg63
(lp1835
S'how_to_upload'
p1836
asbasbasbag56
(g72
g58
NtRp1837
(dp1838
g61
(dp1839
sg70
g66
sg63
(lp1840
g56
(g77
g58
NtRp1841
(dp1842
g61
(dp1843
g81
g82
ssg70
g1837
sg63
(lp1844
S'get_vars'
p1845
asbag56
(g77
g58
NtRp1846
(dp1847
g61
(dp1848
g88
g89
ssg70
g1837
sg63
(lp1849
S':'
asbag56
(g77
g58
NtRp1850
(dp1851
g61
(dp1852
sg70
g1837
sg63
(lp1853
g56
(g57
g58
NtRp1854
(dp1855
g61
(dp1856
g69
I5
ssg70
g1850
sg63
(lp1857
g56
(g65
g58
NtRp1858
(dp1859
g61
(dp1860
g69
I4
ssg70
Nsg63
(lp1861
sbasbasbasbag56
(g72
g58
NtRp1862
(dp1863
g61
(dp1864
sg70
g66
sg63
(lp1865
g56
(g77
g58
NtRp1866
(dp1867
g61
(dp1868
g81
g82
ssg70
g1862
sg63
(lp1869
S'global_settings'
p1870
asbag56
(g77
g58
NtRp1871
(dp1872
g61
(dp1873
g88
g89
ssg70
g1862
sg63
(lp1874
S':'
asbag56
(g77
g58
NtRp1875
(dp1876
g61
(dp1877
sg70
g1862
sg63
(lp1878
g56
(g57
g58
NtRp1879
(dp1880
g61
(dp1881
g69
I5
ssg70
g1875
sg63
(lp1882
g56
(g65
g58
NtRp1883
(dp1884
g61
(dp1885
g69
I4
ssg70
Nsg63
(lp1886
g56
(g72
g58
NtRp1887
(dp1888
g61
(dp1889
sg70
g1883
sg63
(lp1890
g56
(g77
g58
NtRp1891
(dp1892
g61
(dp1893
g81
g82
ssg70
g1887
sg63
(lp1894
g833
asbag56
(g77
g58
NtRp1895
(dp1896
g61
(dp1897
g88
g89
ssg70
g1887
sg63
(lp1898
S':'
asbag56
(g77
g58
NtRp1899
(dp1900
g61
(dp1901
sg70
g1887
sg63
(lp1902
g56
(g57
g58
NtRp1903
(dp1904
g61
(dp1905
g69
I4
ssg70
g1899
sg63
(lp1906
S"set(['C:\\\\Users\\\\Thomas\\\\Dropbox\\\\appz\\\\2011\\\\ddlagoon\\\\public_html\\\\applications\\\\welcome\\\\', 'C:\\\\Users\\\\Thomas\\\\Dropbox\\\\appz\\\\2011\\\\ddlagoon\\\\public_html\\\\applications\\\\admin\\\\', 'C:\\\\Users\\\\Thomas\\\\Dropbox\\\\appz\\\\2011\\\\ddlagoon\\\\public_html\\\\applications\\\\ddlagoon\\\\'])"
p1907
asbasbasbag56
(g72
g58
NtRp1908
(dp1909
g61
(dp1910
sg70
g1883
sg63
(lp1911
g56
(g77
g58
NtRp1912
(dp1913
g61
(dp1914
g81
g82
ssg70
g1908
sg63
(lp1915
g855
asbag56
(g77
g58
NtRp1916
(dp1917
g61
(dp1918
g88
g89
ssg70
g1908
sg63
(lp1919
S':'
asbag56
(g77
g58
NtRp1920
(dp1921
g61
(dp1922
sg70
g1908
sg63
(lp1923
g56
(g57
g58
NtRp1924
(dp1925
g61
(dp1926
g69
I4
ssg70
g1920
sg63
(lp1927
g868
asbasbasbag56
(g72
g58
NtRp1928
(dp1929
g61
(dp1930
sg70
g1883
sg63
(lp1931
g56
(g77
g58
NtRp1932
(dp1933
g61
(dp1934
g81
g82
ssg70
g1928
sg63
(lp1935
g877
asbag56
(g77
g58
NtRp1936
(dp1937
g61
(dp1938
g88
g89
ssg70
g1928
sg63
(lp1939
S':'
asbag56
(g77
g58
NtRp1940
(dp1941
g61
(dp1942
sg70
g1928
sg63
(lp1943
g56
(g57
g58
NtRp1944
(dp1945
g61
(dp1946
g69
I4
ssg70
g1940
sg63
(lp1947
g56
(g65
g58
NtRp1948
(dp1949
g61
(dp1950
g69
I3
ssg70
Nsg63
(lp1951
sbasbasbasbag56
(g72
g58
NtRp1952
(dp1953
g61
(dp1954
sg70
g1883
sg63
(lp1955
g56
(g77
g58
NtRp1956
(dp1957
g61
(dp1958
g81
g82
ssg70
g1952
sg63
(lp1959
g902
asbag56
(g77
g58
NtRp1960
(dp1961
g61
(dp1962
g88
g89
ssg70
g1952
sg63
(lp1963
S':'
asbag56
(g77
g58
NtRp1964
(dp1965
g61
(dp1966
sg70
g1952
sg63
(lp1967
g56
(g57
g58
NtRp1968
(dp1969
g61
(dp1970
g69
I4
ssg70
g1964
sg63
(lp1971
S"<Values at 0x3519c48: {'verbose': False, 'ip': '127.0.0.1', 'shutdown_timeout': 5, 'taskbar': False, 'nocron': False, 'pid_filename': 'httpserver.pid', 'maxthreads': None, 'softcron': False, 'server_name': 'VAIO-VP22', 'bpython': False, 'nogui': False, 'port': 8000, 'extcron': False, 'debuglevel': 30, 'test': None, 'folder': 'C:\\\\Users\\\\Thomas\\\\Dropbox\\\\appz\\\\2011\\\\ddlagoon\\\\public_html', 'config': '', 'import_models': False, 'winservice': '', 'shell': None, 'run': '', 'log_filename': 'httpserver.log', 'args': [''], 'ssl_ca_certificate': None, 'scheduler': None, 'profiler_filename': None, 'ssl_private_key': '', 'password': '<ask>', 'request_queue_size': 5, 'ssl_certificate': '', 'cronjob': False, 'plain': False, 'quiet': False, 'interfaces': None, 'minthreads': None, 'timeout': 10, 'numthreads': None, 'nobanner': False}>"
p1972
asbasbasbag56
(g72
g58
NtRp1973
(dp1974
g61
(dp1975
sg70
g1883
sg63
(lp1976
g56
(g77
g58
NtRp1977
(dp1978
g61
(dp1979
g81
g82
ssg70
g1973
sg63
(lp1980
g924
asbag56
(g77
g58
NtRp1981
(dp1982
g61
(dp1983
g88
g89
ssg70
g1973
sg63
(lp1984
S':'
asbag56
(g77
g58
NtRp1985
(dp1986
g61
(dp1987
sg70
g1973
sg63
(lp1988
g56
(g57
g58
NtRp1989
(dp1990
g61
(dp1991
g69
I4
ssg70
g1985
sg63
(lp1992
S'set([])'
p1993
asbasbasbag56
(g72
g58
NtRp1994
(dp1995
g61
(dp1996
sg70
g1883
sg63
(lp1997
g56
(g77
g58
NtRp1998
(dp1999
g61
(dp2000
g81
g82
ssg70
g1994
sg63
(lp2001
g946
asbag56
(g77
g58
NtRp2002
(dp2003
g61
(dp2004
g88
g89
ssg70
g1994
sg63
(lp2005
S':'
asbag56
(g77
g58
NtRp2006
(dp2007
g61
(dp2008
sg70
g1994
sg63
(lp2009
g56
(g57
g58
NtRp2010
(dp2011
g61
(dp2012
g69
I4
ssg70
g2006
sg63
(lp2013
g99
asbasbasbag56
(g72
g58
NtRp2014
(dp2015
g61
(dp2016
sg70
g1883
sg63
(lp2017
g56
(g77
g58
NtRp2018
(dp2019
g61
(dp2020
g81
g82
ssg70
g2014
sg63
(lp2021
g967
asbag56
(g77
g58
NtRp2022
(dp2023
g61
(dp2024
g88
g89
ssg70
g2014
sg63
(lp2025
S':'
asbag56
(g77
g58
NtRp2026
(dp2027
g61
(dp2028
sg70
g2014
sg63
(lp2029
g56
(g57
g58
NtRp2030
(dp2031
g61
(dp2032
g69
I4
ssg70
g2026
sg63
(lp2033
g980
asbasbasbag56
(g72
g58
NtRp2034
(dp2035
g61
(dp2036
sg70
g1883
sg63
(lp2037
g56
(g77
g58
NtRp2038
(dp2039
g61
(dp2040
g81
g82
ssg70
g2034
sg63
(lp2041
g1209
asbag56
(g77
g58
NtRp2042
(dp2043
g61
(dp2044
g88
g89
ssg70
g2034
sg63
(lp2045
S':'
asbag56
(g77
g58
NtRp2046
(dp2047
g61
(dp2048
sg70
g2034
sg63
(lp2049
g56
(g57
g58
NtRp2050
(dp2051
g61
(dp2052
g69
I4
ssg70
g2046
sg63
(lp2053
g99
asbasbasbag56
(g72
g58
NtRp2054
(dp2055
g61
(dp2056
sg70
g1883
sg63
(lp2057
g56
(g77
g58
NtRp2058
(dp2059
g61
(dp2060
g81
g82
ssg70
g2054
sg63
(lp2061
g1447
asbag56
(g77
g58
NtRp2062
(dp2063
g61
(dp2064
g88
g89
ssg70
g2054
sg63
(lp2065
S':'
asbag56
(g77
g58
NtRp2066
(dp2067
g61
(dp2068
sg70
g2054
sg63
(lp2069
g56
(g57
g58
NtRp2070
(dp2071
g61
(dp2072
g69
I4
ssg70
g2066
sg63
(lp2073
g1460
asbasbasbag56
(g72
g58
NtRp2074
(dp2075
g61
(dp2076
sg70
g1883
sg63
(lp2077
g56
(g77
g58
NtRp2078
(dp2079
g61
(dp2080
g81
g82
ssg70
g2074
sg63
(lp2081
g1490
asbag56
(g77
g58
NtRp2082
(dp2083
g61
(dp2084
g88
g89
ssg70
g2074
sg63
(lp2085
S':'
asbag56
(g77
g58
NtRp2086
(dp2087
g61
(dp2088
sg70
g2074
sg63
(lp2089
g56
(g57
g58
NtRp2090
(dp2091
g61
(dp2092
g69
I4
ssg70
g2086
sg63
(lp2093
g56
(g65
g58
NtRp2094
(dp2095
g61
(dp2096
g69
I3
ssg70
Nsg63
(lp2097
g56
(g72
g58
NtRp2098
(dp2099
g61
(dp2100
sg70
g2094
sg63
(lp2101
g56
(g77
g58
NtRp2102
(dp2103
g61
(dp2104
sg70
g2098
sg63
(lp2105
g56
(g57
g58
NtRp2106
(dp2107
g61
(dp2108
g69
I3
ssg70
g2102
sg63
(lp2109
S'1'
asbasbasbag56
(g72
g58
NtRp2110
(dp2111
g61
(dp2112
sg70
g2094
sg63
(lp2113
g56
(g77
g58
NtRp2114
(dp2115
g61
(dp2116
sg70
g2110
sg63
(lp2117
g56
(g57
g58
NtRp2118
(dp2119
g61
(dp2120
g69
I3
ssg70
g2114
sg63
(lp2121
S'99'
p2122
asbasbasbag56
(g72
g58
NtRp2123
(dp2124
g61
(dp2125
sg70
g2094
sg63
(lp2126
g56
(g77
g58
NtRp2127
(dp2128
g61
(dp2129
sg70
g2123
sg63
(lp2130
g56
(g57
g58
NtRp2131
(dp2132
g61
(dp2133
g69
I3
ssg70
g2127
sg63
(lp2134
S'2'
asbasbasbag56
(g72
g58
NtRp2135
(dp2136
g61
(dp2137
sg70
g2094
sg63
(lp2138
g56
(g77
g58
NtRp2139
(dp2140
g61
(dp2141
sg70
g2135
sg63
(lp2142
g56
(g57
g58
NtRp2143
(dp2144
g61
(dp2145
g69
I3
ssg70
g2139
sg63
(lp2146
S'datetime.datetime(2011, 9, 26, 6, 55, 33)'
p2147
asbasbasbag56
(g72
g58
NtRp2148
(dp2149
g61
(dp2150
sg70
g2094
sg63
(lp2151
g56
(g77
g58
NtRp2152
(dp2153
g61
(dp2154
sg70
g2148
sg63
(lp2155
g56
(g57
g58
NtRp2156
(dp2157
g61
(dp2158
g69
I3
ssg70
g2152
sg63
(lp2159
g1569
asbasbasbasbasbasbasbasbasbasbasbag56
(g72
g58
NtRp2160
(dp2161
g61
(dp2162
sg70
g66
sg63
(lp2163
g56
(g77
g58
NtRp2164
(dp2165
g61
(dp2166
g81
g82
ssg70
g2160
sg63
(lp2167
S'is_https'
p2168
asbag56
(g77
g58
NtRp2169
(dp2170
g61
(dp2171
g88
g89
ssg70
g2160
sg63
(lp2172
S':'
asbag56
(g77
g58
NtRp2173
(dp2174
g61
(dp2175
sg70
g2160
sg63
(lp2176
g56
(g57
g58
NtRp2177
(dp2178
g61
(dp2179
g69
I5
ssg70
g2173
sg63
(lp2180
g99
asbasbasbag56
(g72
g58
NtRp2181
(dp2182
g61
(dp2183
sg70
g66
sg63
(lp2184
g56
(g77
g58
NtRp2185
(dp2186
g61
(dp2187
g81
g82
ssg70
g2181
sg63
(lp2188
S'is_local'
p2189
asbag56
(g77
g58
NtRp2190
(dp2191
g61
(dp2192
g88
g89
ssg70
g2181
sg63
(lp2193
S':'
asbag56
(g77
g58
NtRp2194
(dp2195
g61
(dp2196
sg70
g2181
sg63
(lp2197
g56
(g57
g58
NtRp2198
(dp2199
g61
(dp2200
g69
I5
ssg70
g2194
sg63
(lp2201
g1678
asbasbasbag56
(g72
g58
NtRp2202
(dp2203
g61
(dp2204
sg70
g66
sg63
(lp2205
g56
(g77
g58
NtRp2206
(dp2207
g61
(dp2208
g81
g82
ssg70
g2202
sg63
(lp2209
S'is_restful'
p2210
asbag56
(g77
g58
NtRp2211
(dp2212
g61
(dp2213
g88
g89
ssg70
g2202
sg63
(lp2214
S':'
asbag56
(g77
g58
NtRp2215
(dp2216
g61
(dp2217
sg70
g2202
sg63
(lp2218
g56
(g57
g58
NtRp2219
(dp2220
g61
(dp2221
g69
I5
ssg70
g2215
sg63
(lp2222
g99
asbasbasbag56
(g72
g58
NtRp2223
(dp2224
g61
(dp2225
sg70
g66
sg63
(lp2226
g56
(g77
g58
NtRp2227
(dp2228
g61
(dp2229
g81
g82
ssg70
g2223
sg63
(lp2230
S'now'
p2231
asbag56
(g77
g58
NtRp2232
(dp2233
g61
(dp2234
g88
g89
ssg70
g2223
sg63
(lp2235
S':'
asbag56
(g77
g58
NtRp2236
(dp2237
g61
(dp2238
sg70
g2223
sg63
(lp2239
g56
(g57
g58
NtRp2240
(dp2241
g61
(dp2242
g69
I5
ssg70
g2236
sg63
(lp2243
S'datetime.datetime(2011, 11, 8, 22, 1, 1, 179000)'
p2244
asbasbasbag56
(g72
g58
NtRp2245
(dp2246
g61
(dp2247
sg70
g66
sg63
(lp2248
g56
(g77
g58
NtRp2249
(dp2250
g61
(dp2251
g81
g82
ssg70
g2245
sg63
(lp2252
S'post_vars'
p2253
asbag56
(g77
g58
NtRp2254
(dp2255
g61
(dp2256
g88
g89
ssg70
g2245
sg63
(lp2257
S':'
asbag56
(g77
g58
NtRp2258
(dp2259
g61
(dp2260
sg70
g2245
sg63
(lp2261
g56
(g57
g58
NtRp2262
(dp2263
g61
(dp2264
g69
I5
ssg70
g2258
sg63
(lp2265
g56
(g65
g58
NtRp2266
(dp2267
g61
(dp2268
g69
I4
ssg70
Nsg63
(lp2269
sbasbasbasbag56
(g72
g58
NtRp2270
(dp2271
g61
(dp2272
sg70
g66
sg63
(lp2273
g56
(g77
g58
NtRp2274
(dp2275
g61
(dp2276
g81
g82
ssg70
g2270
sg63
(lp2277
S'url'
p2278
asbag56
(g77
g58
NtRp2279
(dp2280
g61
(dp2281
g88
g89
ssg70
g2270
sg63
(lp2282
S':'
asbag56
(g77
g58
NtRp2283
(dp2284
g61
(dp2285
sg70
g2270
sg63
(lp2286
g56
(g57
g58
NtRp2287
(dp2288
g61
(dp2289
g69
I5
ssg70
g2283
sg63
(lp2290
S'/ddlagoon/default/how_to_upload'
p2291
asbasbasbag56
(g72
g58
NtRp2292
(dp2293
g61
(dp2294
sg70
g66
sg63
(lp2295
g56
(g77
g58
NtRp2296
(dp2297
g61
(dp2298
g81
g82
ssg70
g2292
sg63
(lp2299
S'utcnow'
p2300
asbag56
(g77
g58
NtRp2301
(dp2302
g61
(dp2303
g88
g89
ssg70
g2292
sg63
(lp2304
S':'
asbag56
(g77
g58
NtRp2305
(dp2306
g61
(dp2307
sg70
g2292
sg63
(lp2308
g56
(g57
g58
NtRp2309
(dp2310
g61
(dp2311
g69
I5
ssg70
g2305
sg63
(lp2312
S'datetime.datetime(2011, 11, 8, 13, 1, 1, 179000)'
p2313
asbasbasbag56
(g72
g58
NtRp2314
(dp2315
g61
(dp2316
sg70
g66
sg63
(lp2317
g56
(g77
g58
NtRp2318
(dp2319
g61
(dp2320
g81
g82
ssg70
g2314
sg63
(lp2321
S'uuid'
p2322
asbag56
(g77
g58
NtRp2323
(dp2324
g61
(dp2325
g88
g89
ssg70
g2314
sg63
(lp2326
S':'
asbag56
(g77
g58
NtRp2327
(dp2328
g61
(dp2329
sg70
g2314
sg63
(lp2330
g56
(g57
g58
NtRp2331
(dp2332
g61
(dp2333
g69
I5
ssg70
g2327
sg63
(lp2334
S'ddlagoon/127.0.0.1.2011-11-08.22-01-01.51d68f60-8928-4897-aff7-015f571a328e'
p2335
asbasbasbag56
(g72
g58
NtRp2336
(dp2337
g61
(dp2338
sg70
g66
sg63
(lp2339
g56
(g77
g58
NtRp2340
(dp2341
g61
(dp2342
g81
g82
ssg70
g2336
sg63
(lp2343
S'vars'
p2344
asbag56
(g77
g58
NtRp2345
(dp2346
g61
(dp2347
g88
g89
ssg70
g2336
sg63
(lp2348
S':'
asbag56
(g77
g58
NtRp2349
(dp2350
g61
(dp2351
sg70
g2336
sg63
(lp2352
g56
(g57
g58
NtRp2353
(dp2354
g61
(dp2355
g69
I5
ssg70
g2349
sg63
(lp2356
g56
(g65
g58
NtRp2357
(dp2358
g61
(dp2359
g69
I4
ssg70
Nsg63
(lp2360
sbasbasbasbag56
(g72
g58
NtRp2361
(dp2362
g61
(dp2363
sg70
g66
sg63
(lp2364
g56
(g77
g58
NtRp2365
(dp2366
g61
(dp2367
g81
g82
ssg70
g2361
sg63
(lp2368
S'wsgi'
p2369
asbag56
(g77
g58
NtRp2370
(dp2371
g61
(dp2372
g88
g89
ssg70
g2361
sg63
(lp2373
S':'
asbag56
(g77
g58
NtRp2374
(dp2375
g61
(dp2376
sg70
g2361
sg63
(lp2377
g56
(g57
g58
NtRp2378
(dp2379
g61
(dp2380
g69
I5
ssg70
g2374
sg63
(lp2381
g56
(g65
g58
NtRp2382
(dp2383
g61
(dp2384
g69
I4
ssg70
Nsg63
(lp2385
g56
(g72
g58
NtRp2386
(dp2387
g61
(dp2388
sg70
g2382
sg63
(lp2389
g56
(g77
g58
NtRp2390
(dp2391
g61
(dp2392
g81
g82
ssg70
g2386
sg63
(lp2393
S'environ'
p2394
asbag56
(g77
g58
NtRp2395
(dp2396
g61
(dp2397
g88
g89
ssg70
g2386
sg63
(lp2398
S':'
asbag56
(g77
g58
NtRp2399
(dp2400
g61
(dp2401
sg70
g2386
sg63
(lp2402
g56
(g57
g58
NtRp2403
(dp2404
g61
(dp2405
g69
I4
ssg70
g2399
sg63
(lp2406
g56
(g65
g58
NtRp2407
(dp2408
g61
(dp2409
g69
I3
ssg70
Nsg63
(lp2410
g56
(g72
g58
NtRp2411
(dp2412
g61
(dp2413
sg70
g2407
sg63
(lp2414
g56
(g77
g58
NtRp2415
(dp2416
g61
(dp2417
g81
g82
ssg70
g2411
sg63
(lp2418
S'HTTP_ACCEPT'
p2419
asbag56
(g77
g58
NtRp2420
(dp2421
g61
(dp2422
g88
g89
ssg70
g2411
sg63
(lp2423
S':'
asbag56
(g77
g58
NtRp2424
(dp2425
g61
(dp2426
sg70
g2411
sg63
(lp2427
g56
(g57
g58
NtRp2428
(dp2429
g61
(dp2430
g69
I3
ssg70
g2424
sg63
(lp2431
g1002
asbasbasbag56
(g72
g58
NtRp2432
(dp2433
g61
(dp2434
sg70
g2407
sg63
(lp2435
g56
(g77
g58
NtRp2436
(dp2437
g61
(dp2438
g81
g82
ssg70
g2432
sg63
(lp2439
S'HTTP_ACCEPT_CHARSET'
p2440
asbag56
(g77
g58
NtRp2441
(dp2442
g61
(dp2443
g88
g89
ssg70
g2432
sg63
(lp2444
S':'
asbag56
(g77
g58
NtRp2445
(dp2446
g61
(dp2447
sg70
g2432
sg63
(lp2448
g56
(g57
g58
NtRp2449
(dp2450
g61
(dp2451
g69
I3
ssg70
g2445
sg63
(lp2452
g1024
asbasbasbag56
(g72
g58
NtRp2453
(dp2454
g61
(dp2455
sg70
g2407
sg63
(lp2456
g56
(g77
g58
NtRp2457
(dp2458
g61
(dp2459
g81
g82
ssg70
g2453
sg63
(lp2460
S'HTTP_ACCEPT_ENCODING'
p2461
asbag56
(g77
g58
NtRp2462
(dp2463
g61
(dp2464
g88
g89
ssg70
g2453
sg63
(lp2465
S':'
asbag56
(g77
g58
NtRp2466
(dp2467
g61
(dp2468
sg70
g2453
sg63
(lp2469
g56
(g57
g58
NtRp2470
(dp2471
g61
(dp2472
g69
I3
ssg70
g2466
sg63
(lp2473
g1046
asbasbasbag56
(g72
g58
NtRp2474
(dp2475
g61
(dp2476
sg70
g2407
sg63
(lp2477
g56
(g77
g58
NtRp2478
(dp2479
g61
(dp2480
g81
g82
ssg70
g2474
sg63
(lp2481
S'HTTP_ACCEPT_LANGUAGE'
p2482
asbag56
(g77
g58
NtRp2483
(dp2484
g61
(dp2485
g88
g89
ssg70
g2474
sg63
(lp2486
S':'
asbag56
(g77
g58
NtRp2487
(dp2488
g61
(dp2489
sg70
g2474
sg63
(lp2490
g56
(g57
g58
NtRp2491
(dp2492
g61
(dp2493
g69
I3
ssg70
g2487
sg63
(lp2494
g1068
asbasbasbag56
(g72
g58
NtRp2495
(dp2496
g61
(dp2497
sg70
g2407
sg63
(lp2498
g56
(g77
g58
NtRp2499
(dp2500
g61
(dp2501
g81
g82
ssg70
g2495
sg63
(lp2502
S'HTTP_CACHE_CONTROL'
p2503
asbag56
(g77
g58
NtRp2504
(dp2505
g61
(dp2506
g88
g89
ssg70
g2495
sg63
(lp2507
S':'
asbag56
(g77
g58
NtRp2508
(dp2509
g61
(dp2510
sg70
g2495
sg63
(lp2511
g56
(g57
g58
NtRp2512
(dp2513
g61
(dp2514
g69
I3
ssg70
g2508
sg63
(lp2515
g1090
asbasbasbag56
(g72
g58
NtRp2516
(dp2517
g61
(dp2518
sg70
g2407
sg63
(lp2519
g56
(g77
g58
NtRp2520
(dp2521
g61
(dp2522
g81
g82
ssg70
g2516
sg63
(lp2523
S'HTTP_CONNECTION'
p2524
asbag56
(g77
g58
NtRp2525
(dp2526
g61
(dp2527
g88
g89
ssg70
g2516
sg63
(lp2528
S':'
asbag56
(g77
g58
NtRp2529
(dp2530
g61
(dp2531
sg70
g2516
sg63
(lp2532
g56
(g57
g58
NtRp2533
(dp2534
g61
(dp2535
g69
I3
ssg70
g2529
sg63
(lp2536
g1112
asbasbasbag56
(g72
g58
NtRp2537
(dp2538
g61
(dp2539
sg70
g2407
sg63
(lp2540
g56
(g77
g58
NtRp2541
(dp2542
g61
(dp2543
g81
g82
ssg70
g2537
sg63
(lp2544
S'HTTP_COOKIE'
p2545
asbag56
(g77
g58
NtRp2546
(dp2547
g61
(dp2548
g88
g89
ssg70
g2537
sg63
(lp2549
S':'
asbag56
(g77
g58
NtRp2550
(dp2551
g61
(dp2552
sg70
g2537
sg63
(lp2553
g56
(g57
g58
NtRp2554
(dp2555
g61
(dp2556
g69
I3
ssg70
g2550
sg63
(lp2557
g1134
asbasbasbag56
(g72
g58
NtRp2558
(dp2559
g61
(dp2560
sg70
g2407
sg63
(lp2561
g56
(g77
g58
NtRp2562
(dp2563
g61
(dp2564
g81
g82
ssg70
g2558
sg63
(lp2565
S'HTTP_HOST'
p2566
asbag56
(g77
g58
NtRp2567
(dp2568
g61
(dp2569
g88
g89
ssg70
g2558
sg63
(lp2570
S':'
asbag56
(g77
g58
NtRp2571
(dp2572
g61
(dp2573
sg70
g2558
sg63
(lp2574
g56
(g57
g58
NtRp2575
(dp2576
g61
(dp2577
g69
I3
ssg70
g2571
sg63
(lp2578
g1156
asbasbasbag56
(g72
g58
NtRp2579
(dp2580
g61
(dp2581
sg70
g2407
sg63
(lp2582
g56
(g77
g58
NtRp2583
(dp2584
g61
(dp2585
g81
g82
ssg70
g2579
sg63
(lp2586
S'HTTP_REFERER'
p2587
asbag56
(g77
g58
NtRp2588
(dp2589
g61
(dp2590
g88
g89
ssg70
g2579
sg63
(lp2591
S':'
asbag56
(g77
g58
NtRp2592
(dp2593
g61
(dp2594
sg70
g2579
sg63
(lp2595
g56
(g57
g58
NtRp2596
(dp2597
g61
(dp2598
g69
I3
ssg70
g2592
sg63
(lp2599
g1178
asbasbasbag56
(g72
g58
NtRp2600
(dp2601
g61
(dp2602
sg70
g2407
sg63
(lp2603
g56
(g77
g58
NtRp2604
(dp2605
g61
(dp2606
g81
g82
ssg70
g2600
sg63
(lp2607
S'HTTP_USER_AGENT'
p2608
asbag56
(g77
g58
NtRp2609
(dp2610
g61
(dp2611
g88
g89
ssg70
g2600
sg63
(lp2612
S':'
asbag56
(g77
g58
NtRp2613
(dp2614
g61
(dp2615
sg70
g2600
sg63
(lp2616
g56
(g57
g58
NtRp2617
(dp2618
g61
(dp2619
g69
I3
ssg70
g2613
sg63
(lp2620
g1200
asbasbasbag56
(g72
g58
NtRp2621
(dp2622
g61
(dp2623
sg70
g2407
sg63
(lp2624
g56
(g77
g58
NtRp2625
(dp2626
g61
(dp2627
g81
g82
ssg70
g2621
sg63
(lp2628
S'PATH_INFO'
p2629
asbag56
(g77
g58
NtRp2630
(dp2631
g61
(dp2632
g88
g89
ssg70
g2621
sg63
(lp2633
S':'
asbag56
(g77
g58
NtRp2634
(dp2635
g61
(dp2636
sg70
g2621
sg63
(lp2637
g56
(g57
g58
NtRp2638
(dp2639
g61
(dp2640
g69
I3
ssg70
g2634
sg63
(lp2641
g1243
asbasbasbag56
(g72
g58
NtRp2642
(dp2643
g61
(dp2644
sg70
g2407
sg63
(lp2645
g56
(g77
g58
NtRp2646
(dp2647
g61
(dp2648
g81
g82
ssg70
g2642
sg63
(lp2649
S'QUERY_STRING'
p2650
asbag56
(g77
g58
NtRp2651
(dp2652
g61
(dp2653
g88
g89
ssg70
g2642
sg63
(lp2654
S':'
asbag56
(g77
g58
NtRp2655
(dp2656
g61
(dp2657
sg70
g2642
sg63
(lp2658
g56
(g57
g58
NtRp2659
(dp2660
g61
(dp2661
g69
I3
ssg70
g2655
sg63
(lp2662
S''
asbasbasbag56
(g72
g58
NtRp2663
(dp2664
g61
(dp2665
sg70
g2407
sg63
(lp2666
g56
(g77
g58
NtRp2667
(dp2668
g61
(dp2669
g81
g82
ssg70
g2663
sg63
(lp2670
S'REMOTE_ADDR'
p2671
asbag56
(g77
g58
NtRp2672
(dp2673
g61
(dp2674
g88
g89
ssg70
g2663
sg63
(lp2675
S':'
asbag56
(g77
g58
NtRp2676
(dp2677
g61
(dp2678
sg70
g2663
sg63
(lp2679
g56
(g57
g58
NtRp2680
(dp2681
g61
(dp2682
g69
I3
ssg70
g2676
sg63
(lp2683
g189
asbasbasbag56
(g72
g58
NtRp2684
(dp2685
g61
(dp2686
sg70
g2407
sg63
(lp2687
g56
(g77
g58
NtRp2688
(dp2689
g61
(dp2690
g81
g82
ssg70
g2684
sg63
(lp2691
S'REMOTE_PORT'
p2692
asbag56
(g77
g58
NtRp2693
(dp2694
g61
(dp2695
g88
g89
ssg70
g2684
sg63
(lp2696
S':'
asbag56
(g77
g58
NtRp2697
(dp2698
g61
(dp2699
sg70
g2684
sg63
(lp2700
g56
(g57
g58
NtRp2701
(dp2702
g61
(dp2703
g69
I3
ssg70
g2697
sg63
(lp2704
g1307
asbasbasbag56
(g72
g58
NtRp2705
(dp2706
g61
(dp2707
sg70
g2407
sg63
(lp2708
g56
(g77
g58
NtRp2709
(dp2710
g61
(dp2711
g81
g82
ssg70
g2705
sg63
(lp2712
S'REQUEST_METHOD'
p2713
asbag56
(g77
g58
NtRp2714
(dp2715
g61
(dp2716
g88
g89
ssg70
g2705
sg63
(lp2717
S':'
asbag56
(g77
g58
NtRp2718
(dp2719
g61
(dp2720
sg70
g2705
sg63
(lp2721
g56
(g57
g58
NtRp2722
(dp2723
g61
(dp2724
g69
I3
ssg70
g2718
sg63
(lp2725
g1329
asbasbasbag56
(g72
g58
NtRp2726
(dp2727
g61
(dp2728
sg70
g2407
sg63
(lp2729
g56
(g77
g58
NtRp2730
(dp2731
g61
(dp2732
g81
g82
ssg70
g2726
sg63
(lp2733
S'SCRIPT_NAME'
p2734
asbag56
(g77
g58
NtRp2735
(dp2736
g61
(dp2737
g88
g89
ssg70
g2726
sg63
(lp2738
S':'
asbag56
(g77
g58
NtRp2739
(dp2740
g61
(dp2741
sg70
g2726
sg63
(lp2742
g56
(g57
g58
NtRp2743
(dp2744
g61
(dp2745
g69
I3
ssg70
g2739
sg63
(lp2746
S''
asbasbasbag56
(g72
g58
NtRp2747
(dp2748
g61
(dp2749
sg70
g2407
sg63
(lp2750
g56
(g77
g58
NtRp2751
(dp2752
g61
(dp2753
g81
g82
ssg70
g2747
sg63
(lp2754
S'SERVER_NAME'
p2755
asbag56
(g77
g58
NtRp2756
(dp2757
g61
(dp2758
g88
g89
ssg70
g2747
sg63
(lp2759
S':'
asbag56
(g77
g58
NtRp2760
(dp2761
g61
(dp2762
sg70
g2747
sg63
(lp2763
g56
(g57
g58
NtRp2764
(dp2765
g61
(dp2766
g69
I3
ssg70
g2760
sg63
(lp2767
g1372
asbasbasbag56
(g72
g58
NtRp2768
(dp2769
g61
(dp2770
sg70
g2407
sg63
(lp2771
g56
(g77
g58
NtRp2772
(dp2773
g61
(dp2774
g81
g82
ssg70
g2768
sg63
(lp2775
S'SERVER_PORT'
p2776
asbag56
(g77
g58
NtRp2777
(dp2778
g61
(dp2779
g88
g89
ssg70
g2768
sg63
(lp2780
S':'
asbag56
(g77
g58
NtRp2781
(dp2782
g61
(dp2783
sg70
g2768
sg63
(lp2784
g56
(g57
g58
NtRp2785
(dp2786
g61
(dp2787
g69
I3
ssg70
g2781
sg63
(lp2788
g1394
asbasbasbag56
(g72
g58
NtRp2789
(dp2790
g61
(dp2791
sg70
g2407
sg63
(lp2792
g56
(g77
g58
NtRp2793
(dp2794
g61
(dp2795
g81
g82
ssg70
g2789
sg63
(lp2796
S'SERVER_PROTOCOL'
p2797
asbag56
(g77
g58
NtRp2798
(dp2799
g61
(dp2800
g88
g89
ssg70
g2789
sg63
(lp2801
S':'
asbag56
(g77
g58
NtRp2802
(dp2803
g61
(dp2804
sg70
g2789
sg63
(lp2805
g56
(g57
g58
NtRp2806
(dp2807
g61
(dp2808
g69
I3
ssg70
g2802
sg63
(lp2809
g1416
asbasbasbag56
(g72
g58
NtRp2810
(dp2811
g61
(dp2812
sg70
g2407
sg63
(lp2813
g56
(g77
g58
NtRp2814
(dp2815
g61
(dp2816
g81
g82
ssg70
g2810
sg63
(lp2817
S'SERVER_SOFTWARE'
p2818
asbag56
(g77
g58
NtRp2819
(dp2820
g61
(dp2821
g88
g89
ssg70
g2810
sg63
(lp2822
S':'
asbag56
(g77
g58
NtRp2823
(dp2824
g61
(dp2825
sg70
g2810
sg63
(lp2826
g56
(g57
g58
NtRp2827
(dp2828
g61
(dp2829
g69
I3
ssg70
g2823
sg63
(lp2830
g1438
asbasbasbag56
(g72
g58
NtRp2831
(dp2832
g61
(dp2833
sg70
g2407
sg63
(lp2834
g56
(g77
g58
NtRp2835
(dp2836
g61
(dp2837
g81
g82
ssg70
g2831
sg63
(lp2838
S'wsgi.errors'
p2839
asbag56
(g77
g58
NtRp2840
(dp2841
g61
(dp2842
g88
g89
ssg70
g2831
sg63
(lp2843
S':'
asbag56
(g77
g58
NtRp2844
(dp2845
g61
(dp2846
sg70
g2831
sg63
(lp2847
g56
(g57
g58
NtRp2848
(dp2849
g61
(dp2850
g69
I3
ssg70
g2844
sg63
(lp2851
S"<open file '<stderr>', mode 'w' at 0x0000000001C9E1E0>"
p2852
asbasbasbag56
(g72
g58
NtRp2853
(dp2854
g61
(dp2855
sg70
g2407
sg63
(lp2856
g56
(g77
g58
NtRp2857
(dp2858
g61
(dp2859
g81
g82
ssg70
g2853
sg63
(lp2860
S'wsgi.file_wrapper'
p2861
asbag56
(g77
g58
NtRp2862
(dp2863
g61
(dp2864
g88
g89
ssg70
g2853
sg63
(lp2865
S':'
asbag56
(g77
g58
NtRp2866
(dp2867
g61
(dp2868
sg70
g2853
sg63
(lp2869
g56
(g57
g58
NtRp2870
(dp2871
g61
(dp2872
g69
I3
ssg70
g2866
sg63
(lp2873
S'<class wsgiref.util.FileWrapper at 0x0000000003408468>'
p2874
asbasbasbag56
(g72
g58
NtRp2875
(dp2876
g61
(dp2877
sg70
g2407
sg63
(lp2878
g56
(g77
g58
NtRp2879
(dp2880
g61
(dp2881
g81
g82
ssg70
g2875
sg63
(lp2882
S'wsgi.input'
p2883
asbag56
(g77
g58
NtRp2884
(dp2885
g61
(dp2886
g88
g89
ssg70
g2875
sg63
(lp2887
S':'
asbag56
(g77
g58
NtRp2888
(dp2889
g61
(dp2890
sg70
g2875
sg63
(lp2891
g56
(g57
g58
NtRp2892
(dp2893
g61
(dp2894
g69
I3
ssg70
g2888
sg63
(lp2895
S'<cStringIO.StringO object at 0x00000000078A4378>'
p2896
asbasbasbag56
(g72
g58
NtRp2897
(dp2898
g61
(dp2899
sg70
g2407
sg63
(lp2900
g56
(g77
g58
NtRp2901
(dp2902
g61
(dp2903
g81
g82
ssg70
g2897
sg63
(lp2904
S'wsgi.multiprocess'
p2905
asbag56
(g77
g58
NtRp2906
(dp2907
g61
(dp2908
g88
g89
ssg70
g2897
sg63
(lp2909
S':'
asbag56
(g77
g58
NtRp2910
(dp2911
g61
(dp2912
sg70
g2897
sg63
(lp2913
g56
(g57
g58
NtRp2914
(dp2915
g61
(dp2916
g69
I3
ssg70
g2910
sg63
(lp2917
g99
asbasbasbag56
(g72
g58
NtRp2918
(dp2919
g61
(dp2920
sg70
g2407
sg63
(lp2921
g56
(g77
g58
NtRp2922
(dp2923
g61
(dp2924
g81
g82
ssg70
g2918
sg63
(lp2925
S'wsgi.multithread'
p2926
asbag56
(g77
g58
NtRp2927
(dp2928
g61
(dp2929
g88
g89
ssg70
g2918
sg63
(lp2930
S':'
asbag56
(g77
g58
NtRp2931
(dp2932
g61
(dp2933
sg70
g2918
sg63
(lp2934
g56
(g57
g58
NtRp2935
(dp2936
g61
(dp2937
g69
I3
ssg70
g2931
sg63
(lp2938
g1678
asbasbasbag56
(g72
g58
NtRp2939
(dp2940
g61
(dp2941
sg70
g2407
sg63
(lp2942
g56
(g77
g58
NtRp2943
(dp2944
g61
(dp2945
g81
g82
ssg70
g2939
sg63
(lp2946
S'wsgi.run_once'
p2947
asbag56
(g77
g58
NtRp2948
(dp2949
g61
(dp2950
g88
g89
ssg70
g2939
sg63
(lp2951
S':'
asbag56
(g77
g58
NtRp2952
(dp2953
g61
(dp2954
sg70
g2939
sg63
(lp2955
g56
(g57
g58
NtRp2956
(dp2957
g61
(dp2958
g69
I3
ssg70
g2952
sg63
(lp2959
g99
asbasbasbag56
(g72
g58
NtRp2960
(dp2961
g61
(dp2962
sg70
g2407
sg63
(lp2963
g56
(g77
g58
NtRp2964
(dp2965
g61
(dp2966
g81
g82
ssg70
g2960
sg63
(lp2967
S'wsgi.url_scheme'
p2968
asbag56
(g77
g58
NtRp2969
(dp2970
g61
(dp2971
g88
g89
ssg70
g2960
sg63
(lp2972
S':'
asbag56
(g77
g58
NtRp2973
(dp2974
g61
(dp2975
sg70
g2960
sg63
(lp2976
g56
(g57
g58
NtRp2977
(dp2978
g61
(dp2979
g69
I3
ssg70
g2973
sg63
(lp2980
g1721
asbasbasbag56
(g72
g58
NtRp2981
(dp2982
g61
(dp2983
sg70
g2407
sg63
(lp2984
g56
(g77
g58
NtRp2985
(dp2986
g61
(dp2987
g81
g82
ssg70
g2981
sg63
(lp2988
S'wsgi.version'
p2989
asbag56
(g77
g58
NtRp2990
(dp2991
g61
(dp2992
g88
g89
ssg70
g2981
sg63
(lp2993
S':'
asbag56
(g77
g58
NtRp2994
(dp2995
g61
(dp2996
sg70
g2981
sg63
(lp2997
g56
(g57
g58
NtRp2998
(dp2999
g61
(dp3000
g69
I3
ssg70
g2994
sg63
(lp3001
S'1'
asbasbasbasbasbasbasbasbasbasbasbasbasbsS'frames'
p3002
(lp3003
(dp3004
S'file'
p3005
S'C:\\Users\\Thomas\\Dropbox\\appz\\2011\\ddlagoon\\public_html\\gluon\\restricted.py'
p3006
sS'dump'
p3007
(dp3008
S'environment'
p3009
S"{'A': <class 'gluon.html.A'>, 'Auth': <class 'gluon.tools.Auth'>, 'B': <class 'gluon.html.B'>, 'BEAUTIFY': <class 'gluon.html.BEAUTIFY'>, 'BODY': <class 'gluon.html.BODY'>, 'BR': <class 'gluon.html.BR'>, 'BUTTON': <class 'gluon.html.BUTTON'>, 'CAT': <class 'gluon.html.CAT'>, 'CENTER': <class 'gluon.html.CENTER'>, 'CLEANUP': <class 'gluon.validators.CLEANUP'>, ...}"
p3010
sS'ccode'
p3011
S'<code object <module> at 00000000072C2230, file ...lagoon\\views\\default/how_to_upload.html", line 1>'
p3012
ssS'lnum'
p3013
I194
sS'lines'
p3014
(dp3015
I192
S'        else:'
p3016
sI193
S'            ccode = compile2(code,layer)'
p3017
sI194
S'        exec ccode in environment'
p3018
sI195
S'    except HTTP:'
p3019
sI196
S'        raise'
p3020
sI197
S'    except Exception, error:'
p3021
sI198
S'        # XXX Show exception in Wing IDE if running in debugger'
p3022
sI189
S'    try:'
p3023
sI190
S'        if type(code) == types.CodeType:'
p3024
sI191
S'            ccode = code'
p3025
ssS'call'
p3026
S'(code="left_sidebar_enabled=right_sidebar_enabled=True\\n...nse.write(\'\\\\n  </body>\\\\n</html>\\\\n\', escape=False)", environment={\'A\': <class \'gluon.html.A\'>, \'Auth\': <class \'gluon.tools.Auth\'>, \'B\': <class \'gluon.html.B\'>, \'BEAUTIFY\': <class \'gluon.html.BEAUTIFY\'>, \'BODY\': <class \'gluon.html.BODY\'>, \'BR\': <class \'gluon.html.BR\'>, \'BUTTON\': <class \'gluon.html.BUTTON\'>, \'CAT\': <class \'gluon.html.CAT\'>, \'CENTER\': <class \'gluon.html.CENTER\'>, \'CLEANUP\': <class \'gluon.validators.CLEANUP\'>, ...}, layer=r\'C:\\Users\\Thomas\\Dropbox\\appz\\2011\\ddlagoon\\publi...cations\\ddlagoon\\views\\default/how_to_upload.html\')'
p3027
sS'func'
p3028
S'restricted'
p3029
sa(dp3030
g3005
S'C:\\Users\\Thomas\\Dropbox\\appz\\2011\\ddlagoon\\public_html\\applications\\ddlagoon\\views\\default\\how_to_upload.html'
p3031
sg3007
(dp3032
sg3013
I76
sg3014
(dp3033
I67
S'    response.write(\'<a href="/ddlagoon/default">Home</a> \', escape=False)'
p3034
sI68
S"    response.write('       \\n            </div>\\n          </div><!-- left_sidebar -->\\n      ', escape=False)"
p3035
sI69
S'    pass'
p3036
sI70
S'response.write(\'\\n\\n      <!-- content -->\\n      <div id="content" \', escape=False)'
p3037
sI71
S'response.write(XML(style_content))'
p3038
sI72
S"response.write(' >\\n        ', escape=False)"
p3039
sI73
S"response.write('\\r\\n\\r\\n        ', escape=False)"
p3040
sI74
S"response.write(tuto['start'])"
p3041
sI75
S'response.write(\'<br />\\r\\n        <img src="/ddlagoon/static/images/tuto_upload/01.png" /><br /><br />\\r\\n        \', escape=False)'
p3042
sI76
S"response.write(tuto['go_to_profile_pre'])"
p3043
sI77
S'response.write(\' <a href="/ddlagoon/user/profile" target="_blank">\', escape=False)'
p3044
sI78
S"response.write(tuto['profile'])"
p3045
sI79
S"response.write('</a> ', escape=False)"
p3046
sI80
S"response.write(tuto['go_to_profile_suf'])"
p3047
sI81
S"response.write('<br /><br />\\r\\n        ', escape=False)"
p3048
sI82
S"response.write(tuto['login'])"
p3049
sI83
S'response.write(\'<br />\\r\\n        <img src="http://content.screencast.com/users/Sp00ky31/folders/Jing/media/5ba743b3-efe8-4a04-a522-d7da8e6a74a2/2011-11-08_2132.png" />\\r\\n        \\r\\n\', escape=False)'
p3050
sI84
S"response.write('\\r\\n', escape=False)"
p3051
sI85
S"response.write('\\r\\n', escape=False)"
p3052
sI86
S"response.write(' \\n      </div>\\n      <!-- content -->\\n\\n      ', escape=False)"
p3053
ssg3026
S'()'
p3054
sg3028
S'<module>'
p3055
sasS'pyver'
p3056
S'Python 2.7.2: C:\\Python27\\python.exe'
p3057
sS'session'
p3058
g56
(g57
g58
NtRp3059
(dp3060
g61
(dp3061
sg63
(lp3062
g56
(g65
g58
NtRp3063
(dp3064
g61
(dp3065
g69
I5
ssg70
Nsg63
(lp3066
g56
(g72
g58
NtRp3067
(dp3068
g61
(dp3069
sg70
g3063
sg63
(lp3070
g56
(g77
g58
NtRp3071
(dp3072
g61
(dp3073
g81
g82
ssg70
g3067
sg63
(lp3074
S'auth'
p3075
asbag56
(g77
g58
NtRp3076
(dp3077
g61
(dp3078
g88
g89
ssg70
g3067
sg63
(lp3079
S':'
asbag56
(g77
g58
NtRp3080
(dp3081
g61
(dp3082
sg70
g3067
sg63
(lp3083
g56
(g57
g58
NtRp3084
(dp3085
g61
(dp3086
g69
I5
ssg70
g3080
sg63
(lp3087
g56
(g65
g58
NtRp3088
(dp3089
g61
(dp3090
g69
I4
ssg70
Nsg63
(lp3091
g56
(g72
g58
NtRp3092
(dp3093
g61
(dp3094
sg70
g3088
sg63
(lp3095
g56
(g77
g58
NtRp3096
(dp3097
g61
(dp3098
g81
g82
ssg70
g3092
sg63
(lp3099
S'expiration'
p3100
asbag56
(g77
g58
NtRp3101
(dp3102
g61
(dp3103
g88
g89
ssg70
g3092
sg63
(lp3104
S':'
asbag56
(g77
g58
NtRp3105
(dp3106
g61
(dp3107
sg70
g3092
sg63
(lp3108
g56
(g57
g58
NtRp3109
(dp3110
g61
(dp3111
g69
I4
ssg70
g3105
sg63
(lp3112
S'2592000'
p3113
asbasbasbag56
(g72
g58
NtRp3114
(dp3115
g61
(dp3116
sg70
g3088
sg63
(lp3117
g56
(g77
g58
NtRp3118
(dp3119
g61
(dp3120
g81
g82
ssg70
g3114
sg63
(lp3121
S'hmac_key'
p3122
asbag56
(g77
g58
NtRp3123
(dp3124
g61
(dp3125
g88
g89
ssg70
g3114
sg63
(lp3126
S':'
asbag56
(g77
g58
NtRp3127
(dp3128
g61
(dp3129
sg70
g3114
sg63
(lp3130
g56
(g57
g58
NtRp3131
(dp3132
g61
(dp3133
g69
I4
ssg70
g3127
sg63
(lp3134
S'2283afb5-4ca0-4c7a-b5ee-637ad45c0896'
p3135
asbasbasbag56
(g72
g58
NtRp3136
(dp3137
g61
(dp3138
sg70
g3088
sg63
(lp3139
g56
(g77
g58
NtRp3140
(dp3141
g61
(dp3142
g81
g82
ssg70
g3136
sg63
(lp3143
S'last_visit'
p3144
asbag56
(g77
g58
NtRp3145
(dp3146
g61
(dp3147
g88
g89
ssg70
g3136
sg63
(lp3148
S':'
asbag56
(g77
g58
NtRp3149
(dp3150
g61
(dp3151
sg70
g3136
sg63
(lp3152
g56
(g57
g58
NtRp3153
(dp3154
g61
(dp3155
g69
I4
ssg70
g3149
sg63
(lp3156
S'datetime.datetime(2011, 11, 8, 21, 55, 0, 123000)'
p3157
asbasbasbag56
(g72
g58
NtRp3158
(dp3159
g61
(dp3160
sg70
g3088
sg63
(lp3161
g56
(g77
g58
NtRp3162
(dp3163
g61
(dp3164
g81
g82
ssg70
g3158
sg63
(lp3165
S'remember'
p3166
asbag56
(g77
g58
NtRp3167
(dp3168
g61
(dp3169
g88
g89
ssg70
g3158
sg63
(lp3170
S':'
asbag56
(g77
g58
NtRp3171
(dp3172
g61
(dp3173
sg70
g3158
sg63
(lp3174
g56
(g57
g58
NtRp3175
(dp3176
g61
(dp3177
g69
I4
ssg70
g3171
sg63
(lp3178
g99
asbasbasbag56
(g72
g58
NtRp3179
(dp3180
g61
(dp3181
sg70
g3088
sg63
(lp3182
g56
(g77
g58
NtRp3183
(dp3184
g61
(dp3185
g81
g82
ssg70
g3179
sg63
(lp3186
S'user'
p3187
asbag56
(g77
g58
NtRp3188
(dp3189
g61
(dp3190
g88
g89
ssg70
g3179
sg63
(lp3191
S':'
asbag56
(g77
g58
NtRp3192
(dp3193
g61
(dp3194
sg70
g3179
sg63
(lp3195
g56
(g57
g58
NtRp3196
(dp3197
g61
(dp3198
g69
I4
ssg70
g3192
sg63
(lp3199
g56
(g65
g58
NtRp3200
(dp3201
g61
(dp3202
g69
I3
ssg70
Nsg63
(lp3203
g56
(g72
g58
NtRp3204
(dp3205
g61
(dp3206
sg70
g3200
sg63
(lp3207
g56
(g77
g58
NtRp3208
(dp3209
g61
(dp3210
g81
g82
ssg70
g3204
sg63
(lp3211
S'allow_porn'
p3212
asbag56
(g77
g58
NtRp3213
(dp3214
g61
(dp3215
g88
g89
ssg70
g3204
sg63
(lp3216
S':'
asbag56
(g77
g58
NtRp3217
(dp3218
g61
(dp3219
sg70
g3204
sg63
(lp3220
g56
(g57
g58
NtRp3221
(dp3222
g61
(dp3223
g69
I3
ssg70
g3217
sg63
(lp3224
g99
asbasbasbag56
(g72
g58
NtRp3225
(dp3226
g61
(dp3227
sg70
g3200
sg63
(lp3228
g56
(g77
g58
NtRp3229
(dp3230
g61
(dp3231
g81
g82
ssg70
g3225
sg63
(lp3232
S'email'
p3233
asbag56
(g77
g58
NtRp3234
(dp3235
g61
(dp3236
g88
g89
ssg70
g3225
sg63
(lp3237
S':'
asbag56
(g77
g58
NtRp3238
(dp3239
g61
(dp3240
sg70
g3225
sg63
(lp3241
g56
(g57
g58
NtRp3242
(dp3243
g61
(dp3244
g69
I3
ssg70
g3238
sg63
(lp3245
S'thomas.dallagnese@gmail.com'
p3246
asbasbasbag56
(g72
g58
NtRp3247
(dp3248
g61
(dp3249
sg70
g3200
sg63
(lp3250
g56
(g77
g58
NtRp3251
(dp3252
g61
(dp3253
g81
g82
ssg70
g3247
sg63
(lp3254
S'first_name'
p3255
asbag56
(g77
g58
NtRp3256
(dp3257
g61
(dp3258
g88
g89
ssg70
g3247
sg63
(lp3259
S':'
asbag56
(g77
g58
NtRp3260
(dp3261
g61
(dp3262
sg70
g3247
sg63
(lp3263
g56
(g57
g58
NtRp3264
(dp3265
g61
(dp3266
g69
I3
ssg70
g3260
sg63
(lp3267
S'Thomas'
p3268
asbasbasbag56
(g72
g58
NtRp3269
(dp3270
g61
(dp3271
sg70
g3200
sg63
(lp3272
g56
(g77
g58
NtRp3273
(dp3274
g61
(dp3275
g81
g82
ssg70
g3269
sg63
(lp3276
S'id'
p3277
asbag56
(g77
g58
NtRp3278
(dp3279
g61
(dp3280
g88
g89
ssg70
g3269
sg63
(lp3281
S':'
asbag56
(g77
g58
NtRp3282
(dp3283
g61
(dp3284
sg70
g3269
sg63
(lp3285
g56
(g57
g58
NtRp3286
(dp3287
g61
(dp3288
g69
I3
ssg70
g3282
sg63
(lp3289
S'1'
asbasbasbag56
(g72
g58
NtRp3290
(dp3291
g61
(dp3292
sg70
g3200
sg63
(lp3293
g56
(g77
g58
NtRp3294
(dp3295
g61
(dp3296
g81
g82
ssg70
g3290
sg63
(lp3297
S'is_uploader'
p3298
asbag56
(g77
g58
NtRp3299
(dp3300
g61
(dp3301
g88
g89
ssg70
g3290
sg63
(lp3302
S':'
asbag56
(g77
g58
NtRp3303
(dp3304
g61
(dp3305
sg70
g3290
sg63
(lp3306
g56
(g57
g58
NtRp3307
(dp3308
g61
(dp3309
g69
I3
ssg70
g3303
sg63
(lp3310
g1678
asbasbasbag56
(g72
g58
NtRp3311
(dp3312
g61
(dp3313
sg70
g3200
sg63
(lp3314
g56
(g77
g58
NtRp3315
(dp3316
g61
(dp3317
g81
g82
ssg70
g3311
sg63
(lp3318
S'last_name'
p3319
asbag56
(g77
g58
NtRp3320
(dp3321
g61
(dp3322
g88
g89
ssg70
g3311
sg63
(lp3323
S':'
asbag56
(g77
g58
NtRp3324
(dp3325
g61
(dp3326
sg70
g3311
sg63
(lp3327
g56
(g57
g58
NtRp3328
(dp3329
g61
(dp3330
g69
I3
ssg70
g3324
sg63
(lp3331
S"Dall'Agnese"
p3332
asbasbasbag56
(g72
g58
NtRp3333
(dp3334
g61
(dp3335
sg70
g3200
sg63
(lp3336
g56
(g77
g58
NtRp3337
(dp3338
g61
(dp3339
g81
g82
ssg70
g3333
sg63
(lp3340
S'nickname'
p3341
asbag56
(g77
g58
NtRp3342
(dp3343
g61
(dp3344
g88
g89
ssg70
g3333
sg63
(lp3345
S':'
asbag56
(g77
g58
NtRp3346
(dp3347
g61
(dp3348
sg70
g3333
sg63
(lp3349
g56
(g57
g58
NtRp3350
(dp3351
g61
(dp3352
g69
I3
ssg70
g3346
sg63
(lp3353
S'$p00ky'
p3354
asbasbasbag56
(g72
g58
NtRp3355
(dp3356
g61
(dp3357
sg70
g3200
sg63
(lp3358
g56
(g77
g58
NtRp3359
(dp3360
g61
(dp3361
g81
g82
ssg70
g3355
sg63
(lp3362
S'password'
p3363
asbag56
(g77
g58
NtRp3364
(dp3365
g61
(dp3366
g88
g89
ssg70
g3355
sg63
(lp3367
S':'
asbag56
(g77
g58
NtRp3368
(dp3369
g61
(dp3370
sg70
g3355
sg63
(lp3371
g56
(g57
g58
NtRp3372
(dp3373
g61
(dp3374
g69
I3
ssg70
g3368
sg63
(lp3375
S'None'
p3376
asbasbasbag56
(g72
g58
NtRp3377
(dp3378
g61
(dp3379
sg70
g3200
sg63
(lp3380
g56
(g77
g58
NtRp3381
(dp3382
g61
(dp3383
g81
g82
ssg70
g3377
sg63
(lp3384
S'registration_key'
p3385
asbag56
(g77
g58
NtRp3386
(dp3387
g61
(dp3388
g88
g89
ssg70
g3377
sg63
(lp3389
S':'
asbag56
(g77
g58
NtRp3390
(dp3391
g61
(dp3392
sg70
g3377
sg63
(lp3393
g56
(g57
g58
NtRp3394
(dp3395
g61
(dp3396
g69
I3
ssg70
g3390
sg63
(lp3397
S''
asbasbasbag56
(g72
g58
NtRp3398
(dp3399
g61
(dp3400
sg70
g3200
sg63
(lp3401
g56
(g77
g58
NtRp3402
(dp3403
g61
(dp3404
g81
g82
ssg70
g3398
sg63
(lp3405
S'reset_password_key'
p3406
asbag56
(g77
g58
NtRp3407
(dp3408
g61
(dp3409
g88
g89
ssg70
g3398
sg63
(lp3410
S':'
asbag56
(g77
g58
NtRp3411
(dp3412
g61
(dp3413
sg70
g3398
sg63
(lp3414
g56
(g57
g58
NtRp3415
(dp3416
g61
(dp3417
g69
I3
ssg70
g3411
sg63
(lp3418
S''
asbasbasbag56
(g72
g58
NtRp3419
(dp3420
g61
(dp3421
sg70
g3200
sg63
(lp3422
g56
(g77
g58
NtRp3423
(dp3424
g61
(dp3425
g81
g82
ssg70
g3419
sg63
(lp3426
S'uploader_key'
p3427
asbag56
(g77
g58
NtRp3428
(dp3429
g61
(dp3430
g88
g89
ssg70
g3419
sg63
(lp3431
S':'
asbag56
(g77
g58
NtRp3432
(dp3433
g61
(dp3434
sg70
g3419
sg63
(lp3435
g56
(g57
g58
NtRp3436
(dp3437
g61
(dp3438
g69
I3
ssg70
g3432
sg63
(lp3439
S'50eced9b22d27bc6a9b28d6e600d34dc'
p3440
asbasbasbasbasbasbasbasbasbasbasbasbasbsS'etype'
p3441
S"<type 'exceptions.KeyError'>"
p3442
sS'date'
p3443
S'Tue Nov 08 22:01:02 2011'
p3444
sS'response'
p3445
g56
(g57
g58
NtRp3446
(dp3447
g61
(dp3448
sg63
(lp3449
g56
(g65
g58
NtRp3450
(dp3451
g61
(dp3452
g69
I5
ssg70
Nsg63
(lp3453
g56
(g72
g58
NtRp3454
(dp3455
g61
(dp3456
sg70
g3450
sg63
(lp3457
g56
(g77
g58
NtRp3458
(dp3459
g61
(dp3460
g81
g82
ssg70
g3454
sg63
(lp3461
g154
asbag56
(g77
g58
NtRp3462
(dp3463
g61
(dp3464
g88
g89
ssg70
g3454
sg63
(lp3465
S':'
asbag56
(g77
g58
NtRp3466
(dp3467
g61
(dp3468
sg70
g3454
sg63
(lp3469
g56
(g57
g58
NtRp3470
(dp3471
g61
(dp3472
g69
I5
ssg70
g3466
sg63
(lp3473
S'<cStringIO.StringO object at 0x00000000078A4688>'
p3474
asbasbasbag56
(g72
g58
NtRp3475
(dp3476
g61
(dp3477
sg70
g3450
sg63
(lp3478
g56
(g77
g58
NtRp3479
(dp3480
g61
(dp3481
g81
g82
ssg70
g3475
sg63
(lp3482
g220
asbag56
(g77
g58
NtRp3483
(dp3484
g61
(dp3485
g88
g89
ssg70
g3475
sg63
(lp3486
S':'
asbag56
(g77
g58
NtRp3487
(dp3488
g61
(dp3489
sg70
g3475
sg63
(lp3490
g56
(g57
g58
NtRp3491
(dp3492
g61
(dp3493
g69
I5
ssg70
g3487
sg63
(lp3494
g56
(g65
g58
NtRp3495
(dp3496
g61
(dp3497
g69
I4
ssg70
Nsg63
(lp3498
g56
(g72
g58
NtRp3499
(dp3500
g61
(dp3501
sg70
g3495
sg63
(lp3502
g56
(g77
g58
NtRp3503
(dp3504
g61
(dp3505
g81
g82
ssg70
g3499
sg63
(lp3506
S'session_id_ddlagoon'
p3507
asbag56
(g77
g58
NtRp3508
(dp3509
g61
(dp3510
g88
g89
ssg70
g3499
sg63
(lp3511
S':'
asbag56
(g77
g58
NtRp3512
(dp3513
g61
(dp3514
sg70
g3499
sg63
(lp3515
g56
(g57
g58
NtRp3516
(dp3517
g61
(dp3518
g69
I4
ssg70
g3512
sg63
(lp3519
g56
(g65
g58
NtRp3520
(dp3521
g61
(dp3522
g69
I3
ssg70
Nsg63
(lp3523
g56
(g72
g58
NtRp3524
(dp3525
g61
(dp3526
sg70
g3520
sg63
(lp3527
g56
(g77
g58
NtRp3528
(dp3529
g61
(dp3530
g81
g82
ssg70
g3524
sg63
(lp3531
g270
asbag56
(g77
g58
NtRp3532
(dp3533
g61
(dp3534
g88
g89
ssg70
g3524
sg63
(lp3535
S':'
asbag56
(g77
g58
NtRp3536
(dp3537
g61
(dp3538
sg70
g3524
sg63
(lp3539
g56
(g57
g58
NtRp3540
(dp3541
g61
(dp3542
g69
I3
ssg70
g3536
sg63
(lp3543
S''
asbasbasbag56
(g72
g58
NtRp3544
(dp3545
g61
(dp3546
sg70
g3520
sg63
(lp3547
g56
(g77
g58
NtRp3548
(dp3549
g61
(dp3550
g81
g82
ssg70
g3544
sg63
(lp3551
g291
asbag56
(g77
g58
NtRp3552
(dp3553
g61
(dp3554
g88
g89
ssg70
g3544
sg63
(lp3555
S':'
asbag56
(g77
g58
NtRp3556
(dp3557
g61
(dp3558
sg70
g3544
sg63
(lp3559
g56
(g57
g58
NtRp3560
(dp3561
g61
(dp3562
g69
I3
ssg70
g3556
sg63
(lp3563
S''
asbasbasbag56
(g72
g58
NtRp3564
(dp3565
g61
(dp3566
sg70
g3520
sg63
(lp3567
g56
(g77
g58
NtRp3568
(dp3569
g61
(dp3570
g81
g82
ssg70
g3564
sg63
(lp3571
g312
asbag56
(g77
g58
NtRp3572
(dp3573
g61
(dp3574
g88
g89
ssg70
g3564
sg63
(lp3575
S':'
asbag56
(g77
g58
NtRp3576
(dp3577
g61
(dp3578
sg70
g3564
sg63
(lp3579
g56
(g57
g58
NtRp3580
(dp3581
g61
(dp3582
g69
I3
ssg70
g3576
sg63
(lp3583
S''
asbasbasbag56
(g72
g58
NtRp3584
(dp3585
g61
(dp3586
sg70
g3520
sg63
(lp3587
g56
(g77
g58
NtRp3588
(dp3589
g61
(dp3590
g81
g82
ssg70
g3584
sg63
(lp3591
g333
asbag56
(g77
g58
NtRp3592
(dp3593
g61
(dp3594
g88
g89
ssg70
g3584
sg63
(lp3595
S':'
asbag56
(g77
g58
NtRp3596
(dp3597
g61
(dp3598
sg70
g3584
sg63
(lp3599
g56
(g57
g58
NtRp3600
(dp3601
g61
(dp3602
g69
I3
ssg70
g3596
sg63
(lp3603
S''
asbasbasbag56
(g72
g58
NtRp3604
(dp3605
g61
(dp3606
sg70
g3520
sg63
(lp3607
g56
(g77
g58
NtRp3608
(dp3609
g61
(dp3610
g81
g82
ssg70
g3604
sg63
(lp3611
g354
asbag56
(g77
g58
NtRp3612
(dp3613
g61
(dp3614
g88
g89
ssg70
g3604
sg63
(lp3615
S':'
asbag56
(g77
g58
NtRp3616
(dp3617
g61
(dp3618
sg70
g3604
sg63
(lp3619
g56
(g57
g58
NtRp3620
(dp3621
g61
(dp3622
g69
I3
ssg70
g3616
sg63
(lp3623
S''
asbasbasbag56
(g72
g58
NtRp3624
(dp3625
g61
(dp3626
sg70
g3520
sg63
(lp3627
g56
(g77
g58
NtRp3628
(dp3629
g61
(dp3630
g81
g82
ssg70
g3624
sg63
(lp3631
g375
asbag56
(g77
g58
NtRp3632
(dp3633
g61
(dp3634
g88
g89
ssg70
g3624
sg63
(lp3635
S':'
asbag56
(g77
g58
NtRp3636
(dp3637
g61
(dp3638
sg70
g3624
sg63
(lp3639
g56
(g57
g58
NtRp3640
(dp3641
g61
(dp3642
g69
I3
ssg70
g3636
sg63
(lp3643
S'/'
asbasbasbag56
(g72
g58
NtRp3644
(dp3645
g61
(dp3646
sg70
g3520
sg63
(lp3647
g56
(g77
g58
NtRp3648
(dp3649
g61
(dp3650
g81
g82
ssg70
g3644
sg63
(lp3651
g396
asbag56
(g77
g58
NtRp3652
(dp3653
g61
(dp3654
g88
g89
ssg70
g3644
sg63
(lp3655
S':'
asbag56
(g77
g58
NtRp3656
(dp3657
g61
(dp3658
sg70
g3644
sg63
(lp3659
g56
(g57
g58
NtRp3660
(dp3661
g61
(dp3662
g69
I3
ssg70
g3656
sg63
(lp3663
S''
asbasbasbag56
(g72
g58
NtRp3664
(dp3665
g61
(dp3666
sg70
g3520
sg63
(lp3667
g56
(g77
g58
NtRp3668
(dp3669
g61
(dp3670
g81
g82
ssg70
g3664
sg63
(lp3671
g417
asbag56
(g77
g58
NtRp3672
(dp3673
g61
(dp3674
g88
g89
ssg70
g3664
sg63
(lp3675
S':'
asbag56
(g77
g58
NtRp3676
(dp3677
g61
(dp3678
sg70
g3664
sg63
(lp3679
g56
(g57
g58
NtRp3680
(dp3681
g61
(dp3682
g69
I3
ssg70
g3676
sg63
(lp3683
S''
asbasbasbasbasbasbasbasbasbasbasbag56
(g72
g58
NtRp3684
(dp3685
g61
(dp3686
sg70
g3450
sg63
(lp3687
g56
(g77
g58
NtRp3688
(dp3689
g61
(dp3690
g81
g82
ssg70
g3684
sg63
(lp3691
S'files'
p3692
asbag56
(g77
g58
NtRp3693
(dp3694
g61
(dp3695
g88
g89
ssg70
g3684
sg63
(lp3696
S':'
asbag56
(g77
g58
NtRp3697
(dp3698
g61
(dp3699
sg70
g3684
sg63
(lp3700
g56
(g57
g58
NtRp3701
(dp3702
g61
(dp3703
g69
I5
ssg70
g3697
sg63
(lp3704
g56
(g65
g58
NtRp3705
(dp3706
g61
(dp3707
g69
I4
ssg70
Nsg63
(lp3708
g56
(g72
g58
NtRp3709
(dp3710
g61
(dp3711
sg70
g3705
sg63
(lp3712
g56
(g77
g58
NtRp3713
(dp3714
g61
(dp3715
sg70
g3709
sg63
(lp3716
g56
(g57
g58
NtRp3717
(dp3718
g61
(dp3719
g69
I4
ssg70
g3713
sg63
(lp3720
S'/ddlagoon/static/js/jquery.js'
p3721
asbasbasbag56
(g72
g58
NtRp3722
(dp3723
g61
(dp3724
sg70
g3705
sg63
(lp3725
g56
(g77
g58
NtRp3726
(dp3727
g61
(dp3728
sg70
g3722
sg63
(lp3729
g56
(g57
g58
NtRp3730
(dp3731
g61
(dp3732
g69
I4
ssg70
g3726
sg63
(lp3733
S'/ddlagoon/static/css/anytime.css'
p3734
asbasbasbag56
(g72
g58
NtRp3735
(dp3736
g61
(dp3737
sg70
g3705
sg63
(lp3738
g56
(g77
g58
NtRp3739
(dp3740
g61
(dp3741
sg70
g3735
sg63
(lp3742
g56
(g57
g58
NtRp3743
(dp3744
g61
(dp3745
g69
I4
ssg70
g3739
sg63
(lp3746
S'/ddlagoon/static/js/anytime.js'
p3747
asbasbasbag56
(g72
g58
NtRp3748
(dp3749
g61
(dp3750
sg70
g3705
sg63
(lp3751
g56
(g77
g58
NtRp3752
(dp3753
g61
(dp3754
sg70
g3748
sg63
(lp3755
g56
(g57
g58
NtRp3756
(dp3757
g61
(dp3758
g69
I4
ssg70
g3752
sg63
(lp3759
S'/ddlagoon/static/css/base.css'
p3760
asbasbasbag56
(g72
g58
NtRp3761
(dp3762
g61
(dp3763
sg70
g3705
sg63
(lp3764
g56
(g77
g58
NtRp3765
(dp3766
g61
(dp3767
sg70
g3761
sg63
(lp3768
g56
(g57
g58
NtRp3769
(dp3770
g61
(dp3771
g69
I4
ssg70
g3765
sg63
(lp3772
S'/ddlagoon/static/css/superfish.css'
p3773
asbasbasbag56
(g72
g58
NtRp3774
(dp3775
g61
(dp3776
sg70
g3705
sg63
(lp3777
g56
(g77
g58
NtRp3778
(dp3779
g61
(dp3780
sg70
g3774
sg63
(lp3781
g56
(g57
g58
NtRp3782
(dp3783
g61
(dp3784
g69
I4
ssg70
g3778
sg63
(lp3785
S'/ddlagoon/static/js/superfish.js'
p3786
asbasbasbasbasbasbasbag56
(g72
g58
NtRp3787
(dp3788
g61
(dp3789
sg70
g3450
sg63
(lp3790
g56
(g77
g58
NtRp3791
(dp3792
g61
(dp3793
g81
g82
ssg70
g3787
sg63
(lp3794
S'flash'
p3795
asbag56
(g77
g58
NtRp3796
(dp3797
g61
(dp3798
g88
g89
ssg70
g3787
sg63
(lp3799
S':'
asbag56
(g77
g58
NtRp3800
(dp3801
g61
(dp3802
sg70
g3787
sg63
(lp3803
g56
(g57
g58
NtRp3804
(dp3805
g61
(dp3806
g69
I5
ssg70
g3800
sg63
(lp3807
S''
asbasbasbag56
(g72
g58
NtRp3808
(dp3809
g61
(dp3810
sg70
g3450
sg63
(lp3811
g56
(g77
g58
NtRp3812
(dp3813
g61
(dp3814
g81
g82
ssg70
g3808
sg63
(lp3815
S'generic_patterns'
p3816
asbag56
(g77
g58
NtRp3817
(dp3818
g61
(dp3819
g88
g89
ssg70
g3808
sg63
(lp3820
S':'
asbag56
(g77
g58
NtRp3821
(dp3822
g61
(dp3823
sg70
g3808
sg63
(lp3824
g56
(g57
g58
NtRp3825
(dp3826
g61
(dp3827
g69
I5
ssg70
g3821
sg63
(lp3828
g56
(g65
g58
NtRp3829
(dp3830
g61
(dp3831
g69
I4
ssg70
Nsg63
(lp3832
g56
(g72
g58
NtRp3833
(dp3834
g61
(dp3835
sg70
g3829
sg63
(lp3836
g56
(g77
g58
NtRp3837
(dp3838
g61
(dp3839
sg70
g3833
sg63
(lp3840
g56
(g57
g58
NtRp3841
(dp3842
g61
(dp3843
g69
I4
ssg70
g3837
sg63
(lp3844
S'*'
asbasbasbasbasbasbasbag56
(g72
g58
NtRp3845
(dp3846
g61
(dp3847
sg70
g3450
sg63
(lp3848
g56
(g77
g58
NtRp3849
(dp3850
g61
(dp3851
g81
g82
ssg70
g3845
sg63
(lp3852
S'headers'
p3853
asbag56
(g77
g58
NtRp3854
(dp3855
g61
(dp3856
g88
g89
ssg70
g3845
sg63
(lp3857
S':'
asbag56
(g77
g58
NtRp3858
(dp3859
g61
(dp3860
sg70
g3845
sg63
(lp3861
g56
(g57
g58
NtRp3862
(dp3863
g61
(dp3864
g69
I5
ssg70
g3858
sg63
(lp3865
g56
(g65
g58
NtRp3866
(dp3867
g61
(dp3868
g69
I4
ssg70
Nsg63
(lp3869
g56
(g72
g58
NtRp3870
(dp3871
g61
(dp3872
sg70
g3866
sg63
(lp3873
g56
(g77
g58
NtRp3874
(dp3875
g61
(dp3876
g81
g82
ssg70
g3870
sg63
(lp3877
S'Cache-Control'
p3878
asbag56
(g77
g58
NtRp3879
(dp3880
g61
(dp3881
g88
g89
ssg70
g3870
sg63
(lp3882
S':'
asbag56
(g77
g58
NtRp3883
(dp3884
g61
(dp3885
sg70
g3870
sg63
(lp3886
g56
(g57
g58
NtRp3887
(dp3888
g61
(dp3889
g69
I4
ssg70
g3883
sg63
(lp3890
S'no-store, no-cache, must-revalidate, post-check=0, pre-check=0'
p3891
asbasbasbag56
(g72
g58
NtRp3892
(dp3893
g61
(dp3894
sg70
g3866
sg63
(lp3895
g56
(g77
g58
NtRp3896
(dp3897
g61
(dp3898
g81
g82
ssg70
g3892
sg63
(lp3899
S'Content-Type'
p3900
asbag56
(g77
g58
NtRp3901
(dp3902
g61
(dp3903
g88
g89
ssg70
g3892
sg63
(lp3904
S':'
asbag56
(g77
g58
NtRp3905
(dp3906
g61
(dp3907
sg70
g3892
sg63
(lp3908
g56
(g57
g58
NtRp3909
(dp3910
g61
(dp3911
g69
I4
ssg70
g3905
sg63
(lp3912
S'text/html; charset=utf-8'
p3913
asbasbasbag56
(g72
g58
NtRp3914
(dp3915
g61
(dp3916
sg70
g3866
sg63
(lp3917
g56
(g77
g58
NtRp3918
(dp3919
g61
(dp3920
g81
g82
ssg70
g3914
sg63
(lp3921
S'Expires'
p3922
asbag56
(g77
g58
NtRp3923
(dp3924
g61
(dp3925
g88
g89
ssg70
g3914
sg63
(lp3926
S':'
asbag56
(g77
g58
NtRp3927
(dp3928
g61
(dp3929
sg70
g3914
sg63
(lp3930
g56
(g57
g58
NtRp3931
(dp3932
g61
(dp3933
g69
I4
ssg70
g3927
sg63
(lp3934
S'Tue, 08 Nov 2011 13:01:01 GMT'
p3935
asbasbasbag56
(g72
g58
NtRp3936
(dp3937
g61
(dp3938
sg70
g3866
sg63
(lp3939
g56
(g77
g58
NtRp3940
(dp3941
g61
(dp3942
g81
g82
ssg70
g3936
sg63
(lp3943
S'Pragma'
p3944
asbag56
(g77
g58
NtRp3945
(dp3946
g61
(dp3947
g88
g89
ssg70
g3936
sg63
(lp3948
S':'
asbag56
(g77
g58
NtRp3949
(dp3950
g61
(dp3951
sg70
g3936
sg63
(lp3952
g56
(g57
g58
NtRp3953
(dp3954
g61
(dp3955
g69
I4
ssg70
g3949
sg63
(lp3956
S'no-cache'
p3957
asbasbasbag56
(g72
g58
NtRp3958
(dp3959
g61
(dp3960
sg70
g3866
sg63
(lp3961
g56
(g77
g58
NtRp3962
(dp3963
g61
(dp3964
g81
g82
ssg70
g3958
sg63
(lp3965
S'X-Powered-By'
p3966
asbag56
(g77
g58
NtRp3967
(dp3968
g61
(dp3969
g88
g89
ssg70
g3958
sg63
(lp3970
S':'
asbag56
(g77
g58
NtRp3971
(dp3972
g61
(dp3973
sg70
g3958
sg63
(lp3974
g56
(g57
g58
NtRp3975
(dp3976
g61
(dp3977
g69
I4
ssg70
g3971
sg63
(lp3978
S'web2py'
p3979
asbasbasbasbasbasbasbag56
(g72
g58
NtRp3980
(dp3981
g61
(dp3982
sg70
g3450
sg63
(lp3983
g56
(g77
g58
NtRp3984
(dp3985
g61
(dp3986
g81
g82
ssg70
g3980
sg63
(lp3987
S'menu'
p3988
asbag56
(g77
g58
NtRp3989
(dp3990
g61
(dp3991
g88
g89
ssg70
g3980
sg63
(lp3992
S':'
asbag56
(g77
g58
NtRp3993
(dp3994
g61
(dp3995
sg70
g3980
sg63
(lp3996
g56
(g57
g58
NtRp3997
(dp3998
g61
(dp3999
g69
I5
ssg70
g3993
sg63
(lp4000
g56
(g65
g58
NtRp4001
(dp4002
g61
(dp4003
g69
I4
ssg70
Nsg63
(lp4004
g56
(g72
g58
NtRp4005
(dp4006
g61
(dp4007
sg70
g4001
sg63
(lp4008
g56
(g77
g58
NtRp4009
(dp4010
g61
(dp4011
sg70
g4005
sg63
(lp4012
g56
(g57
g58
NtRp4013
(dp4014
g61
(dp4015
g69
I4
ssg70
g4009
sg63
(lp4016
g56
(g65
g58
NtRp4017
(dp4018
g61
(dp4019
g69
I3
ssg70
Nsg63
(lp4020
g56
(g72
g58
NtRp4021
(dp4022
g61
(dp4023
sg70
g4017
sg63
(lp4024
g56
(g77
g58
NtRp4025
(dp4026
g61
(dp4027
sg70
g4021
sg63
(lp4028
g56
(g57
g58
NtRp4029
(dp4030
g61
(dp4031
g69
I3
ssg70
g4025
sg63
(lp4032
cgluon.languages
lazyT_unpickle
p4033
(S't\x04\x00\x00\x00Home'
tRp4034
asbasbasbag56
(g72
g58
NtRp4035
(dp4036
g61
(dp4037
sg70
g4017
sg63
(lp4038
g56
(g77
g58
NtRp4039
(dp4040
g61
(dp4041
sg70
g4035
sg63
(lp4042
g56
(g57
g58
NtRp4043
(dp4044
g61
(dp4045
g69
I3
ssg70
g4039
sg63
(lp4046
g99
asbasbasbag56
(g72
g58
NtRp4047
(dp4048
g61
(dp4049
sg70
g4017
sg63
(lp4050
g56
(g77
g58
NtRp4051
(dp4052
g61
(dp4053
sg70
g4047
sg63
(lp4054
g56
(g57
g58
NtRp4055
(dp4056
g61
(dp4057
g69
I3
ssg70
g4051
sg63
(lp4058
S'/ddlagoon/default/index'
p4059
asbasbasbag56
(g72
g58
NtRp4060
(dp4061
g61
(dp4062
sg70
g4017
sg63
(lp4063
g56
(g77
g58
NtRp4064
(dp4065
g61
(dp4066
sg70
g4060
sg63
(lp4067
g56
(g57
g58
NtRp4068
(dp4069
g61
(dp4070
g69
I3
ssg70
g4064
sg63
(lp4071
g56
(g65
g58
NtRp4072
(dp4073
g61
(dp4074
g69
I2
ssg70
Nsg63
(lp4075
sbasbasbasbasbasbasbasbag56
(g72
g58
NtRp4076
(dp4077
g61
(dp4078
sg70
g4001
sg63
(lp4079
g56
(g77
g58
NtRp4080
(dp4081
g61
(dp4082
sg70
g4076
sg63
(lp4083
g56
(g57
g58
NtRp4084
(dp4085
g61
(dp4086
g69
I4
ssg70
g4080
sg63
(lp4087
g56
(g65
g58
NtRp4088
(dp4089
g61
(dp4090
g69
I3
ssg70
Nsg63
(lp4091
g56
(g72
g58
NtRp4092
(dp4093
g61
(dp4094
sg70
g4088
sg63
(lp4095
g56
(g77
g58
NtRp4096
(dp4097
g61
(dp4098
sg70
g4092
sg63
(lp4099
g56
(g57
g58
NtRp4100
(dp4101
g61
(dp4102
g69
I3
ssg70
g4096
sg63
(lp4103
g4033
(S's\x08\x00\x00\x00This App'
tRp4104
asbasbasbag56
(g72
g58
NtRp4105
(dp4106
g61
(dp4107
sg70
g4088
sg63
(lp4108
g56
(g77
g58
NtRp4109
(dp4110
g61
(dp4111
sg70
g4105
sg63
(lp4112
g56
(g57
g58
NtRp4113
(dp4114
g61
(dp4115
g69
I3
ssg70
g4109
sg63
(lp4116
g99
asbasbasbag56
(g72
g58
NtRp4117
(dp4118
g61
(dp4119
sg70
g4088
sg63
(lp4120
g56
(g77
g58
NtRp4121
(dp4122
g61
(dp4123
sg70
g4117
sg63
(lp4124
g56
(g57
g58
NtRp4125
(dp4126
g61
(dp4127
g69
I3
ssg70
g4121
sg63
(lp4128
S'/admin/default/design/ddlagoon'
p4129
asbasbasbag56
(g72
g58
NtRp4130
(dp4131
g61
(dp4132
sg70
g4088
sg63
(lp4133
g56
(g77
g58
NtRp4134
(dp4135
g61
(dp4136
sg70
g4130
sg63
(lp4137
g56
(g57
g58
NtRp4138
(dp4139
g61
(dp4140
g69
I3
ssg70
g4134
sg63
(lp4141
g56
(g65
g58
NtRp4142
(dp4143
g61
(dp4144
g69
I2
ssg70
Nsg63
(lp4145
g56
(g72
g58
NtRp4146
(dp4147
g61
(dp4148
sg70
g4142
sg63
(lp4149
g56
(g77
g58
NtRp4150
(dp4151
g61
(dp4152
sg70
g4146
sg63
(lp4153
g56
(g57
g58
NtRp4154
(dp4155
g61
(dp4156
g69
I2
ssg70
g4150
sg63
(lp4157
g56
(g65
g58
NtRp4158
(dp4159
g61
(dp4160
g69
I1
ssg70
Nsg63
(lp4161
g56
(g72
g58
NtRp4162
(dp4163
g61
(dp4164
sg70
g4158
sg63
(lp4165
g56
(g77
g58
NtRp4166
(dp4167
g61
(dp4168
sg70
g4162
sg63
(lp4169
g56
(g57
g58
NtRp4170
(dp4171
g61
(dp4172
g69
I1
ssg70
g4166
sg63
(lp4173
g4033
(S't\n\x00\x00\x00Controller'
tRp4174
asbasbasbag56
(g72
g58
NtRp4175
(dp4176
g61
(dp4177
sg70
g4158
sg63
(lp4178
g56
(g77
g58
NtRp4179
(dp4180
g61
(dp4181
sg70
g4175
sg63
(lp4182
g56
(g57
g58
NtRp4183
(dp4184
g61
(dp4185
g69
I1
ssg70
g4179
sg63
(lp4186
I00
asbasbasbag56
(g72
g58
NtRp4187
(dp4188
g61
(dp4189
sg70
g4158
sg63
(lp4190
g56
(g77
g58
NtRp4191
(dp4192
g61
(dp4193
sg70
g4187
sg63
(lp4194
g56
(g57
g58
NtRp4195
(dp4196
g61
(dp4197
g69
I1
ssg70
g4191
sg63
(lp4198
S'/admin/default/edit/ddlagoon/controllers/default.py'
p4199
asbasbasbasbasbasbasbag56
(g72
g58
NtRp4200
(dp4201
g61
(dp4202
sg70
g4142
sg63
(lp4203
g56
(g77
g58
NtRp4204
(dp4205
g61
(dp4206
sg70
g4200
sg63
(lp4207
g56
(g57
g58
NtRp4208
(dp4209
g61
(dp4210
g69
I2
ssg70
g4204
sg63
(lp4211
g56
(g65
g58
NtRp4212
(dp4213
g61
(dp4214
g69
I1
ssg70
Nsg63
(lp4215
g56
(g72
g58
NtRp4216
(dp4217
g61
(dp4218
sg70
g4212
sg63
(lp4219
g56
(g77
g58
NtRp4220
(dp4221
g61
(dp4222
sg70
g4216
sg63
(lp4223
g56
(g57
g58
NtRp4224
(dp4225
g61
(dp4226
g69
I1
ssg70
g4220
sg63
(lp4227
g4033
(S't\x04\x00\x00\x00View'
tRp4228
asbasbasbag56
(g72
g58
NtRp4229
(dp4230
g61
(dp4231
sg70
g4212
sg63
(lp4232
g56
(g77
g58
NtRp4233
(dp4234
g61
(dp4235
sg70
g4229
sg63
(lp4236
g56
(g57
g58
NtRp4237
(dp4238
g61
(dp4239
g69
I1
ssg70
g4233
sg63
(lp4240
I00
asbasbasbag56
(g72
g58
NtRp4241
(dp4242
g61
(dp4243
sg70
g4212
sg63
(lp4244
g56
(g77
g58
NtRp4245
(dp4246
g61
(dp4247
sg70
g4241
sg63
(lp4248
g56
(g57
g58
NtRp4249
(dp4250
g61
(dp4251
g69
I1
ssg70
g4245
sg63
(lp4252
S'/admin/default/edit/ddlagoon/views/default/how_to_upload.html'
p4253
asbasbasbasbasbasbasbag56
(g72
g58
NtRp4254
(dp4255
g61
(dp4256
sg70
g4142
sg63
(lp4257
g56
(g77
g58
NtRp4258
(dp4259
g61
(dp4260
sg70
g4254
sg63
(lp4261
g56
(g57
g58
NtRp4262
(dp4263
g61
(dp4264
g69
I2
ssg70
g4258
sg63
(lp4265
g56
(g65
g58
NtRp4266
(dp4267
g61
(dp4268
g69
I1
ssg70
Nsg63
(lp4269
g56
(g72
g58
NtRp4270
(dp4271
g61
(dp4272
sg70
g4266
sg63
(lp4273
g56
(g77
g58
NtRp4274
(dp4275
g61
(dp4276
sg70
g4270
sg63
(lp4277
g56
(g57
g58
NtRp4278
(dp4279
g61
(dp4280
g69
I1
ssg70
g4274
sg63
(lp4281
g4033
(S't\x06\x00\x00\x00Layout'
tRp4282
asbasbasbag56
(g72
g58
NtRp4283
(dp4284
g61
(dp4285
sg70
g4266
sg63
(lp4286
g56
(g77
g58
NtRp4287
(dp4288
g61
(dp4289
sg70
g4283
sg63
(lp4290
g56
(g57
g58
NtRp4291
(dp4292
g61
(dp4293
g69
I1
ssg70
g4287
sg63
(lp4294
I00
asbasbasbag56
(g72
g58
NtRp4295
(dp4296
g61
(dp4297
sg70
g4266
sg63
(lp4298
g56
(g77
g58
NtRp4299
(dp4300
g61
(dp4301
sg70
g4295
sg63
(lp4302
g56
(g57
g58
NtRp4303
(dp4304
g61
(dp4305
g69
I1
ssg70
g4299
sg63
(lp4306
S'/admin/default/edit/ddlagoon/views/layout.html'
p4307
asbasbasbasbasbasbasbag56
(g72
g58
NtRp4308
(dp4309
g61
(dp4310
sg70
g4142
sg63
(lp4311
g56
(g77
g58
NtRp4312
(dp4313
g61
(dp4314
sg70
g4308
sg63
(lp4315
g56
(g57
g58
NtRp4316
(dp4317
g61
(dp4318
g69
I2
ssg70
g4312
sg63
(lp4319
g56
(g65
g58
NtRp4320
(dp4321
g61
(dp4322
g69
I1
ssg70
Nsg63
(lp4323
g56
(g72
g58
NtRp4324
(dp4325
g61
(dp4326
sg70
g4320
sg63
(lp4327
g56
(g77
g58
NtRp4328
(dp4329
g61
(dp4330
sg70
g4324
sg63
(lp4331
g56
(g57
g58
NtRp4332
(dp4333
g61
(dp4334
g69
I1
ssg70
g4328
sg63
(lp4335
g4033
(S't\n\x00\x00\x00Stylesheet'
tRp4336
asbasbasbag56
(g72
g58
NtRp4337
(dp4338
g61
(dp4339
sg70
g4320
sg63
(lp4340
g56
(g77
g58
NtRp4341
(dp4342
g61
(dp4343
sg70
g4337
sg63
(lp4344
g56
(g57
g58
NtRp4345
(dp4346
g61
(dp4347
g69
I1
ssg70
g4341
sg63
(lp4348
I00
asbasbasbag56
(g72
g58
NtRp4349
(dp4350
g61
(dp4351
sg70
g4320
sg63
(lp4352
g56
(g77
g58
NtRp4353
(dp4354
g61
(dp4355
sg70
g4349
sg63
(lp4356
g56
(g57
g58
NtRp4357
(dp4358
g61
(dp4359
g69
I1
ssg70
g4353
sg63
(lp4360
S'/admin/default/edit/ddlagoon/static/base.css'
p4361
asbasbasbasbasbasbasbag56
(g72
g58
NtRp4362
(dp4363
g61
(dp4364
sg70
g4142
sg63
(lp4365
g56
(g77
g58
NtRp4366
(dp4367
g61
(dp4368
sg70
g4362
sg63
(lp4369
g56
(g57
g58
NtRp4370
(dp4371
g61
(dp4372
g69
I2
ssg70
g4366
sg63
(lp4373
g56
(g65
g58
NtRp4374
(dp4375
g61
(dp4376
g69
I1
ssg70
Nsg63
(lp4377
g56
(g72
g58
NtRp4378
(dp4379
g61
(dp4380
sg70
g4374
sg63
(lp4381
g56
(g77
g58
NtRp4382
(dp4383
g61
(dp4384
sg70
g4378
sg63
(lp4385
g56
(g57
g58
NtRp4386
(dp4387
g61
(dp4388
g69
I1
ssg70
g4382
sg63
(lp4389
g4033
(S's\x08\x00\x00\x00DB Model'
tRp4390
asbasbasbag56
(g72
g58
NtRp4391
(dp4392
g61
(dp4393
sg70
g4374
sg63
(lp4394
g56
(g77
g58
NtRp4395
(dp4396
g61
(dp4397
sg70
g4391
sg63
(lp4398
g56
(g57
g58
NtRp4399
(dp4400
g61
(dp4401
g69
I1
ssg70
g4395
sg63
(lp4402
I00
asbasbasbag56
(g72
g58
NtRp4403
(dp4404
g61
(dp4405
sg70
g4374
sg63
(lp4406
g56
(g77
g58
NtRp4407
(dp4408
g61
(dp4409
sg70
g4403
sg63
(lp4410
g56
(g57
g58
NtRp4411
(dp4412
g61
(dp4413
g69
I1
ssg70
g4407
sg63
(lp4414
S'/admin/default/edit/ddlagoon/models/db.py'
p4415
asbasbasbasbasbasbasbag56
(g72
g58
NtRp4416
(dp4417
g61
(dp4418
sg70
g4142
sg63
(lp4419
g56
(g77
g58
NtRp4420
(dp4421
g61
(dp4422
sg70
g4416
sg63
(lp4423
g56
(g57
g58
NtRp4424
(dp4425
g61
(dp4426
g69
I2
ssg70
g4420
sg63
(lp4427
g56
(g65
g58
NtRp4428
(dp4429
g61
(dp4430
g69
I1
ssg70
Nsg63
(lp4431
g56
(g72
g58
NtRp4432
(dp4433
g61
(dp4434
sg70
g4428
sg63
(lp4435
g56
(g77
g58
NtRp4436
(dp4437
g61
(dp4438
sg70
g4432
sg63
(lp4439
g56
(g57
g58
NtRp4440
(dp4441
g61
(dp4442
g69
I1
ssg70
g4436
sg63
(lp4443
g4033
(S's\n\x00\x00\x00Menu Model'
tRp4444
asbasbasbag56
(g72
g58
NtRp4445
(dp4446
g61
(dp4447
sg70
g4428
sg63
(lp4448
g56
(g77
g58
NtRp4449
(dp4450
g61
(dp4451
sg70
g4445
sg63
(lp4452
g56
(g57
g58
NtRp4453
(dp4454
g61
(dp4455
g69
I1
ssg70
g4449
sg63
(lp4456
I00
asbasbasbag56
(g72
g58
NtRp4457
(dp4458
g61
(dp4459
sg70
g4428
sg63
(lp4460
g56
(g77
g58
NtRp4461
(dp4462
g61
(dp4463
sg70
g4457
sg63
(lp4464
g56
(g57
g58
NtRp4465
(dp4466
g61
(dp4467
g69
I1
ssg70
g4461
sg63
(lp4468
S'/admin/default/edit/ddlagoon/models/menu.py'
p4469
asbasbasbasbasbasbasbag56
(g72
g58
NtRp4470
(dp4471
g61
(dp4472
sg70
g4142
sg63
(lp4473
g56
(g77
g58
NtRp4474
(dp4475
g61
(dp4476
sg70
g4470
sg63
(lp4477
g56
(g57
g58
NtRp4478
(dp4479
g61
(dp4480
g69
I2
ssg70
g4474
sg63
(lp4481
g56
(g65
g58
NtRp4482
(dp4483
g61
(dp4484
g69
I1
ssg70
Nsg63
(lp4485
g56
(g72
g58
NtRp4486
(dp4487
g61
(dp4488
sg70
g4482
sg63
(lp4489
g56
(g77
g58
NtRp4490
(dp4491
g61
(dp4492
sg70
g4486
sg63
(lp4493
g56
(g57
g58
NtRp4494
(dp4495
g61
(dp4496
g69
I1
ssg70
g4490
sg63
(lp4497
g4033
(S't\x08\x00\x00\x00Database'
tRp4498
asbasbasbag56
(g72
g58
NtRp4499
(dp4500
g61
(dp4501
sg70
g4482
sg63
(lp4502
g56
(g77
g58
NtRp4503
(dp4504
g61
(dp4505
sg70
g4499
sg63
(lp4506
g56
(g57
g58
NtRp4507
(dp4508
g61
(dp4509
g69
I1
ssg70
g4503
sg63
(lp4510
I00
asbasbasbag56
(g72
g58
NtRp4511
(dp4512
g61
(dp4513
sg70
g4482
sg63
(lp4514
g56
(g77
g58
NtRp4515
(dp4516
g61
(dp4517
sg70
g4511
sg63
(lp4518
g56
(g57
g58
NtRp4519
(dp4520
g61
(dp4521
g69
I1
ssg70
g4515
sg63
(lp4522
S'/ddlagoon/appadmin/index'
p4523
asbasbasbasbasbasbasbag56
(g72
g58
NtRp4524
(dp4525
g61
(dp4526
sg70
g4142
sg63
(lp4527
g56
(g77
g58
NtRp4528
(dp4529
g61
(dp4530
sg70
g4524
sg63
(lp4531
g56
(g57
g58
NtRp4532
(dp4533
g61
(dp4534
g69
I2
ssg70
g4528
sg63
(lp4535
g56
(g65
g58
NtRp4536
(dp4537
g61
(dp4538
g69
I1
ssg70
Nsg63
(lp4539
g56
(g72
g58
NtRp4540
(dp4541
g61
(dp4542
sg70
g4536
sg63
(lp4543
g56
(g77
g58
NtRp4544
(dp4545
g61
(dp4546
sg70
g4540
sg63
(lp4547
g56
(g57
g58
NtRp4548
(dp4549
g61
(dp4550
g69
I1
ssg70
g4544
sg63
(lp4551
g4033
(S't\x06\x00\x00\x00Errors'
tRp4552
asbasbasbag56
(g72
g58
NtRp4553
(dp4554
g61
(dp4555
sg70
g4536
sg63
(lp4556
g56
(g77
g58
NtRp4557
(dp4558
g61
(dp4559
sg70
g4553
sg63
(lp4560
g56
(g57
g58
NtRp4561
(dp4562
g61
(dp4563
g69
I1
ssg70
g4557
sg63
(lp4564
I00
asbasbasbag56
(g72
g58
NtRp4565
(dp4566
g61
(dp4567
sg70
g4536
sg63
(lp4568
g56
(g77
g58
NtRp4569
(dp4570
g61
(dp4571
sg70
g4565
sg63
(lp4572
g56
(g57
g58
NtRp4573
(dp4574
g61
(dp4575
g69
I1
ssg70
g4569
sg63
(lp4576
S'/admin/default/errors/ddlagoon'
p4577
asbasbasbasbasbasbasbag56
(g72
g58
NtRp4578
(dp4579
g61
(dp4580
sg70
g4142
sg63
(lp4581
g56
(g77
g58
NtRp4582
(dp4583
g61
(dp4584
sg70
g4578
sg63
(lp4585
g56
(g57
g58
NtRp4586
(dp4587
g61
(dp4588
g69
I2
ssg70
g4582
sg63
(lp4589
g56
(g65
g58
NtRp4590
(dp4591
g61
(dp4592
g69
I1
ssg70
Nsg63
(lp4593
g56
(g72
g58
NtRp4594
(dp4595
g61
(dp4596
sg70
g4590
sg63
(lp4597
g56
(g77
g58
NtRp4598
(dp4599
g61
(dp4600
sg70
g4594
sg63
(lp4601
g56
(g57
g58
NtRp4602
(dp4603
g61
(dp4604
g69
I1
ssg70
g4598
sg63
(lp4605
g4033
(S't\x05\x00\x00\x00About'
tRp4606
asbasbasbag56
(g72
g58
NtRp4607
(dp4608
g61
(dp4609
sg70
g4590
sg63
(lp4610
g56
(g77
g58
NtRp4611
(dp4612
g61
(dp4613
sg70
g4607
sg63
(lp4614
g56
(g57
g58
NtRp4615
(dp4616
g61
(dp4617
g69
I1
ssg70
g4611
sg63
(lp4618
I00
asbasbasbag56
(g72
g58
NtRp4619
(dp4620
g61
(dp4621
sg70
g4590
sg63
(lp4622
g56
(g77
g58
NtRp4623
(dp4624
g61
(dp4625
sg70
g4619
sg63
(lp4626
g56
(g57
g58
NtRp4627
(dp4628
g61
(dp4629
g69
I1
ssg70
g4623
sg63
(lp4630
S'/admin/default/about/ddlagoon'
p4631
asbasbasbasbasbasbasbasbasbasbasbasbasbasbasbag56
(g72
g58
NtRp4632
(dp4633
g61
(dp4634
sg70
g4001
sg63
(lp4635
g56
(g77
g58
NtRp4636
(dp4637
g61
(dp4638
sg70
g4632
sg63
(lp4639
g56
(g57
g58
NtRp4640
(dp4641
g61
(dp4642
g69
I4
ssg70
g4636
sg63
(lp4643
g56
(g65
g58
NtRp4644
(dp4645
g61
(dp4646
g69
I3
ssg70
Nsg63
(lp4647
g56
(g72
g58
NtRp4648
(dp4649
g61
(dp4650
sg70
g4644
sg63
(lp4651
g56
(g77
g58
NtRp4652
(dp4653
g61
(dp4654
sg70
g4648
sg63
(lp4655
g56
(g57
g58
NtRp4656
(dp4657
g61
(dp4658
g69
I3
ssg70
g4652
sg63
(lp4659
g4033
(S't\t\x00\x00\x00Resources'
tRp4660
asbasbasbag56
(g72
g58
NtRp4661
(dp4662
g61
(dp4663
sg70
g4644
sg63
(lp4664
g56
(g77
g58
NtRp4665
(dp4666
g61
(dp4667
sg70
g4661
sg63
(lp4668
g56
(g57
g58
NtRp4669
(dp4670
g61
(dp4671
g69
I3
ssg70
g4665
sg63
(lp4672
g99
asbasbasbag56
(g72
g58
NtRp4673
(dp4674
g61
(dp4675
sg70
g4644
sg63
(lp4676
g56
(g77
g58
NtRp4677
(dp4678
g61
(dp4679
sg70
g4673
sg63
(lp4680
g56
(g57
g58
NtRp4681
(dp4682
g61
(dp4683
g69
I3
ssg70
g4677
sg63
(lp4684
S'None'
p4685
asbasbasbag56
(g72
g58
NtRp4686
(dp4687
g61
(dp4688
sg70
g4644
sg63
(lp4689
g56
(g77
g58
NtRp4690
(dp4691
g61
(dp4692
sg70
g4686
sg63
(lp4693
g56
(g57
g58
NtRp4694
(dp4695
g61
(dp4696
g69
I3
ssg70
g4690
sg63
(lp4697
g56
(g65
g58
NtRp4698
(dp4699
g61
(dp4700
g69
I2
ssg70
Nsg63
(lp4701
g56
(g72
g58
NtRp4702
(dp4703
g61
(dp4704
sg70
g4698
sg63
(lp4705
g56
(g77
g58
NtRp4706
(dp4707
g61
(dp4708
sg70
g4702
sg63
(lp4709
g56
(g57
g58
NtRp4710
(dp4711
g61
(dp4712
g69
I2
ssg70
g4706
sg63
(lp4713
g56
(g65
g58
NtRp4714
(dp4715
g61
(dp4716
g69
I1
ssg70
Nsg63
(lp4717
g56
(g72
g58
NtRp4718
(dp4719
g61
(dp4720
sg70
g4714
sg63
(lp4721
g56
(g77
g58
NtRp4722
(dp4723
g61
(dp4724
sg70
g4718
sg63
(lp4725
g56
(g57
g58
NtRp4726
(dp4727
g61
(dp4728
g69
I1
ssg70
g4722
sg63
(lp4729
g4033
(S't\r\x00\x00\x00Documentation'
tRp4730
asbasbasbag56
(g72
g58
NtRp4731
(dp4732
g61
(dp4733
sg70
g4714
sg63
(lp4734
g56
(g77
g58
NtRp4735
(dp4736
g61
(dp4737
sg70
g4731
sg63
(lp4738
g56
(g57
g58
NtRp4739
(dp4740
g61
(dp4741
g69
I1
ssg70
g4735
sg63
(lp4742
I00
asbasbasbag56
(g72
g58
NtRp4743
(dp4744
g61
(dp4745
sg70
g4714
sg63
(lp4746
g56
(g77
g58
NtRp4747
(dp4748
g61
(dp4749
sg70
g4743
sg63
(lp4750
g56
(g57
g58
NtRp4751
(dp4752
g61
(dp4753
g69
I1
ssg70
g4747
sg63
(lp4754
S'http://www.web2py.com/book'
p4755
asbasbasbag56
(g72
g58
NtRp4756
(dp4757
g61
(dp4758
sg70
g4714
sg63
(lp4759
g56
(g77
g58
NtRp4760
(dp4761
g61
(dp4762
sg70
g4756
sg63
(lp4763
g56
(g57
g58
NtRp4764
(dp4765
g61
(dp4766
g69
I1
ssg70
g4760
sg63
(lp4767
(lp4768
(g4033
(S't\x07\x00\x00\x00Preface'
tRp4769
I00
S'http://www.web2py.com/book/default/chapter/00'
p4770
tp4771
a(g4033
(S't\x0c\x00\x00\x00Introduction'
tRp4772
I00
S'http://www.web2py.com/book/default/chapter/01'
p4773
tp4774
a(g4033
(S't\x06\x00\x00\x00Python'
tRp4775
I00
S'http://www.web2py.com/book/default/chapter/02'
p4776
tp4777
a(g4033
(S't\x08\x00\x00\x00Overview'
tRp4778
I00
S'http://www.web2py.com/book/default/chapter/03'
p4779
tp4780
a(g4033
(S's\x08\x00\x00\x00The Core'
tRp4781
I00
S'http://www.web2py.com/book/default/chapter/04'
p4782
tp4783
a(g4033
(S's\t\x00\x00\x00The Views'
tRp4784
I00
S'http://www.web2py.com/book/default/chapter/05'
p4785
tp4786
a(g4033
(S't\x08\x00\x00\x00Database'
tRp4787
I00
S'http://www.web2py.com/book/default/chapter/06'
p4788
tp4789
a(g4033
(S's\x14\x00\x00\x00Forms and Validators'
tRp4790
I00
S'http://www.web2py.com/book/default/chapter/07'
p4791
tp4792
a(g4033
(S's\x0e\x00\x00\x00Access Control'
tRp4793
I00
S'http://www.web2py.com/book/default/chapter/08'
p4794
tp4795
a(g4033
(S't\x08\x00\x00\x00Services'
tRp4796
I00
S'http://www.web2py.com/book/default/chapter/09'
p4797
tp4798
a(g4033
(S's\x0c\x00\x00\x00Ajax Recipes'
tRp4799
I00
S'http://www.web2py.com/book/default/chapter/10'
p4800
tp4801
a(g4033
(S's\x12\x00\x00\x00Deployment Recipes'
tRp4802
I00
S'http://www.web2py.com/book/default/chapter/11'
p4803
tp4804
a(g4033
(S's\r\x00\x00\x00Other Recipes'
tRp4805
I00
S'http://www.web2py.com/book/default/chapter/12'
p4806
tp4807
a(g4033
(S's\r\x00\x00\x00Buy this book'
tRp4808
I00
S'http://stores.lulu.com/web2py'
p4809
tp4810
aasbasbasbasbasbasbasbag56
(g72
g58
NtRp4811
(dp4812
g61
(dp4813
sg70
g4698
sg63
(lp4814
g56
(g77
g58
NtRp4815
(dp4816
g61
(dp4817
sg70
g4811
sg63
(lp4818
g56
(g57
g58
NtRp4819
(dp4820
g61
(dp4821
g69
I2
ssg70
g4815
sg63
(lp4822
g56
(g65
g58
NtRp4823
(dp4824
g61
(dp4825
g69
I1
ssg70
Nsg63
(lp4826
g56
(g72
g58
NtRp4827
(dp4828
g61
(dp4829
sg70
g4823
sg63
(lp4830
g56
(g77
g58
NtRp4831
(dp4832
g61
(dp4833
sg70
g4827
sg63
(lp4834
g56
(g57
g58
NtRp4835
(dp4836
g61
(dp4837
g69
I1
ssg70
g4831
sg63
(lp4838
g4033
(S't\t\x00\x00\x00Community'
tRp4839
asbasbasbag56
(g72
g58
NtRp4840
(dp4841
g61
(dp4842
sg70
g4823
sg63
(lp4843
g56
(g77
g58
NtRp4844
(dp4845
g61
(dp4846
sg70
g4840
sg63
(lp4847
g56
(g57
g58
NtRp4848
(dp4849
g61
(dp4850
g69
I1
ssg70
g4844
sg63
(lp4851
I00
asbasbasbag56
(g72
g58
NtRp4852
(dp4853
g61
(dp4854
sg70
g4823
sg63
(lp4855
g56
(g77
g58
NtRp4856
(dp4857
g61
(dp4858
sg70
g4852
sg63
(lp4859
g56
(g57
g58
NtRp4860
(dp4861
g61
(dp4862
g69
I1
ssg70
g4856
sg63
(lp4863
Nasbasbasbag56
(g72
g58
NtRp4864
(dp4865
g61
(dp4866
sg70
g4823
sg63
(lp4867
g56
(g77
g58
NtRp4868
(dp4869
g61
(dp4870
sg70
g4864
sg63
(lp4871
g56
(g57
g58
NtRp4872
(dp4873
g61
(dp4874
g69
I1
ssg70
g4868
sg63
(lp4875
(lp4876
(g4033
(S't\x06\x00\x00\x00Groups'
tRp4877
I00
S'http://www.web2py.com/examples/default/usergroups'
p4878
tp4879
a(g4033
(S't\x07\x00\x00\x00Twitter'
tRp4880
I00
S'http://twitter.com/web2py'
p4881
tp4882
a(g4033
(S's\t\x00\x00\x00Live chat'
tRp4883
I00
S'http://mibbit.com/?channel=%23web2py&server=irc.mibbit.net'
p4884
tp4885
a(g4033
(S's\n\x00\x00\x00User Voice'
tRp4886
I00
S'http://web2py.uservoice.com/'
p4887
tp4888
aasbasbasbasbasbasbasbag56
(g72
g58
NtRp4889
(dp4890
g61
(dp4891
sg70
g4698
sg63
(lp4892
g56
(g77
g58
NtRp4893
(dp4894
g61
(dp4895
sg70
g4889
sg63
(lp4896
g56
(g57
g58
NtRp4897
(dp4898
g61
(dp4899
g69
I2
ssg70
g4893
sg63
(lp4900
g56
(g65
g58
NtRp4901
(dp4902
g61
(dp4903
g69
I1
ssg70
Nsg63
(lp4904
g56
(g72
g58
NtRp4905
(dp4906
g61
(dp4907
sg70
g4901
sg63
(lp4908
g56
(g77
g58
NtRp4909
(dp4910
g61
(dp4911
sg70
g4905
sg63
(lp4912
g56
(g57
g58
NtRp4913
(dp4914
g61
(dp4915
g69
I1
ssg70
g4909
sg63
(lp4916
g4033
(S't\x06\x00\x00\x00Web2py'
tRp4917
asbasbasbag56
(g72
g58
NtRp4918
(dp4919
g61
(dp4920
sg70
g4901
sg63
(lp4921
g56
(g77
g58
NtRp4922
(dp4923
g61
(dp4924
sg70
g4918
sg63
(lp4925
g56
(g57
g58
NtRp4926
(dp4927
g61
(dp4928
g69
I1
ssg70
g4922
sg63
(lp4929
I00
asbasbasbag56
(g72
g58
NtRp4930
(dp4931
g61
(dp4932
sg70
g4901
sg63
(lp4933
g56
(g77
g58
NtRp4934
(dp4935
g61
(dp4936
sg70
g4930
sg63
(lp4937
g56
(g57
g58
NtRp4938
(dp4939
g61
(dp4940
g69
I1
ssg70
g4934
sg63
(lp4941
S'http://www.web2py.com'
p4942
asbasbasbag56
(g72
g58
NtRp4943
(dp4944
g61
(dp4945
sg70
g4901
sg63
(lp4946
g56
(g77
g58
NtRp4947
(dp4948
g61
(dp4949
sg70
g4943
sg63
(lp4950
g56
(g57
g58
NtRp4951
(dp4952
g61
(dp4953
g69
I1
ssg70
g4947
sg63
(lp4954
(lp4955
(g4033
(S't\x08\x00\x00\x00Download'
tRp4956
I00
S'http://www.web2py.com/examples/default/download'
p4957
tp4958
a(g4033
(S't\x07\x00\x00\x00Support'
tRp4959
I00
S'http://www.web2py.com/examples/default/support'
p4960
tp4961
a(g4033
(S's\x0e\x00\x00\x00Quick Examples'
tRp4962
I00
S'http://web2py.com/examples/default/examples'
p4963
tp4964
a(g4033
(S't\x03\x00\x00\x00FAQ'
tRp4965
I00
S'http://web2py.com/AlterEgo'
p4966
tp4967
a(g4033
(S's\x11\x00\x00\x00Free Applications'
tRp4968
I00
S'http://web2py.com/appliances'
p4969
tp4970
a(g4033
(S't\x07\x00\x00\x00Plugins'
tRp4971
I00
S'http://web2py.com/plugins'
p4972
tp4973
a(g4033
(S't\x07\x00\x00\x00Recipes'
tRp4974
I00
S'http://web2pyslices.com/'
p4975
tp4976
a(g4033
(S't\x04\x00\x00\x00Demo'
tRp4977
I00
S'http://web2py.com/demo_admin'
p4978
tp4979
a(g4033
(S't\x08\x00\x00\x00Semantic'
tRp4980
I00
S'http://web2py.com/semantic'
p4981
tp4982
a(g4033
(S't\x07\x00\x00\x00Layouts'
tRp4983
I00
S'http://web2py.com/layouts'
p4984
tp4985
a(g4033
(S't\x06\x00\x00\x00Videos'
tRp4986
I00
S'http://www.web2py.com/examples/default/videos/'
p4987
tp4988
aasbasbasbasbasbasbasbasbasbasbasbasbasbasbasbasbasbasbasbag56
(g72
g58
NtRp4989
(dp4990
g61
(dp4991
sg70
g3450
sg63
(lp4992
g56
(g77
g58
NtRp4993
(dp4994
g61
(dp4995
g81
g82
ssg70
g4989
sg63
(lp4996
S'meta'
p4997
asbag56
(g77
g58
NtRp4998
(dp4999
g61
(dp5000
g88
g89
ssg70
g4989
sg63
(lp5001
S':'
asbag56
(g77
g58
NtRp5002
(dp5003
g61
(dp5004
sg70
g4989
sg63
(lp5005
g56
(g57
g58
NtRp5006
(dp5007
g61
(dp5008
g69
I5
ssg70
g5002
sg63
(lp5009
g56
(g65
g58
NtRp5010
(dp5011
g61
(dp5012
g69
I4
ssg70
Nsg63
(lp5013
g56
(g72
g58
NtRp5014
(dp5015
g61
(dp5016
sg70
g5010
sg63
(lp5017
g56
(g77
g58
NtRp5018
(dp5019
g61
(dp5020
g81
g82
ssg70
g5014
sg63
(lp5021
S'author'
p5022
asbag56
(g77
g58
NtRp5023
(dp5024
g61
(dp5025
g88
g89
ssg70
g5014
sg63
(lp5026
S':'
asbag56
(g77
g58
NtRp5027
(dp5028
g61
(dp5029
sg70
g5014
sg63
(lp5030
g56
(g57
g58
NtRp5031
(dp5032
g61
(dp5033
g69
I4
ssg70
g5027
sg63
(lp5034
S'Your Name <you@example.com>'
p5035
asbasbasbag56
(g72
g58
NtRp5036
(dp5037
g61
(dp5038
sg70
g5010
sg63
(lp5039
g56
(g77
g58
NtRp5040
(dp5041
g61
(dp5042
g81
g82
ssg70
g5036
sg63
(lp5043
S'copyright'
p5044
asbag56
(g77
g58
NtRp5045
(dp5046
g61
(dp5047
g88
g89
ssg70
g5036
sg63
(lp5048
S':'
asbag56
(g77
g58
NtRp5049
(dp5050
g61
(dp5051
sg70
g5036
sg63
(lp5052
g56
(g57
g58
NtRp5053
(dp5054
g61
(dp5055
g69
I4
ssg70
g5049
sg63
(lp5056
S'Copyright 2011'
p5057
asbasbasbag56
(g72
g58
NtRp5058
(dp5059
g61
(dp5060
sg70
g5010
sg63
(lp5061
g56
(g77
g58
NtRp5062
(dp5063
g61
(dp5064
g81
g82
ssg70
g5058
sg63
(lp5065
S'description'
p5066
asbag56
(g77
g58
NtRp5067
(dp5068
g61
(dp5069
g88
g89
ssg70
g5058
sg63
(lp5070
S':'
asbag56
(g77
g58
NtRp5071
(dp5072
g61
(dp5073
sg70
g5058
sg63
(lp5074
g56
(g57
g58
NtRp5075
(dp5076
g61
(dp5077
g69
I4
ssg70
g5071
sg63
(lp5078
S'a cool new app'
p5079
asbasbasbag56
(g72
g58
NtRp5080
(dp5081
g61
(dp5082
sg70
g5010
sg63
(lp5083
g56
(g77
g58
NtRp5084
(dp5085
g61
(dp5086
g81
g82
ssg70
g5080
sg63
(lp5087
S'generator'
p5088
asbag56
(g77
g58
NtRp5089
(dp5090
g61
(dp5091
g88
g89
ssg70
g5080
sg63
(lp5092
S':'
asbag56
(g77
g58
NtRp5093
(dp5094
g61
(dp5095
sg70
g5080
sg63
(lp5096
g56
(g57
g58
NtRp5097
(dp5098
g61
(dp5099
g69
I4
ssg70
g5093
sg63
(lp5100
S'Web2py Web Framework'
p5101
asbasbasbag56
(g72
g58
NtRp5102
(dp5103
g61
(dp5104
sg70
g5010
sg63
(lp5105
g56
(g77
g58
NtRp5106
(dp5107
g61
(dp5108
g81
g82
ssg70
g5102
sg63
(lp5109
S'keywords'
p5110
asbag56
(g77
g58
NtRp5111
(dp5112
g61
(dp5113
g88
g89
ssg70
g5102
sg63
(lp5114
S':'
asbag56
(g77
g58
NtRp5115
(dp5116
g61
(dp5117
sg70
g5102
sg63
(lp5118
g56
(g57
g58
NtRp5119
(dp5120
g61
(dp5121
g69
I4
ssg70
g5115
sg63
(lp5122
S'web2py, python, framework'
p5123
asbasbasbasbasbasbasbag56
(g72
g58
NtRp5124
(dp5125
g61
(dp5126
sg70
g3450
sg63
(lp5127
g56
(g77
g58
NtRp5128
(dp5129
g61
(dp5130
g81
g82
ssg70
g5124
sg63
(lp5131
S'postprocessing'
p5132
asbag56
(g77
g58
NtRp5133
(dp5134
g61
(dp5135
g88
g89
ssg70
g5124
sg63
(lp5136
S':'
asbag56
(g77
g58
NtRp5137
(dp5138
g61
(dp5139
sg70
g5124
sg63
(lp5140
g56
(g57
g58
NtRp5141
(dp5142
g61
(dp5143
g69
I5
ssg70
g5137
sg63
(lp5144
g56
(g65
g58
NtRp5145
(dp5146
g61
(dp5147
g69
I4
ssg70
Nsg63
(lp5148
sbasbasbasbag56
(g72
g58
NtRp5149
(dp5150
g61
(dp5151
sg70
g3450
sg63
(lp5152
g56
(g77
g58
NtRp5153
(dp5154
g61
(dp5155
g81
g82
ssg70
g5149
sg63
(lp5156
S'session_file'
p5157
asbag56
(g77
g58
NtRp5158
(dp5159
g61
(dp5160
g88
g89
ssg70
g5149
sg63
(lp5161
S':'
asbag56
(g77
g58
NtRp5162
(dp5163
g61
(dp5164
sg70
g5149
sg63
(lp5165
g56
(g57
g58
NtRp5166
(dp5167
g61
(dp5168
g69
I5
ssg70
g5162
sg63
(lp5169
S"<open file 'C:\\Users\\Thomas\\Dropbox\\appz\\2011\\ddlagoon\\public_html\\applications\\ddlagoon\\sessions\\127.0.0.1-cd2ebb63-b2ad-427b-ac9a-f22fc95b9789', mode 'rb+' at 0x0000000007662F60>"
p5170
asbasbasbag56
(g72
g58
NtRp5171
(dp5172
g61
(dp5173
sg70
g3450
sg63
(lp5174
g56
(g77
g58
NtRp5175
(dp5176
g61
(dp5177
g81
g82
ssg70
g5171
sg63
(lp5178
S'session_filename'
p5179
asbag56
(g77
g58
NtRp5180
(dp5181
g61
(dp5182
g88
g89
ssg70
g5171
sg63
(lp5183
S':'
asbag56
(g77
g58
NtRp5184
(dp5185
g61
(dp5186
sg70
g5171
sg63
(lp5187
g56
(g57
g58
NtRp5188
(dp5189
g61
(dp5190
g69
I5
ssg70
g5184
sg63
(lp5191
S'C:\\Users\\Thomas\\Dropbox\\appz\\2011\\ddlagoon\\public_html\\applications\\ddlagoon\\sessions\\127.0.0.1-cd2ebb63-b2ad-427b-ac9a-f22fc95b9789'
p5192
asbasbasbag56
(g72
g58
NtRp5193
(dp5194
g61
(dp5195
sg70
g3450
sg63
(lp5196
g56
(g77
g58
NtRp5197
(dp5198
g61
(dp5199
g81
g82
ssg70
g5193
sg63
(lp5200
S'session_id'
p5201
asbag56
(g77
g58
NtRp5202
(dp5203
g61
(dp5204
g88
g89
ssg70
g5193
sg63
(lp5205
S':'
asbag56
(g77
g58
NtRp5206
(dp5207
g61
(dp5208
sg70
g5193
sg63
(lp5209
g56
(g57
g58
NtRp5210
(dp5211
g61
(dp5212
g69
I5
ssg70
g5206
sg63
(lp5213
S'127.0.0.1-cd2ebb63-b2ad-427b-ac9a-f22fc95b9789'
p5214
asbasbasbag56
(g72
g58
NtRp5215
(dp5216
g61
(dp5217
sg70
g3450
sg63
(lp5218
g56
(g77
g58
NtRp5219
(dp5220
g61
(dp5221
g81
g82
ssg70
g5215
sg63
(lp5222
S'session_id_name'
p5223
asbag56
(g77
g58
NtRp5224
(dp5225
g61
(dp5226
g88
g89
ssg70
g5215
sg63
(lp5227
S':'
asbag56
(g77
g58
NtRp5228
(dp5229
g61
(dp5230
sg70
g5215
sg63
(lp5231
g56
(g57
g58
NtRp5232
(dp5233
g61
(dp5234
g69
I5
ssg70
g5228
sg63
(lp5235
g3507
asbasbasbag56
(g72
g58
NtRp5236
(dp5237
g61
(dp5238
sg70
g3450
sg63
(lp5239
g56
(g77
g58
NtRp5240
(dp5241
g61
(dp5242
g81
g82
ssg70
g5236
sg63
(lp5243
S'session_locked'
p5244
asbag56
(g77
g58
NtRp5245
(dp5246
g61
(dp5247
g88
g89
ssg70
g5236
sg63
(lp5248
S':'
asbag56
(g77
g58
NtRp5249
(dp5250
g61
(dp5251
sg70
g5236
sg63
(lp5252
g56
(g57
g58
NtRp5253
(dp5254
g61
(dp5255
g69
I5
ssg70
g5249
sg63
(lp5256
g1678
asbasbasbag56
(g72
g58
NtRp5257
(dp5258
g61
(dp5259
sg70
g3450
sg63
(lp5260
g56
(g77
g58
NtRp5261
(dp5262
g61
(dp5263
g81
g82
ssg70
g5257
sg63
(lp5264
S'session_new'
p5265
asbag56
(g77
g58
NtRp5266
(dp5267
g61
(dp5268
g88
g89
ssg70
g5257
sg63
(lp5269
S':'
asbag56
(g77
g58
NtRp5270
(dp5271
g61
(dp5272
sg70
g5257
sg63
(lp5273
g56
(g57
g58
NtRp5274
(dp5275
g61
(dp5276
g69
I5
ssg70
g5270
sg63
(lp5277
g99
asbasbasbag56
(g72
g58
NtRp5278
(dp5279
g61
(dp5280
sg70
g3450
sg63
(lp5281
g56
(g77
g58
NtRp5282
(dp5283
g61
(dp5284
g81
g82
ssg70
g5278
sg63
(lp5285
S'status'
p5286
asbag56
(g77
g58
NtRp5287
(dp5288
g61
(dp5289
g88
g89
ssg70
g5278
sg63
(lp5290
S':'
asbag56
(g77
g58
NtRp5291
(dp5292
g61
(dp5293
sg70
g5278
sg63
(lp5294
g56
(g57
g58
NtRp5295
(dp5296
g61
(dp5297
g69
I5
ssg70
g5291
sg63
(lp5298
S'200'
p5299
asbasbasbag56
(g72
g58
NtRp5300
(dp5301
g61
(dp5302
sg70
g3450
sg63
(lp5303
g56
(g77
g58
NtRp5304
(dp5305
g61
(dp5306
g81
g82
ssg70
g5300
sg63
(lp5307
S'subtitle'
p5308
asbag56
(g77
g58
NtRp5309
(dp5310
g61
(dp5311
g88
g89
ssg70
g5300
sg63
(lp5312
S':'
asbag56
(g77
g58
NtRp5313
(dp5314
g61
(dp5315
sg70
g5300
sg63
(lp5316
g56
(g57
g58
NtRp5317
(dp5318
g61
(dp5319
g69
I5
ssg70
g5313
sg63
(lp5320
g4033
(S's\r\x00\x00\x00customize me!'
tRp5321
asbasbasbag56
(g72
g58
NtRp5322
(dp5323
g61
(dp5324
sg70
g3450
sg63
(lp5325
g56
(g77
g58
NtRp5326
(dp5327
g61
(dp5328
g81
g82
ssg70
g5322
sg63
(lp5329
S'title'
p5330
asbag56
(g77
g58
NtRp5331
(dp5332
g61
(dp5333
g88
g89
ssg70
g5322
sg63
(lp5334
S':'
asbag56
(g77
g58
NtRp5335
(dp5336
g61
(dp5337
sg70
g5322
sg63
(lp5338
g56
(g57
g58
NtRp5339
(dp5340
g61
(dp5341
g69
I5
ssg70
g5335
sg63
(lp5342
g121
asbasbasbag56
(g72
g58
NtRp5343
(dp5344
g61
(dp5345
sg70
g3450
sg63
(lp5346
g56
(g77
g58
NtRp5347
(dp5348
g61
(dp5349
g81
g82
ssg70
g5343
sg63
(lp5350
g2322
asbag56
(g77
g58
NtRp5351
(dp5352
g61
(dp5353
g88
g89
ssg70
g5343
sg63
(lp5354
S':'
asbag56
(g77
g58
NtRp5355
(dp5356
g61
(dp5357
sg70
g5343
sg63
(lp5358
g56
(g57
g58
NtRp5359
(dp5360
g61
(dp5361
g69
I5
ssg70
g5355
sg63
(lp5362
g2335
asbasbasbag56
(g72
g58
NtRp5363
(dp5364
g61
(dp5365
sg70
g3450
sg63
(lp5366
g56
(g77
g58
NtRp5367
(dp5368
g61
(dp5369
g81
g82
ssg70
g5363
sg63
(lp5370
S'view'
p5371
asbag56
(g77
g58
NtRp5372
(dp5373
g61
(dp5374
g88
g89
ssg70
g5363
sg63
(lp5375
S':'
asbag56
(g77
g58
NtRp5376
(dp5377
g61
(dp5378
sg70
g5363
sg63
(lp5379
g56
(g57
g58
NtRp5380
(dp5381
g61
(dp5382
g69
I5
ssg70
g5376
sg63
(lp5383
S'default/how_to_upload.html'
p5384
asbasbasbasbasbsS'locals'
p5385
(dp5386
S'Service'
p5387
S"<class 'gluon.tools.Service'>"
p5388
sS'OBJECT'
p5389
S"<class 'gluon.html.OBJECT'>"
p5390
sS'SQLDB'
p5391
S"<class 'gluon.dal.DAL'>"
p5392
sg3058
S"<Storage {'_formkey[default]': '02f3cbd1-3352-42... 11, 8, 21, 55, 0, 123000), 'remember': False}>}>"
p5393
sS'LINK'
p5394
S"<class 'gluon.html.LINK'>"
p5395
sS'BR'
p5396
S"<class 'gluon.html.BR'>"
p5397
sS'local_import'
p5398
S'<function <lambda>>'
p5399
sS'OPTGROUP'
p5400
S"<class 'gluon.html.OPTGROUP'>"
p5401
sS'PRE'
p5402
S"<class 'gluon.html.PRE'>"
p5403
sS'IS_INT_IN_RANGE'
p5404
S"<class 'gluon.validators.IS_INT_IN_RANGE'>"
p5405
sS'left_sidebar_enabled'
p5406
g1678
sS'IS_LOWER'
p5407
S"<class 'gluon.validators.IS_LOWER'>"
p5408
sS'IS_STRONG'
p5409
S"<class 'gluon.validators.IS_STRONG'>"
p5410
sS'cache'
p5411
S'<gluon.cache.Cache object>'
p5412
sS'IS_IN_DB'
p5413
S"<class 'gluon.validators.IS_IN_DB'>"
p5414
sS'TAG'
p5415
S'<gluon.html.__TAG__ object>'
p5416
sS'SQLField'
p5417
S"<class 'gluon.dal.Field'>"
p5418
sS'mail'
p5419
S'<gluon.tools.Mail object>'
p5420
sS'BODY'
p5421
S"<class 'gluon.html.BODY'>"
p5422
sS'IS_DATE_IN_RANGE'
p5423
S"<class 'gluon.validators.IS_DATE_IN_RANGE'>"
p5424
sS'TH'
p5425
S"<class 'gluon.html.TH'>"
p5426
sS'tuto'
p5427
S"{'go_to_profile': <lazyT 'to get your API key.'>, 'login': <lazyT 'Login with your username and password.'>, 'start': <lazyT 'Start DDLagoon Uploader.'>}"
p5428
sS'URL'
p5429
S'<function URL>'
p5430
sS'__file__'
p5431
S"r'C:\\Users\\Thomas\\Dropbox\\appz\\2011\\ddlagoon\\publi...cations\\ddlagoon\\views\\default/how_to_upload.html'"
p5432
sS'db'
p5433
S"<DAL {'auth_event': <Table {'origin': <gluon.dal...gluon.dal.Field object at 0x000000000788C518>}>}>"
p5434
sS'auth'
p5435
S'<gluon.tools.Auth object>'
p5436
sS'P'
S"<class 'gluon.html.P'>"
p5437
sS'TFOOT'
p5438
S"<class 'gluon.html.TFOOT'>"
p5439
sS'XHTML'
p5440
S"<class 'gluon.html.XHTML'>"
p5441
sS'ON'
p5442
g1678
sS'OL'
p5443
S"<class 'gluon.html.OL'>"
p5444
sS'TEXTAREA'
p5445
S"<class 'gluon.html.TEXTAREA'>"
p5446
sS'MENU'
p5447
S"<class 'gluon.html.MENU'>"
p5448
sS'IS_IMAGE'
p5449
S"<class 'gluon.validators.IS_IMAGE'>"
p5450
sS'LOAD'
p5451
S'<gluon.compileapp.LoadFactory object>'
p5452
sS'CODE'
p5453
S"<class 'gluon.html.CODE'>"
p5454
sS'HTTP'
p5455
S"<class 'gluon.http.HTTP'>"
p5456
sS'HR'
p5457
S"<class 'gluon.html.HR'>"
p5458
sS'IS_DATETIME'
p5459
S"<class 'gluon.validators.IS_DATETIME'>"
p5460
sS'HEAD'
p5461
S"<class 'gluon.html.HEAD'>"
p5462
sS'LABEL'
p5463
S"<class 'gluon.html.LABEL'>"
p5464
sS'META'
p5465
S"<class 'gluon.html.META'>"
p5466
sS'plugins'
p5467
S'<gluon.tools.PluginManager object>'
p5468
sS'SELECT'
p5469
S"<class 'gluon.html.SELECT'>"
p5470
sS'use_janrain'
p5471
S'<function use_janrain>'
p5472
sS'CENTER'
p5473
S"<class 'gluon.html.CENTER'>"
p5474
sS'prettydate'
p5475
S'<function prettydate>'
p5476
sS'Crud'
p5477
S"<class 'gluon.tools.Crud'>"
p5478
sS'Auth'
p5479
S"<class 'gluon.tools.Auth'>"
p5480
sS'IS_EQUAL_TO'
p5481
S"<class 'gluon.validators.IS_EQUAL_TO'>"
p5482
sS'HTML'
p5483
S"<class 'gluon.html.HTML'>"
p5484
sS'SQLFORM'
p5485
S"<class 'gluon.sqlhtml.SQLFORM'>"
p5486
sS'EM'
p5487
S"<class 'gluon.html.EM'>"
p5488
sS'redirect'
p5489
S'<function redirect>'
p5490
sS'FIELDSET'
p5491
S"<class 'gluon.html.FIELDSET'>"
p5492
sS'__builtins__'
p5493
S"{'ArithmeticError': <type 'exceptions.ArithmeticError'>, 'AssertionError': <type 'exceptions.AssertionError'>, 'AttributeError': <type 'exceptions.AttributeError'>, 'BaseException': <type 'exceptions.BaseException'>, 'BufferError': <type 'exceptions.BufferError'>, 'BytesWarning': <type 'exceptions.BytesWarning'>, 'DeprecationWarning': <type 'exceptions.DeprecationWarning'>, 'EOFError': <type 'exceptions.EOFError'>, 'Ellipsis': Ellipsis, 'EnvironmentError': <type 'exceptions.EnvironmentError'>, ...}"
p5494
sS'embed64'
p5495
S'<function embed64>'
p5496
sS'IS_LIST_OF'
p5497
S"<class 'gluon.validators.IS_LIST_OF'>"
p5498
sS'INPUT'
p5499
S"<class 'gluon.html.INPUT'>"
p5500
sS'EMBED'
p5501
S"<class 'gluon.html.EMBED'>"
p5502
sS'_'
S'<function _>'
p5503
sS'width_content'
p5504
S"'63%'"
p5505
sS'H2'
p5506
S"<class 'gluon.html.H2'>"
p5507
sS'H3'
p5508
S"<class 'gluon.html.H3'>"
p5509
sS'BUTTON'
p5510
S"<class 'gluon.html.BUTTON'>"
p5511
sS'H1'
p5512
S"<class 'gluon.html.H1'>"
p5513
sS'H6'
p5514
S"<class 'gluon.html.H6'>"
p5515
sS'H4'
p5516
S"<class 'gluon.html.H4'>"
p5517
sS'H5'
p5518
S"<class 'gluon.html.H5'>"
p5519
sS'UL'
p5520
S"<class 'gluon.html.UL'>"
p5521
sS'IS_UPPER'
p5522
S"<class 'gluon.validators.IS_UPPER'>"
p5523
sS'xmlescape'
p5524
S'<function xmlescape>'
p5525
sS'IS_TIME'
p5526
S"<class 'gluon.validators.IS_TIME'>"
p5527
sS'OPTION'
p5528
S"<class 'gluon.html.OPTION'>"
p5529
sS'TITLE'
p5530
S"<class 'gluon.html.TITLE'>"
p5531
sS'CRYPT'
p5532
S"<class 'gluon.validators.CRYPT'>"
p5533
sS'IS_EMPTY_OR'
p5534
S"<class 'gluon.validators.IS_EMPTY_OR'>"
p5535
sS'MARKMIN'
p5536
S"<class 'gluon.html.MARKMIN'>"
p5537
sS'COL'
p5538
S"<class 'gluon.html.COL'>"
p5539
sS'service'
p5540
S'<gluon.tools.Service object>'
p5541
sS'SCRIPT'
p5542
S"<class 'gluon.html.SCRIPT'>"
p5543
sS'getCurrentTime'
p5544
S'<function getCurrentTime>'
p5545
sS'TABLE'
p5546
S"<class 'gluon.html.TABLE'>"
p5547
sS'IS_IPV4'
p5548
S"<class 'gluon.validators.IS_IPV4'>"
p5549
sS'IS_LENGTH'
p5550
S"<class 'gluon.validators.IS_LENGTH'>"
p5551
sS'XML'
p5552
S"<class 'gluon.html.XML'>"
p5553
sS'B'
S"<class 'gluon.html.B'>"
p5554
sS'IMG'
p5555
S"<class 'gluon.html.IMG'>"
p5556
sS'SQLTABLE'
p5557
S"<class 'gluon.sqlhtml.SQLTABLE'>"
p5558
sS'IS_MATCH'
p5559
S"<class 'gluon.validators.IS_MATCH'>"
p5560
sS'IS_ALPHANUMERIC'
p5561
S"<class 'gluon.validators.IS_ALPHANUMERIC'>"
p5562
sS'SPAN'
p5563
S"<class 'gluon.html.SPAN'>"
p5564
sS'IS_SLUG'
p5565
S"<class 'gluon.validators.IS_SLUG'>"
p5566
sS'CLEANUP'
p5567
S"<class 'gluon.validators.CLEANUP'>"
p5568
sS'IS_DATE'
p5569
S"<class 'gluon.validators.IS_DATE'>"
p5570
sS'IS_EMAIL'
p5571
S"<class 'gluon.validators.IS_EMAIL'>"
p5572
sS'IS_NOT_EMPTY'
p5573
S"<class 'gluon.validators.IS_NOT_EMPTY'>"
p5574
sg55
S"<Storage {'body': <cStringIO.StringO object at 0..._vars': <Storage {}>, 'post_vars': <Storage {}>}>"
p5575
sS'BEAUTIFY'
p5576
S"<class 'gluon.html.BEAUTIFY'>"
p5577
sS'TBODY'
p5578
S"<class 'gluon.html.TBODY'>"
p5579
sS'CAT'
p5580
S"<class 'gluon.html.CAT'>"
p5581
sS'Field'
p5582
S"<class 'gluon.dal.Field'>"
p5583
sS'DIV'
p5584
S"<class 'gluon.html.DIV'>"
p5585
sS'LEGEND'
p5586
S"<class 'gluon.html.LEGEND'>"
p5587
sS'COLGROUP'
p5588
S"<class 'gluon.html.COLGROUP'>"
p5589
sS'DAL'
p5590
S"<class 'gluon.dal.DAL'>"
p5591
sS'pathutils'
p5592
S"<module 'applications.ddlagoon.pathutils' from 'applications\\ddlagoon\\pathutils.py'>"
p5593
sS'TT'
p5594
S"<class 'gluon.html.TT'>"
p5595
sS'TR'
p5596
S"<class 'gluon.html.TR'>"
p5597
sS'LI'
p5598
S"<class 'gluon.html.LI'>"
p5599
sS'right_sidebar_enabled'
p5600
g1678
sS'IFRAME'
p5601
S"<class 'gluon.html.IFRAME'>"
p5602
sS'TD'
p5603
S"<class 'gluon.html.TD'>"
p5604
sS'PluginManager'
p5605
S"<class 'gluon.tools.PluginManager'>"
p5606
sS'IS_URL'
p5607
S"<class 'gluon.validators.IS_URL'>"
p5608
sS'A'
S"<class 'gluon.html.A'>"
p5609
sS'STYLE'
p5610
S"<class 'gluon.html.STYLE'>"
p5611
sS'IS_DATETIME_IN_RANGE'
p5612
S"<class 'gluon.validators.IS_DATETIME_IN_RANGE'>"
p5613
sS'generateNickname'
p5614
S'<function generateNickname>'
p5615
sS'FORM'
p5616
S"<class 'gluon.html.FORM'>"
p5617
sS'I'
S"<class 'gluon.html.I'>"
p5618
sS'crud'
p5619
S'<gluon.tools.Crud object>'
p5620
sS'right_sidebar_style'
p5621
S'\'style="display: block;"\''
p5622
sS'IS_NOT_IN_DB'
p5623
S"<class 'gluon.validators.IS_NOT_IN_DB'>"
p5624
sg3445
S"<Storage {'body': <cStringIO.StringO object at 0...072A1128>, 'view': 'default/how_to_upload.html'}>"
p5625
sS'THEAD'
p5626
S"<class 'gluon.html.THEAD'>"
p5627
sS'IS_NULL_OR'
p5628
S"<class 'gluon.validators.IS_EMPTY_OR'>"
p5629
sS'left_sidebar_style'
p5630
S'\'style="display: block;"\''
p5631
sS'generateUploaderKey'
p5632
S'<function generateUploaderKey>'
p5633
sS'IS_FLOAT_IN_RANGE'
p5634
S"<class 'gluon.validators.IS_FLOAT_IN_RANGE'>"
p5635
sS'IS_EXPR'
p5636
S"<class 'gluon.validators.IS_EXPR'>"
p5637
sS'T'
S'<gluon.languages.translator object>'
p5638
sS'IS_IN_SET'
p5639
S"<class 'gluon.validators.IS_IN_SET'>"
p5640
sS'IS_UPLOAD_FILENAME'
p5641
S"<class 'gluon.validators.IS_UPLOAD_FILENAME'>"
p5642
sS'style_content'
p5643
S'\'style="width: 63%"\''
p5644
sS're'
p5645
S"<module 're' from 'C:\\Python27\\lib\\re.pyc'>"
p5646
sS'IS_DECIMAL_IN_RANGE'
p5647
S"<class 'gluon.validators.IS_DECIMAL_IN_RANGE'>"
p5648
sssS'traceback'
p5649
S'Traceback (most recent call last):\n  File "C:\\Users\\Thomas\\Dropbox\\appz\\2011\\ddlagoon\\public_html\\gluon\\restricted.py", line 194, in restricted\n    exec ccode in environment\n  File "C:\\Users\\Thomas\\Dropbox\\appz\\2011\\ddlagoon\\public_html\\applications\\ddlagoon\\views\\default/how_to_upload.html", line 76, in <module>\nKeyError: \'go_to_profile_pre\'\n'
p5650
s.