(dp1
S'output'
p2
S''
sS'layer'
p3
S'/windows/Users/Thomas/Dropbox/appz/2011/GAE/ddl-lagoon/applications/ddlagoon/controllers/default.py'
p4
sS'code'
p5
S'# -*- coding: utf-8 -*-\n# this file is released under public domain and you can use without limitations\n\n#########################################################################\n## This is a samples controller\n## - index is the default action of any application\n## - user is required for authentication and authorization\n## - download is for downloading files uploaded in the db (does streaming)\n## - call exposes all registered services (none by default)\n#########################################################################\nfrom datetime import datetime\n#from applications.ddlagoon import pathutils\n\n__version__ = 1.5\n\nfrom Crypto.PublicKey import RSA\n#from Crypto.Random import random\nimport random\nimport base64, hashlib\nimport gluon.contrib.simplejson as json\nimport tempfile\nfrom time import mktime\n\ndef sha512(n):\n    return hashlib.sha512(str(n)).digest()\ndef sha256(n):\n    return hashlib.sha256(str(n)).digest()\ndef compute(n):\n    return 61*long(n)**3-54*long(n)**2+8942*long(n)*3\ndef chunks(s, n):\n    """Produce `n`-character chunks from `s`."""\n    for start in range(0, len(s), n):\n        yield s[start:start+n]\n\nif False:\n    from gluon.contrib import *\n    from re import T\n    from applications.ddlagoon.models.db import db, service, auth\n    from gluon.contrib.pysimplesoap.server import request\n\ndef pluralize(number, text):\n    output = str(number) + " " + text\n    if number>1:\n        output += "s"\n    return output\n\ndef getTimeDelta(weeks, days, hours, minutes, seconds):\n    output=""\n    if weeks>0:\n        return pluralize(weeks, "week")\n    elif days>0:\n        return pluralize(days, "day")\n    elif hours>0:\n        return pluralize(hours, "hour")\n    elif minutes>0:\n        return pluralize(minutes, "minute")\n    elif seconds>0:\n        return pluralize(seconds, "second")\n\ndef index():\n    """\n    example action using the internationalization operator T and flash\n    rendered by views/default/index.html or views/generic.html\n    """\n    rows= db(db.ddl.id>0).select(orderby=db.ddl.date_added, limitby=(0,10).sort(lambda r: not r[\'date_added\'])\n    ddlz=[]\n    for row in rows:\n        difference = datetime.now()-row[\'date_added\']\n        weeks, days = divmod(difference.days, 7)\n        minutes, seconds = divmod(difference.seconds, 60)\n        hours, minutes = divmod(minutes, 60)\n        row[\'timedelta\']= getTimeDelta(weeks, days, hours, minutes, seconds)\n        ddlz.insert(0,row)\n    return dict(message=T(\'Hello World\'),ddlz=ddlz)\n\ndef user():\n    """\n    exposes:\n    http://..../[app]/default/user/login\n    http://..../[app]/default/user/logout\n    http://..../[app]/default/user/register\n    http://..../[app]/default/user/profile\n    http://..../[app]/default/user/retrieve_password\n    http://..../[app]/default/user/change_password\n    use @auth.requires_login()\n        @auth.requires_membership(\'group name\')\n        @auth.requires_permission(\'read\',\'table name\',record_id)\n    to decorate functions that need access control\n    """\n    return dict(form=auth())\n\n@auth.requires_login()\ndef profile():\n    return dict(nickname=auth.user.nickname,\n                uploader_key=auth.user.uploader_key,\n                is_uploader=auth.user.is_uploader)\n\ndef download():\n    """\n    allows downloading of uploaded files\n    http://..../[app]/default/download/[filename]\n    """\n    return response.download(request,db)\n\n@auth.requires_login()\ndef uploadDDL():\n    return service()\n\ndef call():\n    """\n    exposes services. for example:\n    http://..../[app]/default/call/jsonrpc\n    decorate with @services.jsonrpc the functions to expose\n    supports xml, json, xmlrpc, jsonrpc, amfrpc, rss, csv\n    """\n    return service()\n\n@service.xmlrpc\n@service.json\n@service.xml\ndef receiveDDL(encryptedText):\n    returnCode=-1\n    message="Unknown Error"\n    try:\n        decryptedMsg= decryptFromClient(encryptedText)\n    except:\n        returnCode=-1\n        message= "Error decrypting the DDL"\n    else:\n        try:\n            dataFromClient = json.loads(decryptedMsg)\n        except :\n            returnCode= -1\n            message="Error reading the DDL"\n        else:\n            # prepare a DDL from the received information\n            uploader= db(db.auth_user.nickname==dataFromClient[\'nickname\']).select().first()\n            ddl = dataFromClient[\'ddl\']\n            # remove previous DDL, if present\n            db((db.ddl.filename==ddl[\'filename\']) & (db.ddl.uploader==uploader.id)).delete()\n            db.ddl.insert(\n                  author=ddl[\'author\']\n                , uploader=uploader.id\n                , filename=ddl[\'filename\']\n                , description=ddl[\'description\'],\n                size=ddl[\'size\'],\n                hash=ddl[\'hash\'],\n                parts=ddl[\'parts\'],\n                service=ddl[\'service\'],\n                links="|".join(ddl[\'links\']),\n                version=ddl[\'version\']\n                #, date_created=datetime.fromtimestamp(ddl[\'time\'])\n            )\n            returnCode= 0\n            message="Upload done!"\n    dataToSend = {\n        \'returnCode\' : returnCode,\n        \'message\' : message\n    }\n    return json.dumps(dataToSend, sort_keys=True, indent=4)\n\n@service.json\n@service.xmlrpc\n@service.xml\ndef concat(a,b):\n    return dict(test=a+b)\n\ndef loginTest(nickname, uploaderKey):\n    returnCode = -1\n    message = ""\n    try:\n        record = db(db.auth_user.nickname==nickname).select().first()\n    except:\n        pass\n    else:\n        if not record:\n            returnCode= -1\n            message= "Who is %s?" % nickname\n        else:\n            if not record.uploader_key==uploaderKey:\n                returnCode= -1\n                message= "Wrong API Key"\n            else:\n                if record.is_uploader:\n                    # login the user\n                    #session.nickname= nickname\n                    returnCode=0\n                else:\n                    returnCode= -1\n                    message= "You are not allowed to upload"\n    return returnCode, message\n\n\ndef decryptFromClient(encryptedMsg):\n    decryptedMsg = ""\n    private_json = {\n        "d": 23787079891404684333685400978249298094378954863672776929346845102263722750088918762338764266712467553502811192479791825128333774826784684125489823193368527161074577530140077392439136510635896140296132025922882984837588521257841050129145633510814630843053674301016823808612405445927946023993959147765325630609,\n        "e": 65537,\n        "n": 113857278326248086267655574343523535583648376051747208707172377115619164320229146138430878888952306898474564499090572366596232150220784972504544737264372878940265396864770701575284749329394957815581364039447123399430603091303935702146927576939090729428557897918935408150236788311903915427199939052963176280397,\n        "p": 9580774579539128121039431812737453710839471771236942870475012323041145011884745445780348665996631786895791139388698030648995797187661607074610865997962403,\n        "q": 11883932492202009053507786643172605523535663521769572031030078443728388902717320133755150294842235771246601522313496536316374989301635407931585896758667599,\n        "u": 1517576679209673870508661373022611765046783829884979500337395070156130858916802958093981514472423096659658057726899513257360280724233068450029128365828499\n    }\n    private_key = RSA.construct((long(private_json[\'n\']), long(private_json[\'e\']),\n                             long(private_json[\'d\']), long(private_json[\'p\']),\n                             long(private_json[\'q\']), long(private_json[\'u\'])))\n    try:\n        for p in encryptedMsg.split("@"):\n            decryptedMsg += private_key.decrypt(base64.b16decode(p))\n    except:\n        pass\n    \n    return decryptedMsg\n\ndef encryptForClient(n, e, clearMsg):\n    client_pub_key = RSA.construct((long(n), long(e)))\n    encryptedMsg = list()\n    randomK = long(random.getrandbits(random.randint(128, 256)))\n    for part in chunks(clearMsg,127):\n        encryptedData = client_pub_key.encrypt(part, randomK)\n        coded = base64.b16encode(encryptedData[0])\n        encryptedMsg.append(coded)\n    data = "@".join(encryptedMsg)\n    return data\n\n@service.json\n@service.xmlrpc\n@service.xml\ndef checkLogin(encryptedMsg):\n    # decrypt the message with the private key\n    returnCode = -1\n    message = \'\'\n    computedNb = 0\n    decryptedMsg = decryptFromClient(encryptedMsg)\n    dataFromClient = ()\n    if not len(decryptedMsg)>0:\n        returnCode = -1\n        message = \'Server Decrypt Error\'\n    else:\n        # try to load into a json\n        try:\n            dataFromClient = json.loads(decryptedMsg)\n        except:\n            returnCode = -1\n            message = \'Server Load Error\'\n        else:\n            toFind = [\'nickname\',\'version\',\'uploaderKey\',\'n\',\'e\',\'randomNb\']\n            error = False\n            for e in toFind:\n                if e not in dataFromClient:\n                    error = True\n                    returnCode = -1\n                    message = \'Server Elements Missing\'\n            if not error:\n                # check if the client is using the last version\n                if float(dataFromClient[\'version\'])>=__version__:\n                    returnCode, message = loginTest(dataFromClient[\'nickname\'],dataFromClient[\'uploaderKey\'])\n                    computedNb = base64.b16encode(sha512(sha256(str(compute(dataFromClient[\'randomNb\'])))))\n                else:\n                    returnCode=1\n                    message="A new version of Bobpic is available.\\nYou need to upgrade."\n\n    # prepare a json\n    dataToSend = {\n        \'returnCode\' : returnCode,\n        \'message\' : message,\n        \'computedNb\' : computedNb\n    }\n    # encrypt the json with the dynamic public key of the client\n    try:\n        dataToSendStr = str(json.dumps(dataToSend, sort_keys=True, indent=4))\n        data= encryptForClient(dataFromClient[\'n\'], dataFromClient[\'e\'], dataToSendStr)\n    except :\n        dataToSend = {\n            \'returnCode\' : -2,\n            \'message\' : message\n        }\n        return json.dumps(dataToSend, sort_keys=True, indent=4)\n    else:\n        return data\n\n#def checkLogin(username, key):\n#    users = db.auth_user\n#    q = users.nickname==username\n#    s = db(q)\n#    if s.select():\n#        return dict(test=username+key)\n#    else:\n#        return "get out"\n\n@auth.requires_signature()\ndef data():\n    """\n    http://..../[app]/default/data/tables\n    http://..../[app]/default/data/create/[table]\n    http://..../[app]/default/data/read/[table]/[id]\n    http://..../[app]/default/data/update/[table]/[id]\n    http://..../[app]/default/data/delete/[table]/[id]\n    http://..../[app]/default/data/select/[table]\n    http://..../[app]/default/data/search/[table]\n    but URLs bust be signed, i.e. linked with\n      A(\'table\',_href=URL(\'data/tables\',user_signature=True))\n    or with the signed load operator\n      LOAD(\'default\',\'data.load\',args=\'tables\',ajax=True,user_signature=True)\n    """\n    return dict(form=crud())\n\n\ndef get():\n    return service()\n\n@service.xml\ndef ddl(id="", filename=""):\n    # find the record\n    ddl= db((db.ddl.filename_url==filename) & (db.ddl.id==id)).select().first()\n    if not ddl:\n        return "404 - File not found."\n    else:\n        # prepare the file\n        ddlJ = {\n            \'author\':ddl.author,\n            \'filename\':ddl.filename,\n            \'description\':ddl.description,\n            \'size\':ddl.size,\n            \'hash\':ddl.hash,\n            \'parts\':ddl.parts,\n            \'service\':ddl.service,\n            \'links\':ddl.links.split("|"),\n            \'version\':ddl.version,\n            \'time\':int(mktime(ddl.date_added.timetuple()))\n        }\n        ddlJson = json.dumps(ddlJ, sort_keys=True, indent=4)\n        public_ddl = {\n            "e": 65537,\n            "n": 138699374543223257537557103176001704226735255147448649583225017098287197630734176291676474096655313606555548753275002732095146725547697816211326459323755204828036245647843790985208692060549009977103102474302073609652750671753426409739287485014860128030833183117757223967930924686377060843991855851119927153483\n        }\n        encryptedMsg = encryptForClient(public_ddl[\'n\'],public_ddl[\'e\'],ddlJson)\n        #response.headers[\'Content-Type\'] = \'application/ddl\'\n        #response.headers[\'Content-Disposition\'] = \'attachment; filename=test.ddl\'\n        #return response.stream(ddlFile, request=request)\n#        request.args[0] = ddlFile.name\n#        return response.download(request, ddlFile)\n        response.headers[\'Content-Type\'] = "application/octet-stream"\n        response.headers[\'Content-Disposition\'] = \'attachment; filename=%s.ddl\' % ddl.filename\n        return encryptedMsg\n\ndef howto():\n    win32= "http://www.mediafire.com/?hhbfzm4i3t2n99h"\n    win64= "http://www.mediafire.com/?54t5ehe72p0i41p"\n    linux64= "http://www.mediafire.com/?5dy9bakpk8333xr"\n    return dict(win32=win32, win64=win64, linux64=linux64)\nresponse._vars=response._caller(index)\n'
p6
sS'snapshot'
p7
(dp8
S'exception'
p9
(dp10
S'__getslice__'
p11
S"<method-wrapper '__getslice__' of exceptions.SyntaxError object>"
p12
sS'text'
p13
S"'    ddlz=[]\\n'"
p14
sS'__str__'
p15
S"<method-wrapper '__str__' of exceptions.SyntaxError object>"
p16
sS'__reduce__'
p17
S'<built-in method __reduce__ of exceptions.SyntaxError object>'
p18
sS'__dict__'
p19
S'{}'
p20
sS'__sizeof__'
p21
S'<built-in method __sizeof__ of exceptions.SyntaxError object>'
p22
sS'__init__'
p23
S"<method-wrapper '__init__' of exceptions.SyntaxError object>"
p24
sS'__setattr__'
p25
S"<method-wrapper '__setattr__' of exceptions.SyntaxError object>"
p26
sS'__reduce_ex__'
p27
S'<built-in method __reduce_ex__ of exceptions.SyntaxError object>'
p28
sS'__new__'
p29
S'<built-in method __new__ of type object>'
p30
sS'__format__'
p31
S'<built-in method __format__ of exceptions.SyntaxError object>'
p32
sS'__class__'
p33
S"<type 'exceptions.SyntaxError'>"
p34
sS'filename'
p35
S"'/windows/Users/Thomas/Dropbox/appz/2011/GAE/ddl-lagoon/applications/ddlagoon/controllers/default.py'"
p36
sS'lineno'
p37
S'66'
p38
sS'msg'
p39
S"'invalid syntax'"
p40
sS'__doc__'
p41
S"'Invalid syntax.'"
p42
sS'__getitem__'
p43
S"<method-wrapper '__getitem__' of exceptions.SyntaxError object>"
p44
sS'__setstate__'
p45
S'<built-in method __setstate__ of exceptions.SyntaxError object>'
p46
sS'__getattribute__'
p47
S"<method-wrapper '__getattribute__' of exceptions.SyntaxError object>"
p48
sS'print_file_and_line'
p49
S'None'
p50
sS'args'
p51
S"('invalid syntax', ('/windows/Users/Thomas/Dropbox/appz/2011/GAE/ddl-lagoon/applications/ddlagoon/controllers/default.py', 66, 8, '    ddlz=[]\\n'))"
p52
sS'__subclasshook__'
p53
S'<built-in method __subclasshook__ of type object>'
p54
sS'offset'
p55
S'8'
sS'__unicode__'
p56
S'<built-in method __unicode__ of exceptions.SyntaxError object>'
p57
sS'__delattr__'
p58
S"<method-wrapper '__delattr__' of exceptions.SyntaxError object>"
p59
sS'__repr__'
p60
S"<method-wrapper '__repr__' of exceptions.SyntaxError object>"
p61
sS'__hash__'
p62
S"<method-wrapper '__hash__' of exceptions.SyntaxError object>"
p63
ssS'evalue'
p64
S'invalid syntax (default.py, line 66)'
p65
sS'request'
p66
ccopy_reg
_reconstructor
p67
(cgluon.html
BEAUTIFY
p68
c__builtin__
object
p69
NtRp70
(dp71
S'attributes'
p72
(dp73
sS'components'
p74
(lp75
g67
(cgluon.html
TABLE
p76
g69
NtRp77
(dp78
g72
(dp79
S'level'
p80
I5
ssS'parent'
p81
Nsg74
(lp82
g67
(cgluon.html
TR
p83
g69
NtRp84
(dp85
g72
(dp86
sg81
g77
sg74
(lp87
g67
(cgluon.html
TD
p88
g69
NtRp89
(dp90
g72
(dp91
S'_style'
p92
S'font-weight:bold;'
p93
ssg81
g84
sg74
(lp94
S'ajax'
p95
asbag67
(g88
g69
NtRp96
(dp97
g72
(dp98
S'_valign'
p99
S'top'
p100
ssg81
g84
sg74
(lp101
S':'
asbag67
(g88
g69
NtRp102
(dp103
g72
(dp104
sg81
g84
sg74
(lp105
g67
(g68
g69
NtRp106
(dp107
g72
(dp108
g80
I5
ssg81
g102
sg74
(lp109
S'False'
p110
asbasbasbag67
(g83
g69
NtRp111
(dp112
g72
(dp113
sg81
g77
sg74
(lp114
g67
(g88
g69
NtRp115
(dp116
g72
(dp117
g92
g93
ssg81
g111
sg74
(lp118
S'application'
p119
asbag67
(g88
g69
NtRp120
(dp121
g72
(dp122
g99
g100
ssg81
g111
sg74
(lp123
S':'
asbag67
(g88
g69
NtRp124
(dp125
g72
(dp126
sg81
g111
sg74
(lp127
g67
(g68
g69
NtRp128
(dp129
g72
(dp130
g80
I5
ssg81
g124
sg74
(lp131
S'ddlagoon'
p132
asbasbasbag67
(g83
g69
NtRp133
(dp134
g72
(dp135
sg81
g77
sg74
(lp136
g67
(g88
g69
NtRp137
(dp138
g72
(dp139
g92
g93
ssg81
g133
sg74
(lp140
g51
asbag67
(g88
g69
NtRp141
(dp142
g72
(dp143
g99
g100
ssg81
g133
sg74
(lp144
S':'
asbag67
(g88
g69
NtRp145
(dp146
g72
(dp147
sg81
g133
sg74
(lp148
g67
(g68
g69
NtRp149
(dp150
g72
(dp151
g80
I5
ssg81
g145
sg74
(lp152
g67
(g76
g69
NtRp153
(dp154
g72
(dp155
g80
I4
ssg81
Nsg74
(lp156
sbasbasbasbag67
(g83
g69
NtRp157
(dp158
g72
(dp159
sg81
g77
sg74
(lp160
g67
(g88
g69
NtRp161
(dp162
g72
(dp163
g92
g93
ssg81
g157
sg74
(lp164
S'body'
p165
asbag67
(g88
g69
NtRp166
(dp167
g72
(dp168
g99
g100
ssg81
g157
sg74
(lp169
S':'
asbag67
(g88
g69
NtRp170
(dp171
g72
(dp172
sg81
g157
sg74
(lp173
g67
(g68
g69
NtRp174
(dp175
g72
(dp176
g80
I5
ssg81
g170
sg74
(lp177
S'<cStringIO.StringO object at 0x2c29ce0>'
p178
asbasbasbag67
(g83
g69
NtRp179
(dp180
g72
(dp181
sg81
g77
sg74
(lp182
g67
(g88
g69
NtRp183
(dp184
g72
(dp185
g92
g93
ssg81
g179
sg74
(lp186
S'client'
p187
asbag67
(g88
g69
NtRp188
(dp189
g72
(dp190
g99
g100
ssg81
g179
sg74
(lp191
S':'
asbag67
(g88
g69
NtRp192
(dp193
g72
(dp194
sg81
g179
sg74
(lp195
g67
(g68
g69
NtRp196
(dp197
g72
(dp198
g80
I5
ssg81
g192
sg74
(lp199
S'127.0.0.1'
p200
asbasbasbag67
(g83
g69
NtRp201
(dp202
g72
(dp203
sg81
g77
sg74
(lp204
g67
(g88
g69
NtRp205
(dp206
g72
(dp207
g92
g93
ssg81
g201
sg74
(lp208
S'controller'
p209
asbag67
(g88
g69
NtRp210
(dp211
g72
(dp212
g99
g100
ssg81
g201
sg74
(lp213
S':'
asbag67
(g88
g69
NtRp214
(dp215
g72
(dp216
sg81
g201
sg74
(lp217
g67
(g68
g69
NtRp218
(dp219
g72
(dp220
g80
I5
ssg81
g214
sg74
(lp221
S'default'
p222
asbasbasbag67
(g83
g69
NtRp223
(dp224
g72
(dp225
sg81
g77
sg74
(lp226
g67
(g88
g69
NtRp227
(dp228
g72
(dp229
g92
g93
ssg81
g223
sg74
(lp230
S'cookies'
p231
asbag67
(g88
g69
NtRp232
(dp233
g72
(dp234
g99
g100
ssg81
g223
sg74
(lp235
S':'
asbag67
(g88
g69
NtRp236
(dp237
g72
(dp238
sg81
g223
sg74
(lp239
g67
(g68
g69
NtRp240
(dp241
g72
(dp242
g80
I5
ssg81
g236
sg74
(lp243
g67
(g76
g69
NtRp244
(dp245
g72
(dp246
g80
I4
ssg81
Nsg74
(lp247
g67
(g83
g69
NtRp248
(dp249
g72
(dp250
sg81
g244
sg74
(lp251
g67
(g88
g69
NtRp252
(dp253
g72
(dp254
g92
g93
ssg81
g248
sg74
(lp255
S'session_id_admin'
p256
asbag67
(g88
g69
NtRp257
(dp258
g72
(dp259
g99
g100
ssg81
g248
sg74
(lp260
S':'
asbag67
(g88
g69
NtRp261
(dp262
g72
(dp263
sg81
g248
sg74
(lp264
g67
(g68
g69
NtRp265
(dp266
g72
(dp267
g80
I4
ssg81
g261
sg74
(lp268
g67
(g76
g69
NtRp269
(dp270
g72
(dp271
g80
I3
ssg81
Nsg74
(lp272
g67
(g83
g69
NtRp273
(dp274
g72
(dp275
sg81
g269
sg74
(lp276
g67
(g88
g69
NtRp277
(dp278
g72
(dp279
g92
g93
ssg81
g273
sg74
(lp280
S'comment'
p281
asbag67
(g88
g69
NtRp282
(dp283
g72
(dp284
g99
g100
ssg81
g273
sg74
(lp285
S':'
asbag67
(g88
g69
NtRp286
(dp287
g72
(dp288
sg81
g273
sg74
(lp289
g67
(g68
g69
NtRp290
(dp291
g72
(dp292
g80
I3
ssg81
g286
sg74
(lp293
S''
asbasbasbag67
(g83
g69
NtRp294
(dp295
g72
(dp296
sg81
g269
sg74
(lp297
g67
(g88
g69
NtRp298
(dp299
g72
(dp300
g92
g93
ssg81
g294
sg74
(lp301
S'domain'
p302
asbag67
(g88
g69
NtRp303
(dp304
g72
(dp305
g99
g100
ssg81
g294
sg74
(lp306
S':'
asbag67
(g88
g69
NtRp307
(dp308
g72
(dp309
sg81
g294
sg74
(lp310
g67
(g68
g69
NtRp311
(dp312
g72
(dp313
g80
I3
ssg81
g307
sg74
(lp314
S''
asbasbasbag67
(g83
g69
NtRp315
(dp316
g72
(dp317
sg81
g269
sg74
(lp318
g67
(g88
g69
NtRp319
(dp320
g72
(dp321
g92
g93
ssg81
g315
sg74
(lp322
S'expires'
p323
asbag67
(g88
g69
NtRp324
(dp325
g72
(dp326
g99
g100
ssg81
g315
sg74
(lp327
S':'
asbag67
(g88
g69
NtRp328
(dp329
g72
(dp330
sg81
g315
sg74
(lp331
g67
(g68
g69
NtRp332
(dp333
g72
(dp334
g80
I3
ssg81
g328
sg74
(lp335
S''
asbasbasbag67
(g83
g69
NtRp336
(dp337
g72
(dp338
sg81
g269
sg74
(lp339
g67
(g88
g69
NtRp340
(dp341
g72
(dp342
g92
g93
ssg81
g336
sg74
(lp343
S'httponly'
p344
asbag67
(g88
g69
NtRp345
(dp346
g72
(dp347
g99
g100
ssg81
g336
sg74
(lp348
S':'
asbag67
(g88
g69
NtRp349
(dp350
g72
(dp351
sg81
g336
sg74
(lp352
g67
(g68
g69
NtRp353
(dp354
g72
(dp355
g80
I3
ssg81
g349
sg74
(lp356
S''
asbasbasbag67
(g83
g69
NtRp357
(dp358
g72
(dp359
sg81
g269
sg74
(lp360
g67
(g88
g69
NtRp361
(dp362
g72
(dp363
g92
g93
ssg81
g357
sg74
(lp364
S'max-age'
p365
asbag67
(g88
g69
NtRp366
(dp367
g72
(dp368
g99
g100
ssg81
g357
sg74
(lp369
S':'
asbag67
(g88
g69
NtRp370
(dp371
g72
(dp372
sg81
g357
sg74
(lp373
g67
(g68
g69
NtRp374
(dp375
g72
(dp376
g80
I3
ssg81
g370
sg74
(lp377
S''
asbasbasbag67
(g83
g69
NtRp378
(dp379
g72
(dp380
sg81
g269
sg74
(lp381
g67
(g88
g69
NtRp382
(dp383
g72
(dp384
g92
g93
ssg81
g378
sg74
(lp385
S'path'
p386
asbag67
(g88
g69
NtRp387
(dp388
g72
(dp389
g99
g100
ssg81
g378
sg74
(lp390
S':'
asbag67
(g88
g69
NtRp391
(dp392
g72
(dp393
sg81
g378
sg74
(lp394
g67
(g68
g69
NtRp395
(dp396
g72
(dp397
g80
I3
ssg81
g391
sg74
(lp398
S''
asbasbasbag67
(g83
g69
NtRp399
(dp400
g72
(dp401
sg81
g269
sg74
(lp402
g67
(g88
g69
NtRp403
(dp404
g72
(dp405
g92
g93
ssg81
g399
sg74
(lp406
S'secure'
p407
asbag67
(g88
g69
NtRp408
(dp409
g72
(dp410
g99
g100
ssg81
g399
sg74
(lp411
S':'
asbag67
(g88
g69
NtRp412
(dp413
g72
(dp414
sg81
g399
sg74
(lp415
g67
(g68
g69
NtRp416
(dp417
g72
(dp418
g80
I3
ssg81
g412
sg74
(lp419
S''
asbasbasbag67
(g83
g69
NtRp420
(dp421
g72
(dp422
sg81
g269
sg74
(lp423
g67
(g88
g69
NtRp424
(dp425
g72
(dp426
g92
g93
ssg81
g420
sg74
(lp427
S'version'
p428
asbag67
(g88
g69
NtRp429
(dp430
g72
(dp431
g99
g100
ssg81
g420
sg74
(lp432
S':'
asbag67
(g88
g69
NtRp433
(dp434
g72
(dp435
sg81
g420
sg74
(lp436
g67
(g68
g69
NtRp437
(dp438
g72
(dp439
g80
I3
ssg81
g433
sg74
(lp440
S''
asbasbasbasbasbasbasbag67
(g83
g69
NtRp441
(dp442
g72
(dp443
sg81
g244
sg74
(lp444
g67
(g88
g69
NtRp445
(dp446
g72
(dp447
g92
g93
ssg81
g441
sg74
(lp448
S'session_id_ddlagoon'
p449
asbag67
(g88
g69
NtRp450
(dp451
g72
(dp452
g99
g100
ssg81
g441
sg74
(lp453
S':'
asbag67
(g88
g69
NtRp454
(dp455
g72
(dp456
sg81
g441
sg74
(lp457
g67
(g68
g69
NtRp458
(dp459
g72
(dp460
g80
I4
ssg81
g454
sg74
(lp461
g67
(g76
g69
NtRp462
(dp463
g72
(dp464
g80
I3
ssg81
Nsg74
(lp465
g67
(g83
g69
NtRp466
(dp467
g72
(dp468
sg81
g462
sg74
(lp469
g67
(g88
g69
NtRp470
(dp471
g72
(dp472
g92
g93
ssg81
g466
sg74
(lp473
g281
asbag67
(g88
g69
NtRp474
(dp475
g72
(dp476
g99
g100
ssg81
g466
sg74
(lp477
S':'
asbag67
(g88
g69
NtRp478
(dp479
g72
(dp480
sg81
g466
sg74
(lp481
g67
(g68
g69
NtRp482
(dp483
g72
(dp484
g80
I3
ssg81
g478
sg74
(lp485
S''
asbasbasbag67
(g83
g69
NtRp486
(dp487
g72
(dp488
sg81
g462
sg74
(lp489
g67
(g88
g69
NtRp490
(dp491
g72
(dp492
g92
g93
ssg81
g486
sg74
(lp493
g302
asbag67
(g88
g69
NtRp494
(dp495
g72
(dp496
g99
g100
ssg81
g486
sg74
(lp497
S':'
asbag67
(g88
g69
NtRp498
(dp499
g72
(dp500
sg81
g486
sg74
(lp501
g67
(g68
g69
NtRp502
(dp503
g72
(dp504
g80
I3
ssg81
g498
sg74
(lp505
S''
asbasbasbag67
(g83
g69
NtRp506
(dp507
g72
(dp508
sg81
g462
sg74
(lp509
g67
(g88
g69
NtRp510
(dp511
g72
(dp512
g92
g93
ssg81
g506
sg74
(lp513
g323
asbag67
(g88
g69
NtRp514
(dp515
g72
(dp516
g99
g100
ssg81
g506
sg74
(lp517
S':'
asbag67
(g88
g69
NtRp518
(dp519
g72
(dp520
sg81
g506
sg74
(lp521
g67
(g68
g69
NtRp522
(dp523
g72
(dp524
g80
I3
ssg81
g518
sg74
(lp525
S''
asbasbasbag67
(g83
g69
NtRp526
(dp527
g72
(dp528
sg81
g462
sg74
(lp529
g67
(g88
g69
NtRp530
(dp531
g72
(dp532
g92
g93
ssg81
g526
sg74
(lp533
g344
asbag67
(g88
g69
NtRp534
(dp535
g72
(dp536
g99
g100
ssg81
g526
sg74
(lp537
S':'
asbag67
(g88
g69
NtRp538
(dp539
g72
(dp540
sg81
g526
sg74
(lp541
g67
(g68
g69
NtRp542
(dp543
g72
(dp544
g80
I3
ssg81
g538
sg74
(lp545
S''
asbasbasbag67
(g83
g69
NtRp546
(dp547
g72
(dp548
sg81
g462
sg74
(lp549
g67
(g88
g69
NtRp550
(dp551
g72
(dp552
g92
g93
ssg81
g546
sg74
(lp553
g365
asbag67
(g88
g69
NtRp554
(dp555
g72
(dp556
g99
g100
ssg81
g546
sg74
(lp557
S':'
asbag67
(g88
g69
NtRp558
(dp559
g72
(dp560
sg81
g546
sg74
(lp561
g67
(g68
g69
NtRp562
(dp563
g72
(dp564
g80
I3
ssg81
g558
sg74
(lp565
S''
asbasbasbag67
(g83
g69
NtRp566
(dp567
g72
(dp568
sg81
g462
sg74
(lp569
g67
(g88
g69
NtRp570
(dp571
g72
(dp572
g92
g93
ssg81
g566
sg74
(lp573
g386
asbag67
(g88
g69
NtRp574
(dp575
g72
(dp576
g99
g100
ssg81
g566
sg74
(lp577
S':'
asbag67
(g88
g69
NtRp578
(dp579
g72
(dp580
sg81
g566
sg74
(lp581
g67
(g68
g69
NtRp582
(dp583
g72
(dp584
g80
I3
ssg81
g578
sg74
(lp585
S''
asbasbasbag67
(g83
g69
NtRp586
(dp587
g72
(dp588
sg81
g462
sg74
(lp589
g67
(g88
g69
NtRp590
(dp591
g72
(dp592
g92
g93
ssg81
g586
sg74
(lp593
g407
asbag67
(g88
g69
NtRp594
(dp595
g72
(dp596
g99
g100
ssg81
g586
sg74
(lp597
S':'
asbag67
(g88
g69
NtRp598
(dp599
g72
(dp600
sg81
g586
sg74
(lp601
g67
(g68
g69
NtRp602
(dp603
g72
(dp604
g80
I3
ssg81
g598
sg74
(lp605
S''
asbasbasbag67
(g83
g69
NtRp606
(dp607
g72
(dp608
sg81
g462
sg74
(lp609
g67
(g88
g69
NtRp610
(dp611
g72
(dp612
g92
g93
ssg81
g606
sg74
(lp613
g428
asbag67
(g88
g69
NtRp614
(dp615
g72
(dp616
g99
g100
ssg81
g606
sg74
(lp617
S':'
asbag67
(g88
g69
NtRp618
(dp619
g72
(dp620
sg81
g606
sg74
(lp621
g67
(g68
g69
NtRp622
(dp623
g72
(dp624
g80
I3
ssg81
g618
sg74
(lp625
S''
asbasbasbasbasbasbasbasbasbasbasbag67
(g83
g69
NtRp626
(dp627
g72
(dp628
sg81
g77
sg74
(lp629
g67
(g88
g69
NtRp630
(dp631
g72
(dp632
g92
g93
ssg81
g626
sg74
(lp633
S'env'
p634
asbag67
(g88
g69
NtRp635
(dp636
g72
(dp637
g99
g100
ssg81
g626
sg74
(lp638
S':'
asbag67
(g88
g69
NtRp639
(dp640
g72
(dp641
sg81
g626
sg74
(lp642
g67
(g68
g69
NtRp643
(dp644
g72
(dp645
g80
I5
ssg81
g639
sg74
(lp646
g67
(g76
g69
NtRp647
(dp648
g72
(dp649
g80
I4
ssg81
Nsg74
(lp650
g67
(g83
g69
NtRp651
(dp652
g72
(dp653
sg81
g647
sg74
(lp654
g67
(g88
g69
NtRp655
(dp656
g72
(dp657
g92
g93
ssg81
g651
sg74
(lp658
S'app_folders'
p659
asbag67
(g88
g69
NtRp660
(dp661
g72
(dp662
g99
g100
ssg81
g651
sg74
(lp663
S':'
asbag67
(g88
g69
NtRp664
(dp665
g72
(dp666
sg81
g651
sg74
(lp667
g67
(g68
g69
NtRp668
(dp669
g72
(dp670
g80
I4
ssg81
g664
sg74
(lp671
S"set(['/windows/Users/Thomas/Dropbox/appz/2011/GAE/ddl-lagoon/applications/ddlagoon/', '/windows/Users/Thomas/Dropbox/appz/2011/GAE/ddl-lagoon/applications/admin/'])"
p672
asbasbasbag67
(g83
g69
NtRp673
(dp674
g72
(dp675
sg81
g647
sg74
(lp676
g67
(g88
g69
NtRp677
(dp678
g72
(dp679
g92
g93
ssg81
g673
sg74
(lp680
S'applications_parent'
p681
asbag67
(g88
g69
NtRp682
(dp683
g72
(dp684
g99
g100
ssg81
g673
sg74
(lp685
S':'
asbag67
(g88
g69
NtRp686
(dp687
g72
(dp688
sg81
g673
sg74
(lp689
g67
(g68
g69
NtRp690
(dp691
g72
(dp692
g80
I4
ssg81
g686
sg74
(lp693
S'/windows/Users/Thomas/Dropbox/appz/2011/GAE/ddl-lagoon'
p694
asbasbasbag67
(g83
g69
NtRp695
(dp696
g72
(dp697
sg81
g647
sg74
(lp698
g67
(g88
g69
NtRp699
(dp700
g72
(dp701
g92
g93
ssg81
g695
sg74
(lp702
S'cmd_args'
p703
asbag67
(g88
g69
NtRp704
(dp705
g72
(dp706
g99
g100
ssg81
g695
sg74
(lp707
S':'
asbag67
(g88
g69
NtRp708
(dp709
g72
(dp710
sg81
g695
sg74
(lp711
g67
(g68
g69
NtRp712
(dp713
g72
(dp714
g80
I4
ssg81
g708
sg74
(lp715
g67
(g76
g69
NtRp716
(dp717
g72
(dp718
g80
I3
ssg81
Nsg74
(lp719
sbasbasbasbag67
(g83
g69
NtRp720
(dp721
g72
(dp722
sg81
g647
sg74
(lp723
g67
(g88
g69
NtRp724
(dp725
g72
(dp726
g92
g93
ssg81
g720
sg74
(lp727
S'cmd_options'
p728
asbag67
(g88
g69
NtRp729
(dp730
g72
(dp731
g99
g100
ssg81
g720
sg74
(lp732
S':'
asbag67
(g88
g69
NtRp733
(dp734
g72
(dp735
sg81
g720
sg74
(lp736
g67
(g68
g69
NtRp737
(dp738
g72
(dp739
g80
I4
ssg81
g733
sg74
(lp740
S"<Values at 0x1e2b170: {'verbose': False, 'ip': '127.0.0.1', 'shutdown_timeout': 5, 'taskbar': False, 'nocron': False, 'pid_filename': 'httpserver.pid', 'maxthreads': None, 'softcron': False, 'server_name': 'VPCF22AJ', 'bpython': False, 'nogui': False, 'port': 8000, 'extcron': False, 'debuglevel': 30, 'test': None, 'folder': '/windows/Users/Thomas/Dropbox/appz/2011/GAE/ddl-lagoon', 'config': '', 'import_models': False, 'winservice': '', 'shell': None, 'run': '', 'log_filename': 'httpserver.log', 'args': [''], 'ssl_ca_certificate': None, 'scheduler': None, 'profiler_filename': None, 'ssl_private_key': '', 'password': 'admin', 'request_queue_size': 5, 'ssl_certificate': '', 'cronjob': False, 'plain': False, 'quiet': False, 'interfaces': None, 'minthreads': None, 'timeout': 10, 'numthreads': None, 'nobanner': False}>"
p741
asbasbasbag67
(g83
g69
NtRp742
(dp743
g72
(dp744
sg81
g647
sg74
(lp745
g67
(g88
g69
NtRp746
(dp747
g72
(dp748
g92
g93
ssg81
g742
sg74
(lp749
S'db_sessions'
p750
asbag67
(g88
g69
NtRp751
(dp752
g72
(dp753
g99
g100
ssg81
g742
sg74
(lp754
S':'
asbag67
(g88
g69
NtRp755
(dp756
g72
(dp757
sg81
g742
sg74
(lp758
g67
(g68
g69
NtRp759
(dp760
g72
(dp761
g80
I4
ssg81
g755
sg74
(lp762
S'set([])'
p763
asbasbasbag67
(g83
g69
NtRp764
(dp765
g72
(dp766
sg81
g647
sg74
(lp767
g67
(g88
g69
NtRp768
(dp769
g72
(dp770
g92
g93
ssg81
g764
sg74
(lp771
S'debugging'
p772
asbag67
(g88
g69
NtRp773
(dp774
g72
(dp775
g99
g100
ssg81
g764
sg74
(lp776
S':'
asbag67
(g88
g69
NtRp777
(dp778
g72
(dp779
sg81
g764
sg74
(lp780
g67
(g68
g69
NtRp781
(dp782
g72
(dp783
g80
I4
ssg81
g777
sg74
(lp784
g110
asbasbasbag67
(g83
g69
NtRp785
(dp786
g72
(dp787
sg81
g647
sg74
(lp788
g67
(g88
g69
NtRp789
(dp790
g72
(dp791
g92
g93
ssg81
g785
sg74
(lp792
S'gluon_parent'
p793
asbag67
(g88
g69
NtRp794
(dp795
g72
(dp796
g99
g100
ssg81
g785
sg74
(lp797
S':'
asbag67
(g88
g69
NtRp798
(dp799
g72
(dp800
sg81
g785
sg74
(lp801
g67
(g68
g69
NtRp802
(dp803
g72
(dp804
g80
I4
ssg81
g798
sg74
(lp805
S'/windows/Users/Thomas/Dropbox/appz/2011/GAE/ddl-lagoon'
p806
asbasbasbag67
(g83
g69
NtRp807
(dp808
g72
(dp809
sg81
g647
sg74
(lp810
g67
(g88
g69
NtRp811
(dp812
g72
(dp813
g92
g93
ssg81
g807
sg74
(lp814
S'http_accept'
p815
asbag67
(g88
g69
NtRp816
(dp817
g72
(dp818
g99
g100
ssg81
g807
sg74
(lp819
S':'
asbag67
(g88
g69
NtRp820
(dp821
g72
(dp822
sg81
g807
sg74
(lp823
g67
(g68
g69
NtRp824
(dp825
g72
(dp826
g80
I4
ssg81
g820
sg74
(lp827
S'text/html,application/xhtml+xml,application/xml;q=0.9,*/*;q=0.8'
p828
asbasbasbag67
(g83
g69
NtRp829
(dp830
g72
(dp831
sg81
g647
sg74
(lp832
g67
(g88
g69
NtRp833
(dp834
g72
(dp835
g92
g93
ssg81
g829
sg74
(lp836
S'http_accept_charset'
p837
asbag67
(g88
g69
NtRp838
(dp839
g72
(dp840
g99
g100
ssg81
g829
sg74
(lp841
S':'
asbag67
(g88
g69
NtRp842
(dp843
g72
(dp844
sg81
g829
sg74
(lp845
g67
(g68
g69
NtRp846
(dp847
g72
(dp848
g80
I4
ssg81
g842
sg74
(lp849
S'ISO-8859-1,utf-8;q=0.7,*;q=0.3'
p850
asbasbasbag67
(g83
g69
NtRp851
(dp852
g72
(dp853
sg81
g647
sg74
(lp854
g67
(g88
g69
NtRp855
(dp856
g72
(dp857
g92
g93
ssg81
g851
sg74
(lp858
S'http_accept_encoding'
p859
asbag67
(g88
g69
NtRp860
(dp861
g72
(dp862
g99
g100
ssg81
g851
sg74
(lp863
S':'
asbag67
(g88
g69
NtRp864
(dp865
g72
(dp866
sg81
g851
sg74
(lp867
g67
(g68
g69
NtRp868
(dp869
g72
(dp870
g80
I4
ssg81
g864
sg74
(lp871
S'gzip,deflate,sdch'
p872
asbasbasbag67
(g83
g69
NtRp873
(dp874
g72
(dp875
sg81
g647
sg74
(lp876
g67
(g88
g69
NtRp877
(dp878
g72
(dp879
g92
g93
ssg81
g873
sg74
(lp880
S'http_accept_language'
p881
asbag67
(g88
g69
NtRp882
(dp883
g72
(dp884
g99
g100
ssg81
g873
sg74
(lp885
S':'
asbag67
(g88
g69
NtRp886
(dp887
g72
(dp888
sg81
g873
sg74
(lp889
g67
(g68
g69
NtRp890
(dp891
g72
(dp892
g80
I4
ssg81
g886
sg74
(lp893
S'en-US,en;q=0.8,fr;q=0.6'
p894
asbasbasbag67
(g83
g69
NtRp895
(dp896
g72
(dp897
sg81
g647
sg74
(lp898
g67
(g88
g69
NtRp899
(dp900
g72
(dp901
g92
g93
ssg81
g895
sg74
(lp902
S'http_cache_control'
p903
asbag67
(g88
g69
NtRp904
(dp905
g72
(dp906
g99
g100
ssg81
g895
sg74
(lp907
S':'
asbag67
(g88
g69
NtRp908
(dp909
g72
(dp910
sg81
g895
sg74
(lp911
g67
(g68
g69
NtRp912
(dp913
g72
(dp914
g80
I4
ssg81
g908
sg74
(lp915
S'max-age=0'
p916
asbasbasbag67
(g83
g69
NtRp917
(dp918
g72
(dp919
sg81
g647
sg74
(lp920
g67
(g88
g69
NtRp921
(dp922
g72
(dp923
g92
g93
ssg81
g917
sg74
(lp924
S'http_connection'
p925
asbag67
(g88
g69
NtRp926
(dp927
g72
(dp928
g99
g100
ssg81
g917
sg74
(lp929
S':'
asbag67
(g88
g69
NtRp930
(dp931
g72
(dp932
sg81
g917
sg74
(lp933
g67
(g68
g69
NtRp934
(dp935
g72
(dp936
g80
I4
ssg81
g930
sg74
(lp937
S'keep-alive'
p938
asbasbasbag67
(g83
g69
NtRp939
(dp940
g72
(dp941
sg81
g647
sg74
(lp942
g67
(g88
g69
NtRp943
(dp944
g72
(dp945
g92
g93
ssg81
g939
sg74
(lp946
S'http_cookie'
p947
asbag67
(g88
g69
NtRp948
(dp949
g72
(dp950
g99
g100
ssg81
g939
sg74
(lp951
S':'
asbag67
(g88
g69
NtRp952
(dp953
g72
(dp954
sg81
g939
sg74
(lp955
g67
(g68
g69
NtRp956
(dp957
g72
(dp958
g80
I4
ssg81
g952
sg74
(lp959
S'__utma_a2a=6830991484.1350583772.1319026846.1319052270.1319052278.11; session_id_ddlagoon=127.0.0.1-e2b0e85d-0308-4bbf-a81a-e4bd32bbbecd; session_id_admin=127.0.0.1-7dd069a2-a0a7-4285-a99a-d0dc24f9a0a4'
p960
asbasbasbag67
(g83
g69
NtRp961
(dp962
g72
(dp963
sg81
g647
sg74
(lp964
g67
(g88
g69
NtRp965
(dp966
g72
(dp967
g92
g93
ssg81
g961
sg74
(lp968
S'http_host'
p969
asbag67
(g88
g69
NtRp970
(dp971
g72
(dp972
g99
g100
ssg81
g961
sg74
(lp973
S':'
asbag67
(g88
g69
NtRp974
(dp975
g72
(dp976
sg81
g961
sg74
(lp977
g67
(g68
g69
NtRp978
(dp979
g72
(dp980
g80
I4
ssg81
g974
sg74
(lp981
S'localhost:8000'
p982
asbasbasbag67
(g83
g69
NtRp983
(dp984
g72
(dp985
sg81
g647
sg74
(lp986
g67
(g88
g69
NtRp987
(dp988
g72
(dp989
g92
g93
ssg81
g983
sg74
(lp990
S'http_user_agent'
p991
asbag67
(g88
g69
NtRp992
(dp993
g72
(dp994
g99
g100
ssg81
g983
sg74
(lp995
S':'
asbag67
(g88
g69
NtRp996
(dp997
g72
(dp998
sg81
g983
sg74
(lp999
g67
(g68
g69
NtRp1000
(dp1001
g72
(dp1002
g80
I4
ssg81
g996
sg74
(lp1003
S'Mozilla/5.0 (X11; Linux x86_64) AppleWebKit/535.2 (KHTML, like Gecko) Chrome/15.0.874.106 Safari/535.2'
p1004
asbasbasbag67
(g83
g69
NtRp1005
(dp1006
g72
(dp1007
sg81
g647
sg74
(lp1008
g67
(g88
g69
NtRp1009
(dp1010
g72
(dp1011
g92
g93
ssg81
g1005
sg74
(lp1012
S'is_jython'
p1013
asbag67
(g88
g69
NtRp1014
(dp1015
g72
(dp1016
g99
g100
ssg81
g1005
sg74
(lp1017
S':'
asbag67
(g88
g69
NtRp1018
(dp1019
g72
(dp1020
sg81
g1005
sg74
(lp1021
g67
(g68
g69
NtRp1022
(dp1023
g72
(dp1024
g80
I4
ssg81
g1018
sg74
(lp1025
g110
asbasbasbag67
(g83
g69
NtRp1026
(dp1027
g72
(dp1028
sg81
g647
sg74
(lp1029
g67
(g88
g69
NtRp1030
(dp1031
g72
(dp1032
g92
g93
ssg81
g1026
sg74
(lp1033
S'path_info'
p1034
asbag67
(g88
g69
NtRp1035
(dp1036
g72
(dp1037
g99
g100
ssg81
g1026
sg74
(lp1038
S':'
asbag67
(g88
g69
NtRp1039
(dp1040
g72
(dp1041
sg81
g1026
sg74
(lp1042
g67
(g68
g69
NtRp1043
(dp1044
g72
(dp1045
g80
I4
ssg81
g1039
sg74
(lp1046
S'/ddlagoon/default/index'
p1047
asbasbasbag67
(g83
g69
NtRp1048
(dp1049
g72
(dp1050
sg81
g647
sg74
(lp1051
g67
(g88
g69
NtRp1052
(dp1053
g72
(dp1054
g92
g93
ssg81
g1048
sg74
(lp1055
S'query_string'
p1056
asbag67
(g88
g69
NtRp1057
(dp1058
g72
(dp1059
g99
g100
ssg81
g1048
sg74
(lp1060
S':'
asbag67
(g88
g69
NtRp1061
(dp1062
g72
(dp1063
sg81
g1048
sg74
(lp1064
g67
(g68
g69
NtRp1065
(dp1066
g72
(dp1067
g80
I4
ssg81
g1061
sg74
(lp1068
S''
asbasbasbag67
(g83
g69
NtRp1069
(dp1070
g72
(dp1071
sg81
g647
sg74
(lp1072
g67
(g88
g69
NtRp1073
(dp1074
g72
(dp1075
g92
g93
ssg81
g1069
sg74
(lp1076
S'remote_addr'
p1077
asbag67
(g88
g69
NtRp1078
(dp1079
g72
(dp1080
g99
g100
ssg81
g1069
sg74
(lp1081
S':'
asbag67
(g88
g69
NtRp1082
(dp1083
g72
(dp1084
sg81
g1069
sg74
(lp1085
g67
(g68
g69
NtRp1086
(dp1087
g72
(dp1088
g80
I4
ssg81
g1082
sg74
(lp1089
g200
asbasbasbag67
(g83
g69
NtRp1090
(dp1091
g72
(dp1092
sg81
g647
sg74
(lp1093
g67
(g88
g69
NtRp1094
(dp1095
g72
(dp1096
g92
g93
ssg81
g1090
sg74
(lp1097
S'remote_port'
p1098
asbag67
(g88
g69
NtRp1099
(dp1100
g72
(dp1101
g99
g100
ssg81
g1090
sg74
(lp1102
S':'
asbag67
(g88
g69
NtRp1103
(dp1104
g72
(dp1105
sg81
g1090
sg74
(lp1106
g67
(g68
g69
NtRp1107
(dp1108
g72
(dp1109
g80
I4
ssg81
g1103
sg74
(lp1110
S'56915'
p1111
asbasbasbag67
(g83
g69
NtRp1112
(dp1113
g72
(dp1114
sg81
g647
sg74
(lp1115
g67
(g88
g69
NtRp1116
(dp1117
g72
(dp1118
g92
g93
ssg81
g1112
sg74
(lp1119
S'request_method'
p1120
asbag67
(g88
g69
NtRp1121
(dp1122
g72
(dp1123
g99
g100
ssg81
g1112
sg74
(lp1124
S':'
asbag67
(g88
g69
NtRp1125
(dp1126
g72
(dp1127
sg81
g1112
sg74
(lp1128
g67
(g68
g69
NtRp1129
(dp1130
g72
(dp1131
g80
I4
ssg81
g1125
sg74
(lp1132
S'GET'
p1133
asbasbasbag67
(g83
g69
NtRp1134
(dp1135
g72
(dp1136
sg81
g647
sg74
(lp1137
g67
(g88
g69
NtRp1138
(dp1139
g72
(dp1140
g92
g93
ssg81
g1134
sg74
(lp1141
S'request_uri'
p1142
asbag67
(g88
g69
NtRp1143
(dp1144
g72
(dp1145
g99
g100
ssg81
g1134
sg74
(lp1146
S':'
asbag67
(g88
g69
NtRp1147
(dp1148
g72
(dp1149
sg81
g1134
sg74
(lp1150
g67
(g68
g69
NtRp1151
(dp1152
g72
(dp1153
g80
I4
ssg81
g1147
sg74
(lp1154
g1047
asbasbasbag67
(g83
g69
NtRp1155
(dp1156
g72
(dp1157
sg81
g647
sg74
(lp1158
g67
(g88
g69
NtRp1159
(dp1160
g72
(dp1161
g92
g93
ssg81
g1155
sg74
(lp1162
S'script_name'
p1163
asbag67
(g88
g69
NtRp1164
(dp1165
g72
(dp1166
g99
g100
ssg81
g1155
sg74
(lp1167
S':'
asbag67
(g88
g69
NtRp1168
(dp1169
g72
(dp1170
sg81
g1155
sg74
(lp1171
g67
(g68
g69
NtRp1172
(dp1173
g72
(dp1174
g80
I4
ssg81
g1168
sg74
(lp1175
S''
asbasbasbag67
(g83
g69
NtRp1176
(dp1177
g72
(dp1178
sg81
g647
sg74
(lp1179
g67
(g88
g69
NtRp1180
(dp1181
g72
(dp1182
g92
g93
ssg81
g1176
sg74
(lp1183
S'server_name'
p1184
asbag67
(g88
g69
NtRp1185
(dp1186
g72
(dp1187
g99
g100
ssg81
g1176
sg74
(lp1188
S':'
asbag67
(g88
g69
NtRp1189
(dp1190
g72
(dp1191
sg81
g1176
sg74
(lp1192
g67
(g68
g69
NtRp1193
(dp1194
g72
(dp1195
g80
I4
ssg81
g1189
sg74
(lp1196
S'VPCF22AJ'
p1197
asbasbasbag67
(g83
g69
NtRp1198
(dp1199
g72
(dp1200
sg81
g647
sg74
(lp1201
g67
(g88
g69
NtRp1202
(dp1203
g72
(dp1204
g92
g93
ssg81
g1198
sg74
(lp1205
S'server_port'
p1206
asbag67
(g88
g69
NtRp1207
(dp1208
g72
(dp1209
g99
g100
ssg81
g1198
sg74
(lp1210
S':'
asbag67
(g88
g69
NtRp1211
(dp1212
g72
(dp1213
sg81
g1198
sg74
(lp1214
g67
(g68
g69
NtRp1215
(dp1216
g72
(dp1217
g80
I4
ssg81
g1211
sg74
(lp1218
S'8000'
p1219
asbasbasbag67
(g83
g69
NtRp1220
(dp1221
g72
(dp1222
sg81
g647
sg74
(lp1223
g67
(g88
g69
NtRp1224
(dp1225
g72
(dp1226
g92
g93
ssg81
g1220
sg74
(lp1227
S'server_protocol'
p1228
asbag67
(g88
g69
NtRp1229
(dp1230
g72
(dp1231
g99
g100
ssg81
g1220
sg74
(lp1232
S':'
asbag67
(g88
g69
NtRp1233
(dp1234
g72
(dp1235
sg81
g1220
sg74
(lp1236
g67
(g68
g69
NtRp1237
(dp1238
g72
(dp1239
g80
I4
ssg81
g1233
sg74
(lp1240
S'HTTP/1.1'
p1241
asbasbasbag67
(g83
g69
NtRp1242
(dp1243
g72
(dp1244
sg81
g647
sg74
(lp1245
g67
(g88
g69
NtRp1246
(dp1247
g72
(dp1248
g92
g93
ssg81
g1242
sg74
(lp1249
S'server_software'
p1250
asbag67
(g88
g69
NtRp1251
(dp1252
g72
(dp1253
g99
g100
ssg81
g1242
sg74
(lp1254
S':'
asbag67
(g88
g69
NtRp1255
(dp1256
g72
(dp1257
sg81
g1242
sg74
(lp1258
g67
(g68
g69
NtRp1259
(dp1260
g72
(dp1261
g80
I4
ssg81
g1255
sg74
(lp1262
S'Rocket 1.2.4'
p1263
asbasbasbag67
(g83
g69
NtRp1264
(dp1265
g72
(dp1266
sg81
g647
sg74
(lp1267
g67
(g88
g69
NtRp1268
(dp1269
g72
(dp1270
g92
g93
ssg81
g1264
sg74
(lp1271
S'web2py_crontype'
p1272
asbag67
(g88
g69
NtRp1273
(dp1274
g72
(dp1275
g99
g100
ssg81
g1264
sg74
(lp1276
S':'
asbag67
(g88
g69
NtRp1277
(dp1278
g72
(dp1279
sg81
g1264
sg74
(lp1280
g67
(g68
g69
NtRp1281
(dp1282
g72
(dp1283
g80
I4
ssg81
g1277
sg74
(lp1284
S'hard'
p1285
asbasbasbag67
(g83
g69
NtRp1286
(dp1287
g72
(dp1288
sg81
g647
sg74
(lp1289
g67
(g88
g69
NtRp1290
(dp1291
g72
(dp1292
g92
g93
ssg81
g1286
sg74
(lp1293
S'web2py_original_uri'
p1294
asbag67
(g88
g69
NtRp1295
(dp1296
g72
(dp1297
g99
g100
ssg81
g1286
sg74
(lp1298
S':'
asbag67
(g88
g69
NtRp1299
(dp1300
g72
(dp1301
sg81
g1286
sg74
(lp1302
g67
(g68
g69
NtRp1303
(dp1304
g72
(dp1305
g80
I4
ssg81
g1299
sg74
(lp1306
g1047
asbasbasbag67
(g83
g69
NtRp1307
(dp1308
g72
(dp1309
sg81
g647
sg74
(lp1310
g67
(g88
g69
NtRp1311
(dp1312
g72
(dp1313
g92
g93
ssg81
g1307
sg74
(lp1314
S'web2py_path'
p1315
asbag67
(g88
g69
NtRp1316
(dp1317
g72
(dp1318
g99
g100
ssg81
g1307
sg74
(lp1319
S':'
asbag67
(g88
g69
NtRp1320
(dp1321
g72
(dp1322
sg81
g1307
sg74
(lp1323
g67
(g68
g69
NtRp1324
(dp1325
g72
(dp1326
g80
I4
ssg81
g1320
sg74
(lp1327
g694
asbasbasbag67
(g83
g69
NtRp1328
(dp1329
g72
(dp1330
sg81
g647
sg74
(lp1331
g67
(g88
g69
NtRp1332
(dp1333
g72
(dp1334
g92
g93
ssg81
g1328
sg74
(lp1335
S'web2py_version'
p1336
asbag67
(g88
g69
NtRp1337
(dp1338
g72
(dp1339
g99
g100
ssg81
g1328
sg74
(lp1340
S':'
asbag67
(g88
g69
NtRp1341
(dp1342
g72
(dp1343
sg81
g1328
sg74
(lp1344
g67
(g68
g69
NtRp1345
(dp1346
g72
(dp1347
g80
I4
ssg81
g1341
sg74
(lp1348
g67
(g76
g69
NtRp1349
(dp1350
g72
(dp1351
g80
I3
ssg81
Nsg74
(lp1352
g67
(g83
g69
NtRp1353
(dp1354
g72
(dp1355
sg81
g1349
sg74
(lp1356
g67
(g88
g69
NtRp1357
(dp1358
g72
(dp1359
sg81
g1353
sg74
(lp1360
g67
(g68
g69
NtRp1361
(dp1362
g72
(dp1363
g80
I3
ssg81
g1357
sg74
(lp1364
S'1'
asbasbasbag67
(g83
g69
NtRp1365
(dp1366
g72
(dp1367
sg81
g1349
sg74
(lp1368
g67
(g88
g69
NtRp1369
(dp1370
g72
(dp1371
sg81
g1365
sg74
(lp1372
g67
(g68
g69
NtRp1373
(dp1374
g72
(dp1375
g80
I3
ssg81
g1369
sg74
(lp1376
S'99'
p1377
asbasbasbag67
(g83
g69
NtRp1378
(dp1379
g72
(dp1380
sg81
g1349
sg74
(lp1381
g67
(g88
g69
NtRp1382
(dp1383
g72
(dp1384
sg81
g1378
sg74
(lp1385
g67
(g68
g69
NtRp1386
(dp1387
g72
(dp1388
g80
I3
ssg81
g1382
sg74
(lp1389
S'2'
asbasbasbag67
(g83
g69
NtRp1390
(dp1391
g72
(dp1392
sg81
g1349
sg74
(lp1393
g67
(g88
g69
NtRp1394
(dp1395
g72
(dp1396
sg81
g1390
sg74
(lp1397
g67
(g68
g69
NtRp1398
(dp1399
g72
(dp1400
g80
I3
ssg81
g1394
sg74
(lp1401
S'datetime.datetime(2011, 9, 26, 6, 55, 33)'
p1402
asbasbasbag67
(g83
g69
NtRp1403
(dp1404
g72
(dp1405
sg81
g1349
sg74
(lp1406
g67
(g88
g69
NtRp1407
(dp1408
g72
(dp1409
sg81
g1403
sg74
(lp1410
g67
(g68
g69
NtRp1411
(dp1412
g72
(dp1413
g80
I3
ssg81
g1407
sg74
(lp1414
S'stable'
p1415
asbasbasbasbasbasbasbag67
(g83
g69
NtRp1416
(dp1417
g72
(dp1418
sg81
g647
sg74
(lp1419
g67
(g88
g69
NtRp1420
(dp1421
g72
(dp1422
g92
g93
ssg81
g1416
sg74
(lp1423
S'wsgi_errors'
p1424
asbag67
(g88
g69
NtRp1425
(dp1426
g72
(dp1427
g99
g100
ssg81
g1416
sg74
(lp1428
S':'
asbag67
(g88
g69
NtRp1429
(dp1430
g72
(dp1431
sg81
g1416
sg74
(lp1432
g67
(g68
g69
NtRp1433
(dp1434
g72
(dp1435
g80
I4
ssg81
g1429
sg74
(lp1436
S"<open file '<stderr>', mode 'w' at 0x7fa4afe891e0>"
p1437
asbasbasbag67
(g83
g69
NtRp1438
(dp1439
g72
(dp1440
sg81
g647
sg74
(lp1441
g67
(g88
g69
NtRp1442
(dp1443
g72
(dp1444
g92
g93
ssg81
g1438
sg74
(lp1445
S'wsgi_file_wrapper'
p1446
asbag67
(g88
g69
NtRp1447
(dp1448
g72
(dp1449
g99
g100
ssg81
g1438
sg74
(lp1450
S':'
asbag67
(g88
g69
NtRp1451
(dp1452
g72
(dp1453
sg81
g1438
sg74
(lp1454
g67
(g68
g69
NtRp1455
(dp1456
g72
(dp1457
g80
I4
ssg81
g1451
sg74
(lp1458
S'<class wsgiref.util.FileWrapper at 0x1bbf590>'
p1459
asbasbasbag67
(g83
g69
NtRp1460
(dp1461
g72
(dp1462
sg81
g647
sg74
(lp1463
g67
(g88
g69
NtRp1464
(dp1465
g72
(dp1466
g92
g93
ssg81
g1460
sg74
(lp1467
S'wsgi_input'
p1468
asbag67
(g88
g69
NtRp1469
(dp1470
g72
(dp1471
g99
g100
ssg81
g1460
sg74
(lp1472
S':'
asbag67
(g88
g69
NtRp1473
(dp1474
g72
(dp1475
sg81
g1460
sg74
(lp1476
g67
(g68
g69
NtRp1477
(dp1478
g72
(dp1479
g80
I4
ssg81
g1473
sg74
(lp1480
S'<socket._fileobject object at 0x1f2bdd0>'
p1481
asbasbasbag67
(g83
g69
NtRp1482
(dp1483
g72
(dp1484
sg81
g647
sg74
(lp1485
g67
(g88
g69
NtRp1486
(dp1487
g72
(dp1488
g92
g93
ssg81
g1482
sg74
(lp1489
S'wsgi_multiprocess'
p1490
asbag67
(g88
g69
NtRp1491
(dp1492
g72
(dp1493
g99
g100
ssg81
g1482
sg74
(lp1494
S':'
asbag67
(g88
g69
NtRp1495
(dp1496
g72
(dp1497
sg81
g1482
sg74
(lp1498
g67
(g68
g69
NtRp1499
(dp1500
g72
(dp1501
g80
I4
ssg81
g1495
sg74
(lp1502
g110
asbasbasbag67
(g83
g69
NtRp1503
(dp1504
g72
(dp1505
sg81
g647
sg74
(lp1506
g67
(g88
g69
NtRp1507
(dp1508
g72
(dp1509
g92
g93
ssg81
g1503
sg74
(lp1510
S'wsgi_multithread'
p1511
asbag67
(g88
g69
NtRp1512
(dp1513
g72
(dp1514
g99
g100
ssg81
g1503
sg74
(lp1515
S':'
asbag67
(g88
g69
NtRp1516
(dp1517
g72
(dp1518
sg81
g1503
sg74
(lp1519
g67
(g68
g69
NtRp1520
(dp1521
g72
(dp1522
g80
I4
ssg81
g1516
sg74
(lp1523
S'True'
p1524
asbasbasbag67
(g83
g69
NtRp1525
(dp1526
g72
(dp1527
sg81
g647
sg74
(lp1528
g67
(g88
g69
NtRp1529
(dp1530
g72
(dp1531
g92
g93
ssg81
g1525
sg74
(lp1532
S'wsgi_run_once'
p1533
asbag67
(g88
g69
NtRp1534
(dp1535
g72
(dp1536
g99
g100
ssg81
g1525
sg74
(lp1537
S':'
asbag67
(g88
g69
NtRp1538
(dp1539
g72
(dp1540
sg81
g1525
sg74
(lp1541
g67
(g68
g69
NtRp1542
(dp1543
g72
(dp1544
g80
I4
ssg81
g1538
sg74
(lp1545
g110
asbasbasbag67
(g83
g69
NtRp1546
(dp1547
g72
(dp1548
sg81
g647
sg74
(lp1549
g67
(g88
g69
NtRp1550
(dp1551
g72
(dp1552
g92
g93
ssg81
g1546
sg74
(lp1553
S'wsgi_url_scheme'
p1554
asbag67
(g88
g69
NtRp1555
(dp1556
g72
(dp1557
g99
g100
ssg81
g1546
sg74
(lp1558
S':'
asbag67
(g88
g69
NtRp1559
(dp1560
g72
(dp1561
sg81
g1546
sg74
(lp1562
g67
(g68
g69
NtRp1563
(dp1564
g72
(dp1565
g80
I4
ssg81
g1559
sg74
(lp1566
S'http'
p1567
asbasbasbag67
(g83
g69
NtRp1568
(dp1569
g72
(dp1570
sg81
g647
sg74
(lp1571
g67
(g88
g69
NtRp1572
(dp1573
g72
(dp1574
g92
g93
ssg81
g1568
sg74
(lp1575
S'wsgi_version'
p1576
asbag67
(g88
g69
NtRp1577
(dp1578
g72
(dp1579
g99
g100
ssg81
g1568
sg74
(lp1580
S':'
asbag67
(g88
g69
NtRp1581
(dp1582
g72
(dp1583
sg81
g1568
sg74
(lp1584
g67
(g68
g69
NtRp1585
(dp1586
g72
(dp1587
g80
I4
ssg81
g1581
sg74
(lp1588
g67
(g76
g69
NtRp1589
(dp1590
g72
(dp1591
g80
I3
ssg81
Nsg74
(lp1592
g67
(g83
g69
NtRp1593
(dp1594
g72
(dp1595
sg81
g1589
sg74
(lp1596
g67
(g88
g69
NtRp1597
(dp1598
g72
(dp1599
sg81
g1593
sg74
(lp1600
g67
(g68
g69
NtRp1601
(dp1602
g72
(dp1603
g80
I3
ssg81
g1597
sg74
(lp1604
S'1'
asbasbasbag67
(g83
g69
NtRp1605
(dp1606
g72
(dp1607
sg81
g1589
sg74
(lp1608
g67
(g88
g69
NtRp1609
(dp1610
g72
(dp1611
sg81
g1605
sg74
(lp1612
g67
(g68
g69
NtRp1613
(dp1614
g72
(dp1615
g80
I3
ssg81
g1609
sg74
(lp1616
S'0'
asbasbasbasbasbasbasbasbasbasbasbag67
(g83
g69
NtRp1617
(dp1618
g72
(dp1619
sg81
g77
sg74
(lp1620
g67
(g88
g69
NtRp1621
(dp1622
g72
(dp1623
g92
g93
ssg81
g1617
sg74
(lp1624
S'extension'
p1625
asbag67
(g88
g69
NtRp1626
(dp1627
g72
(dp1628
g99
g100
ssg81
g1617
sg74
(lp1629
S':'
asbag67
(g88
g69
NtRp1630
(dp1631
g72
(dp1632
sg81
g1617
sg74
(lp1633
g67
(g68
g69
NtRp1634
(dp1635
g72
(dp1636
g80
I5
ssg81
g1630
sg74
(lp1637
S'html'
p1638
asbasbasbag67
(g83
g69
NtRp1639
(dp1640
g72
(dp1641
sg81
g77
sg74
(lp1642
g67
(g88
g69
NtRp1643
(dp1644
g72
(dp1645
g92
g93
ssg81
g1639
sg74
(lp1646
S'folder'
p1647
asbag67
(g88
g69
NtRp1648
(dp1649
g72
(dp1650
g99
g100
ssg81
g1639
sg74
(lp1651
S':'
asbag67
(g88
g69
NtRp1652
(dp1653
g72
(dp1654
sg81
g1639
sg74
(lp1655
g67
(g68
g69
NtRp1656
(dp1657
g72
(dp1658
g80
I5
ssg81
g1652
sg74
(lp1659
S'/windows/Users/Thomas/Dropbox/appz/2011/GAE/ddl-lagoon/applications/ddlagoon/'
p1660
asbasbasbag67
(g83
g69
NtRp1661
(dp1662
g72
(dp1663
sg81
g77
sg74
(lp1664
g67
(g88
g69
NtRp1665
(dp1666
g72
(dp1667
g92
g93
ssg81
g1661
sg74
(lp1668
S'function'
p1669
asbag67
(g88
g69
NtRp1670
(dp1671
g72
(dp1672
g99
g100
ssg81
g1661
sg74
(lp1673
S':'
asbag67
(g88
g69
NtRp1674
(dp1675
g72
(dp1676
sg81
g1661
sg74
(lp1677
g67
(g68
g69
NtRp1678
(dp1679
g72
(dp1680
g80
I5
ssg81
g1674
sg74
(lp1681
S'index'
p1682
asbasbasbag67
(g83
g69
NtRp1683
(dp1684
g72
(dp1685
sg81
g77
sg74
(lp1686
g67
(g88
g69
NtRp1687
(dp1688
g72
(dp1689
g92
g93
ssg81
g1683
sg74
(lp1690
S'get_vars'
p1691
asbag67
(g88
g69
NtRp1692
(dp1693
g72
(dp1694
g99
g100
ssg81
g1683
sg74
(lp1695
S':'
asbag67
(g88
g69
NtRp1696
(dp1697
g72
(dp1698
sg81
g1683
sg74
(lp1699
g67
(g68
g69
NtRp1700
(dp1701
g72
(dp1702
g80
I5
ssg81
g1696
sg74
(lp1703
g67
(g76
g69
NtRp1704
(dp1705
g72
(dp1706
g80
I4
ssg81
Nsg74
(lp1707
sbasbasbasbag67
(g83
g69
NtRp1708
(dp1709
g72
(dp1710
sg81
g77
sg74
(lp1711
g67
(g88
g69
NtRp1712
(dp1713
g72
(dp1714
g92
g93
ssg81
g1708
sg74
(lp1715
S'global_settings'
p1716
asbag67
(g88
g69
NtRp1717
(dp1718
g72
(dp1719
g99
g100
ssg81
g1708
sg74
(lp1720
S':'
asbag67
(g88
g69
NtRp1721
(dp1722
g72
(dp1723
sg81
g1708
sg74
(lp1724
g67
(g68
g69
NtRp1725
(dp1726
g72
(dp1727
g80
I5
ssg81
g1721
sg74
(lp1728
g67
(g76
g69
NtRp1729
(dp1730
g72
(dp1731
g80
I4
ssg81
Nsg74
(lp1732
g67
(g83
g69
NtRp1733
(dp1734
g72
(dp1735
sg81
g1729
sg74
(lp1736
g67
(g88
g69
NtRp1737
(dp1738
g72
(dp1739
g92
g93
ssg81
g1733
sg74
(lp1740
g659
asbag67
(g88
g69
NtRp1741
(dp1742
g72
(dp1743
g99
g100
ssg81
g1733
sg74
(lp1744
S':'
asbag67
(g88
g69
NtRp1745
(dp1746
g72
(dp1747
sg81
g1733
sg74
(lp1748
g67
(g68
g69
NtRp1749
(dp1750
g72
(dp1751
g80
I4
ssg81
g1745
sg74
(lp1752
S"set(['/windows/Users/Thomas/Dropbox/appz/2011/GAE/ddl-lagoon/applications/ddlagoon/', '/windows/Users/Thomas/Dropbox/appz/2011/GAE/ddl-lagoon/applications/admin/'])"
p1753
asbasbasbag67
(g83
g69
NtRp1754
(dp1755
g72
(dp1756
sg81
g1729
sg74
(lp1757
g67
(g88
g69
NtRp1758
(dp1759
g72
(dp1760
g92
g93
ssg81
g1754
sg74
(lp1761
g681
asbag67
(g88
g69
NtRp1762
(dp1763
g72
(dp1764
g99
g100
ssg81
g1754
sg74
(lp1765
S':'
asbag67
(g88
g69
NtRp1766
(dp1767
g72
(dp1768
sg81
g1754
sg74
(lp1769
g67
(g68
g69
NtRp1770
(dp1771
g72
(dp1772
g80
I4
ssg81
g1766
sg74
(lp1773
g694
asbasbasbag67
(g83
g69
NtRp1774
(dp1775
g72
(dp1776
sg81
g1729
sg74
(lp1777
g67
(g88
g69
NtRp1778
(dp1779
g72
(dp1780
g92
g93
ssg81
g1774
sg74
(lp1781
g703
asbag67
(g88
g69
NtRp1782
(dp1783
g72
(dp1784
g99
g100
ssg81
g1774
sg74
(lp1785
S':'
asbag67
(g88
g69
NtRp1786
(dp1787
g72
(dp1788
sg81
g1774
sg74
(lp1789
g67
(g68
g69
NtRp1790
(dp1791
g72
(dp1792
g80
I4
ssg81
g1786
sg74
(lp1793
g67
(g76
g69
NtRp1794
(dp1795
g72
(dp1796
g80
I3
ssg81
Nsg74
(lp1797
sbasbasbasbag67
(g83
g69
NtRp1798
(dp1799
g72
(dp1800
sg81
g1729
sg74
(lp1801
g67
(g88
g69
NtRp1802
(dp1803
g72
(dp1804
g92
g93
ssg81
g1798
sg74
(lp1805
g728
asbag67
(g88
g69
NtRp1806
(dp1807
g72
(dp1808
g99
g100
ssg81
g1798
sg74
(lp1809
S':'
asbag67
(g88
g69
NtRp1810
(dp1811
g72
(dp1812
sg81
g1798
sg74
(lp1813
g67
(g68
g69
NtRp1814
(dp1815
g72
(dp1816
g80
I4
ssg81
g1810
sg74
(lp1817
S"<Values at 0x1e2b170: {'verbose': False, 'ip': '127.0.0.1', 'shutdown_timeout': 5, 'taskbar': False, 'nocron': False, 'pid_filename': 'httpserver.pid', 'maxthreads': None, 'softcron': False, 'server_name': 'VPCF22AJ', 'bpython': False, 'nogui': False, 'port': 8000, 'extcron': False, 'debuglevel': 30, 'test': None, 'folder': '/windows/Users/Thomas/Dropbox/appz/2011/GAE/ddl-lagoon', 'config': '', 'import_models': False, 'winservice': '', 'shell': None, 'run': '', 'log_filename': 'httpserver.log', 'args': [''], 'ssl_ca_certificate': None, 'scheduler': None, 'profiler_filename': None, 'ssl_private_key': '', 'password': 'admin', 'request_queue_size': 5, 'ssl_certificate': '', 'cronjob': False, 'plain': False, 'quiet': False, 'interfaces': None, 'minthreads': None, 'timeout': 10, 'numthreads': None, 'nobanner': False}>"
p1818
asbasbasbag67
(g83
g69
NtRp1819
(dp1820
g72
(dp1821
sg81
g1729
sg74
(lp1822
g67
(g88
g69
NtRp1823
(dp1824
g72
(dp1825
g92
g93
ssg81
g1819
sg74
(lp1826
g750
asbag67
(g88
g69
NtRp1827
(dp1828
g72
(dp1829
g99
g100
ssg81
g1819
sg74
(lp1830
S':'
asbag67
(g88
g69
NtRp1831
(dp1832
g72
(dp1833
sg81
g1819
sg74
(lp1834
g67
(g68
g69
NtRp1835
(dp1836
g72
(dp1837
g80
I4
ssg81
g1831
sg74
(lp1838
S'set([])'
p1839
asbasbasbag67
(g83
g69
NtRp1840
(dp1841
g72
(dp1842
sg81
g1729
sg74
(lp1843
g67
(g88
g69
NtRp1844
(dp1845
g72
(dp1846
g92
g93
ssg81
g1840
sg74
(lp1847
g772
asbag67
(g88
g69
NtRp1848
(dp1849
g72
(dp1850
g99
g100
ssg81
g1840
sg74
(lp1851
S':'
asbag67
(g88
g69
NtRp1852
(dp1853
g72
(dp1854
sg81
g1840
sg74
(lp1855
g67
(g68
g69
NtRp1856
(dp1857
g72
(dp1858
g80
I4
ssg81
g1852
sg74
(lp1859
g110
asbasbasbag67
(g83
g69
NtRp1860
(dp1861
g72
(dp1862
sg81
g1729
sg74
(lp1863
g67
(g88
g69
NtRp1864
(dp1865
g72
(dp1866
g92
g93
ssg81
g1860
sg74
(lp1867
g793
asbag67
(g88
g69
NtRp1868
(dp1869
g72
(dp1870
g99
g100
ssg81
g1860
sg74
(lp1871
S':'
asbag67
(g88
g69
NtRp1872
(dp1873
g72
(dp1874
sg81
g1860
sg74
(lp1875
g67
(g68
g69
NtRp1876
(dp1877
g72
(dp1878
g80
I4
ssg81
g1872
sg74
(lp1879
g806
asbasbasbag67
(g83
g69
NtRp1880
(dp1881
g72
(dp1882
sg81
g1729
sg74
(lp1883
g67
(g88
g69
NtRp1884
(dp1885
g72
(dp1886
g92
g93
ssg81
g1880
sg74
(lp1887
g1013
asbag67
(g88
g69
NtRp1888
(dp1889
g72
(dp1890
g99
g100
ssg81
g1880
sg74
(lp1891
S':'
asbag67
(g88
g69
NtRp1892
(dp1893
g72
(dp1894
sg81
g1880
sg74
(lp1895
g67
(g68
g69
NtRp1896
(dp1897
g72
(dp1898
g80
I4
ssg81
g1892
sg74
(lp1899
g110
asbasbasbag67
(g83
g69
NtRp1900
(dp1901
g72
(dp1902
sg81
g1729
sg74
(lp1903
g67
(g88
g69
NtRp1904
(dp1905
g72
(dp1906
g92
g93
ssg81
g1900
sg74
(lp1907
g1272
asbag67
(g88
g69
NtRp1908
(dp1909
g72
(dp1910
g99
g100
ssg81
g1900
sg74
(lp1911
S':'
asbag67
(g88
g69
NtRp1912
(dp1913
g72
(dp1914
sg81
g1900
sg74
(lp1915
g67
(g68
g69
NtRp1916
(dp1917
g72
(dp1918
g80
I4
ssg81
g1912
sg74
(lp1919
g1285
asbasbasbag67
(g83
g69
NtRp1920
(dp1921
g72
(dp1922
sg81
g1729
sg74
(lp1923
g67
(g88
g69
NtRp1924
(dp1925
g72
(dp1926
g92
g93
ssg81
g1920
sg74
(lp1927
g1336
asbag67
(g88
g69
NtRp1928
(dp1929
g72
(dp1930
g99
g100
ssg81
g1920
sg74
(lp1931
S':'
asbag67
(g88
g69
NtRp1932
(dp1933
g72
(dp1934
sg81
g1920
sg74
(lp1935
g67
(g68
g69
NtRp1936
(dp1937
g72
(dp1938
g80
I4
ssg81
g1932
sg74
(lp1939
g67
(g76
g69
NtRp1940
(dp1941
g72
(dp1942
g80
I3
ssg81
Nsg74
(lp1943
g67
(g83
g69
NtRp1944
(dp1945
g72
(dp1946
sg81
g1940
sg74
(lp1947
g67
(g88
g69
NtRp1948
(dp1949
g72
(dp1950
sg81
g1944
sg74
(lp1951
g67
(g68
g69
NtRp1952
(dp1953
g72
(dp1954
g80
I3
ssg81
g1948
sg74
(lp1955
S'1'
asbasbasbag67
(g83
g69
NtRp1956
(dp1957
g72
(dp1958
sg81
g1940
sg74
(lp1959
g67
(g88
g69
NtRp1960
(dp1961
g72
(dp1962
sg81
g1956
sg74
(lp1963
g67
(g68
g69
NtRp1964
(dp1965
g72
(dp1966
g80
I3
ssg81
g1960
sg74
(lp1967
S'99'
p1968
asbasbasbag67
(g83
g69
NtRp1969
(dp1970
g72
(dp1971
sg81
g1940
sg74
(lp1972
g67
(g88
g69
NtRp1973
(dp1974
g72
(dp1975
sg81
g1969
sg74
(lp1976
g67
(g68
g69
NtRp1977
(dp1978
g72
(dp1979
g80
I3
ssg81
g1973
sg74
(lp1980
S'2'
asbasbasbag67
(g83
g69
NtRp1981
(dp1982
g72
(dp1983
sg81
g1940
sg74
(lp1984
g67
(g88
g69
NtRp1985
(dp1986
g72
(dp1987
sg81
g1981
sg74
(lp1988
g67
(g68
g69
NtRp1989
(dp1990
g72
(dp1991
g80
I3
ssg81
g1985
sg74
(lp1992
S'datetime.datetime(2011, 9, 26, 6, 55, 33)'
p1993
asbasbasbag67
(g83
g69
NtRp1994
(dp1995
g72
(dp1996
sg81
g1940
sg74
(lp1997
g67
(g88
g69
NtRp1998
(dp1999
g72
(dp2000
sg81
g1994
sg74
(lp2001
g67
(g68
g69
NtRp2002
(dp2003
g72
(dp2004
g80
I3
ssg81
g1998
sg74
(lp2005
g1415
asbasbasbasbasbasbasbasbasbasbasbag67
(g83
g69
NtRp2006
(dp2007
g72
(dp2008
sg81
g77
sg74
(lp2009
g67
(g88
g69
NtRp2010
(dp2011
g72
(dp2012
g92
g93
ssg81
g2006
sg74
(lp2013
S'is_https'
p2014
asbag67
(g88
g69
NtRp2015
(dp2016
g72
(dp2017
g99
g100
ssg81
g2006
sg74
(lp2018
S':'
asbag67
(g88
g69
NtRp2019
(dp2020
g72
(dp2021
sg81
g2006
sg74
(lp2022
g67
(g68
g69
NtRp2023
(dp2024
g72
(dp2025
g80
I5
ssg81
g2019
sg74
(lp2026
g110
asbasbasbag67
(g83
g69
NtRp2027
(dp2028
g72
(dp2029
sg81
g77
sg74
(lp2030
g67
(g88
g69
NtRp2031
(dp2032
g72
(dp2033
g92
g93
ssg81
g2027
sg74
(lp2034
S'is_local'
p2035
asbag67
(g88
g69
NtRp2036
(dp2037
g72
(dp2038
g99
g100
ssg81
g2027
sg74
(lp2039
S':'
asbag67
(g88
g69
NtRp2040
(dp2041
g72
(dp2042
sg81
g2027
sg74
(lp2043
g67
(g68
g69
NtRp2044
(dp2045
g72
(dp2046
g80
I5
ssg81
g2040
sg74
(lp2047
g1524
asbasbasbag67
(g83
g69
NtRp2048
(dp2049
g72
(dp2050
sg81
g77
sg74
(lp2051
g67
(g88
g69
NtRp2052
(dp2053
g72
(dp2054
g92
g93
ssg81
g2048
sg74
(lp2055
S'is_restful'
p2056
asbag67
(g88
g69
NtRp2057
(dp2058
g72
(dp2059
g99
g100
ssg81
g2048
sg74
(lp2060
S':'
asbag67
(g88
g69
NtRp2061
(dp2062
g72
(dp2063
sg81
g2048
sg74
(lp2064
g67
(g68
g69
NtRp2065
(dp2066
g72
(dp2067
g80
I5
ssg81
g2061
sg74
(lp2068
g110
asbasbasbag67
(g83
g69
NtRp2069
(dp2070
g72
(dp2071
sg81
g77
sg74
(lp2072
g67
(g88
g69
NtRp2073
(dp2074
g72
(dp2075
g92
g93
ssg81
g2069
sg74
(lp2076
S'now'
p2077
asbag67
(g88
g69
NtRp2078
(dp2079
g72
(dp2080
g99
g100
ssg81
g2069
sg74
(lp2081
S':'
asbag67
(g88
g69
NtRp2082
(dp2083
g72
(dp2084
sg81
g2069
sg74
(lp2085
g67
(g68
g69
NtRp2086
(dp2087
g72
(dp2088
g80
I5
ssg81
g2082
sg74
(lp2089
S'datetime.datetime(2011, 10, 28, 19, 47, 14, 997824)'
p2090
asbasbasbag67
(g83
g69
NtRp2091
(dp2092
g72
(dp2093
sg81
g77
sg74
(lp2094
g67
(g88
g69
NtRp2095
(dp2096
g72
(dp2097
g92
g93
ssg81
g2091
sg74
(lp2098
S'post_vars'
p2099
asbag67
(g88
g69
NtRp2100
(dp2101
g72
(dp2102
g99
g100
ssg81
g2091
sg74
(lp2103
S':'
asbag67
(g88
g69
NtRp2104
(dp2105
g72
(dp2106
sg81
g2091
sg74
(lp2107
g67
(g68
g69
NtRp2108
(dp2109
g72
(dp2110
g80
I5
ssg81
g2104
sg74
(lp2111
g67
(g76
g69
NtRp2112
(dp2113
g72
(dp2114
g80
I4
ssg81
Nsg74
(lp2115
sbasbasbasbag67
(g83
g69
NtRp2116
(dp2117
g72
(dp2118
sg81
g77
sg74
(lp2119
g67
(g88
g69
NtRp2120
(dp2121
g72
(dp2122
g92
g93
ssg81
g2116
sg74
(lp2123
S'url'
p2124
asbag67
(g88
g69
NtRp2125
(dp2126
g72
(dp2127
g99
g100
ssg81
g2116
sg74
(lp2128
S':'
asbag67
(g88
g69
NtRp2129
(dp2130
g72
(dp2131
sg81
g2116
sg74
(lp2132
g67
(g68
g69
NtRp2133
(dp2134
g72
(dp2135
g80
I5
ssg81
g2129
sg74
(lp2136
S'/ddlagoon/default/index'
p2137
asbasbasbag67
(g83
g69
NtRp2138
(dp2139
g72
(dp2140
sg81
g77
sg74
(lp2141
g67
(g88
g69
NtRp2142
(dp2143
g72
(dp2144
g92
g93
ssg81
g2138
sg74
(lp2145
S'utcnow'
p2146
asbag67
(g88
g69
NtRp2147
(dp2148
g72
(dp2149
g99
g100
ssg81
g2138
sg74
(lp2150
S':'
asbag67
(g88
g69
NtRp2151
(dp2152
g72
(dp2153
sg81
g2138
sg74
(lp2154
g67
(g68
g69
NtRp2155
(dp2156
g72
(dp2157
g80
I5
ssg81
g2151
sg74
(lp2158
S'datetime.datetime(2011, 10, 28, 18, 47, 14, 997836)'
p2159
asbasbasbag67
(g83
g69
NtRp2160
(dp2161
g72
(dp2162
sg81
g77
sg74
(lp2163
g67
(g88
g69
NtRp2164
(dp2165
g72
(dp2166
g92
g93
ssg81
g2160
sg74
(lp2167
S'uuid'
p2168
asbag67
(g88
g69
NtRp2169
(dp2170
g72
(dp2171
g99
g100
ssg81
g2160
sg74
(lp2172
S':'
asbag67
(g88
g69
NtRp2173
(dp2174
g72
(dp2175
sg81
g2160
sg74
(lp2176
g67
(g68
g69
NtRp2177
(dp2178
g72
(dp2179
g80
I5
ssg81
g2173
sg74
(lp2180
S'ddlagoon/127.0.0.1.2011-10-28.19-47-14.a1a35cfb-bf27-447d-b13c-fa2966682fb1'
p2181
asbasbasbag67
(g83
g69
NtRp2182
(dp2183
g72
(dp2184
sg81
g77
sg74
(lp2185
g67
(g88
g69
NtRp2186
(dp2187
g72
(dp2188
g92
g93
ssg81
g2182
sg74
(lp2189
S'vars'
p2190
asbag67
(g88
g69
NtRp2191
(dp2192
g72
(dp2193
g99
g100
ssg81
g2182
sg74
(lp2194
S':'
asbag67
(g88
g69
NtRp2195
(dp2196
g72
(dp2197
sg81
g2182
sg74
(lp2198
g67
(g68
g69
NtRp2199
(dp2200
g72
(dp2201
g80
I5
ssg81
g2195
sg74
(lp2202
g67
(g76
g69
NtRp2203
(dp2204
g72
(dp2205
g80
I4
ssg81
Nsg74
(lp2206
sbasbasbasbag67
(g83
g69
NtRp2207
(dp2208
g72
(dp2209
sg81
g77
sg74
(lp2210
g67
(g88
g69
NtRp2211
(dp2212
g72
(dp2213
g92
g93
ssg81
g2207
sg74
(lp2214
S'wsgi'
p2215
asbag67
(g88
g69
NtRp2216
(dp2217
g72
(dp2218
g99
g100
ssg81
g2207
sg74
(lp2219
S':'
asbag67
(g88
g69
NtRp2220
(dp2221
g72
(dp2222
sg81
g2207
sg74
(lp2223
g67
(g68
g69
NtRp2224
(dp2225
g72
(dp2226
g80
I5
ssg81
g2220
sg74
(lp2227
g67
(g76
g69
NtRp2228
(dp2229
g72
(dp2230
g80
I4
ssg81
Nsg74
(lp2231
g67
(g83
g69
NtRp2232
(dp2233
g72
(dp2234
sg81
g2228
sg74
(lp2235
g67
(g88
g69
NtRp2236
(dp2237
g72
(dp2238
g92
g93
ssg81
g2232
sg74
(lp2239
S'environ'
p2240
asbag67
(g88
g69
NtRp2241
(dp2242
g72
(dp2243
g99
g100
ssg81
g2232
sg74
(lp2244
S':'
asbag67
(g88
g69
NtRp2245
(dp2246
g72
(dp2247
sg81
g2232
sg74
(lp2248
g67
(g68
g69
NtRp2249
(dp2250
g72
(dp2251
g80
I4
ssg81
g2245
sg74
(lp2252
g67
(g76
g69
NtRp2253
(dp2254
g72
(dp2255
g80
I3
ssg81
Nsg74
(lp2256
g67
(g83
g69
NtRp2257
(dp2258
g72
(dp2259
sg81
g2253
sg74
(lp2260
g67
(g88
g69
NtRp2261
(dp2262
g72
(dp2263
g92
g93
ssg81
g2257
sg74
(lp2264
S'HTTP_ACCEPT'
p2265
asbag67
(g88
g69
NtRp2266
(dp2267
g72
(dp2268
g99
g100
ssg81
g2257
sg74
(lp2269
S':'
asbag67
(g88
g69
NtRp2270
(dp2271
g72
(dp2272
sg81
g2257
sg74
(lp2273
g67
(g68
g69
NtRp2274
(dp2275
g72
(dp2276
g80
I3
ssg81
g2270
sg74
(lp2277
g828
asbasbasbag67
(g83
g69
NtRp2278
(dp2279
g72
(dp2280
sg81
g2253
sg74
(lp2281
g67
(g88
g69
NtRp2282
(dp2283
g72
(dp2284
g92
g93
ssg81
g2278
sg74
(lp2285
S'HTTP_ACCEPT_CHARSET'
p2286
asbag67
(g88
g69
NtRp2287
(dp2288
g72
(dp2289
g99
g100
ssg81
g2278
sg74
(lp2290
S':'
asbag67
(g88
g69
NtRp2291
(dp2292
g72
(dp2293
sg81
g2278
sg74
(lp2294
g67
(g68
g69
NtRp2295
(dp2296
g72
(dp2297
g80
I3
ssg81
g2291
sg74
(lp2298
g850
asbasbasbag67
(g83
g69
NtRp2299
(dp2300
g72
(dp2301
sg81
g2253
sg74
(lp2302
g67
(g88
g69
NtRp2303
(dp2304
g72
(dp2305
g92
g93
ssg81
g2299
sg74
(lp2306
S'HTTP_ACCEPT_ENCODING'
p2307
asbag67
(g88
g69
NtRp2308
(dp2309
g72
(dp2310
g99
g100
ssg81
g2299
sg74
(lp2311
S':'
asbag67
(g88
g69
NtRp2312
(dp2313
g72
(dp2314
sg81
g2299
sg74
(lp2315
g67
(g68
g69
NtRp2316
(dp2317
g72
(dp2318
g80
I3
ssg81
g2312
sg74
(lp2319
g872
asbasbasbag67
(g83
g69
NtRp2320
(dp2321
g72
(dp2322
sg81
g2253
sg74
(lp2323
g67
(g88
g69
NtRp2324
(dp2325
g72
(dp2326
g92
g93
ssg81
g2320
sg74
(lp2327
S'HTTP_ACCEPT_LANGUAGE'
p2328
asbag67
(g88
g69
NtRp2329
(dp2330
g72
(dp2331
g99
g100
ssg81
g2320
sg74
(lp2332
S':'
asbag67
(g88
g69
NtRp2333
(dp2334
g72
(dp2335
sg81
g2320
sg74
(lp2336
g67
(g68
g69
NtRp2337
(dp2338
g72
(dp2339
g80
I3
ssg81
g2333
sg74
(lp2340
g894
asbasbasbag67
(g83
g69
NtRp2341
(dp2342
g72
(dp2343
sg81
g2253
sg74
(lp2344
g67
(g88
g69
NtRp2345
(dp2346
g72
(dp2347
g92
g93
ssg81
g2341
sg74
(lp2348
S'HTTP_CACHE_CONTROL'
p2349
asbag67
(g88
g69
NtRp2350
(dp2351
g72
(dp2352
g99
g100
ssg81
g2341
sg74
(lp2353
S':'
asbag67
(g88
g69
NtRp2354
(dp2355
g72
(dp2356
sg81
g2341
sg74
(lp2357
g67
(g68
g69
NtRp2358
(dp2359
g72
(dp2360
g80
I3
ssg81
g2354
sg74
(lp2361
g916
asbasbasbag67
(g83
g69
NtRp2362
(dp2363
g72
(dp2364
sg81
g2253
sg74
(lp2365
g67
(g88
g69
NtRp2366
(dp2367
g72
(dp2368
g92
g93
ssg81
g2362
sg74
(lp2369
S'HTTP_CONNECTION'
p2370
asbag67
(g88
g69
NtRp2371
(dp2372
g72
(dp2373
g99
g100
ssg81
g2362
sg74
(lp2374
S':'
asbag67
(g88
g69
NtRp2375
(dp2376
g72
(dp2377
sg81
g2362
sg74
(lp2378
g67
(g68
g69
NtRp2379
(dp2380
g72
(dp2381
g80
I3
ssg81
g2375
sg74
(lp2382
g938
asbasbasbag67
(g83
g69
NtRp2383
(dp2384
g72
(dp2385
sg81
g2253
sg74
(lp2386
g67
(g88
g69
NtRp2387
(dp2388
g72
(dp2389
g92
g93
ssg81
g2383
sg74
(lp2390
S'HTTP_COOKIE'
p2391
asbag67
(g88
g69
NtRp2392
(dp2393
g72
(dp2394
g99
g100
ssg81
g2383
sg74
(lp2395
S':'
asbag67
(g88
g69
NtRp2396
(dp2397
g72
(dp2398
sg81
g2383
sg74
(lp2399
g67
(g68
g69
NtRp2400
(dp2401
g72
(dp2402
g80
I3
ssg81
g2396
sg74
(lp2403
g960
asbasbasbag67
(g83
g69
NtRp2404
(dp2405
g72
(dp2406
sg81
g2253
sg74
(lp2407
g67
(g88
g69
NtRp2408
(dp2409
g72
(dp2410
g92
g93
ssg81
g2404
sg74
(lp2411
S'HTTP_HOST'
p2412
asbag67
(g88
g69
NtRp2413
(dp2414
g72
(dp2415
g99
g100
ssg81
g2404
sg74
(lp2416
S':'
asbag67
(g88
g69
NtRp2417
(dp2418
g72
(dp2419
sg81
g2404
sg74
(lp2420
g67
(g68
g69
NtRp2421
(dp2422
g72
(dp2423
g80
I3
ssg81
g2417
sg74
(lp2424
g982
asbasbasbag67
(g83
g69
NtRp2425
(dp2426
g72
(dp2427
sg81
g2253
sg74
(lp2428
g67
(g88
g69
NtRp2429
(dp2430
g72
(dp2431
g92
g93
ssg81
g2425
sg74
(lp2432
S'HTTP_USER_AGENT'
p2433
asbag67
(g88
g69
NtRp2434
(dp2435
g72
(dp2436
g99
g100
ssg81
g2425
sg74
(lp2437
S':'
asbag67
(g88
g69
NtRp2438
(dp2439
g72
(dp2440
sg81
g2425
sg74
(lp2441
g67
(g68
g69
NtRp2442
(dp2443
g72
(dp2444
g80
I3
ssg81
g2438
sg74
(lp2445
g1004
asbasbasbag67
(g83
g69
NtRp2446
(dp2447
g72
(dp2448
sg81
g2253
sg74
(lp2449
g67
(g88
g69
NtRp2450
(dp2451
g72
(dp2452
g92
g93
ssg81
g2446
sg74
(lp2453
S'PATH_INFO'
p2454
asbag67
(g88
g69
NtRp2455
(dp2456
g72
(dp2457
g99
g100
ssg81
g2446
sg74
(lp2458
S':'
asbag67
(g88
g69
NtRp2459
(dp2460
g72
(dp2461
sg81
g2446
sg74
(lp2462
g67
(g68
g69
NtRp2463
(dp2464
g72
(dp2465
g80
I3
ssg81
g2459
sg74
(lp2466
g1047
asbasbasbag67
(g83
g69
NtRp2467
(dp2468
g72
(dp2469
sg81
g2253
sg74
(lp2470
g67
(g88
g69
NtRp2471
(dp2472
g72
(dp2473
g92
g93
ssg81
g2467
sg74
(lp2474
S'QUERY_STRING'
p2475
asbag67
(g88
g69
NtRp2476
(dp2477
g72
(dp2478
g99
g100
ssg81
g2467
sg74
(lp2479
S':'
asbag67
(g88
g69
NtRp2480
(dp2481
g72
(dp2482
sg81
g2467
sg74
(lp2483
g67
(g68
g69
NtRp2484
(dp2485
g72
(dp2486
g80
I3
ssg81
g2480
sg74
(lp2487
S''
asbasbasbag67
(g83
g69
NtRp2488
(dp2489
g72
(dp2490
sg81
g2253
sg74
(lp2491
g67
(g88
g69
NtRp2492
(dp2493
g72
(dp2494
g92
g93
ssg81
g2488
sg74
(lp2495
S'REMOTE_ADDR'
p2496
asbag67
(g88
g69
NtRp2497
(dp2498
g72
(dp2499
g99
g100
ssg81
g2488
sg74
(lp2500
S':'
asbag67
(g88
g69
NtRp2501
(dp2502
g72
(dp2503
sg81
g2488
sg74
(lp2504
g67
(g68
g69
NtRp2505
(dp2506
g72
(dp2507
g80
I3
ssg81
g2501
sg74
(lp2508
g200
asbasbasbag67
(g83
g69
NtRp2509
(dp2510
g72
(dp2511
sg81
g2253
sg74
(lp2512
g67
(g88
g69
NtRp2513
(dp2514
g72
(dp2515
g92
g93
ssg81
g2509
sg74
(lp2516
S'REMOTE_PORT'
p2517
asbag67
(g88
g69
NtRp2518
(dp2519
g72
(dp2520
g99
g100
ssg81
g2509
sg74
(lp2521
S':'
asbag67
(g88
g69
NtRp2522
(dp2523
g72
(dp2524
sg81
g2509
sg74
(lp2525
g67
(g68
g69
NtRp2526
(dp2527
g72
(dp2528
g80
I3
ssg81
g2522
sg74
(lp2529
g1111
asbasbasbag67
(g83
g69
NtRp2530
(dp2531
g72
(dp2532
sg81
g2253
sg74
(lp2533
g67
(g88
g69
NtRp2534
(dp2535
g72
(dp2536
g92
g93
ssg81
g2530
sg74
(lp2537
S'REQUEST_METHOD'
p2538
asbag67
(g88
g69
NtRp2539
(dp2540
g72
(dp2541
g99
g100
ssg81
g2530
sg74
(lp2542
S':'
asbag67
(g88
g69
NtRp2543
(dp2544
g72
(dp2545
sg81
g2530
sg74
(lp2546
g67
(g68
g69
NtRp2547
(dp2548
g72
(dp2549
g80
I3
ssg81
g2543
sg74
(lp2550
g1133
asbasbasbag67
(g83
g69
NtRp2551
(dp2552
g72
(dp2553
sg81
g2253
sg74
(lp2554
g67
(g88
g69
NtRp2555
(dp2556
g72
(dp2557
g92
g93
ssg81
g2551
sg74
(lp2558
S'REQUEST_URI'
p2559
asbag67
(g88
g69
NtRp2560
(dp2561
g72
(dp2562
g99
g100
ssg81
g2551
sg74
(lp2563
S':'
asbag67
(g88
g69
NtRp2564
(dp2565
g72
(dp2566
sg81
g2551
sg74
(lp2567
g67
(g68
g69
NtRp2568
(dp2569
g72
(dp2570
g80
I3
ssg81
g2564
sg74
(lp2571
g1047
asbasbasbag67
(g83
g69
NtRp2572
(dp2573
g72
(dp2574
sg81
g2253
sg74
(lp2575
g67
(g88
g69
NtRp2576
(dp2577
g72
(dp2578
g92
g93
ssg81
g2572
sg74
(lp2579
S'SCRIPT_NAME'
p2580
asbag67
(g88
g69
NtRp2581
(dp2582
g72
(dp2583
g99
g100
ssg81
g2572
sg74
(lp2584
S':'
asbag67
(g88
g69
NtRp2585
(dp2586
g72
(dp2587
sg81
g2572
sg74
(lp2588
g67
(g68
g69
NtRp2589
(dp2590
g72
(dp2591
g80
I3
ssg81
g2585
sg74
(lp2592
S''
asbasbasbag67
(g83
g69
NtRp2593
(dp2594
g72
(dp2595
sg81
g2253
sg74
(lp2596
g67
(g88
g69
NtRp2597
(dp2598
g72
(dp2599
g92
g93
ssg81
g2593
sg74
(lp2600
S'SERVER_NAME'
p2601
asbag67
(g88
g69
NtRp2602
(dp2603
g72
(dp2604
g99
g100
ssg81
g2593
sg74
(lp2605
S':'
asbag67
(g88
g69
NtRp2606
(dp2607
g72
(dp2608
sg81
g2593
sg74
(lp2609
g67
(g68
g69
NtRp2610
(dp2611
g72
(dp2612
g80
I3
ssg81
g2606
sg74
(lp2613
g1197
asbasbasbag67
(g83
g69
NtRp2614
(dp2615
g72
(dp2616
sg81
g2253
sg74
(lp2617
g67
(g88
g69
NtRp2618
(dp2619
g72
(dp2620
g92
g93
ssg81
g2614
sg74
(lp2621
S'SERVER_PORT'
p2622
asbag67
(g88
g69
NtRp2623
(dp2624
g72
(dp2625
g99
g100
ssg81
g2614
sg74
(lp2626
S':'
asbag67
(g88
g69
NtRp2627
(dp2628
g72
(dp2629
sg81
g2614
sg74
(lp2630
g67
(g68
g69
NtRp2631
(dp2632
g72
(dp2633
g80
I3
ssg81
g2627
sg74
(lp2634
g1219
asbasbasbag67
(g83
g69
NtRp2635
(dp2636
g72
(dp2637
sg81
g2253
sg74
(lp2638
g67
(g88
g69
NtRp2639
(dp2640
g72
(dp2641
g92
g93
ssg81
g2635
sg74
(lp2642
S'SERVER_PROTOCOL'
p2643
asbag67
(g88
g69
NtRp2644
(dp2645
g72
(dp2646
g99
g100
ssg81
g2635
sg74
(lp2647
S':'
asbag67
(g88
g69
NtRp2648
(dp2649
g72
(dp2650
sg81
g2635
sg74
(lp2651
g67
(g68
g69
NtRp2652
(dp2653
g72
(dp2654
g80
I3
ssg81
g2648
sg74
(lp2655
g1241
asbasbasbag67
(g83
g69
NtRp2656
(dp2657
g72
(dp2658
sg81
g2253
sg74
(lp2659
g67
(g88
g69
NtRp2660
(dp2661
g72
(dp2662
g92
g93
ssg81
g2656
sg74
(lp2663
S'SERVER_SOFTWARE'
p2664
asbag67
(g88
g69
NtRp2665
(dp2666
g72
(dp2667
g99
g100
ssg81
g2656
sg74
(lp2668
S':'
asbag67
(g88
g69
NtRp2669
(dp2670
g72
(dp2671
sg81
g2656
sg74
(lp2672
g67
(g68
g69
NtRp2673
(dp2674
g72
(dp2675
g80
I3
ssg81
g2669
sg74
(lp2676
g1263
asbasbasbag67
(g83
g69
NtRp2677
(dp2678
g72
(dp2679
sg81
g2253
sg74
(lp2680
g67
(g88
g69
NtRp2681
(dp2682
g72
(dp2683
g92
g93
ssg81
g2677
sg74
(lp2684
S'WEB2PY_ORIGINAL_URI'
p2685
asbag67
(g88
g69
NtRp2686
(dp2687
g72
(dp2688
g99
g100
ssg81
g2677
sg74
(lp2689
S':'
asbag67
(g88
g69
NtRp2690
(dp2691
g72
(dp2692
sg81
g2677
sg74
(lp2693
g67
(g68
g69
NtRp2694
(dp2695
g72
(dp2696
g80
I3
ssg81
g2690
sg74
(lp2697
g1047
asbasbasbag67
(g83
g69
NtRp2698
(dp2699
g72
(dp2700
sg81
g2253
sg74
(lp2701
g67
(g88
g69
NtRp2702
(dp2703
g72
(dp2704
g92
g93
ssg81
g2698
sg74
(lp2705
S'wsgi.errors'
p2706
asbag67
(g88
g69
NtRp2707
(dp2708
g72
(dp2709
g99
g100
ssg81
g2698
sg74
(lp2710
S':'
asbag67
(g88
g69
NtRp2711
(dp2712
g72
(dp2713
sg81
g2698
sg74
(lp2714
g67
(g68
g69
NtRp2715
(dp2716
g72
(dp2717
g80
I3
ssg81
g2711
sg74
(lp2718
S"<open file '<stderr>', mode 'w' at 0x7fa4afe891e0>"
p2719
asbasbasbag67
(g83
g69
NtRp2720
(dp2721
g72
(dp2722
sg81
g2253
sg74
(lp2723
g67
(g88
g69
NtRp2724
(dp2725
g72
(dp2726
g92
g93
ssg81
g2720
sg74
(lp2727
S'wsgi.file_wrapper'
p2728
asbag67
(g88
g69
NtRp2729
(dp2730
g72
(dp2731
g99
g100
ssg81
g2720
sg74
(lp2732
S':'
asbag67
(g88
g69
NtRp2733
(dp2734
g72
(dp2735
sg81
g2720
sg74
(lp2736
g67
(g68
g69
NtRp2737
(dp2738
g72
(dp2739
g80
I3
ssg81
g2733
sg74
(lp2740
S'<class wsgiref.util.FileWrapper at 0x1bbf590>'
p2741
asbasbasbag67
(g83
g69
NtRp2742
(dp2743
g72
(dp2744
sg81
g2253
sg74
(lp2745
g67
(g88
g69
NtRp2746
(dp2747
g72
(dp2748
g92
g93
ssg81
g2742
sg74
(lp2749
S'wsgi.input'
p2750
asbag67
(g88
g69
NtRp2751
(dp2752
g72
(dp2753
g99
g100
ssg81
g2742
sg74
(lp2754
S':'
asbag67
(g88
g69
NtRp2755
(dp2756
g72
(dp2757
sg81
g2742
sg74
(lp2758
g67
(g68
g69
NtRp2759
(dp2760
g72
(dp2761
g80
I3
ssg81
g2755
sg74
(lp2762
S'<cStringIO.StringO object at 0x2c29ce0>'
p2763
asbasbasbag67
(g83
g69
NtRp2764
(dp2765
g72
(dp2766
sg81
g2253
sg74
(lp2767
g67
(g88
g69
NtRp2768
(dp2769
g72
(dp2770
g92
g93
ssg81
g2764
sg74
(lp2771
S'wsgi.multiprocess'
p2772
asbag67
(g88
g69
NtRp2773
(dp2774
g72
(dp2775
g99
g100
ssg81
g2764
sg74
(lp2776
S':'
asbag67
(g88
g69
NtRp2777
(dp2778
g72
(dp2779
sg81
g2764
sg74
(lp2780
g67
(g68
g69
NtRp2781
(dp2782
g72
(dp2783
g80
I3
ssg81
g2777
sg74
(lp2784
g110
asbasbasbag67
(g83
g69
NtRp2785
(dp2786
g72
(dp2787
sg81
g2253
sg74
(lp2788
g67
(g88
g69
NtRp2789
(dp2790
g72
(dp2791
g92
g93
ssg81
g2785
sg74
(lp2792
S'wsgi.multithread'
p2793
asbag67
(g88
g69
NtRp2794
(dp2795
g72
(dp2796
g99
g100
ssg81
g2785
sg74
(lp2797
S':'
asbag67
(g88
g69
NtRp2798
(dp2799
g72
(dp2800
sg81
g2785
sg74
(lp2801
g67
(g68
g69
NtRp2802
(dp2803
g72
(dp2804
g80
I3
ssg81
g2798
sg74
(lp2805
g1524
asbasbasbag67
(g83
g69
NtRp2806
(dp2807
g72
(dp2808
sg81
g2253
sg74
(lp2809
g67
(g88
g69
NtRp2810
(dp2811
g72
(dp2812
g92
g93
ssg81
g2806
sg74
(lp2813
S'wsgi.run_once'
p2814
asbag67
(g88
g69
NtRp2815
(dp2816
g72
(dp2817
g99
g100
ssg81
g2806
sg74
(lp2818
S':'
asbag67
(g88
g69
NtRp2819
(dp2820
g72
(dp2821
sg81
g2806
sg74
(lp2822
g67
(g68
g69
NtRp2823
(dp2824
g72
(dp2825
g80
I3
ssg81
g2819
sg74
(lp2826
g110
asbasbasbag67
(g83
g69
NtRp2827
(dp2828
g72
(dp2829
sg81
g2253
sg74
(lp2830
g67
(g88
g69
NtRp2831
(dp2832
g72
(dp2833
g92
g93
ssg81
g2827
sg74
(lp2834
S'wsgi.url_scheme'
p2835
asbag67
(g88
g69
NtRp2836
(dp2837
g72
(dp2838
g99
g100
ssg81
g2827
sg74
(lp2839
S':'
asbag67
(g88
g69
NtRp2840
(dp2841
g72
(dp2842
sg81
g2827
sg74
(lp2843
g67
(g68
g69
NtRp2844
(dp2845
g72
(dp2846
g80
I3
ssg81
g2840
sg74
(lp2847
g1567
asbasbasbag67
(g83
g69
NtRp2848
(dp2849
g72
(dp2850
sg81
g2253
sg74
(lp2851
g67
(g88
g69
NtRp2852
(dp2853
g72
(dp2854
g92
g93
ssg81
g2848
sg74
(lp2855
S'wsgi.version'
p2856
asbag67
(g88
g69
NtRp2857
(dp2858
g72
(dp2859
g99
g100
ssg81
g2848
sg74
(lp2860
S':'
asbag67
(g88
g69
NtRp2861
(dp2862
g72
(dp2863
sg81
g2848
sg74
(lp2864
g67
(g68
g69
NtRp2865
(dp2866
g72
(dp2867
g80
I3
ssg81
g2861
sg74
(lp2868
S'1'
asbasbasbasbasbasbasbasbasbasbasbasbasbsS'frames'
p2869
(lp2870
(dp2871
S'file'
p2872
S'/windows/Users/Thomas/Dropbox/appz/2011/GAE/ddl-lagoon/gluon/restricted.py'
p2873
sS'dump'
p2874
(dp2875
S'code'
p2876
S"'# -*- coding: utf-8 -*-\\n# this file is released ...=linux64)\\nresponse._vars=response._caller(index)\\n'"
p2877
sS'layer'
p2878
S"'/windows/Users/Thomas/Dropbox/appz/2011/GAE/ddl-lagoon/applications/ddlagoon/controllers/default.py'"
p2879
sS'global compile2'
p2880
S'<function compile2>'
p2881
sS'ccode'
p2882
S'undefined'
p2883
ssS'lnum'
p2884
I193
sS'lines'
p2885
(dp2886
I192
S'        else:'
p2887
sI193
S'            ccode = compile2(code,layer)'
p2888
sI194
S'        exec ccode in environment'
p2889
sI195
S'    except HTTP:'
p2890
sI196
S'        raise'
p2891
sI197
S'    except Exception, error:'
p2892
sI188
S"    environment['__file__'] = layer"
p2893
sI189
S'    try:'
p2894
sI190
S'        if type(code) == types.CodeType:'
p2895
sI191
S'            ccode = code'
p2896
ssS'call'
p2897
S"(code='# -*- coding: utf-8 -*-\\n# this file is released ...=linux64)\\nresponse._vars=response._caller(index)\\n', environment={'A': <class 'gluon.html.A'>, 'Auth': <class 'gluon.tools.Auth'>, 'B': <class 'gluon.html.B'>, 'BEAUTIFY': <class 'gluon.html.BEAUTIFY'>, 'BODY': <class 'gluon.html.BODY'>, 'BR': <class 'gluon.html.BR'>, 'BUTTON': <class 'gluon.html.BUTTON'>, 'CAT': <class 'gluon.html.CAT'>, 'CENTER': <class 'gluon.html.CENTER'>, 'CLEANUP': <class 'gluon.validators.CLEANUP'>, ...}, layer='/windows/Users/Thomas/Dropbox/appz/2011/GAE/ddl-lagoon/applications/ddlagoon/controllers/default.py')"
p2898
sS'func'
p2899
S'restricted'
p2900
sa(dp2901
g2872
S'/windows/Users/Thomas/Dropbox/appz/2011/GAE/ddl-lagoon/gluon/restricted.py'
p2902
sg2874
(dp2903
S'builtincompile'
p2904
S'<built-in function compile>'
p2905
sS'code'
p2906
S"'# -*- coding: utf-8 -*-\\n# this file is released ...=linux64)\\nresponse._vars=response._caller(index)\\n'"
p2907
sS'code.rstrip'
p2908
S'<built-in method rstrip of str object>'
p2909
sS').replace'
p2910
g2883
sS'layer'
p2911
S"'/windows/Users/Thomas/Dropbox/appz/2011/GAE/ddl-lagoon/applications/ddlagoon/controllers/default.py'"
p2912
ssg2884
I179
sg2885
(dp2913
I174
S''
sI175
S'def compile2(code,layer):'
p2914
sI176
S'    """'
p2915
sI177
S"    The +'\\n' is necessary else compile fails when code ends in a comment."
p2916
sI178
S'    """'
p2917
sI179
S"    return compile(code.rstrip().replace('\\r\\n','\\n')+'\\n', layer, 'exec')"
p2918
sI180
S''
sI181
S"def restricted(code, environment=None, layer='Unknown'):"
p2919
sI182
S'    """'
p2920
sI183
S'    runs code in environment and returns the output. if an exception occurs'
p2921
ssg2897
S"(code='# -*- coding: utf-8 -*-\\n# this file is released ...=linux64)\\nresponse._vars=response._caller(index)\\n', layer='/windows/Users/Thomas/Dropbox/appz/2011/GAE/ddl-lagoon/applications/ddlagoon/controllers/default.py')"
p2922
sg2899
S'compile2'
p2923
sasS'pyver'
p2924
S'Python 2.6.7: /usr/bin/python2.6'
p2925
sS'session'
p2926
g67
(g68
g69
NtRp2927
(dp2928
g72
(dp2929
sg74
(lp2930
g67
(g76
g69
NtRp2931
(dp2932
g72
(dp2933
g80
I5
ssg81
Nsg74
(lp2934
sbasbsS'etype'
p2935
S"<type 'exceptions.SyntaxError'>"
p2936
sS'date'
p2937
S'Fri Oct 28 19:47:15 2011'
p2938
sS'response'
p2939
g67
(g68
g69
NtRp2940
(dp2941
g72
(dp2942
sg74
(lp2943
g67
(g76
g69
NtRp2944
(dp2945
g72
(dp2946
g80
I5
ssg81
Nsg74
(lp2947
g67
(g83
g69
NtRp2948
(dp2949
g72
(dp2950
sg81
g2944
sg74
(lp2951
g67
(g88
g69
NtRp2952
(dp2953
g72
(dp2954
g92
g93
ssg81
g2948
sg74
(lp2955
g165
asbag67
(g88
g69
NtRp2956
(dp2957
g72
(dp2958
g99
g100
ssg81
g2948
sg74
(lp2959
S':'
asbag67
(g88
g69
NtRp2960
(dp2961
g72
(dp2962
sg81
g2948
sg74
(lp2963
g67
(g68
g69
NtRp2964
(dp2965
g72
(dp2966
g80
I5
ssg81
g2960
sg74
(lp2967
S'<cStringIO.StringO object at 0x1f23bc8>'
p2968
asbasbasbag67
(g83
g69
NtRp2969
(dp2970
g72
(dp2971
sg81
g2944
sg74
(lp2972
g67
(g88
g69
NtRp2973
(dp2974
g72
(dp2975
g92
g93
ssg81
g2969
sg74
(lp2976
g231
asbag67
(g88
g69
NtRp2977
(dp2978
g72
(dp2979
g99
g100
ssg81
g2969
sg74
(lp2980
S':'
asbag67
(g88
g69
NtRp2981
(dp2982
g72
(dp2983
sg81
g2969
sg74
(lp2984
g67
(g68
g69
NtRp2985
(dp2986
g72
(dp2987
g80
I5
ssg81
g2981
sg74
(lp2988
g67
(g76
g69
NtRp2989
(dp2990
g72
(dp2991
g80
I4
ssg81
Nsg74
(lp2992
g67
(g83
g69
NtRp2993
(dp2994
g72
(dp2995
sg81
g2989
sg74
(lp2996
g67
(g88
g69
NtRp2997
(dp2998
g72
(dp2999
g92
g93
ssg81
g2993
sg74
(lp3000
S'session_id_ddlagoon'
p3001
asbag67
(g88
g69
NtRp3002
(dp3003
g72
(dp3004
g99
g100
ssg81
g2993
sg74
(lp3005
S':'
asbag67
(g88
g69
NtRp3006
(dp3007
g72
(dp3008
sg81
g2993
sg74
(lp3009
g67
(g68
g69
NtRp3010
(dp3011
g72
(dp3012
g80
I4
ssg81
g3006
sg74
(lp3013
g67
(g76
g69
NtRp3014
(dp3015
g72
(dp3016
g80
I3
ssg81
Nsg74
(lp3017
g67
(g83
g69
NtRp3018
(dp3019
g72
(dp3020
sg81
g3014
sg74
(lp3021
g67
(g88
g69
NtRp3022
(dp3023
g72
(dp3024
g92
g93
ssg81
g3018
sg74
(lp3025
g281
asbag67
(g88
g69
NtRp3026
(dp3027
g72
(dp3028
g99
g100
ssg81
g3018
sg74
(lp3029
S':'
asbag67
(g88
g69
NtRp3030
(dp3031
g72
(dp3032
sg81
g3018
sg74
(lp3033
g67
(g68
g69
NtRp3034
(dp3035
g72
(dp3036
g80
I3
ssg81
g3030
sg74
(lp3037
S''
asbasbasbag67
(g83
g69
NtRp3038
(dp3039
g72
(dp3040
sg81
g3014
sg74
(lp3041
g67
(g88
g69
NtRp3042
(dp3043
g72
(dp3044
g92
g93
ssg81
g3038
sg74
(lp3045
g302
asbag67
(g88
g69
NtRp3046
(dp3047
g72
(dp3048
g99
g100
ssg81
g3038
sg74
(lp3049
S':'
asbag67
(g88
g69
NtRp3050
(dp3051
g72
(dp3052
sg81
g3038
sg74
(lp3053
g67
(g68
g69
NtRp3054
(dp3055
g72
(dp3056
g80
I3
ssg81
g3050
sg74
(lp3057
S''
asbasbasbag67
(g83
g69
NtRp3058
(dp3059
g72
(dp3060
sg81
g3014
sg74
(lp3061
g67
(g88
g69
NtRp3062
(dp3063
g72
(dp3064
g92
g93
ssg81
g3058
sg74
(lp3065
g323
asbag67
(g88
g69
NtRp3066
(dp3067
g72
(dp3068
g99
g100
ssg81
g3058
sg74
(lp3069
S':'
asbag67
(g88
g69
NtRp3070
(dp3071
g72
(dp3072
sg81
g3058
sg74
(lp3073
g67
(g68
g69
NtRp3074
(dp3075
g72
(dp3076
g80
I3
ssg81
g3070
sg74
(lp3077
S''
asbasbasbag67
(g83
g69
NtRp3078
(dp3079
g72
(dp3080
sg81
g3014
sg74
(lp3081
g67
(g88
g69
NtRp3082
(dp3083
g72
(dp3084
g92
g93
ssg81
g3078
sg74
(lp3085
g344
asbag67
(g88
g69
NtRp3086
(dp3087
g72
(dp3088
g99
g100
ssg81
g3078
sg74
(lp3089
S':'
asbag67
(g88
g69
NtRp3090
(dp3091
g72
(dp3092
sg81
g3078
sg74
(lp3093
g67
(g68
g69
NtRp3094
(dp3095
g72
(dp3096
g80
I3
ssg81
g3090
sg74
(lp3097
S''
asbasbasbag67
(g83
g69
NtRp3098
(dp3099
g72
(dp3100
sg81
g3014
sg74
(lp3101
g67
(g88
g69
NtRp3102
(dp3103
g72
(dp3104
g92
g93
ssg81
g3098
sg74
(lp3105
g365
asbag67
(g88
g69
NtRp3106
(dp3107
g72
(dp3108
g99
g100
ssg81
g3098
sg74
(lp3109
S':'
asbag67
(g88
g69
NtRp3110
(dp3111
g72
(dp3112
sg81
g3098
sg74
(lp3113
g67
(g68
g69
NtRp3114
(dp3115
g72
(dp3116
g80
I3
ssg81
g3110
sg74
(lp3117
S''
asbasbasbag67
(g83
g69
NtRp3118
(dp3119
g72
(dp3120
sg81
g3014
sg74
(lp3121
g67
(g88
g69
NtRp3122
(dp3123
g72
(dp3124
g92
g93
ssg81
g3118
sg74
(lp3125
g386
asbag67
(g88
g69
NtRp3126
(dp3127
g72
(dp3128
g99
g100
ssg81
g3118
sg74
(lp3129
S':'
asbag67
(g88
g69
NtRp3130
(dp3131
g72
(dp3132
sg81
g3118
sg74
(lp3133
g67
(g68
g69
NtRp3134
(dp3135
g72
(dp3136
g80
I3
ssg81
g3130
sg74
(lp3137
S'/'
asbasbasbag67
(g83
g69
NtRp3138
(dp3139
g72
(dp3140
sg81
g3014
sg74
(lp3141
g67
(g88
g69
NtRp3142
(dp3143
g72
(dp3144
g92
g93
ssg81
g3138
sg74
(lp3145
g407
asbag67
(g88
g69
NtRp3146
(dp3147
g72
(dp3148
g99
g100
ssg81
g3138
sg74
(lp3149
S':'
asbag67
(g88
g69
NtRp3150
(dp3151
g72
(dp3152
sg81
g3138
sg74
(lp3153
g67
(g68
g69
NtRp3154
(dp3155
g72
(dp3156
g80
I3
ssg81
g3150
sg74
(lp3157
S''
asbasbasbag67
(g83
g69
NtRp3158
(dp3159
g72
(dp3160
sg81
g3014
sg74
(lp3161
g67
(g88
g69
NtRp3162
(dp3163
g72
(dp3164
g92
g93
ssg81
g3158
sg74
(lp3165
g428
asbag67
(g88
g69
NtRp3166
(dp3167
g72
(dp3168
g99
g100
ssg81
g3158
sg74
(lp3169
S':'
asbag67
(g88
g69
NtRp3170
(dp3171
g72
(dp3172
sg81
g3158
sg74
(lp3173
g67
(g68
g69
NtRp3174
(dp3175
g72
(dp3176
g80
I3
ssg81
g3170
sg74
(lp3177
S''
asbasbasbasbasbasbasbasbasbasbasbag67
(g83
g69
NtRp3178
(dp3179
g72
(dp3180
sg81
g2944
sg74
(lp3181
g67
(g88
g69
NtRp3182
(dp3183
g72
(dp3184
g92
g93
ssg81
g3178
sg74
(lp3185
S'files'
p3186
asbag67
(g88
g69
NtRp3187
(dp3188
g72
(dp3189
g99
g100
ssg81
g3178
sg74
(lp3190
S':'
asbag67
(g88
g69
NtRp3191
(dp3192
g72
(dp3193
sg81
g3178
sg74
(lp3194
g67
(g68
g69
NtRp3195
(dp3196
g72
(dp3197
g80
I5
ssg81
g3191
sg74
(lp3198
g67
(g76
g69
NtRp3199
(dp3200
g72
(dp3201
g80
I4
ssg81
Nsg74
(lp3202
sbasbasbasbag67
(g83
g69
NtRp3203
(dp3204
g72
(dp3205
sg81
g2944
sg74
(lp3206
g67
(g88
g69
NtRp3207
(dp3208
g72
(dp3209
g92
g93
ssg81
g3203
sg74
(lp3210
S'flash'
p3211
asbag67
(g88
g69
NtRp3212
(dp3213
g72
(dp3214
g99
g100
ssg81
g3203
sg74
(lp3215
S':'
asbag67
(g88
g69
NtRp3216
(dp3217
g72
(dp3218
sg81
g3203
sg74
(lp3219
g67
(g68
g69
NtRp3220
(dp3221
g72
(dp3222
g80
I5
ssg81
g3216
sg74
(lp3223
S''
asbasbasbag67
(g83
g69
NtRp3224
(dp3225
g72
(dp3226
sg81
g2944
sg74
(lp3227
g67
(g88
g69
NtRp3228
(dp3229
g72
(dp3230
g92
g93
ssg81
g3224
sg74
(lp3231
S'generic_patterns'
p3232
asbag67
(g88
g69
NtRp3233
(dp3234
g72
(dp3235
g99
g100
ssg81
g3224
sg74
(lp3236
S':'
asbag67
(g88
g69
NtRp3237
(dp3238
g72
(dp3239
sg81
g3224
sg74
(lp3240
g67
(g68
g69
NtRp3241
(dp3242
g72
(dp3243
g80
I5
ssg81
g3237
sg74
(lp3244
g67
(g76
g69
NtRp3245
(dp3246
g72
(dp3247
g80
I4
ssg81
Nsg74
(lp3248
g67
(g83
g69
NtRp3249
(dp3250
g72
(dp3251
sg81
g3245
sg74
(lp3252
g67
(g88
g69
NtRp3253
(dp3254
g72
(dp3255
sg81
g3249
sg74
(lp3256
g67
(g68
g69
NtRp3257
(dp3258
g72
(dp3259
g80
I4
ssg81
g3253
sg74
(lp3260
S'*'
asbasbasbasbasbasbasbag67
(g83
g69
NtRp3261
(dp3262
g72
(dp3263
sg81
g2944
sg74
(lp3264
g67
(g88
g69
NtRp3265
(dp3266
g72
(dp3267
g92
g93
ssg81
g3261
sg74
(lp3268
S'headers'
p3269
asbag67
(g88
g69
NtRp3270
(dp3271
g72
(dp3272
g99
g100
ssg81
g3261
sg74
(lp3273
S':'
asbag67
(g88
g69
NtRp3274
(dp3275
g72
(dp3276
sg81
g3261
sg74
(lp3277
g67
(g68
g69
NtRp3278
(dp3279
g72
(dp3280
g80
I5
ssg81
g3274
sg74
(lp3281
g67
(g76
g69
NtRp3282
(dp3283
g72
(dp3284
g80
I4
ssg81
Nsg74
(lp3285
g67
(g83
g69
NtRp3286
(dp3287
g72
(dp3288
sg81
g3282
sg74
(lp3289
g67
(g88
g69
NtRp3290
(dp3291
g72
(dp3292
g92
g93
ssg81
g3286
sg74
(lp3293
S'Cache-Control'
p3294
asbag67
(g88
g69
NtRp3295
(dp3296
g72
(dp3297
g99
g100
ssg81
g3286
sg74
(lp3298
S':'
asbag67
(g88
g69
NtRp3299
(dp3300
g72
(dp3301
sg81
g3286
sg74
(lp3302
g67
(g68
g69
NtRp3303
(dp3304
g72
(dp3305
g80
I4
ssg81
g3299
sg74
(lp3306
S'no-store, no-cache, must-revalidate, post-check=0, pre-check=0'
p3307
asbasbasbag67
(g83
g69
NtRp3308
(dp3309
g72
(dp3310
sg81
g3282
sg74
(lp3311
g67
(g88
g69
NtRp3312
(dp3313
g72
(dp3314
g92
g93
ssg81
g3308
sg74
(lp3315
S'Content-Type'
p3316
asbag67
(g88
g69
NtRp3317
(dp3318
g72
(dp3319
g99
g100
ssg81
g3308
sg74
(lp3320
S':'
asbag67
(g88
g69
NtRp3321
(dp3322
g72
(dp3323
sg81
g3308
sg74
(lp3324
g67
(g68
g69
NtRp3325
(dp3326
g72
(dp3327
g80
I4
ssg81
g3321
sg74
(lp3328
S'text/html; charset=utf-8'
p3329
asbasbasbag67
(g83
g69
NtRp3330
(dp3331
g72
(dp3332
sg81
g3282
sg74
(lp3333
g67
(g88
g69
NtRp3334
(dp3335
g72
(dp3336
g92
g93
ssg81
g3330
sg74
(lp3337
S'Expires'
p3338
asbag67
(g88
g69
NtRp3339
(dp3340
g72
(dp3341
g99
g100
ssg81
g3330
sg74
(lp3342
S':'
asbag67
(g88
g69
NtRp3343
(dp3344
g72
(dp3345
sg81
g3330
sg74
(lp3346
g67
(g68
g69
NtRp3347
(dp3348
g72
(dp3349
g80
I4
ssg81
g3343
sg74
(lp3350
S'Fri, 28 Oct 2011 18:47:14 GMT'
p3351
asbasbasbag67
(g83
g69
NtRp3352
(dp3353
g72
(dp3354
sg81
g3282
sg74
(lp3355
g67
(g88
g69
NtRp3356
(dp3357
g72
(dp3358
g92
g93
ssg81
g3352
sg74
(lp3359
S'Pragma'
p3360
asbag67
(g88
g69
NtRp3361
(dp3362
g72
(dp3363
g99
g100
ssg81
g3352
sg74
(lp3364
S':'
asbag67
(g88
g69
NtRp3365
(dp3366
g72
(dp3367
sg81
g3352
sg74
(lp3368
g67
(g68
g69
NtRp3369
(dp3370
g72
(dp3371
g80
I4
ssg81
g3365
sg74
(lp3372
S'no-cache'
p3373
asbasbasbag67
(g83
g69
NtRp3374
(dp3375
g72
(dp3376
sg81
g3282
sg74
(lp3377
g67
(g88
g69
NtRp3378
(dp3379
g72
(dp3380
g92
g93
ssg81
g3374
sg74
(lp3381
S'X-Powered-By'
p3382
asbag67
(g88
g69
NtRp3383
(dp3384
g72
(dp3385
g99
g100
ssg81
g3374
sg74
(lp3386
S':'
asbag67
(g88
g69
NtRp3387
(dp3388
g72
(dp3389
sg81
g3374
sg74
(lp3390
g67
(g68
g69
NtRp3391
(dp3392
g72
(dp3393
g80
I4
ssg81
g3387
sg74
(lp3394
S'web2py'
p3395
asbasbasbasbasbasbasbag67
(g83
g69
NtRp3396
(dp3397
g72
(dp3398
sg81
g2944
sg74
(lp3399
g67
(g88
g69
NtRp3400
(dp3401
g72
(dp3402
g92
g93
ssg81
g3396
sg74
(lp3403
S'menu'
p3404
asbag67
(g88
g69
NtRp3405
(dp3406
g72
(dp3407
g99
g100
ssg81
g3396
sg74
(lp3408
S':'
asbag67
(g88
g69
NtRp3409
(dp3410
g72
(dp3411
sg81
g3396
sg74
(lp3412
g67
(g68
g69
NtRp3413
(dp3414
g72
(dp3415
g80
I5
ssg81
g3409
sg74
(lp3416
g67
(g76
g69
NtRp3417
(dp3418
g72
(dp3419
g80
I4
ssg81
Nsg74
(lp3420
g67
(g83
g69
NtRp3421
(dp3422
g72
(dp3423
sg81
g3417
sg74
(lp3424
g67
(g88
g69
NtRp3425
(dp3426
g72
(dp3427
sg81
g3421
sg74
(lp3428
g67
(g68
g69
NtRp3429
(dp3430
g72
(dp3431
g80
I4
ssg81
g3425
sg74
(lp3432
g67
(g76
g69
NtRp3433
(dp3434
g72
(dp3435
g80
I3
ssg81
Nsg74
(lp3436
g67
(g83
g69
NtRp3437
(dp3438
g72
(dp3439
sg81
g3433
sg74
(lp3440
g67
(g88
g69
NtRp3441
(dp3442
g72
(dp3443
sg81
g3437
sg74
(lp3444
g67
(g68
g69
NtRp3445
(dp3446
g72
(dp3447
g80
I3
ssg81
g3441
sg74
(lp3448
cgluon.languages
lazyT_unpickle
p3449
(S's\x04\x00\x00\x00Home'
tRp3450
asbasbasbag67
(g83
g69
NtRp3451
(dp3452
g72
(dp3453
sg81
g3433
sg74
(lp3454
g67
(g88
g69
NtRp3455
(dp3456
g72
(dp3457
sg81
g3451
sg74
(lp3458
g67
(g68
g69
NtRp3459
(dp3460
g72
(dp3461
g80
I3
ssg81
g3455
sg74
(lp3462
g110
asbasbasbag67
(g83
g69
NtRp3463
(dp3464
g72
(dp3465
sg81
g3433
sg74
(lp3466
g67
(g88
g69
NtRp3467
(dp3468
g72
(dp3469
sg81
g3463
sg74
(lp3470
g67
(g68
g69
NtRp3471
(dp3472
g72
(dp3473
g80
I3
ssg81
g3467
sg74
(lp3474
S'/ddlagoon/default/index'
p3475
asbasbasbag67
(g83
g69
NtRp3476
(dp3477
g72
(dp3478
sg81
g3433
sg74
(lp3479
g67
(g88
g69
NtRp3480
(dp3481
g72
(dp3482
sg81
g3476
sg74
(lp3483
g67
(g68
g69
NtRp3484
(dp3485
g72
(dp3486
g80
I3
ssg81
g3480
sg74
(lp3487
g67
(g76
g69
NtRp3488
(dp3489
g72
(dp3490
g80
I2
ssg81
Nsg74
(lp3491
sbasbasbasbasbasbasbasbag67
(g83
g69
NtRp3492
(dp3493
g72
(dp3494
sg81
g3417
sg74
(lp3495
g67
(g88
g69
NtRp3496
(dp3497
g72
(dp3498
sg81
g3492
sg74
(lp3499
g67
(g68
g69
NtRp3500
(dp3501
g72
(dp3502
g80
I4
ssg81
g3496
sg74
(lp3503
g67
(g76
g69
NtRp3504
(dp3505
g72
(dp3506
g80
I3
ssg81
Nsg74
(lp3507
g67
(g83
g69
NtRp3508
(dp3509
g72
(dp3510
sg81
g3504
sg74
(lp3511
g67
(g88
g69
NtRp3512
(dp3513
g72
(dp3514
sg81
g3508
sg74
(lp3515
g67
(g68
g69
NtRp3516
(dp3517
g72
(dp3518
g80
I3
ssg81
g3512
sg74
(lp3519
g3449
(S's\x08\x00\x00\x00This App'
tRp3520
asbasbasbag67
(g83
g69
NtRp3521
(dp3522
g72
(dp3523
sg81
g3504
sg74
(lp3524
g67
(g88
g69
NtRp3525
(dp3526
g72
(dp3527
sg81
g3521
sg74
(lp3528
g67
(g68
g69
NtRp3529
(dp3530
g72
(dp3531
g80
I3
ssg81
g3525
sg74
(lp3532
g110
asbasbasbag67
(g83
g69
NtRp3533
(dp3534
g72
(dp3535
sg81
g3504
sg74
(lp3536
g67
(g88
g69
NtRp3537
(dp3538
g72
(dp3539
sg81
g3533
sg74
(lp3540
g67
(g68
g69
NtRp3541
(dp3542
g72
(dp3543
g80
I3
ssg81
g3537
sg74
(lp3544
S'/admin/default/design/ddlagoon'
p3545
asbasbasbag67
(g83
g69
NtRp3546
(dp3547
g72
(dp3548
sg81
g3504
sg74
(lp3549
g67
(g88
g69
NtRp3550
(dp3551
g72
(dp3552
sg81
g3546
sg74
(lp3553
g67
(g68
g69
NtRp3554
(dp3555
g72
(dp3556
g80
I3
ssg81
g3550
sg74
(lp3557
g67
(g76
g69
NtRp3558
(dp3559
g72
(dp3560
g80
I2
ssg81
Nsg74
(lp3561
g67
(g83
g69
NtRp3562
(dp3563
g72
(dp3564
sg81
g3558
sg74
(lp3565
g67
(g88
g69
NtRp3566
(dp3567
g72
(dp3568
sg81
g3562
sg74
(lp3569
g67
(g68
g69
NtRp3570
(dp3571
g72
(dp3572
g80
I2
ssg81
g3566
sg74
(lp3573
g67
(g76
g69
NtRp3574
(dp3575
g72
(dp3576
g80
I1
ssg81
Nsg74
(lp3577
g67
(g83
g69
NtRp3578
(dp3579
g72
(dp3580
sg81
g3574
sg74
(lp3581
g67
(g88
g69
NtRp3582
(dp3583
g72
(dp3584
sg81
g3578
sg74
(lp3585
g67
(g68
g69
NtRp3586
(dp3587
g72
(dp3588
g80
I1
ssg81
g3582
sg74
(lp3589
g3449
(S's\n\x00\x00\x00Controller'
tRp3590
asbasbasbag67
(g83
g69
NtRp3591
(dp3592
g72
(dp3593
sg81
g3574
sg74
(lp3594
g67
(g88
g69
NtRp3595
(dp3596
g72
(dp3597
sg81
g3591
sg74
(lp3598
g67
(g68
g69
NtRp3599
(dp3600
g72
(dp3601
g80
I1
ssg81
g3595
sg74
(lp3602
I00
asbasbasbag67
(g83
g69
NtRp3603
(dp3604
g72
(dp3605
sg81
g3574
sg74
(lp3606
g67
(g88
g69
NtRp3607
(dp3608
g72
(dp3609
sg81
g3603
sg74
(lp3610
g67
(g68
g69
NtRp3611
(dp3612
g72
(dp3613
g80
I1
ssg81
g3607
sg74
(lp3614
S'/admin/default/edit/ddlagoon/controllers/default.py'
p3615
asbasbasbasbasbasbasbag67
(g83
g69
NtRp3616
(dp3617
g72
(dp3618
sg81
g3558
sg74
(lp3619
g67
(g88
g69
NtRp3620
(dp3621
g72
(dp3622
sg81
g3616
sg74
(lp3623
g67
(g68
g69
NtRp3624
(dp3625
g72
(dp3626
g80
I2
ssg81
g3620
sg74
(lp3627
g67
(g76
g69
NtRp3628
(dp3629
g72
(dp3630
g80
I1
ssg81
Nsg74
(lp3631
g67
(g83
g69
NtRp3632
(dp3633
g72
(dp3634
sg81
g3628
sg74
(lp3635
g67
(g88
g69
NtRp3636
(dp3637
g72
(dp3638
sg81
g3632
sg74
(lp3639
g67
(g68
g69
NtRp3640
(dp3641
g72
(dp3642
g80
I1
ssg81
g3636
sg74
(lp3643
g3449
(S's\x04\x00\x00\x00View'
tRp3644
asbasbasbag67
(g83
g69
NtRp3645
(dp3646
g72
(dp3647
sg81
g3628
sg74
(lp3648
g67
(g88
g69
NtRp3649
(dp3650
g72
(dp3651
sg81
g3645
sg74
(lp3652
g67
(g68
g69
NtRp3653
(dp3654
g72
(dp3655
g80
I1
ssg81
g3649
sg74
(lp3656
I00
asbasbasbag67
(g83
g69
NtRp3657
(dp3658
g72
(dp3659
sg81
g3628
sg74
(lp3660
g67
(g88
g69
NtRp3661
(dp3662
g72
(dp3663
sg81
g3657
sg74
(lp3664
g67
(g68
g69
NtRp3665
(dp3666
g72
(dp3667
g80
I1
ssg81
g3661
sg74
(lp3668
S'/admin/default/edit/ddlagoon/views/default/index.html'
p3669
asbasbasbasbasbasbasbag67
(g83
g69
NtRp3670
(dp3671
g72
(dp3672
sg81
g3558
sg74
(lp3673
g67
(g88
g69
NtRp3674
(dp3675
g72
(dp3676
sg81
g3670
sg74
(lp3677
g67
(g68
g69
NtRp3678
(dp3679
g72
(dp3680
g80
I2
ssg81
g3674
sg74
(lp3681
g67
(g76
g69
NtRp3682
(dp3683
g72
(dp3684
g80
I1
ssg81
Nsg74
(lp3685
g67
(g83
g69
NtRp3686
(dp3687
g72
(dp3688
sg81
g3682
sg74
(lp3689
g67
(g88
g69
NtRp3690
(dp3691
g72
(dp3692
sg81
g3686
sg74
(lp3693
g67
(g68
g69
NtRp3694
(dp3695
g72
(dp3696
g80
I1
ssg81
g3690
sg74
(lp3697
g3449
(S's\x06\x00\x00\x00Layout'
tRp3698
asbasbasbag67
(g83
g69
NtRp3699
(dp3700
g72
(dp3701
sg81
g3682
sg74
(lp3702
g67
(g88
g69
NtRp3703
(dp3704
g72
(dp3705
sg81
g3699
sg74
(lp3706
g67
(g68
g69
NtRp3707
(dp3708
g72
(dp3709
g80
I1
ssg81
g3703
sg74
(lp3710
I00
asbasbasbag67
(g83
g69
NtRp3711
(dp3712
g72
(dp3713
sg81
g3682
sg74
(lp3714
g67
(g88
g69
NtRp3715
(dp3716
g72
(dp3717
sg81
g3711
sg74
(lp3718
g67
(g68
g69
NtRp3719
(dp3720
g72
(dp3721
g80
I1
ssg81
g3715
sg74
(lp3722
S'/admin/default/edit/ddlagoon/views/layout.html'
p3723
asbasbasbasbasbasbasbag67
(g83
g69
NtRp3724
(dp3725
g72
(dp3726
sg81
g3558
sg74
(lp3727
g67
(g88
g69
NtRp3728
(dp3729
g72
(dp3730
sg81
g3724
sg74
(lp3731
g67
(g68
g69
NtRp3732
(dp3733
g72
(dp3734
g80
I2
ssg81
g3728
sg74
(lp3735
g67
(g76
g69
NtRp3736
(dp3737
g72
(dp3738
g80
I1
ssg81
Nsg74
(lp3739
g67
(g83
g69
NtRp3740
(dp3741
g72
(dp3742
sg81
g3736
sg74
(lp3743
g67
(g88
g69
NtRp3744
(dp3745
g72
(dp3746
sg81
g3740
sg74
(lp3747
g67
(g68
g69
NtRp3748
(dp3749
g72
(dp3750
g80
I1
ssg81
g3744
sg74
(lp3751
g3449
(S's\n\x00\x00\x00Stylesheet'
tRp3752
asbasbasbag67
(g83
g69
NtRp3753
(dp3754
g72
(dp3755
sg81
g3736
sg74
(lp3756
g67
(g88
g69
NtRp3757
(dp3758
g72
(dp3759
sg81
g3753
sg74
(lp3760
g67
(g68
g69
NtRp3761
(dp3762
g72
(dp3763
g80
I1
ssg81
g3757
sg74
(lp3764
I00
asbasbasbag67
(g83
g69
NtRp3765
(dp3766
g72
(dp3767
sg81
g3736
sg74
(lp3768
g67
(g88
g69
NtRp3769
(dp3770
g72
(dp3771
sg81
g3765
sg74
(lp3772
g67
(g68
g69
NtRp3773
(dp3774
g72
(dp3775
g80
I1
ssg81
g3769
sg74
(lp3776
S'/admin/default/edit/ddlagoon/static/base.css'
p3777
asbasbasbasbasbasbasbag67
(g83
g69
NtRp3778
(dp3779
g72
(dp3780
sg81
g3558
sg74
(lp3781
g67
(g88
g69
NtRp3782
(dp3783
g72
(dp3784
sg81
g3778
sg74
(lp3785
g67
(g68
g69
NtRp3786
(dp3787
g72
(dp3788
g80
I2
ssg81
g3782
sg74
(lp3789
g67
(g76
g69
NtRp3790
(dp3791
g72
(dp3792
g80
I1
ssg81
Nsg74
(lp3793
g67
(g83
g69
NtRp3794
(dp3795
g72
(dp3796
sg81
g3790
sg74
(lp3797
g67
(g88
g69
NtRp3798
(dp3799
g72
(dp3800
sg81
g3794
sg74
(lp3801
g67
(g68
g69
NtRp3802
(dp3803
g72
(dp3804
g80
I1
ssg81
g3798
sg74
(lp3805
g3449
(S's\x08\x00\x00\x00DB Model'
tRp3806
asbasbasbag67
(g83
g69
NtRp3807
(dp3808
g72
(dp3809
sg81
g3790
sg74
(lp3810
g67
(g88
g69
NtRp3811
(dp3812
g72
(dp3813
sg81
g3807
sg74
(lp3814
g67
(g68
g69
NtRp3815
(dp3816
g72
(dp3817
g80
I1
ssg81
g3811
sg74
(lp3818
I00
asbasbasbag67
(g83
g69
NtRp3819
(dp3820
g72
(dp3821
sg81
g3790
sg74
(lp3822
g67
(g88
g69
NtRp3823
(dp3824
g72
(dp3825
sg81
g3819
sg74
(lp3826
g67
(g68
g69
NtRp3827
(dp3828
g72
(dp3829
g80
I1
ssg81
g3823
sg74
(lp3830
S'/admin/default/edit/ddlagoon/models/db.py'
p3831
asbasbasbasbasbasbasbag67
(g83
g69
NtRp3832
(dp3833
g72
(dp3834
sg81
g3558
sg74
(lp3835
g67
(g88
g69
NtRp3836
(dp3837
g72
(dp3838
sg81
g3832
sg74
(lp3839
g67
(g68
g69
NtRp3840
(dp3841
g72
(dp3842
g80
I2
ssg81
g3836
sg74
(lp3843
g67
(g76
g69
NtRp3844
(dp3845
g72
(dp3846
g80
I1
ssg81
Nsg74
(lp3847
g67
(g83
g69
NtRp3848
(dp3849
g72
(dp3850
sg81
g3844
sg74
(lp3851
g67
(g88
g69
NtRp3852
(dp3853
g72
(dp3854
sg81
g3848
sg74
(lp3855
g67
(g68
g69
NtRp3856
(dp3857
g72
(dp3858
g80
I1
ssg81
g3852
sg74
(lp3859
g3449
(S's\n\x00\x00\x00Menu Model'
tRp3860
asbasbasbag67
(g83
g69
NtRp3861
(dp3862
g72
(dp3863
sg81
g3844
sg74
(lp3864
g67
(g88
g69
NtRp3865
(dp3866
g72
(dp3867
sg81
g3861
sg74
(lp3868
g67
(g68
g69
NtRp3869
(dp3870
g72
(dp3871
g80
I1
ssg81
g3865
sg74
(lp3872
I00
asbasbasbag67
(g83
g69
NtRp3873
(dp3874
g72
(dp3875
sg81
g3844
sg74
(lp3876
g67
(g88
g69
NtRp3877
(dp3878
g72
(dp3879
sg81
g3873
sg74
(lp3880
g67
(g68
g69
NtRp3881
(dp3882
g72
(dp3883
g80
I1
ssg81
g3877
sg74
(lp3884
S'/admin/default/edit/ddlagoon/models/menu.py'
p3885
asbasbasbasbasbasbasbag67
(g83
g69
NtRp3886
(dp3887
g72
(dp3888
sg81
g3558
sg74
(lp3889
g67
(g88
g69
NtRp3890
(dp3891
g72
(dp3892
sg81
g3886
sg74
(lp3893
g67
(g68
g69
NtRp3894
(dp3895
g72
(dp3896
g80
I2
ssg81
g3890
sg74
(lp3897
g67
(g76
g69
NtRp3898
(dp3899
g72
(dp3900
g80
I1
ssg81
Nsg74
(lp3901
g67
(g83
g69
NtRp3902
(dp3903
g72
(dp3904
sg81
g3898
sg74
(lp3905
g67
(g88
g69
NtRp3906
(dp3907
g72
(dp3908
sg81
g3902
sg74
(lp3909
g67
(g68
g69
NtRp3910
(dp3911
g72
(dp3912
g80
I1
ssg81
g3906
sg74
(lp3913
g3449
(S's\x08\x00\x00\x00Database'
tRp3914
asbasbasbag67
(g83
g69
NtRp3915
(dp3916
g72
(dp3917
sg81
g3898
sg74
(lp3918
g67
(g88
g69
NtRp3919
(dp3920
g72
(dp3921
sg81
g3915
sg74
(lp3922
g67
(g68
g69
NtRp3923
(dp3924
g72
(dp3925
g80
I1
ssg81
g3919
sg74
(lp3926
I00
asbasbasbag67
(g83
g69
NtRp3927
(dp3928
g72
(dp3929
sg81
g3898
sg74
(lp3930
g67
(g88
g69
NtRp3931
(dp3932
g72
(dp3933
sg81
g3927
sg74
(lp3934
g67
(g68
g69
NtRp3935
(dp3936
g72
(dp3937
g80
I1
ssg81
g3931
sg74
(lp3938
S'/ddlagoon/appadmin/index'
p3939
asbasbasbasbasbasbasbag67
(g83
g69
NtRp3940
(dp3941
g72
(dp3942
sg81
g3558
sg74
(lp3943
g67
(g88
g69
NtRp3944
(dp3945
g72
(dp3946
sg81
g3940
sg74
(lp3947
g67
(g68
g69
NtRp3948
(dp3949
g72
(dp3950
g80
I2
ssg81
g3944
sg74
(lp3951
g67
(g76
g69
NtRp3952
(dp3953
g72
(dp3954
g80
I1
ssg81
Nsg74
(lp3955
g67
(g83
g69
NtRp3956
(dp3957
g72
(dp3958
sg81
g3952
sg74
(lp3959
g67
(g88
g69
NtRp3960
(dp3961
g72
(dp3962
sg81
g3956
sg74
(lp3963
g67
(g68
g69
NtRp3964
(dp3965
g72
(dp3966
g80
I1
ssg81
g3960
sg74
(lp3967
g3449
(S's\x06\x00\x00\x00Errors'
tRp3968
asbasbasbag67
(g83
g69
NtRp3969
(dp3970
g72
(dp3971
sg81
g3952
sg74
(lp3972
g67
(g88
g69
NtRp3973
(dp3974
g72
(dp3975
sg81
g3969
sg74
(lp3976
g67
(g68
g69
NtRp3977
(dp3978
g72
(dp3979
g80
I1
ssg81
g3973
sg74
(lp3980
I00
asbasbasbag67
(g83
g69
NtRp3981
(dp3982
g72
(dp3983
sg81
g3952
sg74
(lp3984
g67
(g88
g69
NtRp3985
(dp3986
g72
(dp3987
sg81
g3981
sg74
(lp3988
g67
(g68
g69
NtRp3989
(dp3990
g72
(dp3991
g80
I1
ssg81
g3985
sg74
(lp3992
S'/admin/default/errors/ddlagoon'
p3993
asbasbasbasbasbasbasbag67
(g83
g69
NtRp3994
(dp3995
g72
(dp3996
sg81
g3558
sg74
(lp3997
g67
(g88
g69
NtRp3998
(dp3999
g72
(dp4000
sg81
g3994
sg74
(lp4001
g67
(g68
g69
NtRp4002
(dp4003
g72
(dp4004
g80
I2
ssg81
g3998
sg74
(lp4005
g67
(g76
g69
NtRp4006
(dp4007
g72
(dp4008
g80
I1
ssg81
Nsg74
(lp4009
g67
(g83
g69
NtRp4010
(dp4011
g72
(dp4012
sg81
g4006
sg74
(lp4013
g67
(g88
g69
NtRp4014
(dp4015
g72
(dp4016
sg81
g4010
sg74
(lp4017
g67
(g68
g69
NtRp4018
(dp4019
g72
(dp4020
g80
I1
ssg81
g4014
sg74
(lp4021
g3449
(S's\x05\x00\x00\x00About'
tRp4022
asbasbasbag67
(g83
g69
NtRp4023
(dp4024
g72
(dp4025
sg81
g4006
sg74
(lp4026
g67
(g88
g69
NtRp4027
(dp4028
g72
(dp4029
sg81
g4023
sg74
(lp4030
g67
(g68
g69
NtRp4031
(dp4032
g72
(dp4033
g80
I1
ssg81
g4027
sg74
(lp4034
I00
asbasbasbag67
(g83
g69
NtRp4035
(dp4036
g72
(dp4037
sg81
g4006
sg74
(lp4038
g67
(g88
g69
NtRp4039
(dp4040
g72
(dp4041
sg81
g4035
sg74
(lp4042
g67
(g68
g69
NtRp4043
(dp4044
g72
(dp4045
g80
I1
ssg81
g4039
sg74
(lp4046
S'/admin/default/about/ddlagoon'
p4047
asbasbasbasbasbasbasbasbasbasbasbasbasbasbasbag67
(g83
g69
NtRp4048
(dp4049
g72
(dp4050
sg81
g3417
sg74
(lp4051
g67
(g88
g69
NtRp4052
(dp4053
g72
(dp4054
sg81
g4048
sg74
(lp4055
g67
(g68
g69
NtRp4056
(dp4057
g72
(dp4058
g80
I4
ssg81
g4052
sg74
(lp4059
g67
(g76
g69
NtRp4060
(dp4061
g72
(dp4062
g80
I3
ssg81
Nsg74
(lp4063
g67
(g83
g69
NtRp4064
(dp4065
g72
(dp4066
sg81
g4060
sg74
(lp4067
g67
(g88
g69
NtRp4068
(dp4069
g72
(dp4070
sg81
g4064
sg74
(lp4071
g67
(g68
g69
NtRp4072
(dp4073
g72
(dp4074
g80
I3
ssg81
g4068
sg74
(lp4075
g3449
(S's\t\x00\x00\x00Resources'
tRp4076
asbasbasbag67
(g83
g69
NtRp4077
(dp4078
g72
(dp4079
sg81
g4060
sg74
(lp4080
g67
(g88
g69
NtRp4081
(dp4082
g72
(dp4083
sg81
g4077
sg74
(lp4084
g67
(g68
g69
NtRp4085
(dp4086
g72
(dp4087
g80
I3
ssg81
g4081
sg74
(lp4088
g110
asbasbasbag67
(g83
g69
NtRp4089
(dp4090
g72
(dp4091
sg81
g4060
sg74
(lp4092
g67
(g88
g69
NtRp4093
(dp4094
g72
(dp4095
sg81
g4089
sg74
(lp4096
g67
(g68
g69
NtRp4097
(dp4098
g72
(dp4099
g80
I3
ssg81
g4093
sg74
(lp4100
S'None'
p4101
asbasbasbag67
(g83
g69
NtRp4102
(dp4103
g72
(dp4104
sg81
g4060
sg74
(lp4105
g67
(g88
g69
NtRp4106
(dp4107
g72
(dp4108
sg81
g4102
sg74
(lp4109
g67
(g68
g69
NtRp4110
(dp4111
g72
(dp4112
g80
I3
ssg81
g4106
sg74
(lp4113
g67
(g76
g69
NtRp4114
(dp4115
g72
(dp4116
g80
I2
ssg81
Nsg74
(lp4117
g67
(g83
g69
NtRp4118
(dp4119
g72
(dp4120
sg81
g4114
sg74
(lp4121
g67
(g88
g69
NtRp4122
(dp4123
g72
(dp4124
sg81
g4118
sg74
(lp4125
g67
(g68
g69
NtRp4126
(dp4127
g72
(dp4128
g80
I2
ssg81
g4122
sg74
(lp4129
g67
(g76
g69
NtRp4130
(dp4131
g72
(dp4132
g80
I1
ssg81
Nsg74
(lp4133
g67
(g83
g69
NtRp4134
(dp4135
g72
(dp4136
sg81
g4130
sg74
(lp4137
g67
(g88
g69
NtRp4138
(dp4139
g72
(dp4140
sg81
g4134
sg74
(lp4141
g67
(g68
g69
NtRp4142
(dp4143
g72
(dp4144
g80
I1
ssg81
g4138
sg74
(lp4145
g3449
(S's\r\x00\x00\x00Documentation'
tRp4146
asbasbasbag67
(g83
g69
NtRp4147
(dp4148
g72
(dp4149
sg81
g4130
sg74
(lp4150
g67
(g88
g69
NtRp4151
(dp4152
g72
(dp4153
sg81
g4147
sg74
(lp4154
g67
(g68
g69
NtRp4155
(dp4156
g72
(dp4157
g80
I1
ssg81
g4151
sg74
(lp4158
I00
asbasbasbag67
(g83
g69
NtRp4159
(dp4160
g72
(dp4161
sg81
g4130
sg74
(lp4162
g67
(g88
g69
NtRp4163
(dp4164
g72
(dp4165
sg81
g4159
sg74
(lp4166
g67
(g68
g69
NtRp4167
(dp4168
g72
(dp4169
g80
I1
ssg81
g4163
sg74
(lp4170
S'http://www.web2py.com/book'
p4171
asbasbasbag67
(g83
g69
NtRp4172
(dp4173
g72
(dp4174
sg81
g4130
sg74
(lp4175
g67
(g88
g69
NtRp4176
(dp4177
g72
(dp4178
sg81
g4172
sg74
(lp4179
g67
(g68
g69
NtRp4180
(dp4181
g72
(dp4182
g80
I1
ssg81
g4176
sg74
(lp4183
(lp4184
(g3449
(S's\x07\x00\x00\x00Preface'
tRp4185
I00
S'http://www.web2py.com/book/default/chapter/00'
p4186
tp4187
a(g3449
(S's\x0c\x00\x00\x00Introduction'
tRp4188
I00
S'http://www.web2py.com/book/default/chapter/01'
p4189
tp4190
a(g3449
(S's\x06\x00\x00\x00Python'
tRp4191
I00
S'http://www.web2py.com/book/default/chapter/02'
p4192
tp4193
a(g3449
(S's\x08\x00\x00\x00Overview'
tRp4194
I00
S'http://www.web2py.com/book/default/chapter/03'
p4195
tp4196
a(g3449
(S's\x08\x00\x00\x00The Core'
tRp4197
I00
S'http://www.web2py.com/book/default/chapter/04'
p4198
tp4199
a(g3449
(S's\t\x00\x00\x00The Views'
tRp4200
I00
S'http://www.web2py.com/book/default/chapter/05'
p4201
tp4202
a(g3449
(S's\x08\x00\x00\x00Database'
tRp4203
I00
S'http://www.web2py.com/book/default/chapter/06'
p4204
tp4205
a(g3449
(S's\x14\x00\x00\x00Forms and Validators'
tRp4206
I00
S'http://www.web2py.com/book/default/chapter/07'
p4207
tp4208
a(g3449
(S's\x0e\x00\x00\x00Access Control'
tRp4209
I00
S'http://www.web2py.com/book/default/chapter/08'
p4210
tp4211
a(g3449
(S's\x08\x00\x00\x00Services'
tRp4212
I00
S'http://www.web2py.com/book/default/chapter/09'
p4213
tp4214
a(g3449
(S's\x0c\x00\x00\x00Ajax Recipes'
tRp4215
I00
S'http://www.web2py.com/book/default/chapter/10'
p4216
tp4217
a(g3449
(S's\x12\x00\x00\x00Deployment Recipes'
tRp4218
I00
S'http://www.web2py.com/book/default/chapter/11'
p4219
tp4220
a(g3449
(S's\r\x00\x00\x00Other Recipes'
tRp4221
I00
S'http://www.web2py.com/book/default/chapter/12'
p4222
tp4223
a(g3449
(S's\r\x00\x00\x00Buy this book'
tRp4224
I00
S'http://stores.lulu.com/web2py'
p4225
tp4226
aasbasbasbasbasbasbasbag67
(g83
g69
NtRp4227
(dp4228
g72
(dp4229
sg81
g4114
sg74
(lp4230
g67
(g88
g69
NtRp4231
(dp4232
g72
(dp4233
sg81
g4227
sg74
(lp4234
g67
(g68
g69
NtRp4235
(dp4236
g72
(dp4237
g80
I2
ssg81
g4231
sg74
(lp4238
g67
(g76
g69
NtRp4239
(dp4240
g72
(dp4241
g80
I1
ssg81
Nsg74
(lp4242
g67
(g83
g69
NtRp4243
(dp4244
g72
(dp4245
sg81
g4239
sg74
(lp4246
g67
(g88
g69
NtRp4247
(dp4248
g72
(dp4249
sg81
g4243
sg74
(lp4250
g67
(g68
g69
NtRp4251
(dp4252
g72
(dp4253
g80
I1
ssg81
g4247
sg74
(lp4254
g3449
(S's\t\x00\x00\x00Community'
tRp4255
asbasbasbag67
(g83
g69
NtRp4256
(dp4257
g72
(dp4258
sg81
g4239
sg74
(lp4259
g67
(g88
g69
NtRp4260
(dp4261
g72
(dp4262
sg81
g4256
sg74
(lp4263
g67
(g68
g69
NtRp4264
(dp4265
g72
(dp4266
g80
I1
ssg81
g4260
sg74
(lp4267
I00
asbasbasbag67
(g83
g69
NtRp4268
(dp4269
g72
(dp4270
sg81
g4239
sg74
(lp4271
g67
(g88
g69
NtRp4272
(dp4273
g72
(dp4274
sg81
g4268
sg74
(lp4275
g67
(g68
g69
NtRp4276
(dp4277
g72
(dp4278
g80
I1
ssg81
g4272
sg74
(lp4279
Nasbasbasbag67
(g83
g69
NtRp4280
(dp4281
g72
(dp4282
sg81
g4239
sg74
(lp4283
g67
(g88
g69
NtRp4284
(dp4285
g72
(dp4286
sg81
g4280
sg74
(lp4287
g67
(g68
g69
NtRp4288
(dp4289
g72
(dp4290
g80
I1
ssg81
g4284
sg74
(lp4291
(lp4292
(g3449
(S's\x06\x00\x00\x00Groups'
tRp4293
I00
S'http://www.web2py.com/examples/default/usergroups'
p4294
tp4295
a(g3449
(S's\x07\x00\x00\x00Twitter'
tRp4296
I00
S'http://twitter.com/web2py'
p4297
tp4298
a(g3449
(S's\t\x00\x00\x00Live chat'
tRp4299
I00
S'http://mibbit.com/?channel=%23web2py&server=irc.mibbit.net'
p4300
tp4301
a(g3449
(S's\n\x00\x00\x00User Voice'
tRp4302
I00
S'http://web2py.uservoice.com/'
p4303
tp4304
aasbasbasbasbasbasbasbag67
(g83
g69
NtRp4305
(dp4306
g72
(dp4307
sg81
g4114
sg74
(lp4308
g67
(g88
g69
NtRp4309
(dp4310
g72
(dp4311
sg81
g4305
sg74
(lp4312
g67
(g68
g69
NtRp4313
(dp4314
g72
(dp4315
g80
I2
ssg81
g4309
sg74
(lp4316
g67
(g76
g69
NtRp4317
(dp4318
g72
(dp4319
g80
I1
ssg81
Nsg74
(lp4320
g67
(g83
g69
NtRp4321
(dp4322
g72
(dp4323
sg81
g4317
sg74
(lp4324
g67
(g88
g69
NtRp4325
(dp4326
g72
(dp4327
sg81
g4321
sg74
(lp4328
g67
(g68
g69
NtRp4329
(dp4330
g72
(dp4331
g80
I1
ssg81
g4325
sg74
(lp4332
g3449
(S's\x06\x00\x00\x00Web2py'
tRp4333
asbasbasbag67
(g83
g69
NtRp4334
(dp4335
g72
(dp4336
sg81
g4317
sg74
(lp4337
g67
(g88
g69
NtRp4338
(dp4339
g72
(dp4340
sg81
g4334
sg74
(lp4341
g67
(g68
g69
NtRp4342
(dp4343
g72
(dp4344
g80
I1
ssg81
g4338
sg74
(lp4345
I00
asbasbasbag67
(g83
g69
NtRp4346
(dp4347
g72
(dp4348
sg81
g4317
sg74
(lp4349
g67
(g88
g69
NtRp4350
(dp4351
g72
(dp4352
sg81
g4346
sg74
(lp4353
g67
(g68
g69
NtRp4354
(dp4355
g72
(dp4356
g80
I1
ssg81
g4350
sg74
(lp4357
S'http://www.web2py.com'
p4358
asbasbasbag67
(g83
g69
NtRp4359
(dp4360
g72
(dp4361
sg81
g4317
sg74
(lp4362
g67
(g88
g69
NtRp4363
(dp4364
g72
(dp4365
sg81
g4359
sg74
(lp4366
g67
(g68
g69
NtRp4367
(dp4368
g72
(dp4369
g80
I1
ssg81
g4363
sg74
(lp4370
(lp4371
(g3449
(S's\x08\x00\x00\x00Download'
tRp4372
I00
S'http://www.web2py.com/examples/default/download'
p4373
tp4374
a(g3449
(S's\x07\x00\x00\x00Support'
tRp4375
I00
S'http://www.web2py.com/examples/default/support'
p4376
tp4377
a(g3449
(S's\x0e\x00\x00\x00Quick Examples'
tRp4378
I00
S'http://web2py.com/examples/default/examples'
p4379
tp4380
a(g3449
(S's\x03\x00\x00\x00FAQ'
tRp4381
I00
S'http://web2py.com/AlterEgo'
p4382
tp4383
a(g3449
(S's\x11\x00\x00\x00Free Applications'
tRp4384
I00
S'http://web2py.com/appliances'
p4385
tp4386
a(g3449
(S's\x07\x00\x00\x00Plugins'
tRp4387
I00
S'http://web2py.com/plugins'
p4388
tp4389
a(g3449
(S's\x07\x00\x00\x00Recipes'
tRp4390
I00
S'http://web2pyslices.com/'
p4391
tp4392
a(g3449
(S's\x04\x00\x00\x00Demo'
tRp4393
I00
S'http://web2py.com/demo_admin'
p4394
tp4395
a(g3449
(S's\x08\x00\x00\x00Semantic'
tRp4396
I00
S'http://web2py.com/semantic'
p4397
tp4398
a(g3449
(S's\x07\x00\x00\x00Layouts'
tRp4399
I00
S'http://web2py.com/layouts'
p4400
tp4401
a(g3449
(S's\x06\x00\x00\x00Videos'
tRp4402
I00
S'http://www.web2py.com/examples/default/videos/'
p4403
tp4404
aasbasbasbasbasbasbasbasbasbasbasbasbasbasbasbasbasbasbasbag67
(g83
g69
NtRp4405
(dp4406
g72
(dp4407
sg81
g2944
sg74
(lp4408
g67
(g88
g69
NtRp4409
(dp4410
g72
(dp4411
g92
g93
ssg81
g4405
sg74
(lp4412
S'meta'
p4413
asbag67
(g88
g69
NtRp4414
(dp4415
g72
(dp4416
g99
g100
ssg81
g4405
sg74
(lp4417
S':'
asbag67
(g88
g69
NtRp4418
(dp4419
g72
(dp4420
sg81
g4405
sg74
(lp4421
g67
(g68
g69
NtRp4422
(dp4423
g72
(dp4424
g80
I5
ssg81
g4418
sg74
(lp4425
g67
(g76
g69
NtRp4426
(dp4427
g72
(dp4428
g80
I4
ssg81
Nsg74
(lp4429
g67
(g83
g69
NtRp4430
(dp4431
g72
(dp4432
sg81
g4426
sg74
(lp4433
g67
(g88
g69
NtRp4434
(dp4435
g72
(dp4436
g92
g93
ssg81
g4430
sg74
(lp4437
S'author'
p4438
asbag67
(g88
g69
NtRp4439
(dp4440
g72
(dp4441
g99
g100
ssg81
g4430
sg74
(lp4442
S':'
asbag67
(g88
g69
NtRp4443
(dp4444
g72
(dp4445
sg81
g4430
sg74
(lp4446
g67
(g68
g69
NtRp4447
(dp4448
g72
(dp4449
g80
I4
ssg81
g4443
sg74
(lp4450
S'Your Name <you@example.com>'
p4451
asbasbasbag67
(g83
g69
NtRp4452
(dp4453
g72
(dp4454
sg81
g4426
sg74
(lp4455
g67
(g88
g69
NtRp4456
(dp4457
g72
(dp4458
g92
g93
ssg81
g4452
sg74
(lp4459
S'copyright'
p4460
asbag67
(g88
g69
NtRp4461
(dp4462
g72
(dp4463
g99
g100
ssg81
g4452
sg74
(lp4464
S':'
asbag67
(g88
g69
NtRp4465
(dp4466
g72
(dp4467
sg81
g4452
sg74
(lp4468
g67
(g68
g69
NtRp4469
(dp4470
g72
(dp4471
g80
I4
ssg81
g4465
sg74
(lp4472
S'Copyright 2011'
p4473
asbasbasbag67
(g83
g69
NtRp4474
(dp4475
g72
(dp4476
sg81
g4426
sg74
(lp4477
g67
(g88
g69
NtRp4478
(dp4479
g72
(dp4480
g92
g93
ssg81
g4474
sg74
(lp4481
S'description'
p4482
asbag67
(g88
g69
NtRp4483
(dp4484
g72
(dp4485
g99
g100
ssg81
g4474
sg74
(lp4486
S':'
asbag67
(g88
g69
NtRp4487
(dp4488
g72
(dp4489
sg81
g4474
sg74
(lp4490
g67
(g68
g69
NtRp4491
(dp4492
g72
(dp4493
g80
I4
ssg81
g4487
sg74
(lp4494
S'a cool new app'
p4495
asbasbasbag67
(g83
g69
NtRp4496
(dp4497
g72
(dp4498
sg81
g4426
sg74
(lp4499
g67
(g88
g69
NtRp4500
(dp4501
g72
(dp4502
g92
g93
ssg81
g4496
sg74
(lp4503
S'generator'
p4504
asbag67
(g88
g69
NtRp4505
(dp4506
g72
(dp4507
g99
g100
ssg81
g4496
sg74
(lp4508
S':'
asbag67
(g88
g69
NtRp4509
(dp4510
g72
(dp4511
sg81
g4496
sg74
(lp4512
g67
(g68
g69
NtRp4513
(dp4514
g72
(dp4515
g80
I4
ssg81
g4509
sg74
(lp4516
S'Web2py Web Framework'
p4517
asbasbasbag67
(g83
g69
NtRp4518
(dp4519
g72
(dp4520
sg81
g4426
sg74
(lp4521
g67
(g88
g69
NtRp4522
(dp4523
g72
(dp4524
g92
g93
ssg81
g4518
sg74
(lp4525
S'keywords'
p4526
asbag67
(g88
g69
NtRp4527
(dp4528
g72
(dp4529
g99
g100
ssg81
g4518
sg74
(lp4530
S':'
asbag67
(g88
g69
NtRp4531
(dp4532
g72
(dp4533
sg81
g4518
sg74
(lp4534
g67
(g68
g69
NtRp4535
(dp4536
g72
(dp4537
g80
I4
ssg81
g4531
sg74
(lp4538
S'web2py, python, framework'
p4539
asbasbasbasbasbasbasbag67
(g83
g69
NtRp4540
(dp4541
g72
(dp4542
sg81
g2944
sg74
(lp4543
g67
(g88
g69
NtRp4544
(dp4545
g72
(dp4546
g92
g93
ssg81
g4540
sg74
(lp4547
S'postprocessing'
p4548
asbag67
(g88
g69
NtRp4549
(dp4550
g72
(dp4551
g99
g100
ssg81
g4540
sg74
(lp4552
S':'
asbag67
(g88
g69
NtRp4553
(dp4554
g72
(dp4555
sg81
g4540
sg74
(lp4556
g67
(g68
g69
NtRp4557
(dp4558
g72
(dp4559
g80
I5
ssg81
g4553
sg74
(lp4560
g67
(g76
g69
NtRp4561
(dp4562
g72
(dp4563
g80
I4
ssg81
Nsg74
(lp4564
sbasbasbasbag67
(g83
g69
NtRp4565
(dp4566
g72
(dp4567
sg81
g2944
sg74
(lp4568
g67
(g88
g69
NtRp4569
(dp4570
g72
(dp4571
g92
g93
ssg81
g4565
sg74
(lp4572
S'session_filename'
p4573
asbag67
(g88
g69
NtRp4574
(dp4575
g72
(dp4576
g99
g100
ssg81
g4565
sg74
(lp4577
S':'
asbag67
(g88
g69
NtRp4578
(dp4579
g72
(dp4580
sg81
g4565
sg74
(lp4581
g67
(g68
g69
NtRp4582
(dp4583
g72
(dp4584
g80
I5
ssg81
g4578
sg74
(lp4585
S'/windows/Users/Thomas/Dropbox/appz/2011/GAE/ddl-lagoon/applications/ddlagoon/sessions/127.0.0.1-98dd25bf-43c5-4b05-8ad4-64b8bd9f5d9e'
p4586
asbasbasbag67
(g83
g69
NtRp4587
(dp4588
g72
(dp4589
sg81
g2944
sg74
(lp4590
g67
(g88
g69
NtRp4591
(dp4592
g72
(dp4593
g92
g93
ssg81
g4587
sg74
(lp4594
S'session_id'
p4595
asbag67
(g88
g69
NtRp4596
(dp4597
g72
(dp4598
g99
g100
ssg81
g4587
sg74
(lp4599
S':'
asbag67
(g88
g69
NtRp4600
(dp4601
g72
(dp4602
sg81
g4587
sg74
(lp4603
g67
(g68
g69
NtRp4604
(dp4605
g72
(dp4606
g80
I5
ssg81
g4600
sg74
(lp4607
S'127.0.0.1-98dd25bf-43c5-4b05-8ad4-64b8bd9f5d9e'
p4608
asbasbasbag67
(g83
g69
NtRp4609
(dp4610
g72
(dp4611
sg81
g2944
sg74
(lp4612
g67
(g88
g69
NtRp4613
(dp4614
g72
(dp4615
g92
g93
ssg81
g4609
sg74
(lp4616
S'session_id_name'
p4617
asbag67
(g88
g69
NtRp4618
(dp4619
g72
(dp4620
g99
g100
ssg81
g4609
sg74
(lp4621
S':'
asbag67
(g88
g69
NtRp4622
(dp4623
g72
(dp4624
sg81
g4609
sg74
(lp4625
g67
(g68
g69
NtRp4626
(dp4627
g72
(dp4628
g80
I5
ssg81
g4622
sg74
(lp4629
g3001
asbasbasbag67
(g83
g69
NtRp4630
(dp4631
g72
(dp4632
sg81
g2944
sg74
(lp4633
g67
(g88
g69
NtRp4634
(dp4635
g72
(dp4636
g92
g93
ssg81
g4630
sg74
(lp4637
S'session_new'
p4638
asbag67
(g88
g69
NtRp4639
(dp4640
g72
(dp4641
g99
g100
ssg81
g4630
sg74
(lp4642
S':'
asbag67
(g88
g69
NtRp4643
(dp4644
g72
(dp4645
sg81
g4630
sg74
(lp4646
g67
(g68
g69
NtRp4647
(dp4648
g72
(dp4649
g80
I5
ssg81
g4643
sg74
(lp4650
g1524
asbasbasbag67
(g83
g69
NtRp4651
(dp4652
g72
(dp4653
sg81
g2944
sg74
(lp4654
g67
(g88
g69
NtRp4655
(dp4656
g72
(dp4657
g92
g93
ssg81
g4651
sg74
(lp4658
S'status'
p4659
asbag67
(g88
g69
NtRp4660
(dp4661
g72
(dp4662
g99
g100
ssg81
g4651
sg74
(lp4663
S':'
asbag67
(g88
g69
NtRp4664
(dp4665
g72
(dp4666
sg81
g4651
sg74
(lp4667
g67
(g68
g69
NtRp4668
(dp4669
g72
(dp4670
g80
I5
ssg81
g4664
sg74
(lp4671
S'200'
p4672
asbasbasbag67
(g83
g69
NtRp4673
(dp4674
g72
(dp4675
sg81
g2944
sg74
(lp4676
g67
(g88
g69
NtRp4677
(dp4678
g72
(dp4679
g92
g93
ssg81
g4673
sg74
(lp4680
S'subtitle'
p4681
asbag67
(g88
g69
NtRp4682
(dp4683
g72
(dp4684
g99
g100
ssg81
g4673
sg74
(lp4685
S':'
asbag67
(g88
g69
NtRp4686
(dp4687
g72
(dp4688
sg81
g4673
sg74
(lp4689
g67
(g68
g69
NtRp4690
(dp4691
g72
(dp4692
g80
I5
ssg81
g4686
sg74
(lp4693
g3449
(S's\r\x00\x00\x00customize me!'
tRp4694
asbasbasbag67
(g83
g69
NtRp4695
(dp4696
g72
(dp4697
sg81
g2944
sg74
(lp4698
g67
(g88
g69
NtRp4699
(dp4700
g72
(dp4701
g92
g93
ssg81
g4695
sg74
(lp4702
S'title'
p4703
asbag67
(g88
g69
NtRp4704
(dp4705
g72
(dp4706
g99
g100
ssg81
g4695
sg74
(lp4707
S':'
asbag67
(g88
g69
NtRp4708
(dp4709
g72
(dp4710
sg81
g4695
sg74
(lp4711
g67
(g68
g69
NtRp4712
(dp4713
g72
(dp4714
g80
I5
ssg81
g4708
sg74
(lp4715
g132
asbasbasbag67
(g83
g69
NtRp4716
(dp4717
g72
(dp4718
sg81
g2944
sg74
(lp4719
g67
(g88
g69
NtRp4720
(dp4721
g72
(dp4722
g92
g93
ssg81
g4716
sg74
(lp4723
g2168
asbag67
(g88
g69
NtRp4724
(dp4725
g72
(dp4726
g99
g100
ssg81
g4716
sg74
(lp4727
S':'
asbag67
(g88
g69
NtRp4728
(dp4729
g72
(dp4730
sg81
g4716
sg74
(lp4731
g67
(g68
g69
NtRp4732
(dp4733
g72
(dp4734
g80
I5
ssg81
g4728
sg74
(lp4735
g2181
asbasbasbag67
(g83
g69
NtRp4736
(dp4737
g72
(dp4738
sg81
g2944
sg74
(lp4739
g67
(g88
g69
NtRp4740
(dp4741
g72
(dp4742
g92
g93
ssg81
g4736
sg74
(lp4743
S'view'
p4744
asbag67
(g88
g69
NtRp4745
(dp4746
g72
(dp4747
g99
g100
ssg81
g4736
sg74
(lp4748
S':'
asbag67
(g88
g69
NtRp4749
(dp4750
g72
(dp4751
sg81
g4736
sg74
(lp4752
g67
(g68
g69
NtRp4753
(dp4754
g72
(dp4755
g80
I5
ssg81
g4749
sg74
(lp4756
S'default/index.html'
p4757
asbasbasbasbasbsS'locals'
p4758
(dp4759
g3
S"'/windows/Users/Thomas/Dropbox/appz/2011/GAE/ddl-lagoon/applications/ddlagoon/controllers/default.py'"
p4760
sg5
S"'# -*- coding: utf-8 -*-\\n# this file is released ...=linux64)\\nresponse._vars=response._caller(index)\\n'"
p4761
sssS'traceback'
p4762
S'Traceback (most recent call last):\n  File "/windows/Users/Thomas/Dropbox/appz/2011/GAE/ddl-lagoon/gluon/restricted.py", line 193, in restricted\n    ccode = compile2(code,layer)\n  File "/windows/Users/Thomas/Dropbox/appz/2011/GAE/ddl-lagoon/gluon/restricted.py", line 179, in compile2\n    return compile(code.rstrip().replace(\'\\r\\n\',\'\\n\')+\'\\n\', layer, \'exec\')\n  File "/windows/Users/Thomas/Dropbox/appz/2011/GAE/ddl-lagoon/applications/ddlagoon/controllers/default.py", line 66\n    ddlz=[]\n       ^\nSyntaxError: invalid syntax\n'
p4763
s.