(dp1
S'output'
p2
S''
sS'layer'
p3
S'/windows/Users/Thomas/Dropbox/appz/2011/GAE/ddl-lagoon/applications/ddlagoon/controllers/ddl.py'
p4
sS'code'
p5
S"__author__ = 'thomas'\n\ndef get():\n    return service()\n\n@service.xml\ndef ddl(id, filename):\n    return response.download()\nresponse._vars=response._caller(get)\n"
p6
sS'snapshot'
p7
(dp8
S'exception'
p9
(dp10
S'__hash__'
p11
S"<method-wrapper '__hash__' of exceptions.TypeError object>"
p12
sS'__setattr__'
p13
S"<method-wrapper '__setattr__' of exceptions.TypeError object>"
p14
sS'__reduce_ex__'
p15
S'<built-in method __reduce_ex__ of exceptions.TypeError object>'
p16
sS'__getslice__'
p17
S"<method-wrapper '__getslice__' of exceptions.TypeError object>"
p18
sS'__getitem__'
p19
S"<method-wrapper '__getitem__' of exceptions.TypeError object>"
p20
sS'__setstate__'
p21
S'<built-in method __setstate__ of exceptions.TypeError object>'
p22
sS'args'
p23
S"('ddl() takes exactly 2 arguments (0 given)',)"
p24
sS'__reduce__'
p25
S'<built-in method __reduce__ of exceptions.TypeError object>'
p26
sS'__str__'
p27
S"<method-wrapper '__str__' of exceptions.TypeError object>"
p28
sS'__format__'
p29
S'<built-in method __format__ of exceptions.TypeError object>'
p30
sS'__getattribute__'
p31
S"<method-wrapper '__getattribute__' of exceptions.TypeError object>"
p32
sS'__class__'
p33
S"<type 'exceptions.TypeError'>"
p34
sS'__unicode__'
p35
S'<built-in method __unicode__ of exceptions.TypeError object>'
p36
sS'__delattr__'
p37
S"<method-wrapper '__delattr__' of exceptions.TypeError object>"
p38
sS'__subclasshook__'
p39
S'<built-in method __subclasshook__ of type object>'
p40
sS'__repr__'
p41
S"<method-wrapper '__repr__' of exceptions.TypeError object>"
p42
sS'__dict__'
p43
S'{}'
p44
sS'__sizeof__'
p45
S'<built-in method __sizeof__ of exceptions.TypeError object>'
p46
sS'__doc__'
p47
S"'Inappropriate argument type.'"
p48
sS'__init__'
p49
S"<method-wrapper '__init__' of exceptions.TypeError object>"
p50
sS'__new__'
p51
S'<built-in method __new__ of type object>'
p52
ssS'evalue'
p53
S'ddl() takes exactly 2 arguments (0 given)'
p54
sS'request'
p55
ccopy_reg
_reconstructor
p56
(cgluon.html
BEAUTIFY
p57
c__builtin__
object
p58
NtRp59
(dp60
S'attributes'
p61
(dp62
sS'components'
p63
(lp64
g56
(cgluon.html
TABLE
p65
g58
NtRp66
(dp67
g61
(dp68
S'level'
p69
I5
ssS'parent'
p70
Nsg63
(lp71
g56
(cgluon.html
TR
p72
g58
NtRp73
(dp74
g61
(dp75
sg70
g66
sg63
(lp76
g56
(cgluon.html
TD
p77
g58
NtRp78
(dp79
g61
(dp80
S'_style'
p81
S'font-weight:bold;'
p82
ssg70
g73
sg63
(lp83
S'ajax'
p84
asbag56
(g77
g58
NtRp85
(dp86
g61
(dp87
S'_valign'
p88
S'top'
p89
ssg70
g73
sg63
(lp90
S':'
asbag56
(g77
g58
NtRp91
(dp92
g61
(dp93
sg70
g73
sg63
(lp94
g56
(g57
g58
NtRp95
(dp96
g61
(dp97
g69
I5
ssg70
g91
sg63
(lp98
S'False'
p99
asbasbasbag56
(g72
g58
NtRp100
(dp101
g61
(dp102
sg70
g66
sg63
(lp103
g56
(g77
g58
NtRp104
(dp105
g61
(dp106
g81
g82
ssg70
g100
sg63
(lp107
S'application'
p108
asbag56
(g77
g58
NtRp109
(dp110
g61
(dp111
g88
g89
ssg70
g100
sg63
(lp112
S':'
asbag56
(g77
g58
NtRp113
(dp114
g61
(dp115
sg70
g100
sg63
(lp116
g56
(g57
g58
NtRp117
(dp118
g61
(dp119
g69
I5
ssg70
g113
sg63
(lp120
S'ddlagoon'
p121
asbasbasbag56
(g72
g58
NtRp122
(dp123
g61
(dp124
sg70
g66
sg63
(lp125
g56
(g77
g58
NtRp126
(dp127
g61
(dp128
g81
g82
ssg70
g122
sg63
(lp129
g23
asbag56
(g77
g58
NtRp130
(dp131
g61
(dp132
g88
g89
ssg70
g122
sg63
(lp133
S':'
asbag56
(g77
g58
NtRp134
(dp135
g61
(dp136
sg70
g122
sg63
(lp137
g56
(g57
g58
NtRp138
(dp139
g61
(dp140
g69
I5
ssg70
g134
sg63
(lp141
g56
(g65
g58
NtRp142
(dp143
g61
(dp144
g69
I4
ssg70
Nsg63
(lp145
g56
(g72
g58
NtRp146
(dp147
g61
(dp148
sg70
g142
sg63
(lp149
g56
(g77
g58
NtRp150
(dp151
g61
(dp152
sg70
g146
sg63
(lp153
g56
(g57
g58
NtRp154
(dp155
g61
(dp156
g69
I4
ssg70
g150
sg63
(lp157
S'xml'
p158
asbasbasbag56
(g72
g58
NtRp159
(dp160
g61
(dp161
sg70
g142
sg63
(lp162
g56
(g77
g58
NtRp163
(dp164
g61
(dp165
sg70
g159
sg63
(lp166
g56
(g57
g58
NtRp167
(dp168
g61
(dp169
g69
I4
ssg70
g163
sg63
(lp170
S'ddl'
p171
asbasbasbasbasbasbasbag56
(g72
g58
NtRp172
(dp173
g61
(dp174
sg70
g66
sg63
(lp175
g56
(g77
g58
NtRp176
(dp177
g61
(dp178
g81
g82
ssg70
g172
sg63
(lp179
S'body'
p180
asbag56
(g77
g58
NtRp181
(dp182
g61
(dp183
g88
g89
ssg70
g172
sg63
(lp184
S':'
asbag56
(g77
g58
NtRp185
(dp186
g61
(dp187
sg70
g172
sg63
(lp188
g56
(g57
g58
NtRp189
(dp190
g61
(dp191
g69
I5
ssg70
g185
sg63
(lp192
S'<cStringIO.StringO object at 0x3c2f4c8>'
p193
asbasbasbag56
(g72
g58
NtRp194
(dp195
g61
(dp196
sg70
g66
sg63
(lp197
g56
(g77
g58
NtRp198
(dp199
g61
(dp200
g81
g82
ssg70
g194
sg63
(lp201
S'client'
p202
asbag56
(g77
g58
NtRp203
(dp204
g61
(dp205
g88
g89
ssg70
g194
sg63
(lp206
S':'
asbag56
(g77
g58
NtRp207
(dp208
g61
(dp209
sg70
g194
sg63
(lp210
g56
(g57
g58
NtRp211
(dp212
g61
(dp213
g69
I5
ssg70
g207
sg63
(lp214
S'127.0.0.1'
p215
asbasbasbag56
(g72
g58
NtRp216
(dp217
g61
(dp218
sg70
g66
sg63
(lp219
g56
(g77
g58
NtRp220
(dp221
g61
(dp222
g81
g82
ssg70
g216
sg63
(lp223
S'controller'
p224
asbag56
(g77
g58
NtRp225
(dp226
g61
(dp227
g88
g89
ssg70
g216
sg63
(lp228
S':'
asbag56
(g77
g58
NtRp229
(dp230
g61
(dp231
sg70
g216
sg63
(lp232
g56
(g57
g58
NtRp233
(dp234
g61
(dp235
g69
I5
ssg70
g229
sg63
(lp236
S'ddl'
p237
asbasbasbag56
(g72
g58
NtRp238
(dp239
g61
(dp240
sg70
g66
sg63
(lp241
g56
(g77
g58
NtRp242
(dp243
g61
(dp244
g81
g82
ssg70
g238
sg63
(lp245
S'cookies'
p246
asbag56
(g77
g58
NtRp247
(dp248
g61
(dp249
g88
g89
ssg70
g238
sg63
(lp250
S':'
asbag56
(g77
g58
NtRp251
(dp252
g61
(dp253
sg70
g238
sg63
(lp254
g56
(g57
g58
NtRp255
(dp256
g61
(dp257
g69
I5
ssg70
g251
sg63
(lp258
g56
(g65
g58
NtRp259
(dp260
g61
(dp261
g69
I4
ssg70
Nsg63
(lp262
g56
(g72
g58
NtRp263
(dp264
g61
(dp265
sg70
g259
sg63
(lp266
g56
(g77
g58
NtRp267
(dp268
g61
(dp269
g81
g82
ssg70
g263
sg63
(lp270
S'session_id_admin'
p271
asbag56
(g77
g58
NtRp272
(dp273
g61
(dp274
g88
g89
ssg70
g263
sg63
(lp275
S':'
asbag56
(g77
g58
NtRp276
(dp277
g61
(dp278
sg70
g263
sg63
(lp279
g56
(g57
g58
NtRp280
(dp281
g61
(dp282
g69
I4
ssg70
g276
sg63
(lp283
g56
(g65
g58
NtRp284
(dp285
g61
(dp286
g69
I3
ssg70
Nsg63
(lp287
g56
(g72
g58
NtRp288
(dp289
g61
(dp290
sg70
g284
sg63
(lp291
g56
(g77
g58
NtRp292
(dp293
g61
(dp294
g81
g82
ssg70
g288
sg63
(lp295
S'comment'
p296
asbag56
(g77
g58
NtRp297
(dp298
g61
(dp299
g88
g89
ssg70
g288
sg63
(lp300
S':'
asbag56
(g77
g58
NtRp301
(dp302
g61
(dp303
sg70
g288
sg63
(lp304
g56
(g57
g58
NtRp305
(dp306
g61
(dp307
g69
I3
ssg70
g301
sg63
(lp308
S''
asbasbasbag56
(g72
g58
NtRp309
(dp310
g61
(dp311
sg70
g284
sg63
(lp312
g56
(g77
g58
NtRp313
(dp314
g61
(dp315
g81
g82
ssg70
g309
sg63
(lp316
S'domain'
p317
asbag56
(g77
g58
NtRp318
(dp319
g61
(dp320
g88
g89
ssg70
g309
sg63
(lp321
S':'
asbag56
(g77
g58
NtRp322
(dp323
g61
(dp324
sg70
g309
sg63
(lp325
g56
(g57
g58
NtRp326
(dp327
g61
(dp328
g69
I3
ssg70
g322
sg63
(lp329
S''
asbasbasbag56
(g72
g58
NtRp330
(dp331
g61
(dp332
sg70
g284
sg63
(lp333
g56
(g77
g58
NtRp334
(dp335
g61
(dp336
g81
g82
ssg70
g330
sg63
(lp337
S'expires'
p338
asbag56
(g77
g58
NtRp339
(dp340
g61
(dp341
g88
g89
ssg70
g330
sg63
(lp342
S':'
asbag56
(g77
g58
NtRp343
(dp344
g61
(dp345
sg70
g330
sg63
(lp346
g56
(g57
g58
NtRp347
(dp348
g61
(dp349
g69
I3
ssg70
g343
sg63
(lp350
S''
asbasbasbag56
(g72
g58
NtRp351
(dp352
g61
(dp353
sg70
g284
sg63
(lp354
g56
(g77
g58
NtRp355
(dp356
g61
(dp357
g81
g82
ssg70
g351
sg63
(lp358
S'httponly'
p359
asbag56
(g77
g58
NtRp360
(dp361
g61
(dp362
g88
g89
ssg70
g351
sg63
(lp363
S':'
asbag56
(g77
g58
NtRp364
(dp365
g61
(dp366
sg70
g351
sg63
(lp367
g56
(g57
g58
NtRp368
(dp369
g61
(dp370
g69
I3
ssg70
g364
sg63
(lp371
S''
asbasbasbag56
(g72
g58
NtRp372
(dp373
g61
(dp374
sg70
g284
sg63
(lp375
g56
(g77
g58
NtRp376
(dp377
g61
(dp378
g81
g82
ssg70
g372
sg63
(lp379
S'max-age'
p380
asbag56
(g77
g58
NtRp381
(dp382
g61
(dp383
g88
g89
ssg70
g372
sg63
(lp384
S':'
asbag56
(g77
g58
NtRp385
(dp386
g61
(dp387
sg70
g372
sg63
(lp388
g56
(g57
g58
NtRp389
(dp390
g61
(dp391
g69
I3
ssg70
g385
sg63
(lp392
S''
asbasbasbag56
(g72
g58
NtRp393
(dp394
g61
(dp395
sg70
g284
sg63
(lp396
g56
(g77
g58
NtRp397
(dp398
g61
(dp399
g81
g82
ssg70
g393
sg63
(lp400
S'path'
p401
asbag56
(g77
g58
NtRp402
(dp403
g61
(dp404
g88
g89
ssg70
g393
sg63
(lp405
S':'
asbag56
(g77
g58
NtRp406
(dp407
g61
(dp408
sg70
g393
sg63
(lp409
g56
(g57
g58
NtRp410
(dp411
g61
(dp412
g69
I3
ssg70
g406
sg63
(lp413
S''
asbasbasbag56
(g72
g58
NtRp414
(dp415
g61
(dp416
sg70
g284
sg63
(lp417
g56
(g77
g58
NtRp418
(dp419
g61
(dp420
g81
g82
ssg70
g414
sg63
(lp421
S'secure'
p422
asbag56
(g77
g58
NtRp423
(dp424
g61
(dp425
g88
g89
ssg70
g414
sg63
(lp426
S':'
asbag56
(g77
g58
NtRp427
(dp428
g61
(dp429
sg70
g414
sg63
(lp430
g56
(g57
g58
NtRp431
(dp432
g61
(dp433
g69
I3
ssg70
g427
sg63
(lp434
S''
asbasbasbag56
(g72
g58
NtRp435
(dp436
g61
(dp437
sg70
g284
sg63
(lp438
g56
(g77
g58
NtRp439
(dp440
g61
(dp441
g81
g82
ssg70
g435
sg63
(lp442
S'version'
p443
asbag56
(g77
g58
NtRp444
(dp445
g61
(dp446
g88
g89
ssg70
g435
sg63
(lp447
S':'
asbag56
(g77
g58
NtRp448
(dp449
g61
(dp450
sg70
g435
sg63
(lp451
g56
(g57
g58
NtRp452
(dp453
g61
(dp454
g69
I3
ssg70
g448
sg63
(lp455
S''
asbasbasbasbasbasbasbag56
(g72
g58
NtRp456
(dp457
g61
(dp458
sg70
g259
sg63
(lp459
g56
(g77
g58
NtRp460
(dp461
g61
(dp462
g81
g82
ssg70
g456
sg63
(lp463
S'session_id_ddlagoon'
p464
asbag56
(g77
g58
NtRp465
(dp466
g61
(dp467
g88
g89
ssg70
g456
sg63
(lp468
S':'
asbag56
(g77
g58
NtRp469
(dp470
g61
(dp471
sg70
g456
sg63
(lp472
g56
(g57
g58
NtRp473
(dp474
g61
(dp475
g69
I4
ssg70
g469
sg63
(lp476
g56
(g65
g58
NtRp477
(dp478
g61
(dp479
g69
I3
ssg70
Nsg63
(lp480
g56
(g72
g58
NtRp481
(dp482
g61
(dp483
sg70
g477
sg63
(lp484
g56
(g77
g58
NtRp485
(dp486
g61
(dp487
g81
g82
ssg70
g481
sg63
(lp488
g296
asbag56
(g77
g58
NtRp489
(dp490
g61
(dp491
g88
g89
ssg70
g481
sg63
(lp492
S':'
asbag56
(g77
g58
NtRp493
(dp494
g61
(dp495
sg70
g481
sg63
(lp496
g56
(g57
g58
NtRp497
(dp498
g61
(dp499
g69
I3
ssg70
g493
sg63
(lp500
S''
asbasbasbag56
(g72
g58
NtRp501
(dp502
g61
(dp503
sg70
g477
sg63
(lp504
g56
(g77
g58
NtRp505
(dp506
g61
(dp507
g81
g82
ssg70
g501
sg63
(lp508
g317
asbag56
(g77
g58
NtRp509
(dp510
g61
(dp511
g88
g89
ssg70
g501
sg63
(lp512
S':'
asbag56
(g77
g58
NtRp513
(dp514
g61
(dp515
sg70
g501
sg63
(lp516
g56
(g57
g58
NtRp517
(dp518
g61
(dp519
g69
I3
ssg70
g513
sg63
(lp520
S''
asbasbasbag56
(g72
g58
NtRp521
(dp522
g61
(dp523
sg70
g477
sg63
(lp524
g56
(g77
g58
NtRp525
(dp526
g61
(dp527
g81
g82
ssg70
g521
sg63
(lp528
g338
asbag56
(g77
g58
NtRp529
(dp530
g61
(dp531
g88
g89
ssg70
g521
sg63
(lp532
S':'
asbag56
(g77
g58
NtRp533
(dp534
g61
(dp535
sg70
g521
sg63
(lp536
g56
(g57
g58
NtRp537
(dp538
g61
(dp539
g69
I3
ssg70
g533
sg63
(lp540
S''
asbasbasbag56
(g72
g58
NtRp541
(dp542
g61
(dp543
sg70
g477
sg63
(lp544
g56
(g77
g58
NtRp545
(dp546
g61
(dp547
g81
g82
ssg70
g541
sg63
(lp548
g359
asbag56
(g77
g58
NtRp549
(dp550
g61
(dp551
g88
g89
ssg70
g541
sg63
(lp552
S':'
asbag56
(g77
g58
NtRp553
(dp554
g61
(dp555
sg70
g541
sg63
(lp556
g56
(g57
g58
NtRp557
(dp558
g61
(dp559
g69
I3
ssg70
g553
sg63
(lp560
S''
asbasbasbag56
(g72
g58
NtRp561
(dp562
g61
(dp563
sg70
g477
sg63
(lp564
g56
(g77
g58
NtRp565
(dp566
g61
(dp567
g81
g82
ssg70
g561
sg63
(lp568
g380
asbag56
(g77
g58
NtRp569
(dp570
g61
(dp571
g88
g89
ssg70
g561
sg63
(lp572
S':'
asbag56
(g77
g58
NtRp573
(dp574
g61
(dp575
sg70
g561
sg63
(lp576
g56
(g57
g58
NtRp577
(dp578
g61
(dp579
g69
I3
ssg70
g573
sg63
(lp580
S''
asbasbasbag56
(g72
g58
NtRp581
(dp582
g61
(dp583
sg70
g477
sg63
(lp584
g56
(g77
g58
NtRp585
(dp586
g61
(dp587
g81
g82
ssg70
g581
sg63
(lp588
g401
asbag56
(g77
g58
NtRp589
(dp590
g61
(dp591
g88
g89
ssg70
g581
sg63
(lp592
S':'
asbag56
(g77
g58
NtRp593
(dp594
g61
(dp595
sg70
g581
sg63
(lp596
g56
(g57
g58
NtRp597
(dp598
g61
(dp599
g69
I3
ssg70
g593
sg63
(lp600
S''
asbasbasbag56
(g72
g58
NtRp601
(dp602
g61
(dp603
sg70
g477
sg63
(lp604
g56
(g77
g58
NtRp605
(dp606
g61
(dp607
g81
g82
ssg70
g601
sg63
(lp608
g422
asbag56
(g77
g58
NtRp609
(dp610
g61
(dp611
g88
g89
ssg70
g601
sg63
(lp612
S':'
asbag56
(g77
g58
NtRp613
(dp614
g61
(dp615
sg70
g601
sg63
(lp616
g56
(g57
g58
NtRp617
(dp618
g61
(dp619
g69
I3
ssg70
g613
sg63
(lp620
S''
asbasbasbag56
(g72
g58
NtRp621
(dp622
g61
(dp623
sg70
g477
sg63
(lp624
g56
(g77
g58
NtRp625
(dp626
g61
(dp627
g81
g82
ssg70
g621
sg63
(lp628
g443
asbag56
(g77
g58
NtRp629
(dp630
g61
(dp631
g88
g89
ssg70
g621
sg63
(lp632
S':'
asbag56
(g77
g58
NtRp633
(dp634
g61
(dp635
sg70
g621
sg63
(lp636
g56
(g57
g58
NtRp637
(dp638
g61
(dp639
g69
I3
ssg70
g633
sg63
(lp640
S''
asbasbasbasbasbasbasbag56
(g72
g58
NtRp641
(dp642
g61
(dp643
sg70
g259
sg63
(lp644
g56
(g77
g58
NtRp645
(dp646
g61
(dp647
g81
g82
ssg70
g641
sg63
(lp648
S'session_id_welcome'
p649
asbag56
(g77
g58
NtRp650
(dp651
g61
(dp652
g88
g89
ssg70
g641
sg63
(lp653
S':'
asbag56
(g77
g58
NtRp654
(dp655
g61
(dp656
sg70
g641
sg63
(lp657
g56
(g57
g58
NtRp658
(dp659
g61
(dp660
g69
I4
ssg70
g654
sg63
(lp661
g56
(g65
g58
NtRp662
(dp663
g61
(dp664
g69
I3
ssg70
Nsg63
(lp665
g56
(g72
g58
NtRp666
(dp667
g61
(dp668
sg70
g662
sg63
(lp669
g56
(g77
g58
NtRp670
(dp671
g61
(dp672
g81
g82
ssg70
g666
sg63
(lp673
g296
asbag56
(g77
g58
NtRp674
(dp675
g61
(dp676
g88
g89
ssg70
g666
sg63
(lp677
S':'
asbag56
(g77
g58
NtRp678
(dp679
g61
(dp680
sg70
g666
sg63
(lp681
g56
(g57
g58
NtRp682
(dp683
g61
(dp684
g69
I3
ssg70
g678
sg63
(lp685
S''
asbasbasbag56
(g72
g58
NtRp686
(dp687
g61
(dp688
sg70
g662
sg63
(lp689
g56
(g77
g58
NtRp690
(dp691
g61
(dp692
g81
g82
ssg70
g686
sg63
(lp693
g317
asbag56
(g77
g58
NtRp694
(dp695
g61
(dp696
g88
g89
ssg70
g686
sg63
(lp697
S':'
asbag56
(g77
g58
NtRp698
(dp699
g61
(dp700
sg70
g686
sg63
(lp701
g56
(g57
g58
NtRp702
(dp703
g61
(dp704
g69
I3
ssg70
g698
sg63
(lp705
S''
asbasbasbag56
(g72
g58
NtRp706
(dp707
g61
(dp708
sg70
g662
sg63
(lp709
g56
(g77
g58
NtRp710
(dp711
g61
(dp712
g81
g82
ssg70
g706
sg63
(lp713
g338
asbag56
(g77
g58
NtRp714
(dp715
g61
(dp716
g88
g89
ssg70
g706
sg63
(lp717
S':'
asbag56
(g77
g58
NtRp718
(dp719
g61
(dp720
sg70
g706
sg63
(lp721
g56
(g57
g58
NtRp722
(dp723
g61
(dp724
g69
I3
ssg70
g718
sg63
(lp725
S''
asbasbasbag56
(g72
g58
NtRp726
(dp727
g61
(dp728
sg70
g662
sg63
(lp729
g56
(g77
g58
NtRp730
(dp731
g61
(dp732
g81
g82
ssg70
g726
sg63
(lp733
g359
asbag56
(g77
g58
NtRp734
(dp735
g61
(dp736
g88
g89
ssg70
g726
sg63
(lp737
S':'
asbag56
(g77
g58
NtRp738
(dp739
g61
(dp740
sg70
g726
sg63
(lp741
g56
(g57
g58
NtRp742
(dp743
g61
(dp744
g69
I3
ssg70
g738
sg63
(lp745
S''
asbasbasbag56
(g72
g58
NtRp746
(dp747
g61
(dp748
sg70
g662
sg63
(lp749
g56
(g77
g58
NtRp750
(dp751
g61
(dp752
g81
g82
ssg70
g746
sg63
(lp753
g380
asbag56
(g77
g58
NtRp754
(dp755
g61
(dp756
g88
g89
ssg70
g746
sg63
(lp757
S':'
asbag56
(g77
g58
NtRp758
(dp759
g61
(dp760
sg70
g746
sg63
(lp761
g56
(g57
g58
NtRp762
(dp763
g61
(dp764
g69
I3
ssg70
g758
sg63
(lp765
S''
asbasbasbag56
(g72
g58
NtRp766
(dp767
g61
(dp768
sg70
g662
sg63
(lp769
g56
(g77
g58
NtRp770
(dp771
g61
(dp772
g81
g82
ssg70
g766
sg63
(lp773
g401
asbag56
(g77
g58
NtRp774
(dp775
g61
(dp776
g88
g89
ssg70
g766
sg63
(lp777
S':'
asbag56
(g77
g58
NtRp778
(dp779
g61
(dp780
sg70
g766
sg63
(lp781
g56
(g57
g58
NtRp782
(dp783
g61
(dp784
g69
I3
ssg70
g778
sg63
(lp785
S''
asbasbasbag56
(g72
g58
NtRp786
(dp787
g61
(dp788
sg70
g662
sg63
(lp789
g56
(g77
g58
NtRp790
(dp791
g61
(dp792
g81
g82
ssg70
g786
sg63
(lp793
g422
asbag56
(g77
g58
NtRp794
(dp795
g61
(dp796
g88
g89
ssg70
g786
sg63
(lp797
S':'
asbag56
(g77
g58
NtRp798
(dp799
g61
(dp800
sg70
g786
sg63
(lp801
g56
(g57
g58
NtRp802
(dp803
g61
(dp804
g69
I3
ssg70
g798
sg63
(lp805
S''
asbasbasbag56
(g72
g58
NtRp806
(dp807
g61
(dp808
sg70
g662
sg63
(lp809
g56
(g77
g58
NtRp810
(dp811
g61
(dp812
g81
g82
ssg70
g806
sg63
(lp813
g443
asbag56
(g77
g58
NtRp814
(dp815
g61
(dp816
g88
g89
ssg70
g806
sg63
(lp817
S':'
asbag56
(g77
g58
NtRp818
(dp819
g61
(dp820
sg70
g806
sg63
(lp821
g56
(g57
g58
NtRp822
(dp823
g61
(dp824
g69
I3
ssg70
g818
sg63
(lp825
S''
asbasbasbasbasbasbasbasbasbasbasbag56
(g72
g58
NtRp826
(dp827
g61
(dp828
sg70
g66
sg63
(lp829
g56
(g77
g58
NtRp830
(dp831
g61
(dp832
g81
g82
ssg70
g826
sg63
(lp833
S'env'
p834
asbag56
(g77
g58
NtRp835
(dp836
g61
(dp837
g88
g89
ssg70
g826
sg63
(lp838
S':'
asbag56
(g77
g58
NtRp839
(dp840
g61
(dp841
sg70
g826
sg63
(lp842
g56
(g57
g58
NtRp843
(dp844
g61
(dp845
g69
I5
ssg70
g839
sg63
(lp846
g56
(g65
g58
NtRp847
(dp848
g61
(dp849
g69
I4
ssg70
Nsg63
(lp850
g56
(g72
g58
NtRp851
(dp852
g61
(dp853
sg70
g847
sg63
(lp854
g56
(g77
g58
NtRp855
(dp856
g61
(dp857
g81
g82
ssg70
g851
sg63
(lp858
S'app_folders'
p859
asbag56
(g77
g58
NtRp860
(dp861
g61
(dp862
g88
g89
ssg70
g851
sg63
(lp863
S':'
asbag56
(g77
g58
NtRp864
(dp865
g61
(dp866
sg70
g851
sg63
(lp867
g56
(g57
g58
NtRp868
(dp869
g61
(dp870
g69
I4
ssg70
g864
sg63
(lp871
S"set(['/windows/Users/Thomas/Dropbox/appz/2011/GAE/ddl-lagoon/applications/ddlagoon/', '/windows/Users/Thomas/Dropbox/appz/2011/GAE/ddl-lagoon/applications/welcome/', '/windows/Users/Thomas/Dropbox/appz/2011/GAE/ddl-lagoon/applications/admin/'])"
p872
asbasbasbag56
(g72
g58
NtRp873
(dp874
g61
(dp875
sg70
g847
sg63
(lp876
g56
(g77
g58
NtRp877
(dp878
g61
(dp879
g81
g82
ssg70
g873
sg63
(lp880
S'applications_parent'
p881
asbag56
(g77
g58
NtRp882
(dp883
g61
(dp884
g88
g89
ssg70
g873
sg63
(lp885
S':'
asbag56
(g77
g58
NtRp886
(dp887
g61
(dp888
sg70
g873
sg63
(lp889
g56
(g57
g58
NtRp890
(dp891
g61
(dp892
g69
I4
ssg70
g886
sg63
(lp893
S'/windows/Users/Thomas/Dropbox/appz/2011/GAE/ddl-lagoon'
p894
asbasbasbag56
(g72
g58
NtRp895
(dp896
g61
(dp897
sg70
g847
sg63
(lp898
g56
(g77
g58
NtRp899
(dp900
g61
(dp901
g81
g82
ssg70
g895
sg63
(lp902
S'cmd_args'
p903
asbag56
(g77
g58
NtRp904
(dp905
g61
(dp906
g88
g89
ssg70
g895
sg63
(lp907
S':'
asbag56
(g77
g58
NtRp908
(dp909
g61
(dp910
sg70
g895
sg63
(lp911
g56
(g57
g58
NtRp912
(dp913
g61
(dp914
g69
I4
ssg70
g908
sg63
(lp915
g56
(g65
g58
NtRp916
(dp917
g61
(dp918
g69
I3
ssg70
Nsg63
(lp919
sbasbasbasbag56
(g72
g58
NtRp920
(dp921
g61
(dp922
sg70
g847
sg63
(lp923
g56
(g77
g58
NtRp924
(dp925
g61
(dp926
g81
g82
ssg70
g920
sg63
(lp927
S'cmd_options'
p928
asbag56
(g77
g58
NtRp929
(dp930
g61
(dp931
g88
g89
ssg70
g920
sg63
(lp932
S':'
asbag56
(g77
g58
NtRp933
(dp934
g61
(dp935
sg70
g920
sg63
(lp936
g56
(g57
g58
NtRp937
(dp938
g61
(dp939
g69
I4
ssg70
g933
sg63
(lp940
S"<Values at 0x2d4df38: {'verbose': False, 'ip': '127.0.0.1', 'shutdown_timeout': 5, 'taskbar': False, 'nocron': False, 'pid_filename': 'httpserver.pid', 'maxthreads': None, 'softcron': False, 'server_name': 'VPCF22AJ', 'bpython': False, 'nogui': False, 'port': 8000, 'extcron': False, 'debuglevel': 30, 'test': None, 'folder': '/windows/Users/Thomas/Dropbox/appz/2011/GAE/ddl-lagoon', 'config': '', 'import_models': False, 'winservice': '', 'shell': None, 'run': '', 'log_filename': 'httpserver.log', 'args': [''], 'ssl_ca_certificate': None, 'scheduler': None, 'profiler_filename': None, 'ssl_private_key': '', 'password': 'admin', 'request_queue_size': 5, 'ssl_certificate': '', 'cronjob': False, 'plain': False, 'quiet': False, 'interfaces': None, 'minthreads': None, 'timeout': 10, 'numthreads': None, 'nobanner': False}>"
p941
asbasbasbag56
(g72
g58
NtRp942
(dp943
g61
(dp944
sg70
g847
sg63
(lp945
g56
(g77
g58
NtRp946
(dp947
g61
(dp948
g81
g82
ssg70
g942
sg63
(lp949
S'db_sessions'
p950
asbag56
(g77
g58
NtRp951
(dp952
g61
(dp953
g88
g89
ssg70
g942
sg63
(lp954
S':'
asbag56
(g77
g58
NtRp955
(dp956
g61
(dp957
sg70
g942
sg63
(lp958
g56
(g57
g58
NtRp959
(dp960
g61
(dp961
g69
I4
ssg70
g955
sg63
(lp962
S'set([])'
p963
asbasbasbag56
(g72
g58
NtRp964
(dp965
g61
(dp966
sg70
g847
sg63
(lp967
g56
(g77
g58
NtRp968
(dp969
g61
(dp970
g81
g82
ssg70
g964
sg63
(lp971
S'debugging'
p972
asbag56
(g77
g58
NtRp973
(dp974
g61
(dp975
g88
g89
ssg70
g964
sg63
(lp976
S':'
asbag56
(g77
g58
NtRp977
(dp978
g61
(dp979
sg70
g964
sg63
(lp980
g56
(g57
g58
NtRp981
(dp982
g61
(dp983
g69
I4
ssg70
g977
sg63
(lp984
g99
asbasbasbag56
(g72
g58
NtRp985
(dp986
g61
(dp987
sg70
g847
sg63
(lp988
g56
(g77
g58
NtRp989
(dp990
g61
(dp991
g81
g82
ssg70
g985
sg63
(lp992
S'gluon_parent'
p993
asbag56
(g77
g58
NtRp994
(dp995
g61
(dp996
g88
g89
ssg70
g985
sg63
(lp997
S':'
asbag56
(g77
g58
NtRp998
(dp999
g61
(dp1000
sg70
g985
sg63
(lp1001
g56
(g57
g58
NtRp1002
(dp1003
g61
(dp1004
g69
I4
ssg70
g998
sg63
(lp1005
S'/windows/Users/Thomas/Dropbox/appz/2011/GAE/ddl-lagoon'
p1006
asbasbasbag56
(g72
g58
NtRp1007
(dp1008
g61
(dp1009
sg70
g847
sg63
(lp1010
g56
(g77
g58
NtRp1011
(dp1012
g61
(dp1013
g81
g82
ssg70
g1007
sg63
(lp1014
S'http_accept'
p1015
asbag56
(g77
g58
NtRp1016
(dp1017
g61
(dp1018
g88
g89
ssg70
g1007
sg63
(lp1019
S':'
asbag56
(g77
g58
NtRp1020
(dp1021
g61
(dp1022
sg70
g1007
sg63
(lp1023
g56
(g57
g58
NtRp1024
(dp1025
g61
(dp1026
g69
I4
ssg70
g1020
sg63
(lp1027
S'text/html,application/xhtml+xml,application/xml;q=0.9,*/*;q=0.8'
p1028
asbasbasbag56
(g72
g58
NtRp1029
(dp1030
g61
(dp1031
sg70
g847
sg63
(lp1032
g56
(g77
g58
NtRp1033
(dp1034
g61
(dp1035
g81
g82
ssg70
g1029
sg63
(lp1036
S'http_accept_charset'
p1037
asbag56
(g77
g58
NtRp1038
(dp1039
g61
(dp1040
g88
g89
ssg70
g1029
sg63
(lp1041
S':'
asbag56
(g77
g58
NtRp1042
(dp1043
g61
(dp1044
sg70
g1029
sg63
(lp1045
g56
(g57
g58
NtRp1046
(dp1047
g61
(dp1048
g69
I4
ssg70
g1042
sg63
(lp1049
S'ISO-8859-1,utf-8;q=0.7,*;q=0.3'
p1050
asbasbasbag56
(g72
g58
NtRp1051
(dp1052
g61
(dp1053
sg70
g847
sg63
(lp1054
g56
(g77
g58
NtRp1055
(dp1056
g61
(dp1057
g81
g82
ssg70
g1051
sg63
(lp1058
S'http_accept_encoding'
p1059
asbag56
(g77
g58
NtRp1060
(dp1061
g61
(dp1062
g88
g89
ssg70
g1051
sg63
(lp1063
S':'
asbag56
(g77
g58
NtRp1064
(dp1065
g61
(dp1066
sg70
g1051
sg63
(lp1067
g56
(g57
g58
NtRp1068
(dp1069
g61
(dp1070
g69
I4
ssg70
g1064
sg63
(lp1071
S'gzip,deflate,sdch'
p1072
asbasbasbag56
(g72
g58
NtRp1073
(dp1074
g61
(dp1075
sg70
g847
sg63
(lp1076
g56
(g77
g58
NtRp1077
(dp1078
g61
(dp1079
g81
g82
ssg70
g1073
sg63
(lp1080
S'http_accept_language'
p1081
asbag56
(g77
g58
NtRp1082
(dp1083
g61
(dp1084
g88
g89
ssg70
g1073
sg63
(lp1085
S':'
asbag56
(g77
g58
NtRp1086
(dp1087
g61
(dp1088
sg70
g1073
sg63
(lp1089
g56
(g57
g58
NtRp1090
(dp1091
g61
(dp1092
g69
I4
ssg70
g1086
sg63
(lp1093
S'en-US,en;q=0.8,fr;q=0.6'
p1094
asbasbasbag56
(g72
g58
NtRp1095
(dp1096
g61
(dp1097
sg70
g847
sg63
(lp1098
g56
(g77
g58
NtRp1099
(dp1100
g61
(dp1101
g81
g82
ssg70
g1095
sg63
(lp1102
S'http_connection'
p1103
asbag56
(g77
g58
NtRp1104
(dp1105
g61
(dp1106
g88
g89
ssg70
g1095
sg63
(lp1107
S':'
asbag56
(g77
g58
NtRp1108
(dp1109
g61
(dp1110
sg70
g1095
sg63
(lp1111
g56
(g57
g58
NtRp1112
(dp1113
g61
(dp1114
g69
I4
ssg70
g1108
sg63
(lp1115
S'keep-alive'
p1116
asbasbasbag56
(g72
g58
NtRp1117
(dp1118
g61
(dp1119
sg70
g847
sg63
(lp1120
g56
(g77
g58
NtRp1121
(dp1122
g61
(dp1123
g81
g82
ssg70
g1117
sg63
(lp1124
S'http_cookie'
p1125
asbag56
(g77
g58
NtRp1126
(dp1127
g61
(dp1128
g88
g89
ssg70
g1117
sg63
(lp1129
S':'
asbag56
(g77
g58
NtRp1130
(dp1131
g61
(dp1132
sg70
g1117
sg63
(lp1133
g56
(g57
g58
NtRp1134
(dp1135
g61
(dp1136
g69
I4
ssg70
g1130
sg63
(lp1137
S'__utma_a2a=6830991484.1350583772.1319026846.1319052270.1319052278.11; session_id_welcome=127.0.0.1-47f0e8b4-66ae-4fd0-bb0a-8a2d7a2027c4; session_id_admin=127.0.0.1-c4c6f676-274b-4970-ab2f-4415e39a2b0f; session_id_ddlagoon=127.0.0.1-8fa824f9-6faa-499d-a250-71720cf67cda'
p1138
asbasbasbag56
(g72
g58
NtRp1139
(dp1140
g61
(dp1141
sg70
g847
sg63
(lp1142
g56
(g77
g58
NtRp1143
(dp1144
g61
(dp1145
g81
g82
ssg70
g1139
sg63
(lp1146
S'http_host'
p1147
asbag56
(g77
g58
NtRp1148
(dp1149
g61
(dp1150
g88
g89
ssg70
g1139
sg63
(lp1151
S':'
asbag56
(g77
g58
NtRp1152
(dp1153
g61
(dp1154
sg70
g1139
sg63
(lp1155
g56
(g57
g58
NtRp1156
(dp1157
g61
(dp1158
g69
I4
ssg70
g1152
sg63
(lp1159
S'localhost:8000'
p1160
asbasbasbag56
(g72
g58
NtRp1161
(dp1162
g61
(dp1163
sg70
g847
sg63
(lp1164
g56
(g77
g58
NtRp1165
(dp1166
g61
(dp1167
g81
g82
ssg70
g1161
sg63
(lp1168
S'http_user_agent'
p1169
asbag56
(g77
g58
NtRp1170
(dp1171
g61
(dp1172
g88
g89
ssg70
g1161
sg63
(lp1173
S':'
asbag56
(g77
g58
NtRp1174
(dp1175
g61
(dp1176
sg70
g1161
sg63
(lp1177
g56
(g57
g58
NtRp1178
(dp1179
g61
(dp1180
g69
I4
ssg70
g1174
sg63
(lp1181
S'Mozilla/5.0 (X11; Linux x86_64) AppleWebKit/535.1 (KHTML, like Gecko) Chrome/14.0.835.202 Safari/535.1'
p1182
asbasbasbag56
(g72
g58
NtRp1183
(dp1184
g61
(dp1185
sg70
g847
sg63
(lp1186
g56
(g77
g58
NtRp1187
(dp1188
g61
(dp1189
g81
g82
ssg70
g1183
sg63
(lp1190
S'is_jython'
p1191
asbag56
(g77
g58
NtRp1192
(dp1193
g61
(dp1194
g88
g89
ssg70
g1183
sg63
(lp1195
S':'
asbag56
(g77
g58
NtRp1196
(dp1197
g61
(dp1198
sg70
g1183
sg63
(lp1199
g56
(g57
g58
NtRp1200
(dp1201
g61
(dp1202
g69
I4
ssg70
g1196
sg63
(lp1203
g99
asbasbasbag56
(g72
g58
NtRp1204
(dp1205
g61
(dp1206
sg70
g847
sg63
(lp1207
g56
(g77
g58
NtRp1208
(dp1209
g61
(dp1210
g81
g82
ssg70
g1204
sg63
(lp1211
S'path_info'
p1212
asbag56
(g77
g58
NtRp1213
(dp1214
g61
(dp1215
g88
g89
ssg70
g1204
sg63
(lp1216
S':'
asbag56
(g77
g58
NtRp1217
(dp1218
g61
(dp1219
sg70
g1204
sg63
(lp1220
g56
(g57
g58
NtRp1221
(dp1222
g61
(dp1223
g69
I4
ssg70
g1217
sg63
(lp1224
S'/ddlagoon/ddl/get/xml/ddl'
p1225
asbasbasbag56
(g72
g58
NtRp1226
(dp1227
g61
(dp1228
sg70
g847
sg63
(lp1229
g56
(g77
g58
NtRp1230
(dp1231
g61
(dp1232
g81
g82
ssg70
g1226
sg63
(lp1233
S'query_string'
p1234
asbag56
(g77
g58
NtRp1235
(dp1236
g61
(dp1237
g88
g89
ssg70
g1226
sg63
(lp1238
S':'
asbag56
(g77
g58
NtRp1239
(dp1240
g61
(dp1241
sg70
g1226
sg63
(lp1242
g56
(g57
g58
NtRp1243
(dp1244
g61
(dp1245
g69
I4
ssg70
g1239
sg63
(lp1246
S''
asbasbasbag56
(g72
g58
NtRp1247
(dp1248
g61
(dp1249
sg70
g847
sg63
(lp1250
g56
(g77
g58
NtRp1251
(dp1252
g61
(dp1253
g81
g82
ssg70
g1247
sg63
(lp1254
S'remote_addr'
p1255
asbag56
(g77
g58
NtRp1256
(dp1257
g61
(dp1258
g88
g89
ssg70
g1247
sg63
(lp1259
S':'
asbag56
(g77
g58
NtRp1260
(dp1261
g61
(dp1262
sg70
g1247
sg63
(lp1263
g56
(g57
g58
NtRp1264
(dp1265
g61
(dp1266
g69
I4
ssg70
g1260
sg63
(lp1267
g215
asbasbasbag56
(g72
g58
NtRp1268
(dp1269
g61
(dp1270
sg70
g847
sg63
(lp1271
g56
(g77
g58
NtRp1272
(dp1273
g61
(dp1274
g81
g82
ssg70
g1268
sg63
(lp1275
S'remote_port'
p1276
asbag56
(g77
g58
NtRp1277
(dp1278
g61
(dp1279
g88
g89
ssg70
g1268
sg63
(lp1280
S':'
asbag56
(g77
g58
NtRp1281
(dp1282
g61
(dp1283
sg70
g1268
sg63
(lp1284
g56
(g57
g58
NtRp1285
(dp1286
g61
(dp1287
g69
I4
ssg70
g1281
sg63
(lp1288
S'35392'
p1289
asbasbasbag56
(g72
g58
NtRp1290
(dp1291
g61
(dp1292
sg70
g847
sg63
(lp1293
g56
(g77
g58
NtRp1294
(dp1295
g61
(dp1296
g81
g82
ssg70
g1290
sg63
(lp1297
S'request_method'
p1298
asbag56
(g77
g58
NtRp1299
(dp1300
g61
(dp1301
g88
g89
ssg70
g1290
sg63
(lp1302
S':'
asbag56
(g77
g58
NtRp1303
(dp1304
g61
(dp1305
sg70
g1290
sg63
(lp1306
g56
(g57
g58
NtRp1307
(dp1308
g61
(dp1309
g69
I4
ssg70
g1303
sg63
(lp1310
S'GET'
p1311
asbasbasbag56
(g72
g58
NtRp1312
(dp1313
g61
(dp1314
sg70
g847
sg63
(lp1315
g56
(g77
g58
NtRp1316
(dp1317
g61
(dp1318
g81
g82
ssg70
g1312
sg63
(lp1319
S'request_uri'
p1320
asbag56
(g77
g58
NtRp1321
(dp1322
g61
(dp1323
g88
g89
ssg70
g1312
sg63
(lp1324
S':'
asbag56
(g77
g58
NtRp1325
(dp1326
g61
(dp1327
sg70
g1312
sg63
(lp1328
g56
(g57
g58
NtRp1329
(dp1330
g61
(dp1331
g69
I4
ssg70
g1325
sg63
(lp1332
g1225
asbasbasbag56
(g72
g58
NtRp1333
(dp1334
g61
(dp1335
sg70
g847
sg63
(lp1336
g56
(g77
g58
NtRp1337
(dp1338
g61
(dp1339
g81
g82
ssg70
g1333
sg63
(lp1340
S'script_name'
p1341
asbag56
(g77
g58
NtRp1342
(dp1343
g61
(dp1344
g88
g89
ssg70
g1333
sg63
(lp1345
S':'
asbag56
(g77
g58
NtRp1346
(dp1347
g61
(dp1348
sg70
g1333
sg63
(lp1349
g56
(g57
g58
NtRp1350
(dp1351
g61
(dp1352
g69
I4
ssg70
g1346
sg63
(lp1353
S''
asbasbasbag56
(g72
g58
NtRp1354
(dp1355
g61
(dp1356
sg70
g847
sg63
(lp1357
g56
(g77
g58
NtRp1358
(dp1359
g61
(dp1360
g81
g82
ssg70
g1354
sg63
(lp1361
S'server_name'
p1362
asbag56
(g77
g58
NtRp1363
(dp1364
g61
(dp1365
g88
g89
ssg70
g1354
sg63
(lp1366
S':'
asbag56
(g77
g58
NtRp1367
(dp1368
g61
(dp1369
sg70
g1354
sg63
(lp1370
g56
(g57
g58
NtRp1371
(dp1372
g61
(dp1373
g69
I4
ssg70
g1367
sg63
(lp1374
S'VPCF22AJ'
p1375
asbasbasbag56
(g72
g58
NtRp1376
(dp1377
g61
(dp1378
sg70
g847
sg63
(lp1379
g56
(g77
g58
NtRp1380
(dp1381
g61
(dp1382
g81
g82
ssg70
g1376
sg63
(lp1383
S'server_port'
p1384
asbag56
(g77
g58
NtRp1385
(dp1386
g61
(dp1387
g88
g89
ssg70
g1376
sg63
(lp1388
S':'
asbag56
(g77
g58
NtRp1389
(dp1390
g61
(dp1391
sg70
g1376
sg63
(lp1392
g56
(g57
g58
NtRp1393
(dp1394
g61
(dp1395
g69
I4
ssg70
g1389
sg63
(lp1396
S'8000'
p1397
asbasbasbag56
(g72
g58
NtRp1398
(dp1399
g61
(dp1400
sg70
g847
sg63
(lp1401
g56
(g77
g58
NtRp1402
(dp1403
g61
(dp1404
g81
g82
ssg70
g1398
sg63
(lp1405
S'server_protocol'
p1406
asbag56
(g77
g58
NtRp1407
(dp1408
g61
(dp1409
g88
g89
ssg70
g1398
sg63
(lp1410
S':'
asbag56
(g77
g58
NtRp1411
(dp1412
g61
(dp1413
sg70
g1398
sg63
(lp1414
g56
(g57
g58
NtRp1415
(dp1416
g61
(dp1417
g69
I4
ssg70
g1411
sg63
(lp1418
S'HTTP/1.1'
p1419
asbasbasbag56
(g72
g58
NtRp1420
(dp1421
g61
(dp1422
sg70
g847
sg63
(lp1423
g56
(g77
g58
NtRp1424
(dp1425
g61
(dp1426
g81
g82
ssg70
g1420
sg63
(lp1427
S'server_software'
p1428
asbag56
(g77
g58
NtRp1429
(dp1430
g61
(dp1431
g88
g89
ssg70
g1420
sg63
(lp1432
S':'
asbag56
(g77
g58
NtRp1433
(dp1434
g61
(dp1435
sg70
g1420
sg63
(lp1436
g56
(g57
g58
NtRp1437
(dp1438
g61
(dp1439
g69
I4
ssg70
g1433
sg63
(lp1440
S'Rocket 1.2.4'
p1441
asbasbasbag56
(g72
g58
NtRp1442
(dp1443
g61
(dp1444
sg70
g847
sg63
(lp1445
g56
(g77
g58
NtRp1446
(dp1447
g61
(dp1448
g81
g82
ssg70
g1442
sg63
(lp1449
S'web2py_crontype'
p1450
asbag56
(g77
g58
NtRp1451
(dp1452
g61
(dp1453
g88
g89
ssg70
g1442
sg63
(lp1454
S':'
asbag56
(g77
g58
NtRp1455
(dp1456
g61
(dp1457
sg70
g1442
sg63
(lp1458
g56
(g57
g58
NtRp1459
(dp1460
g61
(dp1461
g69
I4
ssg70
g1455
sg63
(lp1462
S'hard'
p1463
asbasbasbag56
(g72
g58
NtRp1464
(dp1465
g61
(dp1466
sg70
g847
sg63
(lp1467
g56
(g77
g58
NtRp1468
(dp1469
g61
(dp1470
g81
g82
ssg70
g1464
sg63
(lp1471
S'web2py_original_uri'
p1472
asbag56
(g77
g58
NtRp1473
(dp1474
g61
(dp1475
g88
g89
ssg70
g1464
sg63
(lp1476
S':'
asbag56
(g77
g58
NtRp1477
(dp1478
g61
(dp1479
sg70
g1464
sg63
(lp1480
g56
(g57
g58
NtRp1481
(dp1482
g61
(dp1483
g69
I4
ssg70
g1477
sg63
(lp1484
g1225
asbasbasbag56
(g72
g58
NtRp1485
(dp1486
g61
(dp1487
sg70
g847
sg63
(lp1488
g56
(g77
g58
NtRp1489
(dp1490
g61
(dp1491
g81
g82
ssg70
g1485
sg63
(lp1492
S'web2py_path'
p1493
asbag56
(g77
g58
NtRp1494
(dp1495
g61
(dp1496
g88
g89
ssg70
g1485
sg63
(lp1497
S':'
asbag56
(g77
g58
NtRp1498
(dp1499
g61
(dp1500
sg70
g1485
sg63
(lp1501
g56
(g57
g58
NtRp1502
(dp1503
g61
(dp1504
g69
I4
ssg70
g1498
sg63
(lp1505
g894
asbasbasbag56
(g72
g58
NtRp1506
(dp1507
g61
(dp1508
sg70
g847
sg63
(lp1509
g56
(g77
g58
NtRp1510
(dp1511
g61
(dp1512
g81
g82
ssg70
g1506
sg63
(lp1513
S'web2py_version'
p1514
asbag56
(g77
g58
NtRp1515
(dp1516
g61
(dp1517
g88
g89
ssg70
g1506
sg63
(lp1518
S':'
asbag56
(g77
g58
NtRp1519
(dp1520
g61
(dp1521
sg70
g1506
sg63
(lp1522
g56
(g57
g58
NtRp1523
(dp1524
g61
(dp1525
g69
I4
ssg70
g1519
sg63
(lp1526
g56
(g65
g58
NtRp1527
(dp1528
g61
(dp1529
g69
I3
ssg70
Nsg63
(lp1530
g56
(g72
g58
NtRp1531
(dp1532
g61
(dp1533
sg70
g1527
sg63
(lp1534
g56
(g77
g58
NtRp1535
(dp1536
g61
(dp1537
sg70
g1531
sg63
(lp1538
g56
(g57
g58
NtRp1539
(dp1540
g61
(dp1541
g69
I3
ssg70
g1535
sg63
(lp1542
S'1'
asbasbasbag56
(g72
g58
NtRp1543
(dp1544
g61
(dp1545
sg70
g1527
sg63
(lp1546
g56
(g77
g58
NtRp1547
(dp1548
g61
(dp1549
sg70
g1543
sg63
(lp1550
g56
(g57
g58
NtRp1551
(dp1552
g61
(dp1553
g69
I3
ssg70
g1547
sg63
(lp1554
S'99'
p1555
asbasbasbag56
(g72
g58
NtRp1556
(dp1557
g61
(dp1558
sg70
g1527
sg63
(lp1559
g56
(g77
g58
NtRp1560
(dp1561
g61
(dp1562
sg70
g1556
sg63
(lp1563
g56
(g57
g58
NtRp1564
(dp1565
g61
(dp1566
g69
I3
ssg70
g1560
sg63
(lp1567
S'2'
asbasbasbag56
(g72
g58
NtRp1568
(dp1569
g61
(dp1570
sg70
g1527
sg63
(lp1571
g56
(g77
g58
NtRp1572
(dp1573
g61
(dp1574
sg70
g1568
sg63
(lp1575
g56
(g57
g58
NtRp1576
(dp1577
g61
(dp1578
g69
I3
ssg70
g1572
sg63
(lp1579
S'datetime.datetime(2011, 9, 26, 6, 55, 33)'
p1580
asbasbasbag56
(g72
g58
NtRp1581
(dp1582
g61
(dp1583
sg70
g1527
sg63
(lp1584
g56
(g77
g58
NtRp1585
(dp1586
g61
(dp1587
sg70
g1581
sg63
(lp1588
g56
(g57
g58
NtRp1589
(dp1590
g61
(dp1591
g69
I3
ssg70
g1585
sg63
(lp1592
S'stable'
p1593
asbasbasbasbasbasbasbag56
(g72
g58
NtRp1594
(dp1595
g61
(dp1596
sg70
g847
sg63
(lp1597
g56
(g77
g58
NtRp1598
(dp1599
g61
(dp1600
g81
g82
ssg70
g1594
sg63
(lp1601
S'wsgi_errors'
p1602
asbag56
(g77
g58
NtRp1603
(dp1604
g61
(dp1605
g88
g89
ssg70
g1594
sg63
(lp1606
S':'
asbag56
(g77
g58
NtRp1607
(dp1608
g61
(dp1609
sg70
g1594
sg63
(lp1610
g56
(g57
g58
NtRp1611
(dp1612
g61
(dp1613
g69
I4
ssg70
g1607
sg63
(lp1614
S"<open file '<stderr>', mode 'w' at 0x7f80c77741e0>"
p1615
asbasbasbag56
(g72
g58
NtRp1616
(dp1617
g61
(dp1618
sg70
g847
sg63
(lp1619
g56
(g77
g58
NtRp1620
(dp1621
g61
(dp1622
g81
g82
ssg70
g1616
sg63
(lp1623
S'wsgi_file_wrapper'
p1624
asbag56
(g77
g58
NtRp1625
(dp1626
g61
(dp1627
g88
g89
ssg70
g1616
sg63
(lp1628
S':'
asbag56
(g77
g58
NtRp1629
(dp1630
g61
(dp1631
sg70
g1616
sg63
(lp1632
g56
(g57
g58
NtRp1633
(dp1634
g61
(dp1635
g69
I4
ssg70
g1629
sg63
(lp1636
S'<class wsgiref.util.FileWrapper at 0x2789590>'
p1637
asbasbasbag56
(g72
g58
NtRp1638
(dp1639
g61
(dp1640
sg70
g847
sg63
(lp1641
g56
(g77
g58
NtRp1642
(dp1643
g61
(dp1644
g81
g82
ssg70
g1638
sg63
(lp1645
S'wsgi_input'
p1646
asbag56
(g77
g58
NtRp1647
(dp1648
g61
(dp1649
g88
g89
ssg70
g1638
sg63
(lp1650
S':'
asbag56
(g77
g58
NtRp1651
(dp1652
g61
(dp1653
sg70
g1638
sg63
(lp1654
g56
(g57
g58
NtRp1655
(dp1656
g61
(dp1657
g69
I4
ssg70
g1651
sg63
(lp1658
S'<socket._fileobject object at 0x35caf50>'
p1659
asbasbasbag56
(g72
g58
NtRp1660
(dp1661
g61
(dp1662
sg70
g847
sg63
(lp1663
g56
(g77
g58
NtRp1664
(dp1665
g61
(dp1666
g81
g82
ssg70
g1660
sg63
(lp1667
S'wsgi_multiprocess'
p1668
asbag56
(g77
g58
NtRp1669
(dp1670
g61
(dp1671
g88
g89
ssg70
g1660
sg63
(lp1672
S':'
asbag56
(g77
g58
NtRp1673
(dp1674
g61
(dp1675
sg70
g1660
sg63
(lp1676
g56
(g57
g58
NtRp1677
(dp1678
g61
(dp1679
g69
I4
ssg70
g1673
sg63
(lp1680
g99
asbasbasbag56
(g72
g58
NtRp1681
(dp1682
g61
(dp1683
sg70
g847
sg63
(lp1684
g56
(g77
g58
NtRp1685
(dp1686
g61
(dp1687
g81
g82
ssg70
g1681
sg63
(lp1688
S'wsgi_multithread'
p1689
asbag56
(g77
g58
NtRp1690
(dp1691
g61
(dp1692
g88
g89
ssg70
g1681
sg63
(lp1693
S':'
asbag56
(g77
g58
NtRp1694
(dp1695
g61
(dp1696
sg70
g1681
sg63
(lp1697
g56
(g57
g58
NtRp1698
(dp1699
g61
(dp1700
g69
I4
ssg70
g1694
sg63
(lp1701
S'True'
p1702
asbasbasbag56
(g72
g58
NtRp1703
(dp1704
g61
(dp1705
sg70
g847
sg63
(lp1706
g56
(g77
g58
NtRp1707
(dp1708
g61
(dp1709
g81
g82
ssg70
g1703
sg63
(lp1710
S'wsgi_run_once'
p1711
asbag56
(g77
g58
NtRp1712
(dp1713
g61
(dp1714
g88
g89
ssg70
g1703
sg63
(lp1715
S':'
asbag56
(g77
g58
NtRp1716
(dp1717
g61
(dp1718
sg70
g1703
sg63
(lp1719
g56
(g57
g58
NtRp1720
(dp1721
g61
(dp1722
g69
I4
ssg70
g1716
sg63
(lp1723
g99
asbasbasbag56
(g72
g58
NtRp1724
(dp1725
g61
(dp1726
sg70
g847
sg63
(lp1727
g56
(g77
g58
NtRp1728
(dp1729
g61
(dp1730
g81
g82
ssg70
g1724
sg63
(lp1731
S'wsgi_url_scheme'
p1732
asbag56
(g77
g58
NtRp1733
(dp1734
g61
(dp1735
g88
g89
ssg70
g1724
sg63
(lp1736
S':'
asbag56
(g77
g58
NtRp1737
(dp1738
g61
(dp1739
sg70
g1724
sg63
(lp1740
g56
(g57
g58
NtRp1741
(dp1742
g61
(dp1743
g69
I4
ssg70
g1737
sg63
(lp1744
S'http'
p1745
asbasbasbag56
(g72
g58
NtRp1746
(dp1747
g61
(dp1748
sg70
g847
sg63
(lp1749
g56
(g77
g58
NtRp1750
(dp1751
g61
(dp1752
g81
g82
ssg70
g1746
sg63
(lp1753
S'wsgi_version'
p1754
asbag56
(g77
g58
NtRp1755
(dp1756
g61
(dp1757
g88
g89
ssg70
g1746
sg63
(lp1758
S':'
asbag56
(g77
g58
NtRp1759
(dp1760
g61
(dp1761
sg70
g1746
sg63
(lp1762
g56
(g57
g58
NtRp1763
(dp1764
g61
(dp1765
g69
I4
ssg70
g1759
sg63
(lp1766
g56
(g65
g58
NtRp1767
(dp1768
g61
(dp1769
g69
I3
ssg70
Nsg63
(lp1770
g56
(g72
g58
NtRp1771
(dp1772
g61
(dp1773
sg70
g1767
sg63
(lp1774
g56
(g77
g58
NtRp1775
(dp1776
g61
(dp1777
sg70
g1771
sg63
(lp1778
g56
(g57
g58
NtRp1779
(dp1780
g61
(dp1781
g69
I3
ssg70
g1775
sg63
(lp1782
S'1'
asbasbasbag56
(g72
g58
NtRp1783
(dp1784
g61
(dp1785
sg70
g1767
sg63
(lp1786
g56
(g77
g58
NtRp1787
(dp1788
g61
(dp1789
sg70
g1783
sg63
(lp1790
g56
(g57
g58
NtRp1791
(dp1792
g61
(dp1793
g69
I3
ssg70
g1787
sg63
(lp1794
S'0'
asbasbasbasbasbasbasbasbasbasbasbag56
(g72
g58
NtRp1795
(dp1796
g61
(dp1797
sg70
g66
sg63
(lp1798
g56
(g77
g58
NtRp1799
(dp1800
g61
(dp1801
g81
g82
ssg70
g1795
sg63
(lp1802
S'extension'
p1803
asbag56
(g77
g58
NtRp1804
(dp1805
g61
(dp1806
g88
g89
ssg70
g1795
sg63
(lp1807
S':'
asbag56
(g77
g58
NtRp1808
(dp1809
g61
(dp1810
sg70
g1795
sg63
(lp1811
g56
(g57
g58
NtRp1812
(dp1813
g61
(dp1814
g69
I5
ssg70
g1808
sg63
(lp1815
S'html'
p1816
asbasbasbag56
(g72
g58
NtRp1817
(dp1818
g61
(dp1819
sg70
g66
sg63
(lp1820
g56
(g77
g58
NtRp1821
(dp1822
g61
(dp1823
g81
g82
ssg70
g1817
sg63
(lp1824
S'folder'
p1825
asbag56
(g77
g58
NtRp1826
(dp1827
g61
(dp1828
g88
g89
ssg70
g1817
sg63
(lp1829
S':'
asbag56
(g77
g58
NtRp1830
(dp1831
g61
(dp1832
sg70
g1817
sg63
(lp1833
g56
(g57
g58
NtRp1834
(dp1835
g61
(dp1836
g69
I5
ssg70
g1830
sg63
(lp1837
S'/windows/Users/Thomas/Dropbox/appz/2011/GAE/ddl-lagoon/applications/ddlagoon/'
p1838
asbasbasbag56
(g72
g58
NtRp1839
(dp1840
g61
(dp1841
sg70
g66
sg63
(lp1842
g56
(g77
g58
NtRp1843
(dp1844
g61
(dp1845
g81
g82
ssg70
g1839
sg63
(lp1846
S'function'
p1847
asbag56
(g77
g58
NtRp1848
(dp1849
g61
(dp1850
g88
g89
ssg70
g1839
sg63
(lp1851
S':'
asbag56
(g77
g58
NtRp1852
(dp1853
g61
(dp1854
sg70
g1839
sg63
(lp1855
g56
(g57
g58
NtRp1856
(dp1857
g61
(dp1858
g69
I5
ssg70
g1852
sg63
(lp1859
S'get'
p1860
asbasbasbag56
(g72
g58
NtRp1861
(dp1862
g61
(dp1863
sg70
g66
sg63
(lp1864
g56
(g77
g58
NtRp1865
(dp1866
g61
(dp1867
g81
g82
ssg70
g1861
sg63
(lp1868
S'get_vars'
p1869
asbag56
(g77
g58
NtRp1870
(dp1871
g61
(dp1872
g88
g89
ssg70
g1861
sg63
(lp1873
S':'
asbag56
(g77
g58
NtRp1874
(dp1875
g61
(dp1876
sg70
g1861
sg63
(lp1877
g56
(g57
g58
NtRp1878
(dp1879
g61
(dp1880
g69
I5
ssg70
g1874
sg63
(lp1881
g56
(g65
g58
NtRp1882
(dp1883
g61
(dp1884
g69
I4
ssg70
Nsg63
(lp1885
sbasbasbasbag56
(g72
g58
NtRp1886
(dp1887
g61
(dp1888
sg70
g66
sg63
(lp1889
g56
(g77
g58
NtRp1890
(dp1891
g61
(dp1892
g81
g82
ssg70
g1886
sg63
(lp1893
S'global_settings'
p1894
asbag56
(g77
g58
NtRp1895
(dp1896
g61
(dp1897
g88
g89
ssg70
g1886
sg63
(lp1898
S':'
asbag56
(g77
g58
NtRp1899
(dp1900
g61
(dp1901
sg70
g1886
sg63
(lp1902
g56
(g57
g58
NtRp1903
(dp1904
g61
(dp1905
g69
I5
ssg70
g1899
sg63
(lp1906
g56
(g65
g58
NtRp1907
(dp1908
g61
(dp1909
g69
I4
ssg70
Nsg63
(lp1910
g56
(g72
g58
NtRp1911
(dp1912
g61
(dp1913
sg70
g1907
sg63
(lp1914
g56
(g77
g58
NtRp1915
(dp1916
g61
(dp1917
g81
g82
ssg70
g1911
sg63
(lp1918
g859
asbag56
(g77
g58
NtRp1919
(dp1920
g61
(dp1921
g88
g89
ssg70
g1911
sg63
(lp1922
S':'
asbag56
(g77
g58
NtRp1923
(dp1924
g61
(dp1925
sg70
g1911
sg63
(lp1926
g56
(g57
g58
NtRp1927
(dp1928
g61
(dp1929
g69
I4
ssg70
g1923
sg63
(lp1930
S"set(['/windows/Users/Thomas/Dropbox/appz/2011/GAE/ddl-lagoon/applications/ddlagoon/', '/windows/Users/Thomas/Dropbox/appz/2011/GAE/ddl-lagoon/applications/welcome/', '/windows/Users/Thomas/Dropbox/appz/2011/GAE/ddl-lagoon/applications/admin/'])"
p1931
asbasbasbag56
(g72
g58
NtRp1932
(dp1933
g61
(dp1934
sg70
g1907
sg63
(lp1935
g56
(g77
g58
NtRp1936
(dp1937
g61
(dp1938
g81
g82
ssg70
g1932
sg63
(lp1939
g881
asbag56
(g77
g58
NtRp1940
(dp1941
g61
(dp1942
g88
g89
ssg70
g1932
sg63
(lp1943
S':'
asbag56
(g77
g58
NtRp1944
(dp1945
g61
(dp1946
sg70
g1932
sg63
(lp1947
g56
(g57
g58
NtRp1948
(dp1949
g61
(dp1950
g69
I4
ssg70
g1944
sg63
(lp1951
g894
asbasbasbag56
(g72
g58
NtRp1952
(dp1953
g61
(dp1954
sg70
g1907
sg63
(lp1955
g56
(g77
g58
NtRp1956
(dp1957
g61
(dp1958
g81
g82
ssg70
g1952
sg63
(lp1959
g903
asbag56
(g77
g58
NtRp1960
(dp1961
g61
(dp1962
g88
g89
ssg70
g1952
sg63
(lp1963
S':'
asbag56
(g77
g58
NtRp1964
(dp1965
g61
(dp1966
sg70
g1952
sg63
(lp1967
g56
(g57
g58
NtRp1968
(dp1969
g61
(dp1970
g69
I4
ssg70
g1964
sg63
(lp1971
g56
(g65
g58
NtRp1972
(dp1973
g61
(dp1974
g69
I3
ssg70
Nsg63
(lp1975
sbasbasbasbag56
(g72
g58
NtRp1976
(dp1977
g61
(dp1978
sg70
g1907
sg63
(lp1979
g56
(g77
g58
NtRp1980
(dp1981
g61
(dp1982
g81
g82
ssg70
g1976
sg63
(lp1983
g928
asbag56
(g77
g58
NtRp1984
(dp1985
g61
(dp1986
g88
g89
ssg70
g1976
sg63
(lp1987
S':'
asbag56
(g77
g58
NtRp1988
(dp1989
g61
(dp1990
sg70
g1976
sg63
(lp1991
g56
(g57
g58
NtRp1992
(dp1993
g61
(dp1994
g69
I4
ssg70
g1988
sg63
(lp1995
S"<Values at 0x2d4df38: {'verbose': False, 'ip': '127.0.0.1', 'shutdown_timeout': 5, 'taskbar': False, 'nocron': False, 'pid_filename': 'httpserver.pid', 'maxthreads': None, 'softcron': False, 'server_name': 'VPCF22AJ', 'bpython': False, 'nogui': False, 'port': 8000, 'extcron': False, 'debuglevel': 30, 'test': None, 'folder': '/windows/Users/Thomas/Dropbox/appz/2011/GAE/ddl-lagoon', 'config': '', 'import_models': False, 'winservice': '', 'shell': None, 'run': '', 'log_filename': 'httpserver.log', 'args': [''], 'ssl_ca_certificate': None, 'scheduler': None, 'profiler_filename': None, 'ssl_private_key': '', 'password': 'admin', 'request_queue_size': 5, 'ssl_certificate': '', 'cronjob': False, 'plain': False, 'quiet': False, 'interfaces': None, 'minthreads': None, 'timeout': 10, 'numthreads': None, 'nobanner': False}>"
p1996
asbasbasbag56
(g72
g58
NtRp1997
(dp1998
g61
(dp1999
sg70
g1907
sg63
(lp2000
g56
(g77
g58
NtRp2001
(dp2002
g61
(dp2003
g81
g82
ssg70
g1997
sg63
(lp2004
g950
asbag56
(g77
g58
NtRp2005
(dp2006
g61
(dp2007
g88
g89
ssg70
g1997
sg63
(lp2008
S':'
asbag56
(g77
g58
NtRp2009
(dp2010
g61
(dp2011
sg70
g1997
sg63
(lp2012
g56
(g57
g58
NtRp2013
(dp2014
g61
(dp2015
g69
I4
ssg70
g2009
sg63
(lp2016
S'set([])'
p2017
asbasbasbag56
(g72
g58
NtRp2018
(dp2019
g61
(dp2020
sg70
g1907
sg63
(lp2021
g56
(g77
g58
NtRp2022
(dp2023
g61
(dp2024
g81
g82
ssg70
g2018
sg63
(lp2025
g972
asbag56
(g77
g58
NtRp2026
(dp2027
g61
(dp2028
g88
g89
ssg70
g2018
sg63
(lp2029
S':'
asbag56
(g77
g58
NtRp2030
(dp2031
g61
(dp2032
sg70
g2018
sg63
(lp2033
g56
(g57
g58
NtRp2034
(dp2035
g61
(dp2036
g69
I4
ssg70
g2030
sg63
(lp2037
g99
asbasbasbag56
(g72
g58
NtRp2038
(dp2039
g61
(dp2040
sg70
g1907
sg63
(lp2041
g56
(g77
g58
NtRp2042
(dp2043
g61
(dp2044
g81
g82
ssg70
g2038
sg63
(lp2045
g993
asbag56
(g77
g58
NtRp2046
(dp2047
g61
(dp2048
g88
g89
ssg70
g2038
sg63
(lp2049
S':'
asbag56
(g77
g58
NtRp2050
(dp2051
g61
(dp2052
sg70
g2038
sg63
(lp2053
g56
(g57
g58
NtRp2054
(dp2055
g61
(dp2056
g69
I4
ssg70
g2050
sg63
(lp2057
g1006
asbasbasbag56
(g72
g58
NtRp2058
(dp2059
g61
(dp2060
sg70
g1907
sg63
(lp2061
g56
(g77
g58
NtRp2062
(dp2063
g61
(dp2064
g81
g82
ssg70
g2058
sg63
(lp2065
g1191
asbag56
(g77
g58
NtRp2066
(dp2067
g61
(dp2068
g88
g89
ssg70
g2058
sg63
(lp2069
S':'
asbag56
(g77
g58
NtRp2070
(dp2071
g61
(dp2072
sg70
g2058
sg63
(lp2073
g56
(g57
g58
NtRp2074
(dp2075
g61
(dp2076
g69
I4
ssg70
g2070
sg63
(lp2077
g99
asbasbasbag56
(g72
g58
NtRp2078
(dp2079
g61
(dp2080
sg70
g1907
sg63
(lp2081
g56
(g77
g58
NtRp2082
(dp2083
g61
(dp2084
g81
g82
ssg70
g2078
sg63
(lp2085
g1450
asbag56
(g77
g58
NtRp2086
(dp2087
g61
(dp2088
g88
g89
ssg70
g2078
sg63
(lp2089
S':'
asbag56
(g77
g58
NtRp2090
(dp2091
g61
(dp2092
sg70
g2078
sg63
(lp2093
g56
(g57
g58
NtRp2094
(dp2095
g61
(dp2096
g69
I4
ssg70
g2090
sg63
(lp2097
g1463
asbasbasbag56
(g72
g58
NtRp2098
(dp2099
g61
(dp2100
sg70
g1907
sg63
(lp2101
g56
(g77
g58
NtRp2102
(dp2103
g61
(dp2104
g81
g82
ssg70
g2098
sg63
(lp2105
g1514
asbag56
(g77
g58
NtRp2106
(dp2107
g61
(dp2108
g88
g89
ssg70
g2098
sg63
(lp2109
S':'
asbag56
(g77
g58
NtRp2110
(dp2111
g61
(dp2112
sg70
g2098
sg63
(lp2113
g56
(g57
g58
NtRp2114
(dp2115
g61
(dp2116
g69
I4
ssg70
g2110
sg63
(lp2117
g56
(g65
g58
NtRp2118
(dp2119
g61
(dp2120
g69
I3
ssg70
Nsg63
(lp2121
g56
(g72
g58
NtRp2122
(dp2123
g61
(dp2124
sg70
g2118
sg63
(lp2125
g56
(g77
g58
NtRp2126
(dp2127
g61
(dp2128
sg70
g2122
sg63
(lp2129
g56
(g57
g58
NtRp2130
(dp2131
g61
(dp2132
g69
I3
ssg70
g2126
sg63
(lp2133
S'1'
asbasbasbag56
(g72
g58
NtRp2134
(dp2135
g61
(dp2136
sg70
g2118
sg63
(lp2137
g56
(g77
g58
NtRp2138
(dp2139
g61
(dp2140
sg70
g2134
sg63
(lp2141
g56
(g57
g58
NtRp2142
(dp2143
g61
(dp2144
g69
I3
ssg70
g2138
sg63
(lp2145
S'99'
p2146
asbasbasbag56
(g72
g58
NtRp2147
(dp2148
g61
(dp2149
sg70
g2118
sg63
(lp2150
g56
(g77
g58
NtRp2151
(dp2152
g61
(dp2153
sg70
g2147
sg63
(lp2154
g56
(g57
g58
NtRp2155
(dp2156
g61
(dp2157
g69
I3
ssg70
g2151
sg63
(lp2158
S'2'
asbasbasbag56
(g72
g58
NtRp2159
(dp2160
g61
(dp2161
sg70
g2118
sg63
(lp2162
g56
(g77
g58
NtRp2163
(dp2164
g61
(dp2165
sg70
g2159
sg63
(lp2166
g56
(g57
g58
NtRp2167
(dp2168
g61
(dp2169
g69
I3
ssg70
g2163
sg63
(lp2170
S'datetime.datetime(2011, 9, 26, 6, 55, 33)'
p2171
asbasbasbag56
(g72
g58
NtRp2172
(dp2173
g61
(dp2174
sg70
g2118
sg63
(lp2175
g56
(g77
g58
NtRp2176
(dp2177
g61
(dp2178
sg70
g2172
sg63
(lp2179
g56
(g57
g58
NtRp2180
(dp2181
g61
(dp2182
g69
I3
ssg70
g2176
sg63
(lp2183
g1593
asbasbasbasbasbasbasbasbasbasbasbag56
(g72
g58
NtRp2184
(dp2185
g61
(dp2186
sg70
g66
sg63
(lp2187
g56
(g77
g58
NtRp2188
(dp2189
g61
(dp2190
g81
g82
ssg70
g2184
sg63
(lp2191
S'is_https'
p2192
asbag56
(g77
g58
NtRp2193
(dp2194
g61
(dp2195
g88
g89
ssg70
g2184
sg63
(lp2196
S':'
asbag56
(g77
g58
NtRp2197
(dp2198
g61
(dp2199
sg70
g2184
sg63
(lp2200
g56
(g57
g58
NtRp2201
(dp2202
g61
(dp2203
g69
I5
ssg70
g2197
sg63
(lp2204
g99
asbasbasbag56
(g72
g58
NtRp2205
(dp2206
g61
(dp2207
sg70
g66
sg63
(lp2208
g56
(g77
g58
NtRp2209
(dp2210
g61
(dp2211
g81
g82
ssg70
g2205
sg63
(lp2212
S'is_local'
p2213
asbag56
(g77
g58
NtRp2214
(dp2215
g61
(dp2216
g88
g89
ssg70
g2205
sg63
(lp2217
S':'
asbag56
(g77
g58
NtRp2218
(dp2219
g61
(dp2220
sg70
g2205
sg63
(lp2221
g56
(g57
g58
NtRp2222
(dp2223
g61
(dp2224
g69
I5
ssg70
g2218
sg63
(lp2225
g1702
asbasbasbag56
(g72
g58
NtRp2226
(dp2227
g61
(dp2228
sg70
g66
sg63
(lp2229
g56
(g77
g58
NtRp2230
(dp2231
g61
(dp2232
g81
g82
ssg70
g2226
sg63
(lp2233
S'is_restful'
p2234
asbag56
(g77
g58
NtRp2235
(dp2236
g61
(dp2237
g88
g89
ssg70
g2226
sg63
(lp2238
S':'
asbag56
(g77
g58
NtRp2239
(dp2240
g61
(dp2241
sg70
g2226
sg63
(lp2242
g56
(g57
g58
NtRp2243
(dp2244
g61
(dp2245
g69
I5
ssg70
g2239
sg63
(lp2246
g99
asbasbasbag56
(g72
g58
NtRp2247
(dp2248
g61
(dp2249
sg70
g66
sg63
(lp2250
g56
(g77
g58
NtRp2251
(dp2252
g61
(dp2253
g81
g82
ssg70
g2247
sg63
(lp2254
S'now'
p2255
asbag56
(g77
g58
NtRp2256
(dp2257
g61
(dp2258
g88
g89
ssg70
g2247
sg63
(lp2259
S':'
asbag56
(g77
g58
NtRp2260
(dp2261
g61
(dp2262
sg70
g2247
sg63
(lp2263
g56
(g57
g58
NtRp2264
(dp2265
g61
(dp2266
g69
I5
ssg70
g2260
sg63
(lp2267
S'datetime.datetime(2011, 10, 26, 22, 33, 48, 591463)'
p2268
asbasbasbag56
(g72
g58
NtRp2269
(dp2270
g61
(dp2271
sg70
g66
sg63
(lp2272
g56
(g77
g58
NtRp2273
(dp2274
g61
(dp2275
g81
g82
ssg70
g2269
sg63
(lp2276
S'post_vars'
p2277
asbag56
(g77
g58
NtRp2278
(dp2279
g61
(dp2280
g88
g89
ssg70
g2269
sg63
(lp2281
S':'
asbag56
(g77
g58
NtRp2282
(dp2283
g61
(dp2284
sg70
g2269
sg63
(lp2285
g56
(g57
g58
NtRp2286
(dp2287
g61
(dp2288
g69
I5
ssg70
g2282
sg63
(lp2289
g56
(g65
g58
NtRp2290
(dp2291
g61
(dp2292
g69
I4
ssg70
Nsg63
(lp2293
sbasbasbasbag56
(g72
g58
NtRp2294
(dp2295
g61
(dp2296
sg70
g66
sg63
(lp2297
g56
(g77
g58
NtRp2298
(dp2299
g61
(dp2300
g81
g82
ssg70
g2294
sg63
(lp2301
S'raw_args'
p2302
asbag56
(g77
g58
NtRp2303
(dp2304
g61
(dp2305
g88
g89
ssg70
g2294
sg63
(lp2306
S':'
asbag56
(g77
g58
NtRp2307
(dp2308
g61
(dp2309
sg70
g2294
sg63
(lp2310
g56
(g57
g58
NtRp2311
(dp2312
g61
(dp2313
g69
I5
ssg70
g2307
sg63
(lp2314
S'xml/ddl'
p2315
asbasbasbag56
(g72
g58
NtRp2316
(dp2317
g61
(dp2318
sg70
g66
sg63
(lp2319
g56
(g77
g58
NtRp2320
(dp2321
g61
(dp2322
g81
g82
ssg70
g2316
sg63
(lp2323
S'url'
p2324
asbag56
(g77
g58
NtRp2325
(dp2326
g61
(dp2327
g88
g89
ssg70
g2316
sg63
(lp2328
S':'
asbag56
(g77
g58
NtRp2329
(dp2330
g61
(dp2331
sg70
g2316
sg63
(lp2332
g56
(g57
g58
NtRp2333
(dp2334
g61
(dp2335
g69
I5
ssg70
g2329
sg63
(lp2336
S'/ddlagoon/ddl/get/xml/ddl'
p2337
asbasbasbag56
(g72
g58
NtRp2338
(dp2339
g61
(dp2340
sg70
g66
sg63
(lp2341
g56
(g77
g58
NtRp2342
(dp2343
g61
(dp2344
g81
g82
ssg70
g2338
sg63
(lp2345
S'utcnow'
p2346
asbag56
(g77
g58
NtRp2347
(dp2348
g61
(dp2349
g88
g89
ssg70
g2338
sg63
(lp2350
S':'
asbag56
(g77
g58
NtRp2351
(dp2352
g61
(dp2353
sg70
g2338
sg63
(lp2354
g56
(g57
g58
NtRp2355
(dp2356
g61
(dp2357
g69
I5
ssg70
g2351
sg63
(lp2358
S'datetime.datetime(2011, 10, 26, 21, 33, 48, 591477)'
p2359
asbasbasbag56
(g72
g58
NtRp2360
(dp2361
g61
(dp2362
sg70
g66
sg63
(lp2363
g56
(g77
g58
NtRp2364
(dp2365
g61
(dp2366
g81
g82
ssg70
g2360
sg63
(lp2367
S'uuid'
p2368
asbag56
(g77
g58
NtRp2369
(dp2370
g61
(dp2371
g88
g89
ssg70
g2360
sg63
(lp2372
S':'
asbag56
(g77
g58
NtRp2373
(dp2374
g61
(dp2375
sg70
g2360
sg63
(lp2376
g56
(g57
g58
NtRp2377
(dp2378
g61
(dp2379
g69
I5
ssg70
g2373
sg63
(lp2380
S'ddlagoon/127.0.0.1.2011-10-26.22-33-48.07c65bb0-9c73-474d-b962-8e3fbe338101'
p2381
asbasbasbag56
(g72
g58
NtRp2382
(dp2383
g61
(dp2384
sg70
g66
sg63
(lp2385
g56
(g77
g58
NtRp2386
(dp2387
g61
(dp2388
g81
g82
ssg70
g2382
sg63
(lp2389
S'vars'
p2390
asbag56
(g77
g58
NtRp2391
(dp2392
g61
(dp2393
g88
g89
ssg70
g2382
sg63
(lp2394
S':'
asbag56
(g77
g58
NtRp2395
(dp2396
g61
(dp2397
sg70
g2382
sg63
(lp2398
g56
(g57
g58
NtRp2399
(dp2400
g61
(dp2401
g69
I5
ssg70
g2395
sg63
(lp2402
g56
(g65
g58
NtRp2403
(dp2404
g61
(dp2405
g69
I4
ssg70
Nsg63
(lp2406
sbasbasbasbag56
(g72
g58
NtRp2407
(dp2408
g61
(dp2409
sg70
g66
sg63
(lp2410
g56
(g77
g58
NtRp2411
(dp2412
g61
(dp2413
g81
g82
ssg70
g2407
sg63
(lp2414
S'wsgi'
p2415
asbag56
(g77
g58
NtRp2416
(dp2417
g61
(dp2418
g88
g89
ssg70
g2407
sg63
(lp2419
S':'
asbag56
(g77
g58
NtRp2420
(dp2421
g61
(dp2422
sg70
g2407
sg63
(lp2423
g56
(g57
g58
NtRp2424
(dp2425
g61
(dp2426
g69
I5
ssg70
g2420
sg63
(lp2427
g56
(g65
g58
NtRp2428
(dp2429
g61
(dp2430
g69
I4
ssg70
Nsg63
(lp2431
g56
(g72
g58
NtRp2432
(dp2433
g61
(dp2434
sg70
g2428
sg63
(lp2435
g56
(g77
g58
NtRp2436
(dp2437
g61
(dp2438
g81
g82
ssg70
g2432
sg63
(lp2439
S'environ'
p2440
asbag56
(g77
g58
NtRp2441
(dp2442
g61
(dp2443
g88
g89
ssg70
g2432
sg63
(lp2444
S':'
asbag56
(g77
g58
NtRp2445
(dp2446
g61
(dp2447
sg70
g2432
sg63
(lp2448
g56
(g57
g58
NtRp2449
(dp2450
g61
(dp2451
g69
I4
ssg70
g2445
sg63
(lp2452
g56
(g65
g58
NtRp2453
(dp2454
g61
(dp2455
g69
I3
ssg70
Nsg63
(lp2456
g56
(g72
g58
NtRp2457
(dp2458
g61
(dp2459
sg70
g2453
sg63
(lp2460
g56
(g77
g58
NtRp2461
(dp2462
g61
(dp2463
g81
g82
ssg70
g2457
sg63
(lp2464
S'HTTP_ACCEPT'
p2465
asbag56
(g77
g58
NtRp2466
(dp2467
g61
(dp2468
g88
g89
ssg70
g2457
sg63
(lp2469
S':'
asbag56
(g77
g58
NtRp2470
(dp2471
g61
(dp2472
sg70
g2457
sg63
(lp2473
g56
(g57
g58
NtRp2474
(dp2475
g61
(dp2476
g69
I3
ssg70
g2470
sg63
(lp2477
g1028
asbasbasbag56
(g72
g58
NtRp2478
(dp2479
g61
(dp2480
sg70
g2453
sg63
(lp2481
g56
(g77
g58
NtRp2482
(dp2483
g61
(dp2484
g81
g82
ssg70
g2478
sg63
(lp2485
S'HTTP_ACCEPT_CHARSET'
p2486
asbag56
(g77
g58
NtRp2487
(dp2488
g61
(dp2489
g88
g89
ssg70
g2478
sg63
(lp2490
S':'
asbag56
(g77
g58
NtRp2491
(dp2492
g61
(dp2493
sg70
g2478
sg63
(lp2494
g56
(g57
g58
NtRp2495
(dp2496
g61
(dp2497
g69
I3
ssg70
g2491
sg63
(lp2498
g1050
asbasbasbag56
(g72
g58
NtRp2499
(dp2500
g61
(dp2501
sg70
g2453
sg63
(lp2502
g56
(g77
g58
NtRp2503
(dp2504
g61
(dp2505
g81
g82
ssg70
g2499
sg63
(lp2506
S'HTTP_ACCEPT_ENCODING'
p2507
asbag56
(g77
g58
NtRp2508
(dp2509
g61
(dp2510
g88
g89
ssg70
g2499
sg63
(lp2511
S':'
asbag56
(g77
g58
NtRp2512
(dp2513
g61
(dp2514
sg70
g2499
sg63
(lp2515
g56
(g57
g58
NtRp2516
(dp2517
g61
(dp2518
g69
I3
ssg70
g2512
sg63
(lp2519
g1072
asbasbasbag56
(g72
g58
NtRp2520
(dp2521
g61
(dp2522
sg70
g2453
sg63
(lp2523
g56
(g77
g58
NtRp2524
(dp2525
g61
(dp2526
g81
g82
ssg70
g2520
sg63
(lp2527
S'HTTP_ACCEPT_LANGUAGE'
p2528
asbag56
(g77
g58
NtRp2529
(dp2530
g61
(dp2531
g88
g89
ssg70
g2520
sg63
(lp2532
S':'
asbag56
(g77
g58
NtRp2533
(dp2534
g61
(dp2535
sg70
g2520
sg63
(lp2536
g56
(g57
g58
NtRp2537
(dp2538
g61
(dp2539
g69
I3
ssg70
g2533
sg63
(lp2540
g1094
asbasbasbag56
(g72
g58
NtRp2541
(dp2542
g61
(dp2543
sg70
g2453
sg63
(lp2544
g56
(g77
g58
NtRp2545
(dp2546
g61
(dp2547
g81
g82
ssg70
g2541
sg63
(lp2548
S'HTTP_CONNECTION'
p2549
asbag56
(g77
g58
NtRp2550
(dp2551
g61
(dp2552
g88
g89
ssg70
g2541
sg63
(lp2553
S':'
asbag56
(g77
g58
NtRp2554
(dp2555
g61
(dp2556
sg70
g2541
sg63
(lp2557
g56
(g57
g58
NtRp2558
(dp2559
g61
(dp2560
g69
I3
ssg70
g2554
sg63
(lp2561
g1116
asbasbasbag56
(g72
g58
NtRp2562
(dp2563
g61
(dp2564
sg70
g2453
sg63
(lp2565
g56
(g77
g58
NtRp2566
(dp2567
g61
(dp2568
g81
g82
ssg70
g2562
sg63
(lp2569
S'HTTP_COOKIE'
p2570
asbag56
(g77
g58
NtRp2571
(dp2572
g61
(dp2573
g88
g89
ssg70
g2562
sg63
(lp2574
S':'
asbag56
(g77
g58
NtRp2575
(dp2576
g61
(dp2577
sg70
g2562
sg63
(lp2578
g56
(g57
g58
NtRp2579
(dp2580
g61
(dp2581
g69
I3
ssg70
g2575
sg63
(lp2582
g1138
asbasbasbag56
(g72
g58
NtRp2583
(dp2584
g61
(dp2585
sg70
g2453
sg63
(lp2586
g56
(g77
g58
NtRp2587
(dp2588
g61
(dp2589
g81
g82
ssg70
g2583
sg63
(lp2590
S'HTTP_HOST'
p2591
asbag56
(g77
g58
NtRp2592
(dp2593
g61
(dp2594
g88
g89
ssg70
g2583
sg63
(lp2595
S':'
asbag56
(g77
g58
NtRp2596
(dp2597
g61
(dp2598
sg70
g2583
sg63
(lp2599
g56
(g57
g58
NtRp2600
(dp2601
g61
(dp2602
g69
I3
ssg70
g2596
sg63
(lp2603
g1160
asbasbasbag56
(g72
g58
NtRp2604
(dp2605
g61
(dp2606
sg70
g2453
sg63
(lp2607
g56
(g77
g58
NtRp2608
(dp2609
g61
(dp2610
g81
g82
ssg70
g2604
sg63
(lp2611
S'HTTP_USER_AGENT'
p2612
asbag56
(g77
g58
NtRp2613
(dp2614
g61
(dp2615
g88
g89
ssg70
g2604
sg63
(lp2616
S':'
asbag56
(g77
g58
NtRp2617
(dp2618
g61
(dp2619
sg70
g2604
sg63
(lp2620
g56
(g57
g58
NtRp2621
(dp2622
g61
(dp2623
g69
I3
ssg70
g2617
sg63
(lp2624
g1182
asbasbasbag56
(g72
g58
NtRp2625
(dp2626
g61
(dp2627
sg70
g2453
sg63
(lp2628
g56
(g77
g58
NtRp2629
(dp2630
g61
(dp2631
g81
g82
ssg70
g2625
sg63
(lp2632
S'PATH_INFO'
p2633
asbag56
(g77
g58
NtRp2634
(dp2635
g61
(dp2636
g88
g89
ssg70
g2625
sg63
(lp2637
S':'
asbag56
(g77
g58
NtRp2638
(dp2639
g61
(dp2640
sg70
g2625
sg63
(lp2641
g56
(g57
g58
NtRp2642
(dp2643
g61
(dp2644
g69
I3
ssg70
g2638
sg63
(lp2645
g1225
asbasbasbag56
(g72
g58
NtRp2646
(dp2647
g61
(dp2648
sg70
g2453
sg63
(lp2649
g56
(g77
g58
NtRp2650
(dp2651
g61
(dp2652
g81
g82
ssg70
g2646
sg63
(lp2653
S'QUERY_STRING'
p2654
asbag56
(g77
g58
NtRp2655
(dp2656
g61
(dp2657
g88
g89
ssg70
g2646
sg63
(lp2658
S':'
asbag56
(g77
g58
NtRp2659
(dp2660
g61
(dp2661
sg70
g2646
sg63
(lp2662
g56
(g57
g58
NtRp2663
(dp2664
g61
(dp2665
g69
I3
ssg70
g2659
sg63
(lp2666
S''
asbasbasbag56
(g72
g58
NtRp2667
(dp2668
g61
(dp2669
sg70
g2453
sg63
(lp2670
g56
(g77
g58
NtRp2671
(dp2672
g61
(dp2673
g81
g82
ssg70
g2667
sg63
(lp2674
S'REMOTE_ADDR'
p2675
asbag56
(g77
g58
NtRp2676
(dp2677
g61
(dp2678
g88
g89
ssg70
g2667
sg63
(lp2679
S':'
asbag56
(g77
g58
NtRp2680
(dp2681
g61
(dp2682
sg70
g2667
sg63
(lp2683
g56
(g57
g58
NtRp2684
(dp2685
g61
(dp2686
g69
I3
ssg70
g2680
sg63
(lp2687
g215
asbasbasbag56
(g72
g58
NtRp2688
(dp2689
g61
(dp2690
sg70
g2453
sg63
(lp2691
g56
(g77
g58
NtRp2692
(dp2693
g61
(dp2694
g81
g82
ssg70
g2688
sg63
(lp2695
S'REMOTE_PORT'
p2696
asbag56
(g77
g58
NtRp2697
(dp2698
g61
(dp2699
g88
g89
ssg70
g2688
sg63
(lp2700
S':'
asbag56
(g77
g58
NtRp2701
(dp2702
g61
(dp2703
sg70
g2688
sg63
(lp2704
g56
(g57
g58
NtRp2705
(dp2706
g61
(dp2707
g69
I3
ssg70
g2701
sg63
(lp2708
g1289
asbasbasbag56
(g72
g58
NtRp2709
(dp2710
g61
(dp2711
sg70
g2453
sg63
(lp2712
g56
(g77
g58
NtRp2713
(dp2714
g61
(dp2715
g81
g82
ssg70
g2709
sg63
(lp2716
S'REQUEST_METHOD'
p2717
asbag56
(g77
g58
NtRp2718
(dp2719
g61
(dp2720
g88
g89
ssg70
g2709
sg63
(lp2721
S':'
asbag56
(g77
g58
NtRp2722
(dp2723
g61
(dp2724
sg70
g2709
sg63
(lp2725
g56
(g57
g58
NtRp2726
(dp2727
g61
(dp2728
g69
I3
ssg70
g2722
sg63
(lp2729
g1311
asbasbasbag56
(g72
g58
NtRp2730
(dp2731
g61
(dp2732
sg70
g2453
sg63
(lp2733
g56
(g77
g58
NtRp2734
(dp2735
g61
(dp2736
g81
g82
ssg70
g2730
sg63
(lp2737
S'REQUEST_URI'
p2738
asbag56
(g77
g58
NtRp2739
(dp2740
g61
(dp2741
g88
g89
ssg70
g2730
sg63
(lp2742
S':'
asbag56
(g77
g58
NtRp2743
(dp2744
g61
(dp2745
sg70
g2730
sg63
(lp2746
g56
(g57
g58
NtRp2747
(dp2748
g61
(dp2749
g69
I3
ssg70
g2743
sg63
(lp2750
g1225
asbasbasbag56
(g72
g58
NtRp2751
(dp2752
g61
(dp2753
sg70
g2453
sg63
(lp2754
g56
(g77
g58
NtRp2755
(dp2756
g61
(dp2757
g81
g82
ssg70
g2751
sg63
(lp2758
S'SCRIPT_NAME'
p2759
asbag56
(g77
g58
NtRp2760
(dp2761
g61
(dp2762
g88
g89
ssg70
g2751
sg63
(lp2763
S':'
asbag56
(g77
g58
NtRp2764
(dp2765
g61
(dp2766
sg70
g2751
sg63
(lp2767
g56
(g57
g58
NtRp2768
(dp2769
g61
(dp2770
g69
I3
ssg70
g2764
sg63
(lp2771
S''
asbasbasbag56
(g72
g58
NtRp2772
(dp2773
g61
(dp2774
sg70
g2453
sg63
(lp2775
g56
(g77
g58
NtRp2776
(dp2777
g61
(dp2778
g81
g82
ssg70
g2772
sg63
(lp2779
S'SERVER_NAME'
p2780
asbag56
(g77
g58
NtRp2781
(dp2782
g61
(dp2783
g88
g89
ssg70
g2772
sg63
(lp2784
S':'
asbag56
(g77
g58
NtRp2785
(dp2786
g61
(dp2787
sg70
g2772
sg63
(lp2788
g56
(g57
g58
NtRp2789
(dp2790
g61
(dp2791
g69
I3
ssg70
g2785
sg63
(lp2792
g1375
asbasbasbag56
(g72
g58
NtRp2793
(dp2794
g61
(dp2795
sg70
g2453
sg63
(lp2796
g56
(g77
g58
NtRp2797
(dp2798
g61
(dp2799
g81
g82
ssg70
g2793
sg63
(lp2800
S'SERVER_PORT'
p2801
asbag56
(g77
g58
NtRp2802
(dp2803
g61
(dp2804
g88
g89
ssg70
g2793
sg63
(lp2805
S':'
asbag56
(g77
g58
NtRp2806
(dp2807
g61
(dp2808
sg70
g2793
sg63
(lp2809
g56
(g57
g58
NtRp2810
(dp2811
g61
(dp2812
g69
I3
ssg70
g2806
sg63
(lp2813
g1397
asbasbasbag56
(g72
g58
NtRp2814
(dp2815
g61
(dp2816
sg70
g2453
sg63
(lp2817
g56
(g77
g58
NtRp2818
(dp2819
g61
(dp2820
g81
g82
ssg70
g2814
sg63
(lp2821
S'SERVER_PROTOCOL'
p2822
asbag56
(g77
g58
NtRp2823
(dp2824
g61
(dp2825
g88
g89
ssg70
g2814
sg63
(lp2826
S':'
asbag56
(g77
g58
NtRp2827
(dp2828
g61
(dp2829
sg70
g2814
sg63
(lp2830
g56
(g57
g58
NtRp2831
(dp2832
g61
(dp2833
g69
I3
ssg70
g2827
sg63
(lp2834
g1419
asbasbasbag56
(g72
g58
NtRp2835
(dp2836
g61
(dp2837
sg70
g2453
sg63
(lp2838
g56
(g77
g58
NtRp2839
(dp2840
g61
(dp2841
g81
g82
ssg70
g2835
sg63
(lp2842
S'SERVER_SOFTWARE'
p2843
asbag56
(g77
g58
NtRp2844
(dp2845
g61
(dp2846
g88
g89
ssg70
g2835
sg63
(lp2847
S':'
asbag56
(g77
g58
NtRp2848
(dp2849
g61
(dp2850
sg70
g2835
sg63
(lp2851
g56
(g57
g58
NtRp2852
(dp2853
g61
(dp2854
g69
I3
ssg70
g2848
sg63
(lp2855
g1441
asbasbasbag56
(g72
g58
NtRp2856
(dp2857
g61
(dp2858
sg70
g2453
sg63
(lp2859
g56
(g77
g58
NtRp2860
(dp2861
g61
(dp2862
g81
g82
ssg70
g2856
sg63
(lp2863
S'WEB2PY_ORIGINAL_URI'
p2864
asbag56
(g77
g58
NtRp2865
(dp2866
g61
(dp2867
g88
g89
ssg70
g2856
sg63
(lp2868
S':'
asbag56
(g77
g58
NtRp2869
(dp2870
g61
(dp2871
sg70
g2856
sg63
(lp2872
g56
(g57
g58
NtRp2873
(dp2874
g61
(dp2875
g69
I3
ssg70
g2869
sg63
(lp2876
g1225
asbasbasbag56
(g72
g58
NtRp2877
(dp2878
g61
(dp2879
sg70
g2453
sg63
(lp2880
g56
(g77
g58
NtRp2881
(dp2882
g61
(dp2883
g81
g82
ssg70
g2877
sg63
(lp2884
S'wsgi.errors'
p2885
asbag56
(g77
g58
NtRp2886
(dp2887
g61
(dp2888
g88
g89
ssg70
g2877
sg63
(lp2889
S':'
asbag56
(g77
g58
NtRp2890
(dp2891
g61
(dp2892
sg70
g2877
sg63
(lp2893
g56
(g57
g58
NtRp2894
(dp2895
g61
(dp2896
g69
I3
ssg70
g2890
sg63
(lp2897
S"<open file '<stderr>', mode 'w' at 0x7f80c77741e0>"
p2898
asbasbasbag56
(g72
g58
NtRp2899
(dp2900
g61
(dp2901
sg70
g2453
sg63
(lp2902
g56
(g77
g58
NtRp2903
(dp2904
g61
(dp2905
g81
g82
ssg70
g2899
sg63
(lp2906
S'wsgi.file_wrapper'
p2907
asbag56
(g77
g58
NtRp2908
(dp2909
g61
(dp2910
g88
g89
ssg70
g2899
sg63
(lp2911
S':'
asbag56
(g77
g58
NtRp2912
(dp2913
g61
(dp2914
sg70
g2899
sg63
(lp2915
g56
(g57
g58
NtRp2916
(dp2917
g61
(dp2918
g69
I3
ssg70
g2912
sg63
(lp2919
S'<class wsgiref.util.FileWrapper at 0x2789590>'
p2920
asbasbasbag56
(g72
g58
NtRp2921
(dp2922
g61
(dp2923
sg70
g2453
sg63
(lp2924
g56
(g77
g58
NtRp2925
(dp2926
g61
(dp2927
g81
g82
ssg70
g2921
sg63
(lp2928
S'wsgi.input'
p2929
asbag56
(g77
g58
NtRp2930
(dp2931
g61
(dp2932
g88
g89
ssg70
g2921
sg63
(lp2933
S':'
asbag56
(g77
g58
NtRp2934
(dp2935
g61
(dp2936
sg70
g2921
sg63
(lp2937
g56
(g57
g58
NtRp2938
(dp2939
g61
(dp2940
g69
I3
ssg70
g2934
sg63
(lp2941
S'<cStringIO.StringO object at 0x3c2f4c8>'
p2942
asbasbasbag56
(g72
g58
NtRp2943
(dp2944
g61
(dp2945
sg70
g2453
sg63
(lp2946
g56
(g77
g58
NtRp2947
(dp2948
g61
(dp2949
g81
g82
ssg70
g2943
sg63
(lp2950
S'wsgi.multiprocess'
p2951
asbag56
(g77
g58
NtRp2952
(dp2953
g61
(dp2954
g88
g89
ssg70
g2943
sg63
(lp2955
S':'
asbag56
(g77
g58
NtRp2956
(dp2957
g61
(dp2958
sg70
g2943
sg63
(lp2959
g56
(g57
g58
NtRp2960
(dp2961
g61
(dp2962
g69
I3
ssg70
g2956
sg63
(lp2963
g99
asbasbasbag56
(g72
g58
NtRp2964
(dp2965
g61
(dp2966
sg70
g2453
sg63
(lp2967
g56
(g77
g58
NtRp2968
(dp2969
g61
(dp2970
g81
g82
ssg70
g2964
sg63
(lp2971
S'wsgi.multithread'
p2972
asbag56
(g77
g58
NtRp2973
(dp2974
g61
(dp2975
g88
g89
ssg70
g2964
sg63
(lp2976
S':'
asbag56
(g77
g58
NtRp2977
(dp2978
g61
(dp2979
sg70
g2964
sg63
(lp2980
g56
(g57
g58
NtRp2981
(dp2982
g61
(dp2983
g69
I3
ssg70
g2977
sg63
(lp2984
g1702
asbasbasbag56
(g72
g58
NtRp2985
(dp2986
g61
(dp2987
sg70
g2453
sg63
(lp2988
g56
(g77
g58
NtRp2989
(dp2990
g61
(dp2991
g81
g82
ssg70
g2985
sg63
(lp2992
S'wsgi.run_once'
p2993
asbag56
(g77
g58
NtRp2994
(dp2995
g61
(dp2996
g88
g89
ssg70
g2985
sg63
(lp2997
S':'
asbag56
(g77
g58
NtRp2998
(dp2999
g61
(dp3000
sg70
g2985
sg63
(lp3001
g56
(g57
g58
NtRp3002
(dp3003
g61
(dp3004
g69
I3
ssg70
g2998
sg63
(lp3005
g99
asbasbasbag56
(g72
g58
NtRp3006
(dp3007
g61
(dp3008
sg70
g2453
sg63
(lp3009
g56
(g77
g58
NtRp3010
(dp3011
g61
(dp3012
g81
g82
ssg70
g3006
sg63
(lp3013
S'wsgi.url_scheme'
p3014
asbag56
(g77
g58
NtRp3015
(dp3016
g61
(dp3017
g88
g89
ssg70
g3006
sg63
(lp3018
S':'
asbag56
(g77
g58
NtRp3019
(dp3020
g61
(dp3021
sg70
g3006
sg63
(lp3022
g56
(g57
g58
NtRp3023
(dp3024
g61
(dp3025
g69
I3
ssg70
g3019
sg63
(lp3026
g1745
asbasbasbag56
(g72
g58
NtRp3027
(dp3028
g61
(dp3029
sg70
g2453
sg63
(lp3030
g56
(g77
g58
NtRp3031
(dp3032
g61
(dp3033
g81
g82
ssg70
g3027
sg63
(lp3034
S'wsgi.version'
p3035
asbag56
(g77
g58
NtRp3036
(dp3037
g61
(dp3038
g88
g89
ssg70
g3027
sg63
(lp3039
S':'
asbag56
(g77
g58
NtRp3040
(dp3041
g61
(dp3042
sg70
g3027
sg63
(lp3043
g56
(g57
g58
NtRp3044
(dp3045
g61
(dp3046
g69
I3
ssg70
g3040
sg63
(lp3047
S'1'
asbasbasbasbasbasbasbasbasbasbasbasbasbsS'frames'
p3048
(lp3049
(dp3050
S'file'
p3051
S'/windows/Users/Thomas/Dropbox/appz/2011/GAE/ddl-lagoon/gluon/restricted.py'
p3052
sS'dump'
p3053
(dp3054
S'environment'
p3055
S"{'A': <class 'gluon.html.A'>, 'Auth': <class 'gluon.tools.Auth'>, 'B': <class 'gluon.html.B'>, 'BEAUTIFY': <class 'gluon.html.BEAUTIFY'>, 'BODY': <class 'gluon.html.BODY'>, 'BR': <class 'gluon.html.BR'>, 'BUTTON': <class 'gluon.html.BUTTON'>, 'CAT': <class 'gluon.html.CAT'>, 'CENTER': <class 'gluon.html.CENTER'>, 'CLEANUP': <class 'gluon.validators.CLEANUP'>, ...}"
p3056
sS'ccode'
p3057
S'<code object <module> at 0x3c25d50, file "/windo...pplications/ddlagoon/controllers/ddl.py", line 1>'
p3058
ssS'lnum'
p3059
I194
sS'lines'
p3060
(dp3061
I192
S'        else:'
p3062
sI193
S'            ccode = compile2(code,layer)'
p3063
sI194
S'        exec ccode in environment'
p3064
sI195
S'    except HTTP:'
p3065
sI196
S'        raise'
p3066
sI197
S'    except Exception, error:'
p3067
sI198
S'        # XXX Show exception in Wing IDE if running in debugger'
p3068
sI189
S'    try:'
p3069
sI190
S'        if type(code) == types.CodeType:'
p3070
sI191
S'            ccode = code'
p3071
ssS'call'
p3072
S'(code="__author__ = \'thomas\'\\n\\ndef get():\\n    return ser....download()\\nresponse._vars=response._caller(get)\\n", environment={\'A\': <class \'gluon.html.A\'>, \'Auth\': <class \'gluon.tools.Auth\'>, \'B\': <class \'gluon.html.B\'>, \'BEAUTIFY\': <class \'gluon.html.BEAUTIFY\'>, \'BODY\': <class \'gluon.html.BODY\'>, \'BR\': <class \'gluon.html.BR\'>, \'BUTTON\': <class \'gluon.html.BUTTON\'>, \'CAT\': <class \'gluon.html.CAT\'>, \'CENTER\': <class \'gluon.html.CENTER\'>, \'CLEANUP\': <class \'gluon.validators.CLEANUP\'>, ...}, layer=\'/windows/Users/Thomas/Dropbox/appz/2011/GAE/ddl-lagoon/applications/ddlagoon/controllers/ddl.py\')'
p3073
sS'func'
p3074
S'restricted'
p3075
sa(dp3076
g3051
S'/windows/Users/Thomas/Dropbox/appz/2011/GAE/ddl-lagoon/applications/ddlagoon/controllers/ddl.py'
p3077
sg3053
(dp3078
sg3059
I9
sg3060
(dp3079
I1
S"__author__ = 'thomas'"
p3080
sI2
S''
sI3
S'def get():'
p3081
sI4
S'    return service()'
p3082
sI5
S''
sI6
S'@service.xml'
p3083
sI7
S'def ddl(id, filename):'
p3084
sI8
S'    return response.download()'
p3085
ssg3072
S'()'
p3086
sg3074
S'<module>'
p3087
sa(dp3088
g3051
S'/windows/Users/Thomas/Dropbox/appz/2011/GAE/ddl-lagoon/gluon/globals.py'
p3089
sg3053
(dp3090
S'self'
p3091
S'undefined'
p3092
sS'f'
S'<function get>'
p3093
ssg3059
I149
sg3060
(dp3094
I144
S'        self.meta = Storage()      # used by web2py_ajax.html'
p3095
sI145
S'        self.menu = []             # used by the default view layout'
p3096
sI146
S'        self.files = []            # used by web2py_ajax.html'
p3097
sI147
S'        self.generic_patterns = [] # patterns to allow generic views'
p3098
sI148
S'        self._vars = None'
p3099
sI149
S'        self._caller = lambda f: f()'
p3100
sI150
S'        self._view_environment = None'
p3101
sI151
S'        self._custom_commit = None'
p3102
sI152
S'        self._custom_rollback = None'
p3103
sI153
S''
ssg3072
S'(f=<function get>)'
p3104
sg3074
S'<lambda>'
p3105
sa(dp3106
g3051
S'/windows/Users/Thomas/Dropbox/appz/2011/GAE/ddl-lagoon/applications/ddlagoon/controllers/ddl.py'
p3107
sg3053
(dp3108
S'global service'
p3109
S'<gluon.tools.Service object>'
p3110
ssg3059
I4
sg3060
(dp3111
I1
S"__author__ = 'thomas'"
p3112
sI2
S''
sI3
S'def get():'
p3113
sI4
S'    return service()'
p3114
sI5
S''
sI6
S'@service.xml'
p3115
sI7
S'def ddl(id, filename):'
p3116
sI8
S'    return response.download()'
p3117
ssg3072
S'()'
p3118
sg3074
S'get'
p3119
sa(dp3120
g3051
S'/windows/Users/Thomas/Dropbox/appz/2011/GAE/ddl-lagoon/gluon/tools.py'
p3121
sg3053
(dp3122
S'request.args'
p3123
S"['xml', 'ddl']"
p3124
sS'self'
p3125
S'<gluon.tools.Service object>'
p3126
sS'request'
p3127
S"<Storage {'body': <cStringIO.StringO object at 0..._vars': <Storage {}>, 'post_vars': <Storage {}>}>"
p3128
sS'self.serve_xml'
p3129
S'<bound method Service.serve_xml of <gluon.tools.Service object>>'
p3130
ssg3059
I3840
sg3060
(dp3131
I3840
S'            return self.serve_xml(request.args[1:])'
p3132
sI3841
S"        elif arg0 == 'json':"
p3133
sI3842
S'            return self.serve_json(request.args[1:])'
p3134
sI3843
S"        elif arg0 == 'jsonrpc':"
p3135
sI3844
S'            return self.serve_jsonrpc()'
p3136
sI3835
S"        elif arg0 == 'rss':"
p3137
sI3836
S'            return self.serve_rss(request.args[1:])'
p3138
sI3837
S"        elif arg0 == 'csv':"
p3139
sI3838
S'            return self.serve_csv(request.args[1:])'
p3140
sI3839
S"        elif arg0 == 'xml':"
p3141
ssg3072
S'(self=<gluon.tools.Service object>)'
p3142
sg3074
S'__call__'
p3143
sa(dp3144
g3051
S'/windows/Users/Thomas/Dropbox/appz/2011/GAE/ddl-lagoon/gluon/tools.py'
p3145
sg3053
(dp3146
S'request.vars'
p3147
S'<Storage {}>'
p3148
sS'args'
p3149
S"['ddl']"
p3150
sS'request'
p3151
S"<Storage {'body': <cStringIO.StringO object at 0..._vars': <Storage {}>, 'post_vars': <Storage {}>}>"
p3152
sS'builtindict'
p3153
S"<type 'dict'>"
p3154
ssg3059
I3632
sg3060
(dp3155
I3627
S"        response.headers['Content-Type'] = 'text/xml'"
p3156
sI3628
S'        if not args:'
p3157
sI3629
S'            args = request.args'
p3158
sI3630
S'        if args and args[0] in self.run_procedures:'
p3159
sI3631
S'            s = universal_caller(self.run_procedures[args[0]],'
p3160
sI3632
S'                                 *args[1:], **dict(request.vars))'
p3161
sI3633
S"            if hasattr(s, 'as_list'):"
p3162
sI3634
S'                s = s.as_list()'
p3163
sI3635
S'            return serializers.xml(s)'
p3164
sI3636
S'        self.error()'
p3165
ssg3072
S"(self=<gluon.tools.Service object>, args=['ddl'])"
p3166
sg3074
S'serve_xml'
p3167
sa(dp3168
g3051
S'/windows/Users/Thomas/Dropbox/appz/2011/GAE/ddl-lagoon/gluon/tools.py'
p3169
sg3053
(dp3170
S'arg_dict'
p3171
g44
sS'f'
S'<function ddl>'
p3172
ssg3059
I3351
sg3060
(dp3173
I3346
S'        # However, we need to update the arg_dict with the values from the named arguments as well.'
p3174
sI3347
S'        for arg_name in named_args:'
p3175
sI3348
S'            if b.has_key(arg_name):'
p3176
sI3349
S'                arg_dict[arg_name] = b[arg_name]'
p3177
sI3350
S''
sI3351
S'        return f(**arg_dict)'
p3178
sI3352
S''
sI3353
S'    # Raise an error, the function cannot be called.'
p3179
sI3354
S'    raise HTTP(404, "Object does not exist")'
p3180
sI3355
S''
ssg3072
S'(f=<function ddl>, *a=(), **b={})'
p3181
sg3074
S'universal_caller'
p3182
sasS'pyver'
p3183
S'Python 2.6.7: /usr/bin/python2.6'
p3184
sS'session'
p3185
g56
(g57
g58
NtRp3186
(dp3187
g61
(dp3188
sg63
(lp3189
g56
(g65
g58
NtRp3190
(dp3191
g61
(dp3192
g69
I5
ssg70
Nsg63
(lp3193
sbasbsS'etype'
p3194
S"<type 'exceptions.TypeError'>"
p3195
sS'date'
p3196
S'Wed Oct 26 22:33:48 2011'
p3197
sS'response'
p3198
g56
(g57
g58
NtRp3199
(dp3200
g61
(dp3201
sg63
(lp3202
g56
(g65
g58
NtRp3203
(dp3204
g61
(dp3205
g69
I5
ssg70
Nsg63
(lp3206
g56
(g72
g58
NtRp3207
(dp3208
g61
(dp3209
sg70
g3203
sg63
(lp3210
g56
(g77
g58
NtRp3211
(dp3212
g61
(dp3213
g81
g82
ssg70
g3207
sg63
(lp3214
g180
asbag56
(g77
g58
NtRp3215
(dp3216
g61
(dp3217
g88
g89
ssg70
g3207
sg63
(lp3218
S':'
asbag56
(g77
g58
NtRp3219
(dp3220
g61
(dp3221
sg70
g3207
sg63
(lp3222
g56
(g57
g58
NtRp3223
(dp3224
g61
(dp3225
g69
I5
ssg70
g3219
sg63
(lp3226
S'<cStringIO.StringO object at 0x3c1dd88>'
p3227
asbasbasbag56
(g72
g58
NtRp3228
(dp3229
g61
(dp3230
sg70
g3203
sg63
(lp3231
g56
(g77
g58
NtRp3232
(dp3233
g61
(dp3234
g81
g82
ssg70
g3228
sg63
(lp3235
g246
asbag56
(g77
g58
NtRp3236
(dp3237
g61
(dp3238
g88
g89
ssg70
g3228
sg63
(lp3239
S':'
asbag56
(g77
g58
NtRp3240
(dp3241
g61
(dp3242
sg70
g3228
sg63
(lp3243
g56
(g57
g58
NtRp3244
(dp3245
g61
(dp3246
g69
I5
ssg70
g3240
sg63
(lp3247
g56
(g65
g58
NtRp3248
(dp3249
g61
(dp3250
g69
I4
ssg70
Nsg63
(lp3251
g56
(g72
g58
NtRp3252
(dp3253
g61
(dp3254
sg70
g3248
sg63
(lp3255
g56
(g77
g58
NtRp3256
(dp3257
g61
(dp3258
g81
g82
ssg70
g3252
sg63
(lp3259
S'session_id_ddlagoon'
p3260
asbag56
(g77
g58
NtRp3261
(dp3262
g61
(dp3263
g88
g89
ssg70
g3252
sg63
(lp3264
S':'
asbag56
(g77
g58
NtRp3265
(dp3266
g61
(dp3267
sg70
g3252
sg63
(lp3268
g56
(g57
g58
NtRp3269
(dp3270
g61
(dp3271
g69
I4
ssg70
g3265
sg63
(lp3272
g56
(g65
g58
NtRp3273
(dp3274
g61
(dp3275
g69
I3
ssg70
Nsg63
(lp3276
g56
(g72
g58
NtRp3277
(dp3278
g61
(dp3279
sg70
g3273
sg63
(lp3280
g56
(g77
g58
NtRp3281
(dp3282
g61
(dp3283
g81
g82
ssg70
g3277
sg63
(lp3284
g296
asbag56
(g77
g58
NtRp3285
(dp3286
g61
(dp3287
g88
g89
ssg70
g3277
sg63
(lp3288
S':'
asbag56
(g77
g58
NtRp3289
(dp3290
g61
(dp3291
sg70
g3277
sg63
(lp3292
g56
(g57
g58
NtRp3293
(dp3294
g61
(dp3295
g69
I3
ssg70
g3289
sg63
(lp3296
S''
asbasbasbag56
(g72
g58
NtRp3297
(dp3298
g61
(dp3299
sg70
g3273
sg63
(lp3300
g56
(g77
g58
NtRp3301
(dp3302
g61
(dp3303
g81
g82
ssg70
g3297
sg63
(lp3304
g317
asbag56
(g77
g58
NtRp3305
(dp3306
g61
(dp3307
g88
g89
ssg70
g3297
sg63
(lp3308
S':'
asbag56
(g77
g58
NtRp3309
(dp3310
g61
(dp3311
sg70
g3297
sg63
(lp3312
g56
(g57
g58
NtRp3313
(dp3314
g61
(dp3315
g69
I3
ssg70
g3309
sg63
(lp3316
S''
asbasbasbag56
(g72
g58
NtRp3317
(dp3318
g61
(dp3319
sg70
g3273
sg63
(lp3320
g56
(g77
g58
NtRp3321
(dp3322
g61
(dp3323
g81
g82
ssg70
g3317
sg63
(lp3324
g338
asbag56
(g77
g58
NtRp3325
(dp3326
g61
(dp3327
g88
g89
ssg70
g3317
sg63
(lp3328
S':'
asbag56
(g77
g58
NtRp3329
(dp3330
g61
(dp3331
sg70
g3317
sg63
(lp3332
g56
(g57
g58
NtRp3333
(dp3334
g61
(dp3335
g69
I3
ssg70
g3329
sg63
(lp3336
S''
asbasbasbag56
(g72
g58
NtRp3337
(dp3338
g61
(dp3339
sg70
g3273
sg63
(lp3340
g56
(g77
g58
NtRp3341
(dp3342
g61
(dp3343
g81
g82
ssg70
g3337
sg63
(lp3344
g359
asbag56
(g77
g58
NtRp3345
(dp3346
g61
(dp3347
g88
g89
ssg70
g3337
sg63
(lp3348
S':'
asbag56
(g77
g58
NtRp3349
(dp3350
g61
(dp3351
sg70
g3337
sg63
(lp3352
g56
(g57
g58
NtRp3353
(dp3354
g61
(dp3355
g69
I3
ssg70
g3349
sg63
(lp3356
S''
asbasbasbag56
(g72
g58
NtRp3357
(dp3358
g61
(dp3359
sg70
g3273
sg63
(lp3360
g56
(g77
g58
NtRp3361
(dp3362
g61
(dp3363
g81
g82
ssg70
g3357
sg63
(lp3364
g380
asbag56
(g77
g58
NtRp3365
(dp3366
g61
(dp3367
g88
g89
ssg70
g3357
sg63
(lp3368
S':'
asbag56
(g77
g58
NtRp3369
(dp3370
g61
(dp3371
sg70
g3357
sg63
(lp3372
g56
(g57
g58
NtRp3373
(dp3374
g61
(dp3375
g69
I3
ssg70
g3369
sg63
(lp3376
S''
asbasbasbag56
(g72
g58
NtRp3377
(dp3378
g61
(dp3379
sg70
g3273
sg63
(lp3380
g56
(g77
g58
NtRp3381
(dp3382
g61
(dp3383
g81
g82
ssg70
g3377
sg63
(lp3384
g401
asbag56
(g77
g58
NtRp3385
(dp3386
g61
(dp3387
g88
g89
ssg70
g3377
sg63
(lp3388
S':'
asbag56
(g77
g58
NtRp3389
(dp3390
g61
(dp3391
sg70
g3377
sg63
(lp3392
g56
(g57
g58
NtRp3393
(dp3394
g61
(dp3395
g69
I3
ssg70
g3389
sg63
(lp3396
S'/'
asbasbasbag56
(g72
g58
NtRp3397
(dp3398
g61
(dp3399
sg70
g3273
sg63
(lp3400
g56
(g77
g58
NtRp3401
(dp3402
g61
(dp3403
g81
g82
ssg70
g3397
sg63
(lp3404
g422
asbag56
(g77
g58
NtRp3405
(dp3406
g61
(dp3407
g88
g89
ssg70
g3397
sg63
(lp3408
S':'
asbag56
(g77
g58
NtRp3409
(dp3410
g61
(dp3411
sg70
g3397
sg63
(lp3412
g56
(g57
g58
NtRp3413
(dp3414
g61
(dp3415
g69
I3
ssg70
g3409
sg63
(lp3416
S''
asbasbasbag56
(g72
g58
NtRp3417
(dp3418
g61
(dp3419
sg70
g3273
sg63
(lp3420
g56
(g77
g58
NtRp3421
(dp3422
g61
(dp3423
g81
g82
ssg70
g3417
sg63
(lp3424
g443
asbag56
(g77
g58
NtRp3425
(dp3426
g61
(dp3427
g88
g89
ssg70
g3417
sg63
(lp3428
S':'
asbag56
(g77
g58
NtRp3429
(dp3430
g61
(dp3431
sg70
g3417
sg63
(lp3432
g56
(g57
g58
NtRp3433
(dp3434
g61
(dp3435
g69
I3
ssg70
g3429
sg63
(lp3436
S''
asbasbasbasbasbasbasbasbasbasbasbag56
(g72
g58
NtRp3437
(dp3438
g61
(dp3439
sg70
g3203
sg63
(lp3440
g56
(g77
g58
NtRp3441
(dp3442
g61
(dp3443
g81
g82
ssg70
g3437
sg63
(lp3444
S'files'
p3445
asbag56
(g77
g58
NtRp3446
(dp3447
g61
(dp3448
g88
g89
ssg70
g3437
sg63
(lp3449
S':'
asbag56
(g77
g58
NtRp3450
(dp3451
g61
(dp3452
sg70
g3437
sg63
(lp3453
g56
(g57
g58
NtRp3454
(dp3455
g61
(dp3456
g69
I5
ssg70
g3450
sg63
(lp3457
g56
(g65
g58
NtRp3458
(dp3459
g61
(dp3460
g69
I4
ssg70
Nsg63
(lp3461
sbasbasbasbag56
(g72
g58
NtRp3462
(dp3463
g61
(dp3464
sg70
g3203
sg63
(lp3465
g56
(g77
g58
NtRp3466
(dp3467
g61
(dp3468
g81
g82
ssg70
g3462
sg63
(lp3469
S'flash'
p3470
asbag56
(g77
g58
NtRp3471
(dp3472
g61
(dp3473
g88
g89
ssg70
g3462
sg63
(lp3474
S':'
asbag56
(g77
g58
NtRp3475
(dp3476
g61
(dp3477
sg70
g3462
sg63
(lp3478
g56
(g57
g58
NtRp3479
(dp3480
g61
(dp3481
g69
I5
ssg70
g3475
sg63
(lp3482
S''
asbasbasbag56
(g72
g58
NtRp3483
(dp3484
g61
(dp3485
sg70
g3203
sg63
(lp3486
g56
(g77
g58
NtRp3487
(dp3488
g61
(dp3489
g81
g82
ssg70
g3483
sg63
(lp3490
S'generic_patterns'
p3491
asbag56
(g77
g58
NtRp3492
(dp3493
g61
(dp3494
g88
g89
ssg70
g3483
sg63
(lp3495
S':'
asbag56
(g77
g58
NtRp3496
(dp3497
g61
(dp3498
sg70
g3483
sg63
(lp3499
g56
(g57
g58
NtRp3500
(dp3501
g61
(dp3502
g69
I5
ssg70
g3496
sg63
(lp3503
g56
(g65
g58
NtRp3504
(dp3505
g61
(dp3506
g69
I4
ssg70
Nsg63
(lp3507
g56
(g72
g58
NtRp3508
(dp3509
g61
(dp3510
sg70
g3504
sg63
(lp3511
g56
(g77
g58
NtRp3512
(dp3513
g61
(dp3514
sg70
g3508
sg63
(lp3515
g56
(g57
g58
NtRp3516
(dp3517
g61
(dp3518
g69
I4
ssg70
g3512
sg63
(lp3519
S'*'
asbasbasbasbasbasbasbag56
(g72
g58
NtRp3520
(dp3521
g61
(dp3522
sg70
g3203
sg63
(lp3523
g56
(g77
g58
NtRp3524
(dp3525
g61
(dp3526
g81
g82
ssg70
g3520
sg63
(lp3527
S'headers'
p3528
asbag56
(g77
g58
NtRp3529
(dp3530
g61
(dp3531
g88
g89
ssg70
g3520
sg63
(lp3532
S':'
asbag56
(g77
g58
NtRp3533
(dp3534
g61
(dp3535
sg70
g3520
sg63
(lp3536
g56
(g57
g58
NtRp3537
(dp3538
g61
(dp3539
g69
I5
ssg70
g3533
sg63
(lp3540
g56
(g65
g58
NtRp3541
(dp3542
g61
(dp3543
g69
I4
ssg70
Nsg63
(lp3544
g56
(g72
g58
NtRp3545
(dp3546
g61
(dp3547
sg70
g3541
sg63
(lp3548
g56
(g77
g58
NtRp3549
(dp3550
g61
(dp3551
g81
g82
ssg70
g3545
sg63
(lp3552
S'Cache-Control'
p3553
asbag56
(g77
g58
NtRp3554
(dp3555
g61
(dp3556
g88
g89
ssg70
g3545
sg63
(lp3557
S':'
asbag56
(g77
g58
NtRp3558
(dp3559
g61
(dp3560
sg70
g3545
sg63
(lp3561
g56
(g57
g58
NtRp3562
(dp3563
g61
(dp3564
g69
I4
ssg70
g3558
sg63
(lp3565
S'no-store, no-cache, must-revalidate, post-check=0, pre-check=0'
p3566
asbasbasbag56
(g72
g58
NtRp3567
(dp3568
g61
(dp3569
sg70
g3541
sg63
(lp3570
g56
(g77
g58
NtRp3571
(dp3572
g61
(dp3573
g81
g82
ssg70
g3567
sg63
(lp3574
S'Content-Type'
p3575
asbag56
(g77
g58
NtRp3576
(dp3577
g61
(dp3578
g88
g89
ssg70
g3567
sg63
(lp3579
S':'
asbag56
(g77
g58
NtRp3580
(dp3581
g61
(dp3582
sg70
g3567
sg63
(lp3583
g56
(g57
g58
NtRp3584
(dp3585
g61
(dp3586
g69
I4
ssg70
g3580
sg63
(lp3587
S'text/xml'
p3588
asbasbasbag56
(g72
g58
NtRp3589
(dp3590
g61
(dp3591
sg70
g3541
sg63
(lp3592
g56
(g77
g58
NtRp3593
(dp3594
g61
(dp3595
g81
g82
ssg70
g3589
sg63
(lp3596
S'Expires'
p3597
asbag56
(g77
g58
NtRp3598
(dp3599
g61
(dp3600
g88
g89
ssg70
g3589
sg63
(lp3601
S':'
asbag56
(g77
g58
NtRp3602
(dp3603
g61
(dp3604
sg70
g3589
sg63
(lp3605
g56
(g57
g58
NtRp3606
(dp3607
g61
(dp3608
g69
I4
ssg70
g3602
sg63
(lp3609
S'Wed, 26 Oct 2011 21:33:48 GMT'
p3610
asbasbasbag56
(g72
g58
NtRp3611
(dp3612
g61
(dp3613
sg70
g3541
sg63
(lp3614
g56
(g77
g58
NtRp3615
(dp3616
g61
(dp3617
g81
g82
ssg70
g3611
sg63
(lp3618
S'Pragma'
p3619
asbag56
(g77
g58
NtRp3620
(dp3621
g61
(dp3622
g88
g89
ssg70
g3611
sg63
(lp3623
S':'
asbag56
(g77
g58
NtRp3624
(dp3625
g61
(dp3626
sg70
g3611
sg63
(lp3627
g56
(g57
g58
NtRp3628
(dp3629
g61
(dp3630
g69
I4
ssg70
g3624
sg63
(lp3631
S'no-cache'
p3632
asbasbasbag56
(g72
g58
NtRp3633
(dp3634
g61
(dp3635
sg70
g3541
sg63
(lp3636
g56
(g77
g58
NtRp3637
(dp3638
g61
(dp3639
g81
g82
ssg70
g3633
sg63
(lp3640
S'X-Powered-By'
p3641
asbag56
(g77
g58
NtRp3642
(dp3643
g61
(dp3644
g88
g89
ssg70
g3633
sg63
(lp3645
S':'
asbag56
(g77
g58
NtRp3646
(dp3647
g61
(dp3648
sg70
g3633
sg63
(lp3649
g56
(g57
g58
NtRp3650
(dp3651
g61
(dp3652
g69
I4
ssg70
g3646
sg63
(lp3653
S'web2py'
p3654
asbasbasbasbasbasbasbag56
(g72
g58
NtRp3655
(dp3656
g61
(dp3657
sg70
g3203
sg63
(lp3658
g56
(g77
g58
NtRp3659
(dp3660
g61
(dp3661
g81
g82
ssg70
g3655
sg63
(lp3662
S'menu'
p3663
asbag56
(g77
g58
NtRp3664
(dp3665
g61
(dp3666
g88
g89
ssg70
g3655
sg63
(lp3667
S':'
asbag56
(g77
g58
NtRp3668
(dp3669
g61
(dp3670
sg70
g3655
sg63
(lp3671
g56
(g57
g58
NtRp3672
(dp3673
g61
(dp3674
g69
I5
ssg70
g3668
sg63
(lp3675
g56
(g65
g58
NtRp3676
(dp3677
g61
(dp3678
g69
I4
ssg70
Nsg63
(lp3679
g56
(g72
g58
NtRp3680
(dp3681
g61
(dp3682
sg70
g3676
sg63
(lp3683
g56
(g77
g58
NtRp3684
(dp3685
g61
(dp3686
sg70
g3680
sg63
(lp3687
g56
(g57
g58
NtRp3688
(dp3689
g61
(dp3690
g69
I4
ssg70
g3684
sg63
(lp3691
g56
(g65
g58
NtRp3692
(dp3693
g61
(dp3694
g69
I3
ssg70
Nsg63
(lp3695
g56
(g72
g58
NtRp3696
(dp3697
g61
(dp3698
sg70
g3692
sg63
(lp3699
g56
(g77
g58
NtRp3700
(dp3701
g61
(dp3702
sg70
g3696
sg63
(lp3703
g56
(g57
g58
NtRp3704
(dp3705
g61
(dp3706
g69
I3
ssg70
g3700
sg63
(lp3707
cgluon.languages
lazyT_unpickle
p3708
(S's\x04\x00\x00\x00Home'
tRp3709
asbasbasbag56
(g72
g58
NtRp3710
(dp3711
g61
(dp3712
sg70
g3692
sg63
(lp3713
g56
(g77
g58
NtRp3714
(dp3715
g61
(dp3716
sg70
g3710
sg63
(lp3717
g56
(g57
g58
NtRp3718
(dp3719
g61
(dp3720
g69
I3
ssg70
g3714
sg63
(lp3721
g99
asbasbasbag56
(g72
g58
NtRp3722
(dp3723
g61
(dp3724
sg70
g3692
sg63
(lp3725
g56
(g77
g58
NtRp3726
(dp3727
g61
(dp3728
sg70
g3722
sg63
(lp3729
g56
(g57
g58
NtRp3730
(dp3731
g61
(dp3732
g69
I3
ssg70
g3726
sg63
(lp3733
S'/ddlagoon/default/index'
p3734
asbasbasbag56
(g72
g58
NtRp3735
(dp3736
g61
(dp3737
sg70
g3692
sg63
(lp3738
g56
(g77
g58
NtRp3739
(dp3740
g61
(dp3741
sg70
g3735
sg63
(lp3742
g56
(g57
g58
NtRp3743
(dp3744
g61
(dp3745
g69
I3
ssg70
g3739
sg63
(lp3746
g56
(g65
g58
NtRp3747
(dp3748
g61
(dp3749
g69
I2
ssg70
Nsg63
(lp3750
sbasbasbasbasbasbasbasbag56
(g72
g58
NtRp3751
(dp3752
g61
(dp3753
sg70
g3676
sg63
(lp3754
g56
(g77
g58
NtRp3755
(dp3756
g61
(dp3757
sg70
g3751
sg63
(lp3758
g56
(g57
g58
NtRp3759
(dp3760
g61
(dp3761
g69
I4
ssg70
g3755
sg63
(lp3762
g56
(g65
g58
NtRp3763
(dp3764
g61
(dp3765
g69
I3
ssg70
Nsg63
(lp3766
g56
(g72
g58
NtRp3767
(dp3768
g61
(dp3769
sg70
g3763
sg63
(lp3770
g56
(g77
g58
NtRp3771
(dp3772
g61
(dp3773
sg70
g3767
sg63
(lp3774
g56
(g57
g58
NtRp3775
(dp3776
g61
(dp3777
g69
I3
ssg70
g3771
sg63
(lp3778
g3708
(S's\x08\x00\x00\x00This App'
tRp3779
asbasbasbag56
(g72
g58
NtRp3780
(dp3781
g61
(dp3782
sg70
g3763
sg63
(lp3783
g56
(g77
g58
NtRp3784
(dp3785
g61
(dp3786
sg70
g3780
sg63
(lp3787
g56
(g57
g58
NtRp3788
(dp3789
g61
(dp3790
g69
I3
ssg70
g3784
sg63
(lp3791
g99
asbasbasbag56
(g72
g58
NtRp3792
(dp3793
g61
(dp3794
sg70
g3763
sg63
(lp3795
g56
(g77
g58
NtRp3796
(dp3797
g61
(dp3798
sg70
g3792
sg63
(lp3799
g56
(g57
g58
NtRp3800
(dp3801
g61
(dp3802
g69
I3
ssg70
g3796
sg63
(lp3803
S'/admin/default/design/ddlagoon'
p3804
asbasbasbag56
(g72
g58
NtRp3805
(dp3806
g61
(dp3807
sg70
g3763
sg63
(lp3808
g56
(g77
g58
NtRp3809
(dp3810
g61
(dp3811
sg70
g3805
sg63
(lp3812
g56
(g57
g58
NtRp3813
(dp3814
g61
(dp3815
g69
I3
ssg70
g3809
sg63
(lp3816
g56
(g65
g58
NtRp3817
(dp3818
g61
(dp3819
g69
I2
ssg70
Nsg63
(lp3820
g56
(g72
g58
NtRp3821
(dp3822
g61
(dp3823
sg70
g3817
sg63
(lp3824
g56
(g77
g58
NtRp3825
(dp3826
g61
(dp3827
sg70
g3821
sg63
(lp3828
g56
(g57
g58
NtRp3829
(dp3830
g61
(dp3831
g69
I2
ssg70
g3825
sg63
(lp3832
g56
(g65
g58
NtRp3833
(dp3834
g61
(dp3835
g69
I1
ssg70
Nsg63
(lp3836
g56
(g72
g58
NtRp3837
(dp3838
g61
(dp3839
sg70
g3833
sg63
(lp3840
g56
(g77
g58
NtRp3841
(dp3842
g61
(dp3843
sg70
g3837
sg63
(lp3844
g56
(g57
g58
NtRp3845
(dp3846
g61
(dp3847
g69
I1
ssg70
g3841
sg63
(lp3848
g3708
(S's\n\x00\x00\x00Controller'
tRp3849
asbasbasbag56
(g72
g58
NtRp3850
(dp3851
g61
(dp3852
sg70
g3833
sg63
(lp3853
g56
(g77
g58
NtRp3854
(dp3855
g61
(dp3856
sg70
g3850
sg63
(lp3857
g56
(g57
g58
NtRp3858
(dp3859
g61
(dp3860
g69
I1
ssg70
g3854
sg63
(lp3861
I00
asbasbasbag56
(g72
g58
NtRp3862
(dp3863
g61
(dp3864
sg70
g3833
sg63
(lp3865
g56
(g77
g58
NtRp3866
(dp3867
g61
(dp3868
sg70
g3862
sg63
(lp3869
g56
(g57
g58
NtRp3870
(dp3871
g61
(dp3872
g69
I1
ssg70
g3866
sg63
(lp3873
S'/admin/default/edit/ddlagoon/controllers/ddl.py'
p3874
asbasbasbasbasbasbasbag56
(g72
g58
NtRp3875
(dp3876
g61
(dp3877
sg70
g3817
sg63
(lp3878
g56
(g77
g58
NtRp3879
(dp3880
g61
(dp3881
sg70
g3875
sg63
(lp3882
g56
(g57
g58
NtRp3883
(dp3884
g61
(dp3885
g69
I2
ssg70
g3879
sg63
(lp3886
g56
(g65
g58
NtRp3887
(dp3888
g61
(dp3889
g69
I1
ssg70
Nsg63
(lp3890
g56
(g72
g58
NtRp3891
(dp3892
g61
(dp3893
sg70
g3887
sg63
(lp3894
g56
(g77
g58
NtRp3895
(dp3896
g61
(dp3897
sg70
g3891
sg63
(lp3898
g56
(g57
g58
NtRp3899
(dp3900
g61
(dp3901
g69
I1
ssg70
g3895
sg63
(lp3902
g3708
(S's\x04\x00\x00\x00View'
tRp3903
asbasbasbag56
(g72
g58
NtRp3904
(dp3905
g61
(dp3906
sg70
g3887
sg63
(lp3907
g56
(g77
g58
NtRp3908
(dp3909
g61
(dp3910
sg70
g3904
sg63
(lp3911
g56
(g57
g58
NtRp3912
(dp3913
g61
(dp3914
g69
I1
ssg70
g3908
sg63
(lp3915
I00
asbasbasbag56
(g72
g58
NtRp3916
(dp3917
g61
(dp3918
sg70
g3887
sg63
(lp3919
g56
(g77
g58
NtRp3920
(dp3921
g61
(dp3922
sg70
g3916
sg63
(lp3923
g56
(g57
g58
NtRp3924
(dp3925
g61
(dp3926
g69
I1
ssg70
g3920
sg63
(lp3927
S'/admin/default/edit/ddlagoon/views/ddl/get.html'
p3928
asbasbasbasbasbasbasbag56
(g72
g58
NtRp3929
(dp3930
g61
(dp3931
sg70
g3817
sg63
(lp3932
g56
(g77
g58
NtRp3933
(dp3934
g61
(dp3935
sg70
g3929
sg63
(lp3936
g56
(g57
g58
NtRp3937
(dp3938
g61
(dp3939
g69
I2
ssg70
g3933
sg63
(lp3940
g56
(g65
g58
NtRp3941
(dp3942
g61
(dp3943
g69
I1
ssg70
Nsg63
(lp3944
g56
(g72
g58
NtRp3945
(dp3946
g61
(dp3947
sg70
g3941
sg63
(lp3948
g56
(g77
g58
NtRp3949
(dp3950
g61
(dp3951
sg70
g3945
sg63
(lp3952
g56
(g57
g58
NtRp3953
(dp3954
g61
(dp3955
g69
I1
ssg70
g3949
sg63
(lp3956
g3708
(S's\x06\x00\x00\x00Layout'
tRp3957
asbasbasbag56
(g72
g58
NtRp3958
(dp3959
g61
(dp3960
sg70
g3941
sg63
(lp3961
g56
(g77
g58
NtRp3962
(dp3963
g61
(dp3964
sg70
g3958
sg63
(lp3965
g56
(g57
g58
NtRp3966
(dp3967
g61
(dp3968
g69
I1
ssg70
g3962
sg63
(lp3969
I00
asbasbasbag56
(g72
g58
NtRp3970
(dp3971
g61
(dp3972
sg70
g3941
sg63
(lp3973
g56
(g77
g58
NtRp3974
(dp3975
g61
(dp3976
sg70
g3970
sg63
(lp3977
g56
(g57
g58
NtRp3978
(dp3979
g61
(dp3980
g69
I1
ssg70
g3974
sg63
(lp3981
S'/admin/default/edit/ddlagoon/views/layout.html'
p3982
asbasbasbasbasbasbasbag56
(g72
g58
NtRp3983
(dp3984
g61
(dp3985
sg70
g3817
sg63
(lp3986
g56
(g77
g58
NtRp3987
(dp3988
g61
(dp3989
sg70
g3983
sg63
(lp3990
g56
(g57
g58
NtRp3991
(dp3992
g61
(dp3993
g69
I2
ssg70
g3987
sg63
(lp3994
g56
(g65
g58
NtRp3995
(dp3996
g61
(dp3997
g69
I1
ssg70
Nsg63
(lp3998
g56
(g72
g58
NtRp3999
(dp4000
g61
(dp4001
sg70
g3995
sg63
(lp4002
g56
(g77
g58
NtRp4003
(dp4004
g61
(dp4005
sg70
g3999
sg63
(lp4006
g56
(g57
g58
NtRp4007
(dp4008
g61
(dp4009
g69
I1
ssg70
g4003
sg63
(lp4010
g3708
(S's\n\x00\x00\x00Stylesheet'
tRp4011
asbasbasbag56
(g72
g58
NtRp4012
(dp4013
g61
(dp4014
sg70
g3995
sg63
(lp4015
g56
(g77
g58
NtRp4016
(dp4017
g61
(dp4018
sg70
g4012
sg63
(lp4019
g56
(g57
g58
NtRp4020
(dp4021
g61
(dp4022
g69
I1
ssg70
g4016
sg63
(lp4023
I00
asbasbasbag56
(g72
g58
NtRp4024
(dp4025
g61
(dp4026
sg70
g3995
sg63
(lp4027
g56
(g77
g58
NtRp4028
(dp4029
g61
(dp4030
sg70
g4024
sg63
(lp4031
g56
(g57
g58
NtRp4032
(dp4033
g61
(dp4034
g69
I1
ssg70
g4028
sg63
(lp4035
S'/admin/default/edit/ddlagoon/static/base.css'
p4036
asbasbasbasbasbasbasbag56
(g72
g58
NtRp4037
(dp4038
g61
(dp4039
sg70
g3817
sg63
(lp4040
g56
(g77
g58
NtRp4041
(dp4042
g61
(dp4043
sg70
g4037
sg63
(lp4044
g56
(g57
g58
NtRp4045
(dp4046
g61
(dp4047
g69
I2
ssg70
g4041
sg63
(lp4048
g56
(g65
g58
NtRp4049
(dp4050
g61
(dp4051
g69
I1
ssg70
Nsg63
(lp4052
g56
(g72
g58
NtRp4053
(dp4054
g61
(dp4055
sg70
g4049
sg63
(lp4056
g56
(g77
g58
NtRp4057
(dp4058
g61
(dp4059
sg70
g4053
sg63
(lp4060
g56
(g57
g58
NtRp4061
(dp4062
g61
(dp4063
g69
I1
ssg70
g4057
sg63
(lp4064
g3708
(S's\x08\x00\x00\x00DB Model'
tRp4065
asbasbasbag56
(g72
g58
NtRp4066
(dp4067
g61
(dp4068
sg70
g4049
sg63
(lp4069
g56
(g77
g58
NtRp4070
(dp4071
g61
(dp4072
sg70
g4066
sg63
(lp4073
g56
(g57
g58
NtRp4074
(dp4075
g61
(dp4076
g69
I1
ssg70
g4070
sg63
(lp4077
I00
asbasbasbag56
(g72
g58
NtRp4078
(dp4079
g61
(dp4080
sg70
g4049
sg63
(lp4081
g56
(g77
g58
NtRp4082
(dp4083
g61
(dp4084
sg70
g4078
sg63
(lp4085
g56
(g57
g58
NtRp4086
(dp4087
g61
(dp4088
g69
I1
ssg70
g4082
sg63
(lp4089
S'/admin/default/edit/ddlagoon/models/db.py'
p4090
asbasbasbasbasbasbasbag56
(g72
g58
NtRp4091
(dp4092
g61
(dp4093
sg70
g3817
sg63
(lp4094
g56
(g77
g58
NtRp4095
(dp4096
g61
(dp4097
sg70
g4091
sg63
(lp4098
g56
(g57
g58
NtRp4099
(dp4100
g61
(dp4101
g69
I2
ssg70
g4095
sg63
(lp4102
g56
(g65
g58
NtRp4103
(dp4104
g61
(dp4105
g69
I1
ssg70
Nsg63
(lp4106
g56
(g72
g58
NtRp4107
(dp4108
g61
(dp4109
sg70
g4103
sg63
(lp4110
g56
(g77
g58
NtRp4111
(dp4112
g61
(dp4113
sg70
g4107
sg63
(lp4114
g56
(g57
g58
NtRp4115
(dp4116
g61
(dp4117
g69
I1
ssg70
g4111
sg63
(lp4118
g3708
(S's\n\x00\x00\x00Menu Model'
tRp4119
asbasbasbag56
(g72
g58
NtRp4120
(dp4121
g61
(dp4122
sg70
g4103
sg63
(lp4123
g56
(g77
g58
NtRp4124
(dp4125
g61
(dp4126
sg70
g4120
sg63
(lp4127
g56
(g57
g58
NtRp4128
(dp4129
g61
(dp4130
g69
I1
ssg70
g4124
sg63
(lp4131
I00
asbasbasbag56
(g72
g58
NtRp4132
(dp4133
g61
(dp4134
sg70
g4103
sg63
(lp4135
g56
(g77
g58
NtRp4136
(dp4137
g61
(dp4138
sg70
g4132
sg63
(lp4139
g56
(g57
g58
NtRp4140
(dp4141
g61
(dp4142
g69
I1
ssg70
g4136
sg63
(lp4143
S'/admin/default/edit/ddlagoon/models/menu.py'
p4144
asbasbasbasbasbasbasbag56
(g72
g58
NtRp4145
(dp4146
g61
(dp4147
sg70
g3817
sg63
(lp4148
g56
(g77
g58
NtRp4149
(dp4150
g61
(dp4151
sg70
g4145
sg63
(lp4152
g56
(g57
g58
NtRp4153
(dp4154
g61
(dp4155
g69
I2
ssg70
g4149
sg63
(lp4156
g56
(g65
g58
NtRp4157
(dp4158
g61
(dp4159
g69
I1
ssg70
Nsg63
(lp4160
g56
(g72
g58
NtRp4161
(dp4162
g61
(dp4163
sg70
g4157
sg63
(lp4164
g56
(g77
g58
NtRp4165
(dp4166
g61
(dp4167
sg70
g4161
sg63
(lp4168
g56
(g57
g58
NtRp4169
(dp4170
g61
(dp4171
g69
I1
ssg70
g4165
sg63
(lp4172
g3708
(S's\x08\x00\x00\x00Database'
tRp4173
asbasbasbag56
(g72
g58
NtRp4174
(dp4175
g61
(dp4176
sg70
g4157
sg63
(lp4177
g56
(g77
g58
NtRp4178
(dp4179
g61
(dp4180
sg70
g4174
sg63
(lp4181
g56
(g57
g58
NtRp4182
(dp4183
g61
(dp4184
g69
I1
ssg70
g4178
sg63
(lp4185
I00
asbasbasbag56
(g72
g58
NtRp4186
(dp4187
g61
(dp4188
sg70
g4157
sg63
(lp4189
g56
(g77
g58
NtRp4190
(dp4191
g61
(dp4192
sg70
g4186
sg63
(lp4193
g56
(g57
g58
NtRp4194
(dp4195
g61
(dp4196
g69
I1
ssg70
g4190
sg63
(lp4197
S'/ddlagoon/appadmin/index'
p4198
asbasbasbasbasbasbasbag56
(g72
g58
NtRp4199
(dp4200
g61
(dp4201
sg70
g3817
sg63
(lp4202
g56
(g77
g58
NtRp4203
(dp4204
g61
(dp4205
sg70
g4199
sg63
(lp4206
g56
(g57
g58
NtRp4207
(dp4208
g61
(dp4209
g69
I2
ssg70
g4203
sg63
(lp4210
g56
(g65
g58
NtRp4211
(dp4212
g61
(dp4213
g69
I1
ssg70
Nsg63
(lp4214
g56
(g72
g58
NtRp4215
(dp4216
g61
(dp4217
sg70
g4211
sg63
(lp4218
g56
(g77
g58
NtRp4219
(dp4220
g61
(dp4221
sg70
g4215
sg63
(lp4222
g56
(g57
g58
NtRp4223
(dp4224
g61
(dp4225
g69
I1
ssg70
g4219
sg63
(lp4226
g3708
(S's\x06\x00\x00\x00Errors'
tRp4227
asbasbasbag56
(g72
g58
NtRp4228
(dp4229
g61
(dp4230
sg70
g4211
sg63
(lp4231
g56
(g77
g58
NtRp4232
(dp4233
g61
(dp4234
sg70
g4228
sg63
(lp4235
g56
(g57
g58
NtRp4236
(dp4237
g61
(dp4238
g69
I1
ssg70
g4232
sg63
(lp4239
I00
asbasbasbag56
(g72
g58
NtRp4240
(dp4241
g61
(dp4242
sg70
g4211
sg63
(lp4243
g56
(g77
g58
NtRp4244
(dp4245
g61
(dp4246
sg70
g4240
sg63
(lp4247
g56
(g57
g58
NtRp4248
(dp4249
g61
(dp4250
g69
I1
ssg70
g4244
sg63
(lp4251
S'/admin/default/errors/ddlagoon'
p4252
asbasbasbasbasbasbasbag56
(g72
g58
NtRp4253
(dp4254
g61
(dp4255
sg70
g3817
sg63
(lp4256
g56
(g77
g58
NtRp4257
(dp4258
g61
(dp4259
sg70
g4253
sg63
(lp4260
g56
(g57
g58
NtRp4261
(dp4262
g61
(dp4263
g69
I2
ssg70
g4257
sg63
(lp4264
g56
(g65
g58
NtRp4265
(dp4266
g61
(dp4267
g69
I1
ssg70
Nsg63
(lp4268
g56
(g72
g58
NtRp4269
(dp4270
g61
(dp4271
sg70
g4265
sg63
(lp4272
g56
(g77
g58
NtRp4273
(dp4274
g61
(dp4275
sg70
g4269
sg63
(lp4276
g56
(g57
g58
NtRp4277
(dp4278
g61
(dp4279
g69
I1
ssg70
g4273
sg63
(lp4280
g3708
(S's\x05\x00\x00\x00About'
tRp4281
asbasbasbag56
(g72
g58
NtRp4282
(dp4283
g61
(dp4284
sg70
g4265
sg63
(lp4285
g56
(g77
g58
NtRp4286
(dp4287
g61
(dp4288
sg70
g4282
sg63
(lp4289
g56
(g57
g58
NtRp4290
(dp4291
g61
(dp4292
g69
I1
ssg70
g4286
sg63
(lp4293
I00
asbasbasbag56
(g72
g58
NtRp4294
(dp4295
g61
(dp4296
sg70
g4265
sg63
(lp4297
g56
(g77
g58
NtRp4298
(dp4299
g61
(dp4300
sg70
g4294
sg63
(lp4301
g56
(g57
g58
NtRp4302
(dp4303
g61
(dp4304
g69
I1
ssg70
g4298
sg63
(lp4305
S'/admin/default/about/ddlagoon'
p4306
asbasbasbasbasbasbasbasbasbasbasbasbasbasbasbag56
(g72
g58
NtRp4307
(dp4308
g61
(dp4309
sg70
g3676
sg63
(lp4310
g56
(g77
g58
NtRp4311
(dp4312
g61
(dp4313
sg70
g4307
sg63
(lp4314
g56
(g57
g58
NtRp4315
(dp4316
g61
(dp4317
g69
I4
ssg70
g4311
sg63
(lp4318
g56
(g65
g58
NtRp4319
(dp4320
g61
(dp4321
g69
I3
ssg70
Nsg63
(lp4322
g56
(g72
g58
NtRp4323
(dp4324
g61
(dp4325
sg70
g4319
sg63
(lp4326
g56
(g77
g58
NtRp4327
(dp4328
g61
(dp4329
sg70
g4323
sg63
(lp4330
g56
(g57
g58
NtRp4331
(dp4332
g61
(dp4333
g69
I3
ssg70
g4327
sg63
(lp4334
g3708
(S's\t\x00\x00\x00Resources'
tRp4335
asbasbasbag56
(g72
g58
NtRp4336
(dp4337
g61
(dp4338
sg70
g4319
sg63
(lp4339
g56
(g77
g58
NtRp4340
(dp4341
g61
(dp4342
sg70
g4336
sg63
(lp4343
g56
(g57
g58
NtRp4344
(dp4345
g61
(dp4346
g69
I3
ssg70
g4340
sg63
(lp4347
g99
asbasbasbag56
(g72
g58
NtRp4348
(dp4349
g61
(dp4350
sg70
g4319
sg63
(lp4351
g56
(g77
g58
NtRp4352
(dp4353
g61
(dp4354
sg70
g4348
sg63
(lp4355
g56
(g57
g58
NtRp4356
(dp4357
g61
(dp4358
g69
I3
ssg70
g4352
sg63
(lp4359
S'None'
p4360
asbasbasbag56
(g72
g58
NtRp4361
(dp4362
g61
(dp4363
sg70
g4319
sg63
(lp4364
g56
(g77
g58
NtRp4365
(dp4366
g61
(dp4367
sg70
g4361
sg63
(lp4368
g56
(g57
g58
NtRp4369
(dp4370
g61
(dp4371
g69
I3
ssg70
g4365
sg63
(lp4372
g56
(g65
g58
NtRp4373
(dp4374
g61
(dp4375
g69
I2
ssg70
Nsg63
(lp4376
g56
(g72
g58
NtRp4377
(dp4378
g61
(dp4379
sg70
g4373
sg63
(lp4380
g56
(g77
g58
NtRp4381
(dp4382
g61
(dp4383
sg70
g4377
sg63
(lp4384
g56
(g57
g58
NtRp4385
(dp4386
g61
(dp4387
g69
I2
ssg70
g4381
sg63
(lp4388
g56
(g65
g58
NtRp4389
(dp4390
g61
(dp4391
g69
I1
ssg70
Nsg63
(lp4392
g56
(g72
g58
NtRp4393
(dp4394
g61
(dp4395
sg70
g4389
sg63
(lp4396
g56
(g77
g58
NtRp4397
(dp4398
g61
(dp4399
sg70
g4393
sg63
(lp4400
g56
(g57
g58
NtRp4401
(dp4402
g61
(dp4403
g69
I1
ssg70
g4397
sg63
(lp4404
g3708
(S's\r\x00\x00\x00Documentation'
tRp4405
asbasbasbag56
(g72
g58
NtRp4406
(dp4407
g61
(dp4408
sg70
g4389
sg63
(lp4409
g56
(g77
g58
NtRp4410
(dp4411
g61
(dp4412
sg70
g4406
sg63
(lp4413
g56
(g57
g58
NtRp4414
(dp4415
g61
(dp4416
g69
I1
ssg70
g4410
sg63
(lp4417
I00
asbasbasbag56
(g72
g58
NtRp4418
(dp4419
g61
(dp4420
sg70
g4389
sg63
(lp4421
g56
(g77
g58
NtRp4422
(dp4423
g61
(dp4424
sg70
g4418
sg63
(lp4425
g56
(g57
g58
NtRp4426
(dp4427
g61
(dp4428
g69
I1
ssg70
g4422
sg63
(lp4429
S'http://www.web2py.com/book'
p4430
asbasbasbag56
(g72
g58
NtRp4431
(dp4432
g61
(dp4433
sg70
g4389
sg63
(lp4434
g56
(g77
g58
NtRp4435
(dp4436
g61
(dp4437
sg70
g4431
sg63
(lp4438
g56
(g57
g58
NtRp4439
(dp4440
g61
(dp4441
g69
I1
ssg70
g4435
sg63
(lp4442
(lp4443
(g3708
(S's\x07\x00\x00\x00Preface'
tRp4444
I00
S'http://www.web2py.com/book/default/chapter/00'
p4445
tp4446
a(g3708
(S's\x0c\x00\x00\x00Introduction'
tRp4447
I00
S'http://www.web2py.com/book/default/chapter/01'
p4448
tp4449
a(g3708
(S's\x06\x00\x00\x00Python'
tRp4450
I00
S'http://www.web2py.com/book/default/chapter/02'
p4451
tp4452
a(g3708
(S's\x08\x00\x00\x00Overview'
tRp4453
I00
S'http://www.web2py.com/book/default/chapter/03'
p4454
tp4455
a(g3708
(S's\x08\x00\x00\x00The Core'
tRp4456
I00
S'http://www.web2py.com/book/default/chapter/04'
p4457
tp4458
a(g3708
(S's\t\x00\x00\x00The Views'
tRp4459
I00
S'http://www.web2py.com/book/default/chapter/05'
p4460
tp4461
a(g3708
(S's\x08\x00\x00\x00Database'
tRp4462
I00
S'http://www.web2py.com/book/default/chapter/06'
p4463
tp4464
a(g3708
(S's\x14\x00\x00\x00Forms and Validators'
tRp4465
I00
S'http://www.web2py.com/book/default/chapter/07'
p4466
tp4467
a(g3708
(S's\x0e\x00\x00\x00Access Control'
tRp4468
I00
S'http://www.web2py.com/book/default/chapter/08'
p4469
tp4470
a(g3708
(S's\x08\x00\x00\x00Services'
tRp4471
I00
S'http://www.web2py.com/book/default/chapter/09'
p4472
tp4473
a(g3708
(S's\x0c\x00\x00\x00Ajax Recipes'
tRp4474
I00
S'http://www.web2py.com/book/default/chapter/10'
p4475
tp4476
a(g3708
(S's\x12\x00\x00\x00Deployment Recipes'
tRp4477
I00
S'http://www.web2py.com/book/default/chapter/11'
p4478
tp4479
a(g3708
(S's\r\x00\x00\x00Other Recipes'
tRp4480
I00
S'http://www.web2py.com/book/default/chapter/12'
p4481
tp4482
a(g3708
(S's\r\x00\x00\x00Buy this book'
tRp4483
I00
S'http://stores.lulu.com/web2py'
p4484
tp4485
aasbasbasbasbasbasbasbag56
(g72
g58
NtRp4486
(dp4487
g61
(dp4488
sg70
g4373
sg63
(lp4489
g56
(g77
g58
NtRp4490
(dp4491
g61
(dp4492
sg70
g4486
sg63
(lp4493
g56
(g57
g58
NtRp4494
(dp4495
g61
(dp4496
g69
I2
ssg70
g4490
sg63
(lp4497
g56
(g65
g58
NtRp4498
(dp4499
g61
(dp4500
g69
I1
ssg70
Nsg63
(lp4501
g56
(g72
g58
NtRp4502
(dp4503
g61
(dp4504
sg70
g4498
sg63
(lp4505
g56
(g77
g58
NtRp4506
(dp4507
g61
(dp4508
sg70
g4502
sg63
(lp4509
g56
(g57
g58
NtRp4510
(dp4511
g61
(dp4512
g69
I1
ssg70
g4506
sg63
(lp4513
g3708
(S's\t\x00\x00\x00Community'
tRp4514
asbasbasbag56
(g72
g58
NtRp4515
(dp4516
g61
(dp4517
sg70
g4498
sg63
(lp4518
g56
(g77
g58
NtRp4519
(dp4520
g61
(dp4521
sg70
g4515
sg63
(lp4522
g56
(g57
g58
NtRp4523
(dp4524
g61
(dp4525
g69
I1
ssg70
g4519
sg63
(lp4526
I00
asbasbasbag56
(g72
g58
NtRp4527
(dp4528
g61
(dp4529
sg70
g4498
sg63
(lp4530
g56
(g77
g58
NtRp4531
(dp4532
g61
(dp4533
sg70
g4527
sg63
(lp4534
g56
(g57
g58
NtRp4535
(dp4536
g61
(dp4537
g69
I1
ssg70
g4531
sg63
(lp4538
Nasbasbasbag56
(g72
g58
NtRp4539
(dp4540
g61
(dp4541
sg70
g4498
sg63
(lp4542
g56
(g77
g58
NtRp4543
(dp4544
g61
(dp4545
sg70
g4539
sg63
(lp4546
g56
(g57
g58
NtRp4547
(dp4548
g61
(dp4549
g69
I1
ssg70
g4543
sg63
(lp4550
(lp4551
(g3708
(S's\x06\x00\x00\x00Groups'
tRp4552
I00
S'http://www.web2py.com/examples/default/usergroups'
p4553
tp4554
a(g3708
(S's\x07\x00\x00\x00Twitter'
tRp4555
I00
S'http://twitter.com/web2py'
p4556
tp4557
a(g3708
(S's\t\x00\x00\x00Live chat'
tRp4558
I00
S'http://mibbit.com/?channel=%23web2py&server=irc.mibbit.net'
p4559
tp4560
a(g3708
(S's\n\x00\x00\x00User Voice'
tRp4561
I00
S'http://web2py.uservoice.com/'
p4562
tp4563
aasbasbasbasbasbasbasbag56
(g72
g58
NtRp4564
(dp4565
g61
(dp4566
sg70
g4373
sg63
(lp4567
g56
(g77
g58
NtRp4568
(dp4569
g61
(dp4570
sg70
g4564
sg63
(lp4571
g56
(g57
g58
NtRp4572
(dp4573
g61
(dp4574
g69
I2
ssg70
g4568
sg63
(lp4575
g56
(g65
g58
NtRp4576
(dp4577
g61
(dp4578
g69
I1
ssg70
Nsg63
(lp4579
g56
(g72
g58
NtRp4580
(dp4581
g61
(dp4582
sg70
g4576
sg63
(lp4583
g56
(g77
g58
NtRp4584
(dp4585
g61
(dp4586
sg70
g4580
sg63
(lp4587
g56
(g57
g58
NtRp4588
(dp4589
g61
(dp4590
g69
I1
ssg70
g4584
sg63
(lp4591
g3708
(S's\x06\x00\x00\x00Web2py'
tRp4592
asbasbasbag56
(g72
g58
NtRp4593
(dp4594
g61
(dp4595
sg70
g4576
sg63
(lp4596
g56
(g77
g58
NtRp4597
(dp4598
g61
(dp4599
sg70
g4593
sg63
(lp4600
g56
(g57
g58
NtRp4601
(dp4602
g61
(dp4603
g69
I1
ssg70
g4597
sg63
(lp4604
I00
asbasbasbag56
(g72
g58
NtRp4605
(dp4606
g61
(dp4607
sg70
g4576
sg63
(lp4608
g56
(g77
g58
NtRp4609
(dp4610
g61
(dp4611
sg70
g4605
sg63
(lp4612
g56
(g57
g58
NtRp4613
(dp4614
g61
(dp4615
g69
I1
ssg70
g4609
sg63
(lp4616
S'http://www.web2py.com'
p4617
asbasbasbag56
(g72
g58
NtRp4618
(dp4619
g61
(dp4620
sg70
g4576
sg63
(lp4621
g56
(g77
g58
NtRp4622
(dp4623
g61
(dp4624
sg70
g4618
sg63
(lp4625
g56
(g57
g58
NtRp4626
(dp4627
g61
(dp4628
g69
I1
ssg70
g4622
sg63
(lp4629
(lp4630
(g3708
(S's\x08\x00\x00\x00Download'
tRp4631
I00
S'http://www.web2py.com/examples/default/download'
p4632
tp4633
a(g3708
(S's\x07\x00\x00\x00Support'
tRp4634
I00
S'http://www.web2py.com/examples/default/support'
p4635
tp4636
a(g3708
(S's\x0e\x00\x00\x00Quick Examples'
tRp4637
I00
S'http://web2py.com/examples/default/examples'
p4638
tp4639
a(g3708
(S's\x03\x00\x00\x00FAQ'
tRp4640
I00
S'http://web2py.com/AlterEgo'
p4641
tp4642
a(g3708
(S's\x11\x00\x00\x00Free Applications'
tRp4643
I00
S'http://web2py.com/appliances'
p4644
tp4645
a(g3708
(S's\x07\x00\x00\x00Plugins'
tRp4646
I00
S'http://web2py.com/plugins'
p4647
tp4648
a(g3708
(S's\x07\x00\x00\x00Recipes'
tRp4649
I00
S'http://web2pyslices.com/'
p4650
tp4651
a(g3708
(S's\x04\x00\x00\x00Demo'
tRp4652
I00
S'http://web2py.com/demo_admin'
p4653
tp4654
a(g3708
(S's\x08\x00\x00\x00Semantic'
tRp4655
I00
S'http://web2py.com/semantic'
p4656
tp4657
a(g3708
(S's\x07\x00\x00\x00Layouts'
tRp4658
I00
S'http://web2py.com/layouts'
p4659
tp4660
a(g3708
(S's\x06\x00\x00\x00Videos'
tRp4661
I00
S'http://www.web2py.com/examples/default/videos/'
p4662
tp4663
aasbasbasbasbasbasbasbasbasbasbasbasbasbasbasbasbasbasbasbag56
(g72
g58
NtRp4664
(dp4665
g61
(dp4666
sg70
g3203
sg63
(lp4667
g56
(g77
g58
NtRp4668
(dp4669
g61
(dp4670
g81
g82
ssg70
g4664
sg63
(lp4671
S'meta'
p4672
asbag56
(g77
g58
NtRp4673
(dp4674
g61
(dp4675
g88
g89
ssg70
g4664
sg63
(lp4676
S':'
asbag56
(g77
g58
NtRp4677
(dp4678
g61
(dp4679
sg70
g4664
sg63
(lp4680
g56
(g57
g58
NtRp4681
(dp4682
g61
(dp4683
g69
I5
ssg70
g4677
sg63
(lp4684
g56
(g65
g58
NtRp4685
(dp4686
g61
(dp4687
g69
I4
ssg70
Nsg63
(lp4688
g56
(g72
g58
NtRp4689
(dp4690
g61
(dp4691
sg70
g4685
sg63
(lp4692
g56
(g77
g58
NtRp4693
(dp4694
g61
(dp4695
g81
g82
ssg70
g4689
sg63
(lp4696
S'author'
p4697
asbag56
(g77
g58
NtRp4698
(dp4699
g61
(dp4700
g88
g89
ssg70
g4689
sg63
(lp4701
S':'
asbag56
(g77
g58
NtRp4702
(dp4703
g61
(dp4704
sg70
g4689
sg63
(lp4705
g56
(g57
g58
NtRp4706
(dp4707
g61
(dp4708
g69
I4
ssg70
g4702
sg63
(lp4709
S'Your Name <you@example.com>'
p4710
asbasbasbag56
(g72
g58
NtRp4711
(dp4712
g61
(dp4713
sg70
g4685
sg63
(lp4714
g56
(g77
g58
NtRp4715
(dp4716
g61
(dp4717
g81
g82
ssg70
g4711
sg63
(lp4718
S'copyright'
p4719
asbag56
(g77
g58
NtRp4720
(dp4721
g61
(dp4722
g88
g89
ssg70
g4711
sg63
(lp4723
S':'
asbag56
(g77
g58
NtRp4724
(dp4725
g61
(dp4726
sg70
g4711
sg63
(lp4727
g56
(g57
g58
NtRp4728
(dp4729
g61
(dp4730
g69
I4
ssg70
g4724
sg63
(lp4731
S'Copyright 2011'
p4732
asbasbasbag56
(g72
g58
NtRp4733
(dp4734
g61
(dp4735
sg70
g4685
sg63
(lp4736
g56
(g77
g58
NtRp4737
(dp4738
g61
(dp4739
g81
g82
ssg70
g4733
sg63
(lp4740
S'description'
p4741
asbag56
(g77
g58
NtRp4742
(dp4743
g61
(dp4744
g88
g89
ssg70
g4733
sg63
(lp4745
S':'
asbag56
(g77
g58
NtRp4746
(dp4747
g61
(dp4748
sg70
g4733
sg63
(lp4749
g56
(g57
g58
NtRp4750
(dp4751
g61
(dp4752
g69
I4
ssg70
g4746
sg63
(lp4753
S'a cool new app'
p4754
asbasbasbag56
(g72
g58
NtRp4755
(dp4756
g61
(dp4757
sg70
g4685
sg63
(lp4758
g56
(g77
g58
NtRp4759
(dp4760
g61
(dp4761
g81
g82
ssg70
g4755
sg63
(lp4762
S'generator'
p4763
asbag56
(g77
g58
NtRp4764
(dp4765
g61
(dp4766
g88
g89
ssg70
g4755
sg63
(lp4767
S':'
asbag56
(g77
g58
NtRp4768
(dp4769
g61
(dp4770
sg70
g4755
sg63
(lp4771
g56
(g57
g58
NtRp4772
(dp4773
g61
(dp4774
g69
I4
ssg70
g4768
sg63
(lp4775
S'Web2py Web Framework'
p4776
asbasbasbag56
(g72
g58
NtRp4777
(dp4778
g61
(dp4779
sg70
g4685
sg63
(lp4780
g56
(g77
g58
NtRp4781
(dp4782
g61
(dp4783
g81
g82
ssg70
g4777
sg63
(lp4784
S'keywords'
p4785
asbag56
(g77
g58
NtRp4786
(dp4787
g61
(dp4788
g88
g89
ssg70
g4777
sg63
(lp4789
S':'
asbag56
(g77
g58
NtRp4790
(dp4791
g61
(dp4792
sg70
g4777
sg63
(lp4793
g56
(g57
g58
NtRp4794
(dp4795
g61
(dp4796
g69
I4
ssg70
g4790
sg63
(lp4797
S'web2py, python, framework'
p4798
asbasbasbasbasbasbasbag56
(g72
g58
NtRp4799
(dp4800
g61
(dp4801
sg70
g3203
sg63
(lp4802
g56
(g77
g58
NtRp4803
(dp4804
g61
(dp4805
g81
g82
ssg70
g4799
sg63
(lp4806
S'postprocessing'
p4807
asbag56
(g77
g58
NtRp4808
(dp4809
g61
(dp4810
g88
g89
ssg70
g4799
sg63
(lp4811
S':'
asbag56
(g77
g58
NtRp4812
(dp4813
g61
(dp4814
sg70
g4799
sg63
(lp4815
g56
(g57
g58
NtRp4816
(dp4817
g61
(dp4818
g69
I5
ssg70
g4812
sg63
(lp4819
g56
(g65
g58
NtRp4820
(dp4821
g61
(dp4822
g69
I4
ssg70
Nsg63
(lp4823
sbasbasbasbag56
(g72
g58
NtRp4824
(dp4825
g61
(dp4826
sg70
g3203
sg63
(lp4827
g56
(g77
g58
NtRp4828
(dp4829
g61
(dp4830
g81
g82
ssg70
g4824
sg63
(lp4831
S'session_filename'
p4832
asbag56
(g77
g58
NtRp4833
(dp4834
g61
(dp4835
g88
g89
ssg70
g4824
sg63
(lp4836
S':'
asbag56
(g77
g58
NtRp4837
(dp4838
g61
(dp4839
sg70
g4824
sg63
(lp4840
g56
(g57
g58
NtRp4841
(dp4842
g61
(dp4843
g69
I5
ssg70
g4837
sg63
(lp4844
S'/windows/Users/Thomas/Dropbox/appz/2011/GAE/ddl-lagoon/applications/ddlagoon/sessions/127.0.0.1-d7148a6d-8f29-450f-a5ac-b2d00b86d750'
p4845
asbasbasbag56
(g72
g58
NtRp4846
(dp4847
g61
(dp4848
sg70
g3203
sg63
(lp4849
g56
(g77
g58
NtRp4850
(dp4851
g61
(dp4852
g81
g82
ssg70
g4846
sg63
(lp4853
S'session_id'
p4854
asbag56
(g77
g58
NtRp4855
(dp4856
g61
(dp4857
g88
g89
ssg70
g4846
sg63
(lp4858
S':'
asbag56
(g77
g58
NtRp4859
(dp4860
g61
(dp4861
sg70
g4846
sg63
(lp4862
g56
(g57
g58
NtRp4863
(dp4864
g61
(dp4865
g69
I5
ssg70
g4859
sg63
(lp4866
S'127.0.0.1-d7148a6d-8f29-450f-a5ac-b2d00b86d750'
p4867
asbasbasbag56
(g72
g58
NtRp4868
(dp4869
g61
(dp4870
sg70
g3203
sg63
(lp4871
g56
(g77
g58
NtRp4872
(dp4873
g61
(dp4874
g81
g82
ssg70
g4868
sg63
(lp4875
S'session_id_name'
p4876
asbag56
(g77
g58
NtRp4877
(dp4878
g61
(dp4879
g88
g89
ssg70
g4868
sg63
(lp4880
S':'
asbag56
(g77
g58
NtRp4881
(dp4882
g61
(dp4883
sg70
g4868
sg63
(lp4884
g56
(g57
g58
NtRp4885
(dp4886
g61
(dp4887
g69
I5
ssg70
g4881
sg63
(lp4888
g3260
asbasbasbag56
(g72
g58
NtRp4889
(dp4890
g61
(dp4891
sg70
g3203
sg63
(lp4892
g56
(g77
g58
NtRp4893
(dp4894
g61
(dp4895
g81
g82
ssg70
g4889
sg63
(lp4896
S'session_new'
p4897
asbag56
(g77
g58
NtRp4898
(dp4899
g61
(dp4900
g88
g89
ssg70
g4889
sg63
(lp4901
S':'
asbag56
(g77
g58
NtRp4902
(dp4903
g61
(dp4904
sg70
g4889
sg63
(lp4905
g56
(g57
g58
NtRp4906
(dp4907
g61
(dp4908
g69
I5
ssg70
g4902
sg63
(lp4909
g1702
asbasbasbag56
(g72
g58
NtRp4910
(dp4911
g61
(dp4912
sg70
g3203
sg63
(lp4913
g56
(g77
g58
NtRp4914
(dp4915
g61
(dp4916
g81
g82
ssg70
g4910
sg63
(lp4917
S'status'
p4918
asbag56
(g77
g58
NtRp4919
(dp4920
g61
(dp4921
g88
g89
ssg70
g4910
sg63
(lp4922
S':'
asbag56
(g77
g58
NtRp4923
(dp4924
g61
(dp4925
sg70
g4910
sg63
(lp4926
g56
(g57
g58
NtRp4927
(dp4928
g61
(dp4929
g69
I5
ssg70
g4923
sg63
(lp4930
S'200'
p4931
asbasbasbag56
(g72
g58
NtRp4932
(dp4933
g61
(dp4934
sg70
g3203
sg63
(lp4935
g56
(g77
g58
NtRp4936
(dp4937
g61
(dp4938
g81
g82
ssg70
g4932
sg63
(lp4939
S'subtitle'
p4940
asbag56
(g77
g58
NtRp4941
(dp4942
g61
(dp4943
g88
g89
ssg70
g4932
sg63
(lp4944
S':'
asbag56
(g77
g58
NtRp4945
(dp4946
g61
(dp4947
sg70
g4932
sg63
(lp4948
g56
(g57
g58
NtRp4949
(dp4950
g61
(dp4951
g69
I5
ssg70
g4945
sg63
(lp4952
g3708
(S's\r\x00\x00\x00customize me!'
tRp4953
asbasbasbag56
(g72
g58
NtRp4954
(dp4955
g61
(dp4956
sg70
g3203
sg63
(lp4957
g56
(g77
g58
NtRp4958
(dp4959
g61
(dp4960
g81
g82
ssg70
g4954
sg63
(lp4961
S'title'
p4962
asbag56
(g77
g58
NtRp4963
(dp4964
g61
(dp4965
g88
g89
ssg70
g4954
sg63
(lp4966
S':'
asbag56
(g77
g58
NtRp4967
(dp4968
g61
(dp4969
sg70
g4954
sg63
(lp4970
g56
(g57
g58
NtRp4971
(dp4972
g61
(dp4973
g69
I5
ssg70
g4967
sg63
(lp4974
g121
asbasbasbag56
(g72
g58
NtRp4975
(dp4976
g61
(dp4977
sg70
g3203
sg63
(lp4978
g56
(g77
g58
NtRp4979
(dp4980
g61
(dp4981
g81
g82
ssg70
g4975
sg63
(lp4982
g2368
asbag56
(g77
g58
NtRp4983
(dp4984
g61
(dp4985
g88
g89
ssg70
g4975
sg63
(lp4986
S':'
asbag56
(g77
g58
NtRp4987
(dp4988
g61
(dp4989
sg70
g4975
sg63
(lp4990
g56
(g57
g58
NtRp4991
(dp4992
g61
(dp4993
g69
I5
ssg70
g4987
sg63
(lp4994
g2381
asbasbasbag56
(g72
g58
NtRp4995
(dp4996
g61
(dp4997
sg70
g3203
sg63
(lp4998
g56
(g77
g58
NtRp4999
(dp5000
g61
(dp5001
g81
g82
ssg70
g4995
sg63
(lp5002
S'view'
p5003
asbag56
(g77
g58
NtRp5004
(dp5005
g61
(dp5006
g88
g89
ssg70
g4995
sg63
(lp5007
S':'
asbag56
(g77
g58
NtRp5008
(dp5009
g61
(dp5010
sg70
g4995
sg63
(lp5011
g56
(g57
g58
NtRp5012
(dp5013
g61
(dp5014
g69
I5
ssg70
g5008
sg63
(lp5015
S'ddl/get.html'
p5016
asbasbasbasbasbsS'locals'
p5017
(dp5018
S'a'
S'()'
p5019
sS'c'
S'2'
sS'b'
g44
sS'pos_args'
p5020
S'()'
p5021
sS'named_args'
p5022
S"('id', 'filename')"
p5023
sS'f'
S'<function ddl>'
p5024
sS'n'
S"('id', 'filename')"
p5025
sS'defaults'
p5026
S'[]'
p5027
sS'arg_dict'
p5028
g44
sS'arg_name'
p5029
S"'filename'"
p5030
sssS'traceback'
p5031
S'Traceback (most recent call last):\n  File "/windows/Users/Thomas/Dropbox/appz/2011/GAE/ddl-lagoon/gluon/restricted.py", line 194, in restricted\n    exec ccode in environment\n  File "/windows/Users/Thomas/Dropbox/appz/2011/GAE/ddl-lagoon/applications/ddlagoon/controllers/ddl.py", line 9, in <module>\n  File "/windows/Users/Thomas/Dropbox/appz/2011/GAE/ddl-lagoon/gluon/globals.py", line 149, in <lambda>\n    self._caller = lambda f: f()\n  File "/windows/Users/Thomas/Dropbox/appz/2011/GAE/ddl-lagoon/applications/ddlagoon/controllers/ddl.py", line 4, in get\n    return service()\n  File "/windows/Users/Thomas/Dropbox/appz/2011/GAE/ddl-lagoon/gluon/tools.py", line 3840, in __call__\n    return self.serve_xml(request.args[1:])\n  File "/windows/Users/Thomas/Dropbox/appz/2011/GAE/ddl-lagoon/gluon/tools.py", line 3632, in serve_xml\n    *args[1:], **dict(request.vars))\n  File "/windows/Users/Thomas/Dropbox/appz/2011/GAE/ddl-lagoon/gluon/tools.py", line 3351, in universal_caller\n    return f(**arg_dict)\nTypeError: ddl() takes exactly 2 arguments (0 given)\n'
p5032
s.