(dp1
S'output'
p2
S''
sS'layer'
p3
S'/windows/Users/Thomas/Dropbox/appz/2011/GAE/ddl-lagoon/applications/ddlagoon/controllers/default.py'
p4
sS'code'
p5
S'# -*- coding: utf-8 -*-\n# this file is released under public domain and you can use without limitations\n\n#########################################################################\n## This is a samples controller\n## - index is the default action of any application\n## - user is required for authentication and authorization\n## - download is for downloading files uploaded in the db (does streaming)\n## - call exposes all registered services (none by default)\n#########################################################################\nfrom datetime import datetime\n\n__version__ = 1.5\n\nfrom Crypto.PublicKey import RSA\n#from Crypto.Random import random\nimport random\nimport base64, hashlib\nimport gluon.contrib.simplejson as json\ndef sha512(n):\n    return hashlib.sha512(str(n)).digest()\ndef sha256(n):\n    return hashlib.sha256(str(n)).digest()\ndef compute(n):\n    return 61*long(n)**3-54*long(n)**2+8942*long(n)*3\ndef chunks(s, n):\n    """Produce `n`-character chunks from `s`."""\n    for start in range(0, len(s), n):\n        yield s[start:start+n]\n\nif False:\n    from gluon.contrib import *\n    from re import T\n    from applications.ddlagoon.models.db import db, service, auth\n    from gluon.contrib.pysimplesoap.server import request\n\ndef index():\n    """\n    example action using the internationalization operator T and flash\n    rendered by views/default/index.html or views/generic.html\n    """\n    ddlz= db(db.ddl.id>0).select()\n    return dict(message=T(\'Hello World\'),ddlz=ddlz)\n\ndef user():\n    """\n    exposes:\n    http://..../[app]/default/user/login\n    http://..../[app]/default/user/logout\n    http://..../[app]/default/user/register\n    http://..../[app]/default/user/profile\n    http://..../[app]/default/user/retrieve_password\n    http://..../[app]/default/user/change_password\n    use @auth.requires_login()\n        @auth.requires_membership(\'group name\')\n        @auth.requires_permission(\'read\',\'table name\',record_id)\n    to decorate functions that need access control\n    """\n    return dict(form=auth())\n\n@auth.requires_login()\ndef profile():\n    return dict(nickname=auth.user.nickname,\n                uploader_key=auth.user.uploader_key,\n                is_uploader=auth.user.is_uploader)\n\ndef download():\n    """\n    allows downloading of uploaded files\n    http://..../[app]/default/download/[filename]\n    """\n    return response.download(request,db)\n\n@auth.requires_login()\ndef uploadDDL():\n    return service()\n\ndef call():\n    """\n    exposes services. for example:\n    http://..../[app]/default/call/jsonrpc\n    decorate with @services.jsonrpc the functions to expose\n    supports xml, json, xmlrpc, jsonrpc, amfrpc, rss, csv\n    """\n    return service()\n\n@service.xmlrpc\n@service.json\n@service.xml\ndef receiveDDL(encryptedText):\n    returnCode=-1\n    message="Unknown Error"\n    try:\n        decryptedMsg= decryptFromClient(encryptedText)\n    except:\n        returnCode=-1\n        message= "Error decrypting the DDL"\n    else:\n        try:\n            dataFromClient = json.loads(decryptedMsg)\n        except :\n            returnCode= -1\n            message="Error reading the DDL"\n        else:\n            # prepare a DDL from the received information\n            uploader= db(db.auth_user.nickname==dataFromClient[\'nickname\']).select().first()\n            ddl = dataFromClient[\'ddl\']\n            # remove previous DDL, if present\n            db((db.ddl.filename==ddl[\'filename\']) & (db.ddl.uploader==uploader.id)).delete()\n            db.ddl.insert(\n                uploader=uploader.id\n                , filename=ddl[\'filename\']\n                , description=ddl[\'description\'],\n                size=ddl[\'size\'],\n                hash=ddl[\'hash\'],\n                parts=ddl[\'parts\'],\n                service=ddl[\'service\'],\n                links="|".join(ddl[\'links\']),\n                version=ddl[\'version\']\n                #, date_created=datetime.fromtimestamp(ddl[\'time\'])\n            )\n            returnCode= 0\n            message="Upload done!"\n    dataToSend = {\n        \'returnCode\' : returnCode,\n        \'message\' : message\n    }\n    return json.dumps(dataToSend, sort_keys=True, indent=4)\n\n@service.json\n@service.xmlrpc\n@service.xml\ndef concat(a,b):\n    return dict(test=a+b)\n\ndef loginTest(nickname, uploaderKey):\n    returnCode = -1\n    message = ""\n    try:\n        record = db(db.auth_user.nickname==nickname).select().first()\n    except:\n        pass\n    else:\n        if not record:\n            returnCode= -1\n            message= "Who is %s?" % nickname\n        else:\n            if not record.uploader_key==uploaderKey:\n                returnCode= -1\n                message= "Wrong API Key"\n            else:\n                if record.is_uploader:\n                    # login the user\n                    #session.nickname= nickname\n                    returnCode=0\n                else:\n                    returnCode= -1\n                    message= "You are not allowed to upload"\n    return returnCode, message\n\n\ndef decryptFromClient(encryptedMsg):\n    decryptedMsg = ""\n    private_json = {\n        "d": 23787079891404684333685400978249298094378954863672776929346845102263722750088918762338764266712467553502811192479791825128333774826784684125489823193368527161074577530140077392439136510635896140296132025922882984837588521257841050129145633510814630843053674301016823808612405445927946023993959147765325630609,\n        "e": 65537,\n        "n": 113857278326248086267655574343523535583648376051747208707172377115619164320229146138430878888952306898474564499090572366596232150220784972504544737264372878940265396864770701575284749329394957815581364039447123399430603091303935702146927576939090729428557897918935408150236788311903915427199939052963176280397,\n        "p": 9580774579539128121039431812737453710839471771236942870475012323041145011884745445780348665996631786895791139388698030648995797187661607074610865997962403,\n        "q": 11883932492202009053507786643172605523535663521769572031030078443728388902717320133755150294842235771246601522313496536316374989301635407931585896758667599,\n        "u": 1517576679209673870508661373022611765046783829884979500337395070156130858916802958093981514472423096659658057726899513257360280724233068450029128365828499\n    }\n    private_key = RSA.construct((long(private_json[\'n\']), long(private_json[\'e\']),\n                             long(private_json[\'d\']), long(private_json[\'p\']),\n                             long(private_json[\'q\']), long(private_json[\'u\'])))\n    try:\n        for p in encryptedMsg.split("@"):\n            decryptedMsg += private_key.decrypt(base64.b16decode(p))\n    except:\n        pass\n    \n    return decryptedMsg\n\n@service.json\n@service.xmlrpc\n@service.xml\ndef checkLogin(encryptedMsg):\n    # decrypt the message with the private key\n    returnCode = -1\n    message = \'\'\n    computedNb = 0\n    decryptedMsg = decryptFromClient(encryptedMsg)\n    dataFromClient = ()\n    if not len(decryptedMsg)>0:\n        returnCode = -1\n        message = \'Server Decrypt Error\'\n    else:\n        # try to load into a json\n        try:\n            dataFromClient = json.loads(decryptedMsg)\n        except:\n            returnCode = -1\n            message = \'Server Load Error\'\n        else:\n            toFind = [\'nickname\',\'version\',\'uploaderKey\',\'n\',\'e\',\'randomNb\']\n            error = False\n            for e in toFind:\n                if e not in dataFromClient:\n                    error = True\n                    returnCode = -1\n                    message = \'Server Elements Missing\'\n            if not error:\n                # check if the client is using the last version\n                if float(dataFromClient[\'version\'])>=__version__:\n                    returnCode, message = loginTest(dataFromClient[\'nickname\'],dataFromClient[\'uploaderKey\'])\n                    computedNb = base64.b16encode(sha512(sha256(str(compute(dataFromClient[\'randomNb\'])))))\n                else:\n                    returnCode=1\n                    message="A new version of Bobpic is available.\\nYou need to upgrade."\n\n    # prepare a json\n    dataToSend = {\n        \'returnCode\' : returnCode,\n        \'message\' : message,\n        \'computedNb\' : computedNb\n    }\n    # encrypt the json with the dynamic public key of the client\n    # TODO /!\\ If no DataFromClient, submit raw data\n    try:\n        client_pub_key = RSA.construct((long(dataFromClient[\'n\']), long(dataFromClient[\'e\'])))\n        # TODO chunks!!!\n        encryptedMsg = list()\n        dataToSendStr = str(json.dumps(dataToSend, sort_keys=True, indent=4))\n        randomK = long(random.getrandbits(random.randint(128, 256)))\n        for part in chunks(dataToSendStr,127):\n            encryptedData = client_pub_key.encrypt(part, randomK)\n            coded = base64.b16encode(encryptedData[0])\n            encryptedMsg.append(coded)\n        data = "@".join(encryptedMsg)\n    except :\n        dataToSend = {\n            \'returnCode\' : -2,\n            \'message\' : message\n        }\n        return json.dumps(dataToSend, sort_keys=True, indent=4)\n    else:\n        return data\n\n#def checkLogin(username, key):\n#    users = db.auth_user\n#    q = users.nickname==username\n#    s = db(q)\n#    if s.select():\n#        return dict(test=username+key)\n#    else:\n#        return "get out"\n\n@auth.requires_signature()\ndef data():\n    """\n    http://..../[app]/default/data/tables\n    http://..../[app]/default/data/create/[table]\n    http://..../[app]/default/data/read/[table]/[id]\n    http://..../[app]/default/data/update/[table]/[id]\n    http://..../[app]/default/data/delete/[table]/[id]\n    http://..../[app]/default/data/select/[table]\n    http://..../[app]/default/data/search/[table]\n    but URLs bust be signed, i.e. linked with\n      A(\'table\',_href=URL(\'data/tables\',user_signature=True))\n    or with the signed load operator\n      LOAD(\'default\',\'data.load\',args=\'tables\',ajax=True,user_signature=True)\n    """\n    return dict(form=crud())\n\nresponse._vars=response._caller(index)\n'
p6
sS'snapshot'
p7
(dp8
S'exception'
p9
(dp10
S'__hash__'
p11
S"<method-wrapper '__hash__' of exceptions.AttributeError object>"
p12
sS'__setattr__'
p13
S"<method-wrapper '__setattr__' of exceptions.AttributeError object>"
p14
sS'__reduce_ex__'
p15
S'<built-in method __reduce_ex__ of exceptions.AttributeError object>'
p16
sS'__getslice__'
p17
S"<method-wrapper '__getslice__' of exceptions.AttributeError object>"
p18
sS'__getitem__'
p19
S"<method-wrapper '__getitem__' of exceptions.AttributeError object>"
p20
sS'__setstate__'
p21
S'<built-in method __setstate__ of exceptions.AttributeError object>'
p22
sS'args'
p23
S'("\'dictproxy\' object has no attribute \'update\'",)'
p24
sS'__reduce__'
p25
S'<built-in method __reduce__ of exceptions.AttributeError object>'
p26
sS'__str__'
p27
S"<method-wrapper '__str__' of exceptions.AttributeError object>"
p28
sS'__format__'
p29
S'<built-in method __format__ of exceptions.AttributeError object>'
p30
sS'__getattribute__'
p31
S"<method-wrapper '__getattribute__' of exceptions.AttributeError object>"
p32
sS'__class__'
p33
S"<type 'exceptions.AttributeError'>"
p34
sS'__unicode__'
p35
S'<built-in method __unicode__ of exceptions.AttributeError object>'
p36
sS'__delattr__'
p37
S"<method-wrapper '__delattr__' of exceptions.AttributeError object>"
p38
sS'__subclasshook__'
p39
S'<built-in method __subclasshook__ of type object>'
p40
sS'__repr__'
p41
S"<method-wrapper '__repr__' of exceptions.AttributeError object>"
p42
sS'__dict__'
p43
S'{}'
p44
sS'__sizeof__'
p45
S'<built-in method __sizeof__ of exceptions.AttributeError object>'
p46
sS'__doc__'
p47
S"'Attribute not found.'"
p48
sS'__init__'
p49
S"<method-wrapper '__init__' of exceptions.AttributeError object>"
p50
sS'__new__'
p51
S'<built-in method __new__ of type object>'
p52
ssS'evalue'
p53
S"'dictproxy' object has no attribute 'update'"
p54
sS'request'
p55
ccopy_reg
_reconstructor
p56
(cgluon.html
BEAUTIFY
p57
c__builtin__
object
p58
NtRp59
(dp60
S'attributes'
p61
(dp62
sS'components'
p63
(lp64
g56
(cgluon.html
TABLE
p65
g58
NtRp66
(dp67
g61
(dp68
S'level'
p69
I5
ssS'parent'
p70
Nsg63
(lp71
g56
(cgluon.html
TR
p72
g58
NtRp73
(dp74
g61
(dp75
sg70
g66
sg63
(lp76
g56
(cgluon.html
TD
p77
g58
NtRp78
(dp79
g61
(dp80
S'_style'
p81
S'font-weight:bold;'
p82
ssg70
g73
sg63
(lp83
S'ajax'
p84
asbag56
(g77
g58
NtRp85
(dp86
g61
(dp87
S'_valign'
p88
S'top'
p89
ssg70
g73
sg63
(lp90
S':'
asbag56
(g77
g58
NtRp91
(dp92
g61
(dp93
sg70
g73
sg63
(lp94
g56
(g57
g58
NtRp95
(dp96
g61
(dp97
g69
I5
ssg70
g91
sg63
(lp98
S'False'
p99
asbasbasbag56
(g72
g58
NtRp100
(dp101
g61
(dp102
sg70
g66
sg63
(lp103
g56
(g77
g58
NtRp104
(dp105
g61
(dp106
g81
g82
ssg70
g100
sg63
(lp107
S'application'
p108
asbag56
(g77
g58
NtRp109
(dp110
g61
(dp111
g88
g89
ssg70
g100
sg63
(lp112
S':'
asbag56
(g77
g58
NtRp113
(dp114
g61
(dp115
sg70
g100
sg63
(lp116
g56
(g57
g58
NtRp117
(dp118
g61
(dp119
g69
I5
ssg70
g113
sg63
(lp120
S'ddlagoon'
p121
asbasbasbag56
(g72
g58
NtRp122
(dp123
g61
(dp124
sg70
g66
sg63
(lp125
g56
(g77
g58
NtRp126
(dp127
g61
(dp128
g81
g82
ssg70
g122
sg63
(lp129
g23
asbag56
(g77
g58
NtRp130
(dp131
g61
(dp132
g88
g89
ssg70
g122
sg63
(lp133
S':'
asbag56
(g77
g58
NtRp134
(dp135
g61
(dp136
sg70
g122
sg63
(lp137
g56
(g57
g58
NtRp138
(dp139
g61
(dp140
g69
I5
ssg70
g134
sg63
(lp141
g56
(g65
g58
NtRp142
(dp143
g61
(dp144
g69
I4
ssg70
Nsg63
(lp145
sbasbasbasbag56
(g72
g58
NtRp146
(dp147
g61
(dp148
sg70
g66
sg63
(lp149
g56
(g77
g58
NtRp150
(dp151
g61
(dp152
g81
g82
ssg70
g146
sg63
(lp153
S'body'
p154
asbag56
(g77
g58
NtRp155
(dp156
g61
(dp157
g88
g89
ssg70
g146
sg63
(lp158
S':'
asbag56
(g77
g58
NtRp159
(dp160
g61
(dp161
sg70
g146
sg63
(lp162
g56
(g57
g58
NtRp163
(dp164
g61
(dp165
g69
I5
ssg70
g159
sg63
(lp166
S'<cStringIO.StringO object at 0x4023768>'
p167
asbasbasbag56
(g72
g58
NtRp168
(dp169
g61
(dp170
sg70
g66
sg63
(lp171
g56
(g77
g58
NtRp172
(dp173
g61
(dp174
g81
g82
ssg70
g168
sg63
(lp175
S'client'
p176
asbag56
(g77
g58
NtRp177
(dp178
g61
(dp179
g88
g89
ssg70
g168
sg63
(lp180
S':'
asbag56
(g77
g58
NtRp181
(dp182
g61
(dp183
sg70
g168
sg63
(lp184
g56
(g57
g58
NtRp185
(dp186
g61
(dp187
g69
I5
ssg70
g181
sg63
(lp188
S'127.0.0.1'
p189
asbasbasbag56
(g72
g58
NtRp190
(dp191
g61
(dp192
sg70
g66
sg63
(lp193
g56
(g77
g58
NtRp194
(dp195
g61
(dp196
g81
g82
ssg70
g190
sg63
(lp197
S'controller'
p198
asbag56
(g77
g58
NtRp199
(dp200
g61
(dp201
g88
g89
ssg70
g190
sg63
(lp202
S':'
asbag56
(g77
g58
NtRp203
(dp204
g61
(dp205
sg70
g190
sg63
(lp206
g56
(g57
g58
NtRp207
(dp208
g61
(dp209
g69
I5
ssg70
g203
sg63
(lp210
S'default'
p211
asbasbasbag56
(g72
g58
NtRp212
(dp213
g61
(dp214
sg70
g66
sg63
(lp215
g56
(g77
g58
NtRp216
(dp217
g61
(dp218
g81
g82
ssg70
g212
sg63
(lp219
S'cookies'
p220
asbag56
(g77
g58
NtRp221
(dp222
g61
(dp223
g88
g89
ssg70
g212
sg63
(lp224
S':'
asbag56
(g77
g58
NtRp225
(dp226
g61
(dp227
sg70
g212
sg63
(lp228
g56
(g57
g58
NtRp229
(dp230
g61
(dp231
g69
I5
ssg70
g225
sg63
(lp232
g56
(g65
g58
NtRp233
(dp234
g61
(dp235
g69
I4
ssg70
Nsg63
(lp236
g56
(g72
g58
NtRp237
(dp238
g61
(dp239
sg70
g233
sg63
(lp240
g56
(g77
g58
NtRp241
(dp242
g61
(dp243
g81
g82
ssg70
g237
sg63
(lp244
S'session_id_admin'
p245
asbag56
(g77
g58
NtRp246
(dp247
g61
(dp248
g88
g89
ssg70
g237
sg63
(lp249
S':'
asbag56
(g77
g58
NtRp250
(dp251
g61
(dp252
sg70
g237
sg63
(lp253
g56
(g57
g58
NtRp254
(dp255
g61
(dp256
g69
I4
ssg70
g250
sg63
(lp257
g56
(g65
g58
NtRp258
(dp259
g61
(dp260
g69
I3
ssg70
Nsg63
(lp261
g56
(g72
g58
NtRp262
(dp263
g61
(dp264
sg70
g258
sg63
(lp265
g56
(g77
g58
NtRp266
(dp267
g61
(dp268
g81
g82
ssg70
g262
sg63
(lp269
S'comment'
p270
asbag56
(g77
g58
NtRp271
(dp272
g61
(dp273
g88
g89
ssg70
g262
sg63
(lp274
S':'
asbag56
(g77
g58
NtRp275
(dp276
g61
(dp277
sg70
g262
sg63
(lp278
g56
(g57
g58
NtRp279
(dp280
g61
(dp281
g69
I3
ssg70
g275
sg63
(lp282
S''
asbasbasbag56
(g72
g58
NtRp283
(dp284
g61
(dp285
sg70
g258
sg63
(lp286
g56
(g77
g58
NtRp287
(dp288
g61
(dp289
g81
g82
ssg70
g283
sg63
(lp290
S'domain'
p291
asbag56
(g77
g58
NtRp292
(dp293
g61
(dp294
g88
g89
ssg70
g283
sg63
(lp295
S':'
asbag56
(g77
g58
NtRp296
(dp297
g61
(dp298
sg70
g283
sg63
(lp299
g56
(g57
g58
NtRp300
(dp301
g61
(dp302
g69
I3
ssg70
g296
sg63
(lp303
S''
asbasbasbag56
(g72
g58
NtRp304
(dp305
g61
(dp306
sg70
g258
sg63
(lp307
g56
(g77
g58
NtRp308
(dp309
g61
(dp310
g81
g82
ssg70
g304
sg63
(lp311
S'expires'
p312
asbag56
(g77
g58
NtRp313
(dp314
g61
(dp315
g88
g89
ssg70
g304
sg63
(lp316
S':'
asbag56
(g77
g58
NtRp317
(dp318
g61
(dp319
sg70
g304
sg63
(lp320
g56
(g57
g58
NtRp321
(dp322
g61
(dp323
g69
I3
ssg70
g317
sg63
(lp324
S''
asbasbasbag56
(g72
g58
NtRp325
(dp326
g61
(dp327
sg70
g258
sg63
(lp328
g56
(g77
g58
NtRp329
(dp330
g61
(dp331
g81
g82
ssg70
g325
sg63
(lp332
S'httponly'
p333
asbag56
(g77
g58
NtRp334
(dp335
g61
(dp336
g88
g89
ssg70
g325
sg63
(lp337
S':'
asbag56
(g77
g58
NtRp338
(dp339
g61
(dp340
sg70
g325
sg63
(lp341
g56
(g57
g58
NtRp342
(dp343
g61
(dp344
g69
I3
ssg70
g338
sg63
(lp345
S''
asbasbasbag56
(g72
g58
NtRp346
(dp347
g61
(dp348
sg70
g258
sg63
(lp349
g56
(g77
g58
NtRp350
(dp351
g61
(dp352
g81
g82
ssg70
g346
sg63
(lp353
S'max-age'
p354
asbag56
(g77
g58
NtRp355
(dp356
g61
(dp357
g88
g89
ssg70
g346
sg63
(lp358
S':'
asbag56
(g77
g58
NtRp359
(dp360
g61
(dp361
sg70
g346
sg63
(lp362
g56
(g57
g58
NtRp363
(dp364
g61
(dp365
g69
I3
ssg70
g359
sg63
(lp366
S''
asbasbasbag56
(g72
g58
NtRp367
(dp368
g61
(dp369
sg70
g258
sg63
(lp370
g56
(g77
g58
NtRp371
(dp372
g61
(dp373
g81
g82
ssg70
g367
sg63
(lp374
S'path'
p375
asbag56
(g77
g58
NtRp376
(dp377
g61
(dp378
g88
g89
ssg70
g367
sg63
(lp379
S':'
asbag56
(g77
g58
NtRp380
(dp381
g61
(dp382
sg70
g367
sg63
(lp383
g56
(g57
g58
NtRp384
(dp385
g61
(dp386
g69
I3
ssg70
g380
sg63
(lp387
S''
asbasbasbag56
(g72
g58
NtRp388
(dp389
g61
(dp390
sg70
g258
sg63
(lp391
g56
(g77
g58
NtRp392
(dp393
g61
(dp394
g81
g82
ssg70
g388
sg63
(lp395
S'secure'
p396
asbag56
(g77
g58
NtRp397
(dp398
g61
(dp399
g88
g89
ssg70
g388
sg63
(lp400
S':'
asbag56
(g77
g58
NtRp401
(dp402
g61
(dp403
sg70
g388
sg63
(lp404
g56
(g57
g58
NtRp405
(dp406
g61
(dp407
g69
I3
ssg70
g401
sg63
(lp408
S''
asbasbasbag56
(g72
g58
NtRp409
(dp410
g61
(dp411
sg70
g258
sg63
(lp412
g56
(g77
g58
NtRp413
(dp414
g61
(dp415
g81
g82
ssg70
g409
sg63
(lp416
S'version'
p417
asbag56
(g77
g58
NtRp418
(dp419
g61
(dp420
g88
g89
ssg70
g409
sg63
(lp421
S':'
asbag56
(g77
g58
NtRp422
(dp423
g61
(dp424
sg70
g409
sg63
(lp425
g56
(g57
g58
NtRp426
(dp427
g61
(dp428
g69
I3
ssg70
g422
sg63
(lp429
S''
asbasbasbasbasbasbasbag56
(g72
g58
NtRp430
(dp431
g61
(dp432
sg70
g233
sg63
(lp433
g56
(g77
g58
NtRp434
(dp435
g61
(dp436
g81
g82
ssg70
g430
sg63
(lp437
S'session_id_ddlagoon'
p438
asbag56
(g77
g58
NtRp439
(dp440
g61
(dp441
g88
g89
ssg70
g430
sg63
(lp442
S':'
asbag56
(g77
g58
NtRp443
(dp444
g61
(dp445
sg70
g430
sg63
(lp446
g56
(g57
g58
NtRp447
(dp448
g61
(dp449
g69
I4
ssg70
g443
sg63
(lp450
g56
(g65
g58
NtRp451
(dp452
g61
(dp453
g69
I3
ssg70
Nsg63
(lp454
g56
(g72
g58
NtRp455
(dp456
g61
(dp457
sg70
g451
sg63
(lp458
g56
(g77
g58
NtRp459
(dp460
g61
(dp461
g81
g82
ssg70
g455
sg63
(lp462
g270
asbag56
(g77
g58
NtRp463
(dp464
g61
(dp465
g88
g89
ssg70
g455
sg63
(lp466
S':'
asbag56
(g77
g58
NtRp467
(dp468
g61
(dp469
sg70
g455
sg63
(lp470
g56
(g57
g58
NtRp471
(dp472
g61
(dp473
g69
I3
ssg70
g467
sg63
(lp474
S''
asbasbasbag56
(g72
g58
NtRp475
(dp476
g61
(dp477
sg70
g451
sg63
(lp478
g56
(g77
g58
NtRp479
(dp480
g61
(dp481
g81
g82
ssg70
g475
sg63
(lp482
g291
asbag56
(g77
g58
NtRp483
(dp484
g61
(dp485
g88
g89
ssg70
g475
sg63
(lp486
S':'
asbag56
(g77
g58
NtRp487
(dp488
g61
(dp489
sg70
g475
sg63
(lp490
g56
(g57
g58
NtRp491
(dp492
g61
(dp493
g69
I3
ssg70
g487
sg63
(lp494
S''
asbasbasbag56
(g72
g58
NtRp495
(dp496
g61
(dp497
sg70
g451
sg63
(lp498
g56
(g77
g58
NtRp499
(dp500
g61
(dp501
g81
g82
ssg70
g495
sg63
(lp502
g312
asbag56
(g77
g58
NtRp503
(dp504
g61
(dp505
g88
g89
ssg70
g495
sg63
(lp506
S':'
asbag56
(g77
g58
NtRp507
(dp508
g61
(dp509
sg70
g495
sg63
(lp510
g56
(g57
g58
NtRp511
(dp512
g61
(dp513
g69
I3
ssg70
g507
sg63
(lp514
S''
asbasbasbag56
(g72
g58
NtRp515
(dp516
g61
(dp517
sg70
g451
sg63
(lp518
g56
(g77
g58
NtRp519
(dp520
g61
(dp521
g81
g82
ssg70
g515
sg63
(lp522
g333
asbag56
(g77
g58
NtRp523
(dp524
g61
(dp525
g88
g89
ssg70
g515
sg63
(lp526
S':'
asbag56
(g77
g58
NtRp527
(dp528
g61
(dp529
sg70
g515
sg63
(lp530
g56
(g57
g58
NtRp531
(dp532
g61
(dp533
g69
I3
ssg70
g527
sg63
(lp534
S''
asbasbasbag56
(g72
g58
NtRp535
(dp536
g61
(dp537
sg70
g451
sg63
(lp538
g56
(g77
g58
NtRp539
(dp540
g61
(dp541
g81
g82
ssg70
g535
sg63
(lp542
g354
asbag56
(g77
g58
NtRp543
(dp544
g61
(dp545
g88
g89
ssg70
g535
sg63
(lp546
S':'
asbag56
(g77
g58
NtRp547
(dp548
g61
(dp549
sg70
g535
sg63
(lp550
g56
(g57
g58
NtRp551
(dp552
g61
(dp553
g69
I3
ssg70
g547
sg63
(lp554
S''
asbasbasbag56
(g72
g58
NtRp555
(dp556
g61
(dp557
sg70
g451
sg63
(lp558
g56
(g77
g58
NtRp559
(dp560
g61
(dp561
g81
g82
ssg70
g555
sg63
(lp562
g375
asbag56
(g77
g58
NtRp563
(dp564
g61
(dp565
g88
g89
ssg70
g555
sg63
(lp566
S':'
asbag56
(g77
g58
NtRp567
(dp568
g61
(dp569
sg70
g555
sg63
(lp570
g56
(g57
g58
NtRp571
(dp572
g61
(dp573
g69
I3
ssg70
g567
sg63
(lp574
S''
asbasbasbag56
(g72
g58
NtRp575
(dp576
g61
(dp577
sg70
g451
sg63
(lp578
g56
(g77
g58
NtRp579
(dp580
g61
(dp581
g81
g82
ssg70
g575
sg63
(lp582
g396
asbag56
(g77
g58
NtRp583
(dp584
g61
(dp585
g88
g89
ssg70
g575
sg63
(lp586
S':'
asbag56
(g77
g58
NtRp587
(dp588
g61
(dp589
sg70
g575
sg63
(lp590
g56
(g57
g58
NtRp591
(dp592
g61
(dp593
g69
I3
ssg70
g587
sg63
(lp594
S''
asbasbasbag56
(g72
g58
NtRp595
(dp596
g61
(dp597
sg70
g451
sg63
(lp598
g56
(g77
g58
NtRp599
(dp600
g61
(dp601
g81
g82
ssg70
g595
sg63
(lp602
g417
asbag56
(g77
g58
NtRp603
(dp604
g61
(dp605
g88
g89
ssg70
g595
sg63
(lp606
S':'
asbag56
(g77
g58
NtRp607
(dp608
g61
(dp609
sg70
g595
sg63
(lp610
g56
(g57
g58
NtRp611
(dp612
g61
(dp613
g69
I3
ssg70
g607
sg63
(lp614
S''
asbasbasbasbasbasbasbag56
(g72
g58
NtRp615
(dp616
g61
(dp617
sg70
g233
sg63
(lp618
g56
(g77
g58
NtRp619
(dp620
g61
(dp621
g81
g82
ssg70
g615
sg63
(lp622
S'session_id_welcome'
p623
asbag56
(g77
g58
NtRp624
(dp625
g61
(dp626
g88
g89
ssg70
g615
sg63
(lp627
S':'
asbag56
(g77
g58
NtRp628
(dp629
g61
(dp630
sg70
g615
sg63
(lp631
g56
(g57
g58
NtRp632
(dp633
g61
(dp634
g69
I4
ssg70
g628
sg63
(lp635
g56
(g65
g58
NtRp636
(dp637
g61
(dp638
g69
I3
ssg70
Nsg63
(lp639
g56
(g72
g58
NtRp640
(dp641
g61
(dp642
sg70
g636
sg63
(lp643
g56
(g77
g58
NtRp644
(dp645
g61
(dp646
g81
g82
ssg70
g640
sg63
(lp647
g270
asbag56
(g77
g58
NtRp648
(dp649
g61
(dp650
g88
g89
ssg70
g640
sg63
(lp651
S':'
asbag56
(g77
g58
NtRp652
(dp653
g61
(dp654
sg70
g640
sg63
(lp655
g56
(g57
g58
NtRp656
(dp657
g61
(dp658
g69
I3
ssg70
g652
sg63
(lp659
S''
asbasbasbag56
(g72
g58
NtRp660
(dp661
g61
(dp662
sg70
g636
sg63
(lp663
g56
(g77
g58
NtRp664
(dp665
g61
(dp666
g81
g82
ssg70
g660
sg63
(lp667
g291
asbag56
(g77
g58
NtRp668
(dp669
g61
(dp670
g88
g89
ssg70
g660
sg63
(lp671
S':'
asbag56
(g77
g58
NtRp672
(dp673
g61
(dp674
sg70
g660
sg63
(lp675
g56
(g57
g58
NtRp676
(dp677
g61
(dp678
g69
I3
ssg70
g672
sg63
(lp679
S''
asbasbasbag56
(g72
g58
NtRp680
(dp681
g61
(dp682
sg70
g636
sg63
(lp683
g56
(g77
g58
NtRp684
(dp685
g61
(dp686
g81
g82
ssg70
g680
sg63
(lp687
g312
asbag56
(g77
g58
NtRp688
(dp689
g61
(dp690
g88
g89
ssg70
g680
sg63
(lp691
S':'
asbag56
(g77
g58
NtRp692
(dp693
g61
(dp694
sg70
g680
sg63
(lp695
g56
(g57
g58
NtRp696
(dp697
g61
(dp698
g69
I3
ssg70
g692
sg63
(lp699
S''
asbasbasbag56
(g72
g58
NtRp700
(dp701
g61
(dp702
sg70
g636
sg63
(lp703
g56
(g77
g58
NtRp704
(dp705
g61
(dp706
g81
g82
ssg70
g700
sg63
(lp707
g333
asbag56
(g77
g58
NtRp708
(dp709
g61
(dp710
g88
g89
ssg70
g700
sg63
(lp711
S':'
asbag56
(g77
g58
NtRp712
(dp713
g61
(dp714
sg70
g700
sg63
(lp715
g56
(g57
g58
NtRp716
(dp717
g61
(dp718
g69
I3
ssg70
g712
sg63
(lp719
S''
asbasbasbag56
(g72
g58
NtRp720
(dp721
g61
(dp722
sg70
g636
sg63
(lp723
g56
(g77
g58
NtRp724
(dp725
g61
(dp726
g81
g82
ssg70
g720
sg63
(lp727
g354
asbag56
(g77
g58
NtRp728
(dp729
g61
(dp730
g88
g89
ssg70
g720
sg63
(lp731
S':'
asbag56
(g77
g58
NtRp732
(dp733
g61
(dp734
sg70
g720
sg63
(lp735
g56
(g57
g58
NtRp736
(dp737
g61
(dp738
g69
I3
ssg70
g732
sg63
(lp739
S''
asbasbasbag56
(g72
g58
NtRp740
(dp741
g61
(dp742
sg70
g636
sg63
(lp743
g56
(g77
g58
NtRp744
(dp745
g61
(dp746
g81
g82
ssg70
g740
sg63
(lp747
g375
asbag56
(g77
g58
NtRp748
(dp749
g61
(dp750
g88
g89
ssg70
g740
sg63
(lp751
S':'
asbag56
(g77
g58
NtRp752
(dp753
g61
(dp754
sg70
g740
sg63
(lp755
g56
(g57
g58
NtRp756
(dp757
g61
(dp758
g69
I3
ssg70
g752
sg63
(lp759
S''
asbasbasbag56
(g72
g58
NtRp760
(dp761
g61
(dp762
sg70
g636
sg63
(lp763
g56
(g77
g58
NtRp764
(dp765
g61
(dp766
g81
g82
ssg70
g760
sg63
(lp767
g396
asbag56
(g77
g58
NtRp768
(dp769
g61
(dp770
g88
g89
ssg70
g760
sg63
(lp771
S':'
asbag56
(g77
g58
NtRp772
(dp773
g61
(dp774
sg70
g760
sg63
(lp775
g56
(g57
g58
NtRp776
(dp777
g61
(dp778
g69
I3
ssg70
g772
sg63
(lp779
S''
asbasbasbag56
(g72
g58
NtRp780
(dp781
g61
(dp782
sg70
g636
sg63
(lp783
g56
(g77
g58
NtRp784
(dp785
g61
(dp786
g81
g82
ssg70
g780
sg63
(lp787
g417
asbag56
(g77
g58
NtRp788
(dp789
g61
(dp790
g88
g89
ssg70
g780
sg63
(lp791
S':'
asbag56
(g77
g58
NtRp792
(dp793
g61
(dp794
sg70
g780
sg63
(lp795
g56
(g57
g58
NtRp796
(dp797
g61
(dp798
g69
I3
ssg70
g792
sg63
(lp799
S''
asbasbasbasbasbasbasbasbasbasbasbag56
(g72
g58
NtRp800
(dp801
g61
(dp802
sg70
g66
sg63
(lp803
g56
(g77
g58
NtRp804
(dp805
g61
(dp806
g81
g82
ssg70
g800
sg63
(lp807
S'env'
p808
asbag56
(g77
g58
NtRp809
(dp810
g61
(dp811
g88
g89
ssg70
g800
sg63
(lp812
S':'
asbag56
(g77
g58
NtRp813
(dp814
g61
(dp815
sg70
g800
sg63
(lp816
g56
(g57
g58
NtRp817
(dp818
g61
(dp819
g69
I5
ssg70
g813
sg63
(lp820
g56
(g65
g58
NtRp821
(dp822
g61
(dp823
g69
I4
ssg70
Nsg63
(lp824
g56
(g72
g58
NtRp825
(dp826
g61
(dp827
sg70
g821
sg63
(lp828
g56
(g77
g58
NtRp829
(dp830
g61
(dp831
g81
g82
ssg70
g825
sg63
(lp832
S'app_folders'
p833
asbag56
(g77
g58
NtRp834
(dp835
g61
(dp836
g88
g89
ssg70
g825
sg63
(lp837
S':'
asbag56
(g77
g58
NtRp838
(dp839
g61
(dp840
sg70
g825
sg63
(lp841
g56
(g57
g58
NtRp842
(dp843
g61
(dp844
g69
I4
ssg70
g838
sg63
(lp845
S"set(['/windows/Users/Thomas/Dropbox/appz/2011/GAE/ddl-lagoon/applications/ddlagoon/', '/windows/Users/Thomas/Dropbox/appz/2011/GAE/ddl-lagoon/applications/welcome/', '/windows/Users/Thomas/Dropbox/appz/2011/GAE/ddl-lagoon/applications/admin/', '/windows/Users/Thomas/Dropbox/appz/2011/GAE/ddl-lagoon/applications/simple_app_test/'])"
p846
asbasbasbag56
(g72
g58
NtRp847
(dp848
g61
(dp849
sg70
g821
sg63
(lp850
g56
(g77
g58
NtRp851
(dp852
g61
(dp853
g81
g82
ssg70
g847
sg63
(lp854
S'applications_parent'
p855
asbag56
(g77
g58
NtRp856
(dp857
g61
(dp858
g88
g89
ssg70
g847
sg63
(lp859
S':'
asbag56
(g77
g58
NtRp860
(dp861
g61
(dp862
sg70
g847
sg63
(lp863
g56
(g57
g58
NtRp864
(dp865
g61
(dp866
g69
I4
ssg70
g860
sg63
(lp867
S'/windows/Users/Thomas/Dropbox/appz/2011/GAE/ddl-lagoon'
p868
asbasbasbag56
(g72
g58
NtRp869
(dp870
g61
(dp871
sg70
g821
sg63
(lp872
g56
(g77
g58
NtRp873
(dp874
g61
(dp875
g81
g82
ssg70
g869
sg63
(lp876
S'cmd_args'
p877
asbag56
(g77
g58
NtRp878
(dp879
g61
(dp880
g88
g89
ssg70
g869
sg63
(lp881
S':'
asbag56
(g77
g58
NtRp882
(dp883
g61
(dp884
sg70
g869
sg63
(lp885
g56
(g57
g58
NtRp886
(dp887
g61
(dp888
g69
I4
ssg70
g882
sg63
(lp889
g56
(g65
g58
NtRp890
(dp891
g61
(dp892
g69
I3
ssg70
Nsg63
(lp893
sbasbasbasbag56
(g72
g58
NtRp894
(dp895
g61
(dp896
sg70
g821
sg63
(lp897
g56
(g77
g58
NtRp898
(dp899
g61
(dp900
g81
g82
ssg70
g894
sg63
(lp901
S'cmd_options'
p902
asbag56
(g77
g58
NtRp903
(dp904
g61
(dp905
g88
g89
ssg70
g894
sg63
(lp906
S':'
asbag56
(g77
g58
NtRp907
(dp908
g61
(dp909
sg70
g894
sg63
(lp910
g56
(g57
g58
NtRp911
(dp912
g61
(dp913
g69
I4
ssg70
g907
sg63
(lp914
S"<Values at 0x1ba50e0: {'verbose': False, 'ip': '127.0.0.1', 'shutdown_timeout': 5, 'taskbar': False, 'nocron': False, 'pid_filename': 'httpserver.pid', 'maxthreads': None, 'softcron': False, 'server_name': 'VPCF22AJ', 'bpython': False, 'nogui': False, 'port': 8000, 'extcron': False, 'debuglevel': 30, 'test': None, 'folder': '/windows/Users/Thomas/Dropbox/appz/2011/GAE/ddl-lagoon', 'config': '', 'import_models': False, 'winservice': '', 'shell': None, 'run': '', 'log_filename': 'httpserver.log', 'args': [''], 'ssl_ca_certificate': None, 'scheduler': None, 'profiler_filename': None, 'ssl_private_key': '', 'password': 'admin', 'request_queue_size': 5, 'ssl_certificate': '', 'cronjob': False, 'plain': False, 'quiet': False, 'interfaces': None, 'minthreads': None, 'timeout': 10, 'numthreads': None, 'nobanner': False}>"
p915
asbasbasbag56
(g72
g58
NtRp916
(dp917
g61
(dp918
sg70
g821
sg63
(lp919
g56
(g77
g58
NtRp920
(dp921
g61
(dp922
g81
g82
ssg70
g916
sg63
(lp923
S'db_sessions'
p924
asbag56
(g77
g58
NtRp925
(dp926
g61
(dp927
g88
g89
ssg70
g916
sg63
(lp928
S':'
asbag56
(g77
g58
NtRp929
(dp930
g61
(dp931
sg70
g916
sg63
(lp932
g56
(g57
g58
NtRp933
(dp934
g61
(dp935
g69
I4
ssg70
g929
sg63
(lp936
S'set([])'
p937
asbasbasbag56
(g72
g58
NtRp938
(dp939
g61
(dp940
sg70
g821
sg63
(lp941
g56
(g77
g58
NtRp942
(dp943
g61
(dp944
g81
g82
ssg70
g938
sg63
(lp945
S'debugging'
p946
asbag56
(g77
g58
NtRp947
(dp948
g61
(dp949
g88
g89
ssg70
g938
sg63
(lp950
S':'
asbag56
(g77
g58
NtRp951
(dp952
g61
(dp953
sg70
g938
sg63
(lp954
g56
(g57
g58
NtRp955
(dp956
g61
(dp957
g69
I4
ssg70
g951
sg63
(lp958
g99
asbasbasbag56
(g72
g58
NtRp959
(dp960
g61
(dp961
sg70
g821
sg63
(lp962
g56
(g77
g58
NtRp963
(dp964
g61
(dp965
g81
g82
ssg70
g959
sg63
(lp966
S'gluon_parent'
p967
asbag56
(g77
g58
NtRp968
(dp969
g61
(dp970
g88
g89
ssg70
g959
sg63
(lp971
S':'
asbag56
(g77
g58
NtRp972
(dp973
g61
(dp974
sg70
g959
sg63
(lp975
g56
(g57
g58
NtRp976
(dp977
g61
(dp978
g69
I4
ssg70
g972
sg63
(lp979
S'/windows/Users/Thomas/Dropbox/appz/2011/GAE/ddl-lagoon'
p980
asbasbasbag56
(g72
g58
NtRp981
(dp982
g61
(dp983
sg70
g821
sg63
(lp984
g56
(g77
g58
NtRp985
(dp986
g61
(dp987
g81
g82
ssg70
g981
sg63
(lp988
S'http_accept'
p989
asbag56
(g77
g58
NtRp990
(dp991
g61
(dp992
g88
g89
ssg70
g981
sg63
(lp993
S':'
asbag56
(g77
g58
NtRp994
(dp995
g61
(dp996
sg70
g981
sg63
(lp997
g56
(g57
g58
NtRp998
(dp999
g61
(dp1000
g69
I4
ssg70
g994
sg63
(lp1001
S'text/html,application/xhtml+xml,application/xml;q=0.9,*/*;q=0.8'
p1002
asbasbasbag56
(g72
g58
NtRp1003
(dp1004
g61
(dp1005
sg70
g821
sg63
(lp1006
g56
(g77
g58
NtRp1007
(dp1008
g61
(dp1009
g81
g82
ssg70
g1003
sg63
(lp1010
S'http_accept_charset'
p1011
asbag56
(g77
g58
NtRp1012
(dp1013
g61
(dp1014
g88
g89
ssg70
g1003
sg63
(lp1015
S':'
asbag56
(g77
g58
NtRp1016
(dp1017
g61
(dp1018
sg70
g1003
sg63
(lp1019
g56
(g57
g58
NtRp1020
(dp1021
g61
(dp1022
g69
I4
ssg70
g1016
sg63
(lp1023
S'ISO-8859-1,utf-8;q=0.7,*;q=0.3'
p1024
asbasbasbag56
(g72
g58
NtRp1025
(dp1026
g61
(dp1027
sg70
g821
sg63
(lp1028
g56
(g77
g58
NtRp1029
(dp1030
g61
(dp1031
g81
g82
ssg70
g1025
sg63
(lp1032
S'http_accept_encoding'
p1033
asbag56
(g77
g58
NtRp1034
(dp1035
g61
(dp1036
g88
g89
ssg70
g1025
sg63
(lp1037
S':'
asbag56
(g77
g58
NtRp1038
(dp1039
g61
(dp1040
sg70
g1025
sg63
(lp1041
g56
(g57
g58
NtRp1042
(dp1043
g61
(dp1044
g69
I4
ssg70
g1038
sg63
(lp1045
S'gzip,deflate,sdch'
p1046
asbasbasbag56
(g72
g58
NtRp1047
(dp1048
g61
(dp1049
sg70
g821
sg63
(lp1050
g56
(g77
g58
NtRp1051
(dp1052
g61
(dp1053
g81
g82
ssg70
g1047
sg63
(lp1054
S'http_accept_language'
p1055
asbag56
(g77
g58
NtRp1056
(dp1057
g61
(dp1058
g88
g89
ssg70
g1047
sg63
(lp1059
S':'
asbag56
(g77
g58
NtRp1060
(dp1061
g61
(dp1062
sg70
g1047
sg63
(lp1063
g56
(g57
g58
NtRp1064
(dp1065
g61
(dp1066
g69
I4
ssg70
g1060
sg63
(lp1067
S'en-US,en;q=0.8,fr;q=0.6'
p1068
asbasbasbag56
(g72
g58
NtRp1069
(dp1070
g61
(dp1071
sg70
g821
sg63
(lp1072
g56
(g77
g58
NtRp1073
(dp1074
g61
(dp1075
g81
g82
ssg70
g1069
sg63
(lp1076
S'http_cache_control'
p1077
asbag56
(g77
g58
NtRp1078
(dp1079
g61
(dp1080
g88
g89
ssg70
g1069
sg63
(lp1081
S':'
asbag56
(g77
g58
NtRp1082
(dp1083
g61
(dp1084
sg70
g1069
sg63
(lp1085
g56
(g57
g58
NtRp1086
(dp1087
g61
(dp1088
g69
I4
ssg70
g1082
sg63
(lp1089
S'max-age=0'
p1090
asbasbasbag56
(g72
g58
NtRp1091
(dp1092
g61
(dp1093
sg70
g821
sg63
(lp1094
g56
(g77
g58
NtRp1095
(dp1096
g61
(dp1097
g81
g82
ssg70
g1091
sg63
(lp1098
S'http_connection'
p1099
asbag56
(g77
g58
NtRp1100
(dp1101
g61
(dp1102
g88
g89
ssg70
g1091
sg63
(lp1103
S':'
asbag56
(g77
g58
NtRp1104
(dp1105
g61
(dp1106
sg70
g1091
sg63
(lp1107
g56
(g57
g58
NtRp1108
(dp1109
g61
(dp1110
g69
I4
ssg70
g1104
sg63
(lp1111
S'keep-alive'
p1112
asbasbasbag56
(g72
g58
NtRp1113
(dp1114
g61
(dp1115
sg70
g821
sg63
(lp1116
g56
(g77
g58
NtRp1117
(dp1118
g61
(dp1119
g81
g82
ssg70
g1113
sg63
(lp1120
S'http_cookie'
p1121
asbag56
(g77
g58
NtRp1122
(dp1123
g61
(dp1124
g88
g89
ssg70
g1113
sg63
(lp1125
S':'
asbag56
(g77
g58
NtRp1126
(dp1127
g61
(dp1128
sg70
g1113
sg63
(lp1129
g56
(g57
g58
NtRp1130
(dp1131
g61
(dp1132
g69
I4
ssg70
g1126
sg63
(lp1133
S'__utma_a2a=6830991484.1350583772.1319026846.1319052270.1319052278.11; session_id_welcome=127.0.0.1-bb6148bc-d65c-4f7b-82b9-79dd48fb3feb; session_id_ddlagoon=127.0.0.1-255b79b6-3726-43ff-bde8-fd84c355923a; session_id_admin=127.0.0.1-c4c6f676-274b-4970-ab2f-4415e39a2b0f'
p1134
asbasbasbag56
(g72
g58
NtRp1135
(dp1136
g61
(dp1137
sg70
g821
sg63
(lp1138
g56
(g77
g58
NtRp1139
(dp1140
g61
(dp1141
g81
g82
ssg70
g1135
sg63
(lp1142
S'http_host'
p1143
asbag56
(g77
g58
NtRp1144
(dp1145
g61
(dp1146
g88
g89
ssg70
g1135
sg63
(lp1147
S':'
asbag56
(g77
g58
NtRp1148
(dp1149
g61
(dp1150
sg70
g1135
sg63
(lp1151
g56
(g57
g58
NtRp1152
(dp1153
g61
(dp1154
g69
I4
ssg70
g1148
sg63
(lp1155
S'localhost:8000'
p1156
asbasbasbag56
(g72
g58
NtRp1157
(dp1158
g61
(dp1159
sg70
g821
sg63
(lp1160
g56
(g77
g58
NtRp1161
(dp1162
g61
(dp1163
g81
g82
ssg70
g1157
sg63
(lp1164
S'http_user_agent'
p1165
asbag56
(g77
g58
NtRp1166
(dp1167
g61
(dp1168
g88
g89
ssg70
g1157
sg63
(lp1169
S':'
asbag56
(g77
g58
NtRp1170
(dp1171
g61
(dp1172
sg70
g1157
sg63
(lp1173
g56
(g57
g58
NtRp1174
(dp1175
g61
(dp1176
g69
I4
ssg70
g1170
sg63
(lp1177
S'Mozilla/5.0 (X11; Linux x86_64) AppleWebKit/535.1 (KHTML, like Gecko) Chrome/14.0.835.202 Safari/535.1'
p1178
asbasbasbag56
(g72
g58
NtRp1179
(dp1180
g61
(dp1181
sg70
g821
sg63
(lp1182
g56
(g77
g58
NtRp1183
(dp1184
g61
(dp1185
g81
g82
ssg70
g1179
sg63
(lp1186
S'is_jython'
p1187
asbag56
(g77
g58
NtRp1188
(dp1189
g61
(dp1190
g88
g89
ssg70
g1179
sg63
(lp1191
S':'
asbag56
(g77
g58
NtRp1192
(dp1193
g61
(dp1194
sg70
g1179
sg63
(lp1195
g56
(g57
g58
NtRp1196
(dp1197
g61
(dp1198
g69
I4
ssg70
g1192
sg63
(lp1199
g99
asbasbasbag56
(g72
g58
NtRp1200
(dp1201
g61
(dp1202
sg70
g821
sg63
(lp1203
g56
(g77
g58
NtRp1204
(dp1205
g61
(dp1206
g81
g82
ssg70
g1200
sg63
(lp1207
S'path_info'
p1208
asbag56
(g77
g58
NtRp1209
(dp1210
g61
(dp1211
g88
g89
ssg70
g1200
sg63
(lp1212
S':'
asbag56
(g77
g58
NtRp1213
(dp1214
g61
(dp1215
sg70
g1200
sg63
(lp1216
g56
(g57
g58
NtRp1217
(dp1218
g61
(dp1219
g69
I4
ssg70
g1213
sg63
(lp1220
S'/ddlagoon'
p1221
asbasbasbag56
(g72
g58
NtRp1222
(dp1223
g61
(dp1224
sg70
g821
sg63
(lp1225
g56
(g77
g58
NtRp1226
(dp1227
g61
(dp1228
g81
g82
ssg70
g1222
sg63
(lp1229
S'query_string'
p1230
asbag56
(g77
g58
NtRp1231
(dp1232
g61
(dp1233
g88
g89
ssg70
g1222
sg63
(lp1234
S':'
asbag56
(g77
g58
NtRp1235
(dp1236
g61
(dp1237
sg70
g1222
sg63
(lp1238
g56
(g57
g58
NtRp1239
(dp1240
g61
(dp1241
g69
I4
ssg70
g1235
sg63
(lp1242
S''
asbasbasbag56
(g72
g58
NtRp1243
(dp1244
g61
(dp1245
sg70
g821
sg63
(lp1246
g56
(g77
g58
NtRp1247
(dp1248
g61
(dp1249
g81
g82
ssg70
g1243
sg63
(lp1250
S'remote_addr'
p1251
asbag56
(g77
g58
NtRp1252
(dp1253
g61
(dp1254
g88
g89
ssg70
g1243
sg63
(lp1255
S':'
asbag56
(g77
g58
NtRp1256
(dp1257
g61
(dp1258
sg70
g1243
sg63
(lp1259
g56
(g57
g58
NtRp1260
(dp1261
g61
(dp1262
g69
I4
ssg70
g1256
sg63
(lp1263
g189
asbasbasbag56
(g72
g58
NtRp1264
(dp1265
g61
(dp1266
sg70
g821
sg63
(lp1267
g56
(g77
g58
NtRp1268
(dp1269
g61
(dp1270
g81
g82
ssg70
g1264
sg63
(lp1271
S'remote_port'
p1272
asbag56
(g77
g58
NtRp1273
(dp1274
g61
(dp1275
g88
g89
ssg70
g1264
sg63
(lp1276
S':'
asbag56
(g77
g58
NtRp1277
(dp1278
g61
(dp1279
sg70
g1264
sg63
(lp1280
g56
(g57
g58
NtRp1281
(dp1282
g61
(dp1283
g69
I4
ssg70
g1277
sg63
(lp1284
S'35014'
p1285
asbasbasbag56
(g72
g58
NtRp1286
(dp1287
g61
(dp1288
sg70
g821
sg63
(lp1289
g56
(g77
g58
NtRp1290
(dp1291
g61
(dp1292
g81
g82
ssg70
g1286
sg63
(lp1293
S'request_method'
p1294
asbag56
(g77
g58
NtRp1295
(dp1296
g61
(dp1297
g88
g89
ssg70
g1286
sg63
(lp1298
S':'
asbag56
(g77
g58
NtRp1299
(dp1300
g61
(dp1301
sg70
g1286
sg63
(lp1302
g56
(g57
g58
NtRp1303
(dp1304
g61
(dp1305
g69
I4
ssg70
g1299
sg63
(lp1306
S'GET'
p1307
asbasbasbag56
(g72
g58
NtRp1308
(dp1309
g61
(dp1310
sg70
g821
sg63
(lp1311
g56
(g77
g58
NtRp1312
(dp1313
g61
(dp1314
g81
g82
ssg70
g1308
sg63
(lp1315
S'script_name'
p1316
asbag56
(g77
g58
NtRp1317
(dp1318
g61
(dp1319
g88
g89
ssg70
g1308
sg63
(lp1320
S':'
asbag56
(g77
g58
NtRp1321
(dp1322
g61
(dp1323
sg70
g1308
sg63
(lp1324
g56
(g57
g58
NtRp1325
(dp1326
g61
(dp1327
g69
I4
ssg70
g1321
sg63
(lp1328
S''
asbasbasbag56
(g72
g58
NtRp1329
(dp1330
g61
(dp1331
sg70
g821
sg63
(lp1332
g56
(g77
g58
NtRp1333
(dp1334
g61
(dp1335
g81
g82
ssg70
g1329
sg63
(lp1336
S'server_name'
p1337
asbag56
(g77
g58
NtRp1338
(dp1339
g61
(dp1340
g88
g89
ssg70
g1329
sg63
(lp1341
S':'
asbag56
(g77
g58
NtRp1342
(dp1343
g61
(dp1344
sg70
g1329
sg63
(lp1345
g56
(g57
g58
NtRp1346
(dp1347
g61
(dp1348
g69
I4
ssg70
g1342
sg63
(lp1349
S'VPCF22AJ'
p1350
asbasbasbag56
(g72
g58
NtRp1351
(dp1352
g61
(dp1353
sg70
g821
sg63
(lp1354
g56
(g77
g58
NtRp1355
(dp1356
g61
(dp1357
g81
g82
ssg70
g1351
sg63
(lp1358
S'server_port'
p1359
asbag56
(g77
g58
NtRp1360
(dp1361
g61
(dp1362
g88
g89
ssg70
g1351
sg63
(lp1363
S':'
asbag56
(g77
g58
NtRp1364
(dp1365
g61
(dp1366
sg70
g1351
sg63
(lp1367
g56
(g57
g58
NtRp1368
(dp1369
g61
(dp1370
g69
I4
ssg70
g1364
sg63
(lp1371
S'8000'
p1372
asbasbasbag56
(g72
g58
NtRp1373
(dp1374
g61
(dp1375
sg70
g821
sg63
(lp1376
g56
(g77
g58
NtRp1377
(dp1378
g61
(dp1379
g81
g82
ssg70
g1373
sg63
(lp1380
S'server_protocol'
p1381
asbag56
(g77
g58
NtRp1382
(dp1383
g61
(dp1384
g88
g89
ssg70
g1373
sg63
(lp1385
S':'
asbag56
(g77
g58
NtRp1386
(dp1387
g61
(dp1388
sg70
g1373
sg63
(lp1389
g56
(g57
g58
NtRp1390
(dp1391
g61
(dp1392
g69
I4
ssg70
g1386
sg63
(lp1393
S'HTTP/1.1'
p1394
asbasbasbag56
(g72
g58
NtRp1395
(dp1396
g61
(dp1397
sg70
g821
sg63
(lp1398
g56
(g77
g58
NtRp1399
(dp1400
g61
(dp1401
g81
g82
ssg70
g1395
sg63
(lp1402
S'server_software'
p1403
asbag56
(g77
g58
NtRp1404
(dp1405
g61
(dp1406
g88
g89
ssg70
g1395
sg63
(lp1407
S':'
asbag56
(g77
g58
NtRp1408
(dp1409
g61
(dp1410
sg70
g1395
sg63
(lp1411
g56
(g57
g58
NtRp1412
(dp1413
g61
(dp1414
g69
I4
ssg70
g1408
sg63
(lp1415
S'Rocket 1.2.4'
p1416
asbasbasbag56
(g72
g58
NtRp1417
(dp1418
g61
(dp1419
sg70
g821
sg63
(lp1420
g56
(g77
g58
NtRp1421
(dp1422
g61
(dp1423
g81
g82
ssg70
g1417
sg63
(lp1424
S'web2py_crontype'
p1425
asbag56
(g77
g58
NtRp1426
(dp1427
g61
(dp1428
g88
g89
ssg70
g1417
sg63
(lp1429
S':'
asbag56
(g77
g58
NtRp1430
(dp1431
g61
(dp1432
sg70
g1417
sg63
(lp1433
g56
(g57
g58
NtRp1434
(dp1435
g61
(dp1436
g69
I4
ssg70
g1430
sg63
(lp1437
S'hard'
p1438
asbasbasbag56
(g72
g58
NtRp1439
(dp1440
g61
(dp1441
sg70
g821
sg63
(lp1442
g56
(g77
g58
NtRp1443
(dp1444
g61
(dp1445
g81
g82
ssg70
g1439
sg63
(lp1446
S'web2py_path'
p1447
asbag56
(g77
g58
NtRp1448
(dp1449
g61
(dp1450
g88
g89
ssg70
g1439
sg63
(lp1451
S':'
asbag56
(g77
g58
NtRp1452
(dp1453
g61
(dp1454
sg70
g1439
sg63
(lp1455
g56
(g57
g58
NtRp1456
(dp1457
g61
(dp1458
g69
I4
ssg70
g1452
sg63
(lp1459
g868
asbasbasbag56
(g72
g58
NtRp1460
(dp1461
g61
(dp1462
sg70
g821
sg63
(lp1463
g56
(g77
g58
NtRp1464
(dp1465
g61
(dp1466
g81
g82
ssg70
g1460
sg63
(lp1467
S'web2py_version'
p1468
asbag56
(g77
g58
NtRp1469
(dp1470
g61
(dp1471
g88
g89
ssg70
g1460
sg63
(lp1472
S':'
asbag56
(g77
g58
NtRp1473
(dp1474
g61
(dp1475
sg70
g1460
sg63
(lp1476
g56
(g57
g58
NtRp1477
(dp1478
g61
(dp1479
g69
I4
ssg70
g1473
sg63
(lp1480
g56
(g65
g58
NtRp1481
(dp1482
g61
(dp1483
g69
I3
ssg70
Nsg63
(lp1484
g56
(g72
g58
NtRp1485
(dp1486
g61
(dp1487
sg70
g1481
sg63
(lp1488
g56
(g77
g58
NtRp1489
(dp1490
g61
(dp1491
sg70
g1485
sg63
(lp1492
g56
(g57
g58
NtRp1493
(dp1494
g61
(dp1495
g69
I3
ssg70
g1489
sg63
(lp1496
S'1'
asbasbasbag56
(g72
g58
NtRp1497
(dp1498
g61
(dp1499
sg70
g1481
sg63
(lp1500
g56
(g77
g58
NtRp1501
(dp1502
g61
(dp1503
sg70
g1497
sg63
(lp1504
g56
(g57
g58
NtRp1505
(dp1506
g61
(dp1507
g69
I3
ssg70
g1501
sg63
(lp1508
S'99'
p1509
asbasbasbag56
(g72
g58
NtRp1510
(dp1511
g61
(dp1512
sg70
g1481
sg63
(lp1513
g56
(g77
g58
NtRp1514
(dp1515
g61
(dp1516
sg70
g1510
sg63
(lp1517
g56
(g57
g58
NtRp1518
(dp1519
g61
(dp1520
g69
I3
ssg70
g1514
sg63
(lp1521
S'2'
asbasbasbag56
(g72
g58
NtRp1522
(dp1523
g61
(dp1524
sg70
g1481
sg63
(lp1525
g56
(g77
g58
NtRp1526
(dp1527
g61
(dp1528
sg70
g1522
sg63
(lp1529
g56
(g57
g58
NtRp1530
(dp1531
g61
(dp1532
g69
I3
ssg70
g1526
sg63
(lp1533
S'datetime.datetime(2011, 9, 26, 6, 55, 33)'
p1534
asbasbasbag56
(g72
g58
NtRp1535
(dp1536
g61
(dp1537
sg70
g1481
sg63
(lp1538
g56
(g77
g58
NtRp1539
(dp1540
g61
(dp1541
sg70
g1535
sg63
(lp1542
g56
(g57
g58
NtRp1543
(dp1544
g61
(dp1545
g69
I3
ssg70
g1539
sg63
(lp1546
S'stable'
p1547
asbasbasbasbasbasbasbag56
(g72
g58
NtRp1548
(dp1549
g61
(dp1550
sg70
g821
sg63
(lp1551
g56
(g77
g58
NtRp1552
(dp1553
g61
(dp1554
g81
g82
ssg70
g1548
sg63
(lp1555
S'wsgi_errors'
p1556
asbag56
(g77
g58
NtRp1557
(dp1558
g61
(dp1559
g88
g89
ssg70
g1548
sg63
(lp1560
S':'
asbag56
(g77
g58
NtRp1561
(dp1562
g61
(dp1563
sg70
g1548
sg63
(lp1564
g56
(g57
g58
NtRp1565
(dp1566
g61
(dp1567
g69
I4
ssg70
g1561
sg63
(lp1568
S"<open file '<stderr>', mode 'w' at 0x7f0a266f3270>"
p1569
asbasbasbag56
(g72
g58
NtRp1570
(dp1571
g61
(dp1572
sg70
g821
sg63
(lp1573
g56
(g77
g58
NtRp1574
(dp1575
g61
(dp1576
g81
g82
ssg70
g1570
sg63
(lp1577
S'wsgi_file_wrapper'
p1578
asbag56
(g77
g58
NtRp1579
(dp1580
g61
(dp1581
g88
g89
ssg70
g1570
sg63
(lp1582
S':'
asbag56
(g77
g58
NtRp1583
(dp1584
g61
(dp1585
sg70
g1570
sg63
(lp1586
g56
(g57
g58
NtRp1587
(dp1588
g61
(dp1589
g69
I4
ssg70
g1583
sg63
(lp1590
S'<class wsgiref.util.FileWrapper at 0x1a73600>'
p1591
asbasbasbag56
(g72
g58
NtRp1592
(dp1593
g61
(dp1594
sg70
g821
sg63
(lp1595
g56
(g77
g58
NtRp1596
(dp1597
g61
(dp1598
g81
g82
ssg70
g1592
sg63
(lp1599
S'wsgi_input'
p1600
asbag56
(g77
g58
NtRp1601
(dp1602
g61
(dp1603
g88
g89
ssg70
g1592
sg63
(lp1604
S':'
asbag56
(g77
g58
NtRp1605
(dp1606
g61
(dp1607
sg70
g1592
sg63
(lp1608
g56
(g57
g58
NtRp1609
(dp1610
g61
(dp1611
g69
I4
ssg70
g1605
sg63
(lp1612
S'<socket._fileobject object at 0x2c222d0>'
p1613
asbasbasbag56
(g72
g58
NtRp1614
(dp1615
g61
(dp1616
sg70
g821
sg63
(lp1617
g56
(g77
g58
NtRp1618
(dp1619
g61
(dp1620
g81
g82
ssg70
g1614
sg63
(lp1621
S'wsgi_multiprocess'
p1622
asbag56
(g77
g58
NtRp1623
(dp1624
g61
(dp1625
g88
g89
ssg70
g1614
sg63
(lp1626
S':'
asbag56
(g77
g58
NtRp1627
(dp1628
g61
(dp1629
sg70
g1614
sg63
(lp1630
g56
(g57
g58
NtRp1631
(dp1632
g61
(dp1633
g69
I4
ssg70
g1627
sg63
(lp1634
g99
asbasbasbag56
(g72
g58
NtRp1635
(dp1636
g61
(dp1637
sg70
g821
sg63
(lp1638
g56
(g77
g58
NtRp1639
(dp1640
g61
(dp1641
g81
g82
ssg70
g1635
sg63
(lp1642
S'wsgi_multithread'
p1643
asbag56
(g77
g58
NtRp1644
(dp1645
g61
(dp1646
g88
g89
ssg70
g1635
sg63
(lp1647
S':'
asbag56
(g77
g58
NtRp1648
(dp1649
g61
(dp1650
sg70
g1635
sg63
(lp1651
g56
(g57
g58
NtRp1652
(dp1653
g61
(dp1654
g69
I4
ssg70
g1648
sg63
(lp1655
S'True'
p1656
asbasbasbag56
(g72
g58
NtRp1657
(dp1658
g61
(dp1659
sg70
g821
sg63
(lp1660
g56
(g77
g58
NtRp1661
(dp1662
g61
(dp1663
g81
g82
ssg70
g1657
sg63
(lp1664
S'wsgi_run_once'
p1665
asbag56
(g77
g58
NtRp1666
(dp1667
g61
(dp1668
g88
g89
ssg70
g1657
sg63
(lp1669
S':'
asbag56
(g77
g58
NtRp1670
(dp1671
g61
(dp1672
sg70
g1657
sg63
(lp1673
g56
(g57
g58
NtRp1674
(dp1675
g61
(dp1676
g69
I4
ssg70
g1670
sg63
(lp1677
g99
asbasbasbag56
(g72
g58
NtRp1678
(dp1679
g61
(dp1680
sg70
g821
sg63
(lp1681
g56
(g77
g58
NtRp1682
(dp1683
g61
(dp1684
g81
g82
ssg70
g1678
sg63
(lp1685
S'wsgi_url_scheme'
p1686
asbag56
(g77
g58
NtRp1687
(dp1688
g61
(dp1689
g88
g89
ssg70
g1678
sg63
(lp1690
S':'
asbag56
(g77
g58
NtRp1691
(dp1692
g61
(dp1693
sg70
g1678
sg63
(lp1694
g56
(g57
g58
NtRp1695
(dp1696
g61
(dp1697
g69
I4
ssg70
g1691
sg63
(lp1698
S'http'
p1699
asbasbasbag56
(g72
g58
NtRp1700
(dp1701
g61
(dp1702
sg70
g821
sg63
(lp1703
g56
(g77
g58
NtRp1704
(dp1705
g61
(dp1706
g81
g82
ssg70
g1700
sg63
(lp1707
S'wsgi_version'
p1708
asbag56
(g77
g58
NtRp1709
(dp1710
g61
(dp1711
g88
g89
ssg70
g1700
sg63
(lp1712
S':'
asbag56
(g77
g58
NtRp1713
(dp1714
g61
(dp1715
sg70
g1700
sg63
(lp1716
g56
(g57
g58
NtRp1717
(dp1718
g61
(dp1719
g69
I4
ssg70
g1713
sg63
(lp1720
g56
(g65
g58
NtRp1721
(dp1722
g61
(dp1723
g69
I3
ssg70
Nsg63
(lp1724
g56
(g72
g58
NtRp1725
(dp1726
g61
(dp1727
sg70
g1721
sg63
(lp1728
g56
(g77
g58
NtRp1729
(dp1730
g61
(dp1731
sg70
g1725
sg63
(lp1732
g56
(g57
g58
NtRp1733
(dp1734
g61
(dp1735
g69
I3
ssg70
g1729
sg63
(lp1736
S'1'
asbasbasbag56
(g72
g58
NtRp1737
(dp1738
g61
(dp1739
sg70
g1721
sg63
(lp1740
g56
(g77
g58
NtRp1741
(dp1742
g61
(dp1743
sg70
g1737
sg63
(lp1744
g56
(g57
g58
NtRp1745
(dp1746
g61
(dp1747
g69
I3
ssg70
g1741
sg63
(lp1748
S'0'
asbasbasbasbasbasbasbasbasbasbasbag56
(g72
g58
NtRp1749
(dp1750
g61
(dp1751
sg70
g66
sg63
(lp1752
g56
(g77
g58
NtRp1753
(dp1754
g61
(dp1755
g81
g82
ssg70
g1749
sg63
(lp1756
S'extension'
p1757
asbag56
(g77
g58
NtRp1758
(dp1759
g61
(dp1760
g88
g89
ssg70
g1749
sg63
(lp1761
S':'
asbag56
(g77
g58
NtRp1762
(dp1763
g61
(dp1764
sg70
g1749
sg63
(lp1765
g56
(g57
g58
NtRp1766
(dp1767
g61
(dp1768
g69
I5
ssg70
g1762
sg63
(lp1769
S'html'
p1770
asbasbasbag56
(g72
g58
NtRp1771
(dp1772
g61
(dp1773
sg70
g66
sg63
(lp1774
g56
(g77
g58
NtRp1775
(dp1776
g61
(dp1777
g81
g82
ssg70
g1771
sg63
(lp1778
S'folder'
p1779
asbag56
(g77
g58
NtRp1780
(dp1781
g61
(dp1782
g88
g89
ssg70
g1771
sg63
(lp1783
S':'
asbag56
(g77
g58
NtRp1784
(dp1785
g61
(dp1786
sg70
g1771
sg63
(lp1787
g56
(g57
g58
NtRp1788
(dp1789
g61
(dp1790
g69
I5
ssg70
g1784
sg63
(lp1791
S'/windows/Users/Thomas/Dropbox/appz/2011/GAE/ddl-lagoon/applications/ddlagoon/'
p1792
asbasbasbag56
(g72
g58
NtRp1793
(dp1794
g61
(dp1795
sg70
g66
sg63
(lp1796
g56
(g77
g58
NtRp1797
(dp1798
g61
(dp1799
g81
g82
ssg70
g1793
sg63
(lp1800
S'function'
p1801
asbag56
(g77
g58
NtRp1802
(dp1803
g61
(dp1804
g88
g89
ssg70
g1793
sg63
(lp1805
S':'
asbag56
(g77
g58
NtRp1806
(dp1807
g61
(dp1808
sg70
g1793
sg63
(lp1809
g56
(g57
g58
NtRp1810
(dp1811
g61
(dp1812
g69
I5
ssg70
g1806
sg63
(lp1813
S'index'
p1814
asbasbasbag56
(g72
g58
NtRp1815
(dp1816
g61
(dp1817
sg70
g66
sg63
(lp1818
g56
(g77
g58
NtRp1819
(dp1820
g61
(dp1821
g81
g82
ssg70
g1815
sg63
(lp1822
S'get_vars'
p1823
asbag56
(g77
g58
NtRp1824
(dp1825
g61
(dp1826
g88
g89
ssg70
g1815
sg63
(lp1827
S':'
asbag56
(g77
g58
NtRp1828
(dp1829
g61
(dp1830
sg70
g1815
sg63
(lp1831
g56
(g57
g58
NtRp1832
(dp1833
g61
(dp1834
g69
I5
ssg70
g1828
sg63
(lp1835
g56
(g65
g58
NtRp1836
(dp1837
g61
(dp1838
g69
I4
ssg70
Nsg63
(lp1839
sbasbasbasbag56
(g72
g58
NtRp1840
(dp1841
g61
(dp1842
sg70
g66
sg63
(lp1843
g56
(g77
g58
NtRp1844
(dp1845
g61
(dp1846
g81
g82
ssg70
g1840
sg63
(lp1847
S'global_settings'
p1848
asbag56
(g77
g58
NtRp1849
(dp1850
g61
(dp1851
g88
g89
ssg70
g1840
sg63
(lp1852
S':'
asbag56
(g77
g58
NtRp1853
(dp1854
g61
(dp1855
sg70
g1840
sg63
(lp1856
g56
(g57
g58
NtRp1857
(dp1858
g61
(dp1859
g69
I5
ssg70
g1853
sg63
(lp1860
g56
(g65
g58
NtRp1861
(dp1862
g61
(dp1863
g69
I4
ssg70
Nsg63
(lp1864
g56
(g72
g58
NtRp1865
(dp1866
g61
(dp1867
sg70
g1861
sg63
(lp1868
g56
(g77
g58
NtRp1869
(dp1870
g61
(dp1871
g81
g82
ssg70
g1865
sg63
(lp1872
g833
asbag56
(g77
g58
NtRp1873
(dp1874
g61
(dp1875
g88
g89
ssg70
g1865
sg63
(lp1876
S':'
asbag56
(g77
g58
NtRp1877
(dp1878
g61
(dp1879
sg70
g1865
sg63
(lp1880
g56
(g57
g58
NtRp1881
(dp1882
g61
(dp1883
g69
I4
ssg70
g1877
sg63
(lp1884
S"set(['/windows/Users/Thomas/Dropbox/appz/2011/GAE/ddl-lagoon/applications/ddlagoon/', '/windows/Users/Thomas/Dropbox/appz/2011/GAE/ddl-lagoon/applications/welcome/', '/windows/Users/Thomas/Dropbox/appz/2011/GAE/ddl-lagoon/applications/admin/', '/windows/Users/Thomas/Dropbox/appz/2011/GAE/ddl-lagoon/applications/simple_app_test/'])"
p1885
asbasbasbag56
(g72
g58
NtRp1886
(dp1887
g61
(dp1888
sg70
g1861
sg63
(lp1889
g56
(g77
g58
NtRp1890
(dp1891
g61
(dp1892
g81
g82
ssg70
g1886
sg63
(lp1893
g855
asbag56
(g77
g58
NtRp1894
(dp1895
g61
(dp1896
g88
g89
ssg70
g1886
sg63
(lp1897
S':'
asbag56
(g77
g58
NtRp1898
(dp1899
g61
(dp1900
sg70
g1886
sg63
(lp1901
g56
(g57
g58
NtRp1902
(dp1903
g61
(dp1904
g69
I4
ssg70
g1898
sg63
(lp1905
g868
asbasbasbag56
(g72
g58
NtRp1906
(dp1907
g61
(dp1908
sg70
g1861
sg63
(lp1909
g56
(g77
g58
NtRp1910
(dp1911
g61
(dp1912
g81
g82
ssg70
g1906
sg63
(lp1913
g877
asbag56
(g77
g58
NtRp1914
(dp1915
g61
(dp1916
g88
g89
ssg70
g1906
sg63
(lp1917
S':'
asbag56
(g77
g58
NtRp1918
(dp1919
g61
(dp1920
sg70
g1906
sg63
(lp1921
g56
(g57
g58
NtRp1922
(dp1923
g61
(dp1924
g69
I4
ssg70
g1918
sg63
(lp1925
g56
(g65
g58
NtRp1926
(dp1927
g61
(dp1928
g69
I3
ssg70
Nsg63
(lp1929
sbasbasbasbag56
(g72
g58
NtRp1930
(dp1931
g61
(dp1932
sg70
g1861
sg63
(lp1933
g56
(g77
g58
NtRp1934
(dp1935
g61
(dp1936
g81
g82
ssg70
g1930
sg63
(lp1937
g902
asbag56
(g77
g58
NtRp1938
(dp1939
g61
(dp1940
g88
g89
ssg70
g1930
sg63
(lp1941
S':'
asbag56
(g77
g58
NtRp1942
(dp1943
g61
(dp1944
sg70
g1930
sg63
(lp1945
g56
(g57
g58
NtRp1946
(dp1947
g61
(dp1948
g69
I4
ssg70
g1942
sg63
(lp1949
S"<Values at 0x1ba50e0: {'verbose': False, 'ip': '127.0.0.1', 'shutdown_timeout': 5, 'taskbar': False, 'nocron': False, 'pid_filename': 'httpserver.pid', 'maxthreads': None, 'softcron': False, 'server_name': 'VPCF22AJ', 'bpython': False, 'nogui': False, 'port': 8000, 'extcron': False, 'debuglevel': 30, 'test': None, 'folder': '/windows/Users/Thomas/Dropbox/appz/2011/GAE/ddl-lagoon', 'config': '', 'import_models': False, 'winservice': '', 'shell': None, 'run': '', 'log_filename': 'httpserver.log', 'args': [''], 'ssl_ca_certificate': None, 'scheduler': None, 'profiler_filename': None, 'ssl_private_key': '', 'password': 'admin', 'request_queue_size': 5, 'ssl_certificate': '', 'cronjob': False, 'plain': False, 'quiet': False, 'interfaces': None, 'minthreads': None, 'timeout': 10, 'numthreads': None, 'nobanner': False}>"
p1950
asbasbasbag56
(g72
g58
NtRp1951
(dp1952
g61
(dp1953
sg70
g1861
sg63
(lp1954
g56
(g77
g58
NtRp1955
(dp1956
g61
(dp1957
g81
g82
ssg70
g1951
sg63
(lp1958
g924
asbag56
(g77
g58
NtRp1959
(dp1960
g61
(dp1961
g88
g89
ssg70
g1951
sg63
(lp1962
S':'
asbag56
(g77
g58
NtRp1963
(dp1964
g61
(dp1965
sg70
g1951
sg63
(lp1966
g56
(g57
g58
NtRp1967
(dp1968
g61
(dp1969
g69
I4
ssg70
g1963
sg63
(lp1970
S'set([])'
p1971
asbasbasbag56
(g72
g58
NtRp1972
(dp1973
g61
(dp1974
sg70
g1861
sg63
(lp1975
g56
(g77
g58
NtRp1976
(dp1977
g61
(dp1978
g81
g82
ssg70
g1972
sg63
(lp1979
g946
asbag56
(g77
g58
NtRp1980
(dp1981
g61
(dp1982
g88
g89
ssg70
g1972
sg63
(lp1983
S':'
asbag56
(g77
g58
NtRp1984
(dp1985
g61
(dp1986
sg70
g1972
sg63
(lp1987
g56
(g57
g58
NtRp1988
(dp1989
g61
(dp1990
g69
I4
ssg70
g1984
sg63
(lp1991
g99
asbasbasbag56
(g72
g58
NtRp1992
(dp1993
g61
(dp1994
sg70
g1861
sg63
(lp1995
g56
(g77
g58
NtRp1996
(dp1997
g61
(dp1998
g81
g82
ssg70
g1992
sg63
(lp1999
g967
asbag56
(g77
g58
NtRp2000
(dp2001
g61
(dp2002
g88
g89
ssg70
g1992
sg63
(lp2003
S':'
asbag56
(g77
g58
NtRp2004
(dp2005
g61
(dp2006
sg70
g1992
sg63
(lp2007
g56
(g57
g58
NtRp2008
(dp2009
g61
(dp2010
g69
I4
ssg70
g2004
sg63
(lp2011
g980
asbasbasbag56
(g72
g58
NtRp2012
(dp2013
g61
(dp2014
sg70
g1861
sg63
(lp2015
g56
(g77
g58
NtRp2016
(dp2017
g61
(dp2018
g81
g82
ssg70
g2012
sg63
(lp2019
g1187
asbag56
(g77
g58
NtRp2020
(dp2021
g61
(dp2022
g88
g89
ssg70
g2012
sg63
(lp2023
S':'
asbag56
(g77
g58
NtRp2024
(dp2025
g61
(dp2026
sg70
g2012
sg63
(lp2027
g56
(g57
g58
NtRp2028
(dp2029
g61
(dp2030
g69
I4
ssg70
g2024
sg63
(lp2031
g99
asbasbasbag56
(g72
g58
NtRp2032
(dp2033
g61
(dp2034
sg70
g1861
sg63
(lp2035
g56
(g77
g58
NtRp2036
(dp2037
g61
(dp2038
g81
g82
ssg70
g2032
sg63
(lp2039
g1425
asbag56
(g77
g58
NtRp2040
(dp2041
g61
(dp2042
g88
g89
ssg70
g2032
sg63
(lp2043
S':'
asbag56
(g77
g58
NtRp2044
(dp2045
g61
(dp2046
sg70
g2032
sg63
(lp2047
g56
(g57
g58
NtRp2048
(dp2049
g61
(dp2050
g69
I4
ssg70
g2044
sg63
(lp2051
g1438
asbasbasbag56
(g72
g58
NtRp2052
(dp2053
g61
(dp2054
sg70
g1861
sg63
(lp2055
g56
(g77
g58
NtRp2056
(dp2057
g61
(dp2058
g81
g82
ssg70
g2052
sg63
(lp2059
g1468
asbag56
(g77
g58
NtRp2060
(dp2061
g61
(dp2062
g88
g89
ssg70
g2052
sg63
(lp2063
S':'
asbag56
(g77
g58
NtRp2064
(dp2065
g61
(dp2066
sg70
g2052
sg63
(lp2067
g56
(g57
g58
NtRp2068
(dp2069
g61
(dp2070
g69
I4
ssg70
g2064
sg63
(lp2071
g56
(g65
g58
NtRp2072
(dp2073
g61
(dp2074
g69
I3
ssg70
Nsg63
(lp2075
g56
(g72
g58
NtRp2076
(dp2077
g61
(dp2078
sg70
g2072
sg63
(lp2079
g56
(g77
g58
NtRp2080
(dp2081
g61
(dp2082
sg70
g2076
sg63
(lp2083
g56
(g57
g58
NtRp2084
(dp2085
g61
(dp2086
g69
I3
ssg70
g2080
sg63
(lp2087
S'1'
asbasbasbag56
(g72
g58
NtRp2088
(dp2089
g61
(dp2090
sg70
g2072
sg63
(lp2091
g56
(g77
g58
NtRp2092
(dp2093
g61
(dp2094
sg70
g2088
sg63
(lp2095
g56
(g57
g58
NtRp2096
(dp2097
g61
(dp2098
g69
I3
ssg70
g2092
sg63
(lp2099
S'99'
p2100
asbasbasbag56
(g72
g58
NtRp2101
(dp2102
g61
(dp2103
sg70
g2072
sg63
(lp2104
g56
(g77
g58
NtRp2105
(dp2106
g61
(dp2107
sg70
g2101
sg63
(lp2108
g56
(g57
g58
NtRp2109
(dp2110
g61
(dp2111
g69
I3
ssg70
g2105
sg63
(lp2112
S'2'
asbasbasbag56
(g72
g58
NtRp2113
(dp2114
g61
(dp2115
sg70
g2072
sg63
(lp2116
g56
(g77
g58
NtRp2117
(dp2118
g61
(dp2119
sg70
g2113
sg63
(lp2120
g56
(g57
g58
NtRp2121
(dp2122
g61
(dp2123
g69
I3
ssg70
g2117
sg63
(lp2124
S'datetime.datetime(2011, 9, 26, 6, 55, 33)'
p2125
asbasbasbag56
(g72
g58
NtRp2126
(dp2127
g61
(dp2128
sg70
g2072
sg63
(lp2129
g56
(g77
g58
NtRp2130
(dp2131
g61
(dp2132
sg70
g2126
sg63
(lp2133
g56
(g57
g58
NtRp2134
(dp2135
g61
(dp2136
g69
I3
ssg70
g2130
sg63
(lp2137
g1547
asbasbasbasbasbasbasbasbasbasbasbag56
(g72
g58
NtRp2138
(dp2139
g61
(dp2140
sg70
g66
sg63
(lp2141
g56
(g77
g58
NtRp2142
(dp2143
g61
(dp2144
g81
g82
ssg70
g2138
sg63
(lp2145
S'is_https'
p2146
asbag56
(g77
g58
NtRp2147
(dp2148
g61
(dp2149
g88
g89
ssg70
g2138
sg63
(lp2150
S':'
asbag56
(g77
g58
NtRp2151
(dp2152
g61
(dp2153
sg70
g2138
sg63
(lp2154
g56
(g57
g58
NtRp2155
(dp2156
g61
(dp2157
g69
I5
ssg70
g2151
sg63
(lp2158
g99
asbasbasbag56
(g72
g58
NtRp2159
(dp2160
g61
(dp2161
sg70
g66
sg63
(lp2162
g56
(g77
g58
NtRp2163
(dp2164
g61
(dp2165
g81
g82
ssg70
g2159
sg63
(lp2166
S'is_local'
p2167
asbag56
(g77
g58
NtRp2168
(dp2169
g61
(dp2170
g88
g89
ssg70
g2159
sg63
(lp2171
S':'
asbag56
(g77
g58
NtRp2172
(dp2173
g61
(dp2174
sg70
g2159
sg63
(lp2175
g56
(g57
g58
NtRp2176
(dp2177
g61
(dp2178
g69
I5
ssg70
g2172
sg63
(lp2179
g1656
asbasbasbag56
(g72
g58
NtRp2180
(dp2181
g61
(dp2182
sg70
g66
sg63
(lp2183
g56
(g77
g58
NtRp2184
(dp2185
g61
(dp2186
g81
g82
ssg70
g2180
sg63
(lp2187
S'is_restful'
p2188
asbag56
(g77
g58
NtRp2189
(dp2190
g61
(dp2191
g88
g89
ssg70
g2180
sg63
(lp2192
S':'
asbag56
(g77
g58
NtRp2193
(dp2194
g61
(dp2195
sg70
g2180
sg63
(lp2196
g56
(g57
g58
NtRp2197
(dp2198
g61
(dp2199
g69
I5
ssg70
g2193
sg63
(lp2200
g99
asbasbasbag56
(g72
g58
NtRp2201
(dp2202
g61
(dp2203
sg70
g66
sg63
(lp2204
g56
(g77
g58
NtRp2205
(dp2206
g61
(dp2207
g81
g82
ssg70
g2201
sg63
(lp2208
S'now'
p2209
asbag56
(g77
g58
NtRp2210
(dp2211
g61
(dp2212
g88
g89
ssg70
g2201
sg63
(lp2213
S':'
asbag56
(g77
g58
NtRp2214
(dp2215
g61
(dp2216
sg70
g2201
sg63
(lp2217
g56
(g57
g58
NtRp2218
(dp2219
g61
(dp2220
g69
I5
ssg70
g2214
sg63
(lp2221
S'datetime.datetime(2011, 10, 26, 22, 3, 7, 742213)'
p2222
asbasbasbag56
(g72
g58
NtRp2223
(dp2224
g61
(dp2225
sg70
g66
sg63
(lp2226
g56
(g77
g58
NtRp2227
(dp2228
g61
(dp2229
g81
g82
ssg70
g2223
sg63
(lp2230
S'post_vars'
p2231
asbag56
(g77
g58
NtRp2232
(dp2233
g61
(dp2234
g88
g89
ssg70
g2223
sg63
(lp2235
S':'
asbag56
(g77
g58
NtRp2236
(dp2237
g61
(dp2238
sg70
g2223
sg63
(lp2239
g56
(g57
g58
NtRp2240
(dp2241
g61
(dp2242
g69
I5
ssg70
g2236
sg63
(lp2243
g56
(g65
g58
NtRp2244
(dp2245
g61
(dp2246
g69
I4
ssg70
Nsg63
(lp2247
sbasbasbasbag56
(g72
g58
NtRp2248
(dp2249
g61
(dp2250
sg70
g66
sg63
(lp2251
g56
(g77
g58
NtRp2252
(dp2253
g61
(dp2254
g81
g82
ssg70
g2248
sg63
(lp2255
S'url'
p2256
asbag56
(g77
g58
NtRp2257
(dp2258
g61
(dp2259
g88
g89
ssg70
g2248
sg63
(lp2260
S':'
asbag56
(g77
g58
NtRp2261
(dp2262
g61
(dp2263
sg70
g2248
sg63
(lp2264
g56
(g57
g58
NtRp2265
(dp2266
g61
(dp2267
g69
I5
ssg70
g2261
sg63
(lp2268
S'/ddlagoon/default/index'
p2269
asbasbasbag56
(g72
g58
NtRp2270
(dp2271
g61
(dp2272
sg70
g66
sg63
(lp2273
g56
(g77
g58
NtRp2274
(dp2275
g61
(dp2276
g81
g82
ssg70
g2270
sg63
(lp2277
S'utcnow'
p2278
asbag56
(g77
g58
NtRp2279
(dp2280
g61
(dp2281
g88
g89
ssg70
g2270
sg63
(lp2282
S':'
asbag56
(g77
g58
NtRp2283
(dp2284
g61
(dp2285
sg70
g2270
sg63
(lp2286
g56
(g57
g58
NtRp2287
(dp2288
g61
(dp2289
g69
I5
ssg70
g2283
sg63
(lp2290
S'datetime.datetime(2011, 10, 26, 21, 3, 7, 742228)'
p2291
asbasbasbag56
(g72
g58
NtRp2292
(dp2293
g61
(dp2294
sg70
g66
sg63
(lp2295
g56
(g77
g58
NtRp2296
(dp2297
g61
(dp2298
g81
g82
ssg70
g2292
sg63
(lp2299
S'uuid'
p2300
asbag56
(g77
g58
NtRp2301
(dp2302
g61
(dp2303
g88
g89
ssg70
g2292
sg63
(lp2304
S':'
asbag56
(g77
g58
NtRp2305
(dp2306
g61
(dp2307
sg70
g2292
sg63
(lp2308
g56
(g57
g58
NtRp2309
(dp2310
g61
(dp2311
g69
I5
ssg70
g2305
sg63
(lp2312
S'ddlagoon/127.0.0.1.2011-10-26.22-03-07.b0819558-9c3d-416d-b2cd-9614fdcceed3'
p2313
asbasbasbag56
(g72
g58
NtRp2314
(dp2315
g61
(dp2316
sg70
g66
sg63
(lp2317
g56
(g77
g58
NtRp2318
(dp2319
g61
(dp2320
g81
g82
ssg70
g2314
sg63
(lp2321
S'vars'
p2322
asbag56
(g77
g58
NtRp2323
(dp2324
g61
(dp2325
g88
g89
ssg70
g2314
sg63
(lp2326
S':'
asbag56
(g77
g58
NtRp2327
(dp2328
g61
(dp2329
sg70
g2314
sg63
(lp2330
g56
(g57
g58
NtRp2331
(dp2332
g61
(dp2333
g69
I5
ssg70
g2327
sg63
(lp2334
g56
(g65
g58
NtRp2335
(dp2336
g61
(dp2337
g69
I4
ssg70
Nsg63
(lp2338
sbasbasbasbag56
(g72
g58
NtRp2339
(dp2340
g61
(dp2341
sg70
g66
sg63
(lp2342
g56
(g77
g58
NtRp2343
(dp2344
g61
(dp2345
g81
g82
ssg70
g2339
sg63
(lp2346
S'wsgi'
p2347
asbag56
(g77
g58
NtRp2348
(dp2349
g61
(dp2350
g88
g89
ssg70
g2339
sg63
(lp2351
S':'
asbag56
(g77
g58
NtRp2352
(dp2353
g61
(dp2354
sg70
g2339
sg63
(lp2355
g56
(g57
g58
NtRp2356
(dp2357
g61
(dp2358
g69
I5
ssg70
g2352
sg63
(lp2359
g56
(g65
g58
NtRp2360
(dp2361
g61
(dp2362
g69
I4
ssg70
Nsg63
(lp2363
g56
(g72
g58
NtRp2364
(dp2365
g61
(dp2366
sg70
g2360
sg63
(lp2367
g56
(g77
g58
NtRp2368
(dp2369
g61
(dp2370
g81
g82
ssg70
g2364
sg63
(lp2371
S'environ'
p2372
asbag56
(g77
g58
NtRp2373
(dp2374
g61
(dp2375
g88
g89
ssg70
g2364
sg63
(lp2376
S':'
asbag56
(g77
g58
NtRp2377
(dp2378
g61
(dp2379
sg70
g2364
sg63
(lp2380
g56
(g57
g58
NtRp2381
(dp2382
g61
(dp2383
g69
I4
ssg70
g2377
sg63
(lp2384
g56
(g65
g58
NtRp2385
(dp2386
g61
(dp2387
g69
I3
ssg70
Nsg63
(lp2388
g56
(g72
g58
NtRp2389
(dp2390
g61
(dp2391
sg70
g2385
sg63
(lp2392
g56
(g77
g58
NtRp2393
(dp2394
g61
(dp2395
g81
g82
ssg70
g2389
sg63
(lp2396
S'HTTP_ACCEPT'
p2397
asbag56
(g77
g58
NtRp2398
(dp2399
g61
(dp2400
g88
g89
ssg70
g2389
sg63
(lp2401
S':'
asbag56
(g77
g58
NtRp2402
(dp2403
g61
(dp2404
sg70
g2389
sg63
(lp2405
g56
(g57
g58
NtRp2406
(dp2407
g61
(dp2408
g69
I3
ssg70
g2402
sg63
(lp2409
g1002
asbasbasbag56
(g72
g58
NtRp2410
(dp2411
g61
(dp2412
sg70
g2385
sg63
(lp2413
g56
(g77
g58
NtRp2414
(dp2415
g61
(dp2416
g81
g82
ssg70
g2410
sg63
(lp2417
S'HTTP_ACCEPT_CHARSET'
p2418
asbag56
(g77
g58
NtRp2419
(dp2420
g61
(dp2421
g88
g89
ssg70
g2410
sg63
(lp2422
S':'
asbag56
(g77
g58
NtRp2423
(dp2424
g61
(dp2425
sg70
g2410
sg63
(lp2426
g56
(g57
g58
NtRp2427
(dp2428
g61
(dp2429
g69
I3
ssg70
g2423
sg63
(lp2430
g1024
asbasbasbag56
(g72
g58
NtRp2431
(dp2432
g61
(dp2433
sg70
g2385
sg63
(lp2434
g56
(g77
g58
NtRp2435
(dp2436
g61
(dp2437
g81
g82
ssg70
g2431
sg63
(lp2438
S'HTTP_ACCEPT_ENCODING'
p2439
asbag56
(g77
g58
NtRp2440
(dp2441
g61
(dp2442
g88
g89
ssg70
g2431
sg63
(lp2443
S':'
asbag56
(g77
g58
NtRp2444
(dp2445
g61
(dp2446
sg70
g2431
sg63
(lp2447
g56
(g57
g58
NtRp2448
(dp2449
g61
(dp2450
g69
I3
ssg70
g2444
sg63
(lp2451
g1046
asbasbasbag56
(g72
g58
NtRp2452
(dp2453
g61
(dp2454
sg70
g2385
sg63
(lp2455
g56
(g77
g58
NtRp2456
(dp2457
g61
(dp2458
g81
g82
ssg70
g2452
sg63
(lp2459
S'HTTP_ACCEPT_LANGUAGE'
p2460
asbag56
(g77
g58
NtRp2461
(dp2462
g61
(dp2463
g88
g89
ssg70
g2452
sg63
(lp2464
S':'
asbag56
(g77
g58
NtRp2465
(dp2466
g61
(dp2467
sg70
g2452
sg63
(lp2468
g56
(g57
g58
NtRp2469
(dp2470
g61
(dp2471
g69
I3
ssg70
g2465
sg63
(lp2472
g1068
asbasbasbag56
(g72
g58
NtRp2473
(dp2474
g61
(dp2475
sg70
g2385
sg63
(lp2476
g56
(g77
g58
NtRp2477
(dp2478
g61
(dp2479
g81
g82
ssg70
g2473
sg63
(lp2480
S'HTTP_CACHE_CONTROL'
p2481
asbag56
(g77
g58
NtRp2482
(dp2483
g61
(dp2484
g88
g89
ssg70
g2473
sg63
(lp2485
S':'
asbag56
(g77
g58
NtRp2486
(dp2487
g61
(dp2488
sg70
g2473
sg63
(lp2489
g56
(g57
g58
NtRp2490
(dp2491
g61
(dp2492
g69
I3
ssg70
g2486
sg63
(lp2493
g1090
asbasbasbag56
(g72
g58
NtRp2494
(dp2495
g61
(dp2496
sg70
g2385
sg63
(lp2497
g56
(g77
g58
NtRp2498
(dp2499
g61
(dp2500
g81
g82
ssg70
g2494
sg63
(lp2501
S'HTTP_CONNECTION'
p2502
asbag56
(g77
g58
NtRp2503
(dp2504
g61
(dp2505
g88
g89
ssg70
g2494
sg63
(lp2506
S':'
asbag56
(g77
g58
NtRp2507
(dp2508
g61
(dp2509
sg70
g2494
sg63
(lp2510
g56
(g57
g58
NtRp2511
(dp2512
g61
(dp2513
g69
I3
ssg70
g2507
sg63
(lp2514
g1112
asbasbasbag56
(g72
g58
NtRp2515
(dp2516
g61
(dp2517
sg70
g2385
sg63
(lp2518
g56
(g77
g58
NtRp2519
(dp2520
g61
(dp2521
g81
g82
ssg70
g2515
sg63
(lp2522
S'HTTP_COOKIE'
p2523
asbag56
(g77
g58
NtRp2524
(dp2525
g61
(dp2526
g88
g89
ssg70
g2515
sg63
(lp2527
S':'
asbag56
(g77
g58
NtRp2528
(dp2529
g61
(dp2530
sg70
g2515
sg63
(lp2531
g56
(g57
g58
NtRp2532
(dp2533
g61
(dp2534
g69
I3
ssg70
g2528
sg63
(lp2535
g1134
asbasbasbag56
(g72
g58
NtRp2536
(dp2537
g61
(dp2538
sg70
g2385
sg63
(lp2539
g56
(g77
g58
NtRp2540
(dp2541
g61
(dp2542
g81
g82
ssg70
g2536
sg63
(lp2543
S'HTTP_HOST'
p2544
asbag56
(g77
g58
NtRp2545
(dp2546
g61
(dp2547
g88
g89
ssg70
g2536
sg63
(lp2548
S':'
asbag56
(g77
g58
NtRp2549
(dp2550
g61
(dp2551
sg70
g2536
sg63
(lp2552
g56
(g57
g58
NtRp2553
(dp2554
g61
(dp2555
g69
I3
ssg70
g2549
sg63
(lp2556
g1156
asbasbasbag56
(g72
g58
NtRp2557
(dp2558
g61
(dp2559
sg70
g2385
sg63
(lp2560
g56
(g77
g58
NtRp2561
(dp2562
g61
(dp2563
g81
g82
ssg70
g2557
sg63
(lp2564
S'HTTP_USER_AGENT'
p2565
asbag56
(g77
g58
NtRp2566
(dp2567
g61
(dp2568
g88
g89
ssg70
g2557
sg63
(lp2569
S':'
asbag56
(g77
g58
NtRp2570
(dp2571
g61
(dp2572
sg70
g2557
sg63
(lp2573
g56
(g57
g58
NtRp2574
(dp2575
g61
(dp2576
g69
I3
ssg70
g2570
sg63
(lp2577
g1178
asbasbasbag56
(g72
g58
NtRp2578
(dp2579
g61
(dp2580
sg70
g2385
sg63
(lp2581
g56
(g77
g58
NtRp2582
(dp2583
g61
(dp2584
g81
g82
ssg70
g2578
sg63
(lp2585
S'PATH_INFO'
p2586
asbag56
(g77
g58
NtRp2587
(dp2588
g61
(dp2589
g88
g89
ssg70
g2578
sg63
(lp2590
S':'
asbag56
(g77
g58
NtRp2591
(dp2592
g61
(dp2593
sg70
g2578
sg63
(lp2594
g56
(g57
g58
NtRp2595
(dp2596
g61
(dp2597
g69
I3
ssg70
g2591
sg63
(lp2598
g1221
asbasbasbag56
(g72
g58
NtRp2599
(dp2600
g61
(dp2601
sg70
g2385
sg63
(lp2602
g56
(g77
g58
NtRp2603
(dp2604
g61
(dp2605
g81
g82
ssg70
g2599
sg63
(lp2606
S'QUERY_STRING'
p2607
asbag56
(g77
g58
NtRp2608
(dp2609
g61
(dp2610
g88
g89
ssg70
g2599
sg63
(lp2611
S':'
asbag56
(g77
g58
NtRp2612
(dp2613
g61
(dp2614
sg70
g2599
sg63
(lp2615
g56
(g57
g58
NtRp2616
(dp2617
g61
(dp2618
g69
I3
ssg70
g2612
sg63
(lp2619
S''
asbasbasbag56
(g72
g58
NtRp2620
(dp2621
g61
(dp2622
sg70
g2385
sg63
(lp2623
g56
(g77
g58
NtRp2624
(dp2625
g61
(dp2626
g81
g82
ssg70
g2620
sg63
(lp2627
S'REMOTE_ADDR'
p2628
asbag56
(g77
g58
NtRp2629
(dp2630
g61
(dp2631
g88
g89
ssg70
g2620
sg63
(lp2632
S':'
asbag56
(g77
g58
NtRp2633
(dp2634
g61
(dp2635
sg70
g2620
sg63
(lp2636
g56
(g57
g58
NtRp2637
(dp2638
g61
(dp2639
g69
I3
ssg70
g2633
sg63
(lp2640
g189
asbasbasbag56
(g72
g58
NtRp2641
(dp2642
g61
(dp2643
sg70
g2385
sg63
(lp2644
g56
(g77
g58
NtRp2645
(dp2646
g61
(dp2647
g81
g82
ssg70
g2641
sg63
(lp2648
S'REMOTE_PORT'
p2649
asbag56
(g77
g58
NtRp2650
(dp2651
g61
(dp2652
g88
g89
ssg70
g2641
sg63
(lp2653
S':'
asbag56
(g77
g58
NtRp2654
(dp2655
g61
(dp2656
sg70
g2641
sg63
(lp2657
g56
(g57
g58
NtRp2658
(dp2659
g61
(dp2660
g69
I3
ssg70
g2654
sg63
(lp2661
g1285
asbasbasbag56
(g72
g58
NtRp2662
(dp2663
g61
(dp2664
sg70
g2385
sg63
(lp2665
g56
(g77
g58
NtRp2666
(dp2667
g61
(dp2668
g81
g82
ssg70
g2662
sg63
(lp2669
S'REQUEST_METHOD'
p2670
asbag56
(g77
g58
NtRp2671
(dp2672
g61
(dp2673
g88
g89
ssg70
g2662
sg63
(lp2674
S':'
asbag56
(g77
g58
NtRp2675
(dp2676
g61
(dp2677
sg70
g2662
sg63
(lp2678
g56
(g57
g58
NtRp2679
(dp2680
g61
(dp2681
g69
I3
ssg70
g2675
sg63
(lp2682
g1307
asbasbasbag56
(g72
g58
NtRp2683
(dp2684
g61
(dp2685
sg70
g2385
sg63
(lp2686
g56
(g77
g58
NtRp2687
(dp2688
g61
(dp2689
g81
g82
ssg70
g2683
sg63
(lp2690
S'SCRIPT_NAME'
p2691
asbag56
(g77
g58
NtRp2692
(dp2693
g61
(dp2694
g88
g89
ssg70
g2683
sg63
(lp2695
S':'
asbag56
(g77
g58
NtRp2696
(dp2697
g61
(dp2698
sg70
g2683
sg63
(lp2699
g56
(g57
g58
NtRp2700
(dp2701
g61
(dp2702
g69
I3
ssg70
g2696
sg63
(lp2703
S''
asbasbasbag56
(g72
g58
NtRp2704
(dp2705
g61
(dp2706
sg70
g2385
sg63
(lp2707
g56
(g77
g58
NtRp2708
(dp2709
g61
(dp2710
g81
g82
ssg70
g2704
sg63
(lp2711
S'SERVER_NAME'
p2712
asbag56
(g77
g58
NtRp2713
(dp2714
g61
(dp2715
g88
g89
ssg70
g2704
sg63
(lp2716
S':'
asbag56
(g77
g58
NtRp2717
(dp2718
g61
(dp2719
sg70
g2704
sg63
(lp2720
g56
(g57
g58
NtRp2721
(dp2722
g61
(dp2723
g69
I3
ssg70
g2717
sg63
(lp2724
g1350
asbasbasbag56
(g72
g58
NtRp2725
(dp2726
g61
(dp2727
sg70
g2385
sg63
(lp2728
g56
(g77
g58
NtRp2729
(dp2730
g61
(dp2731
g81
g82
ssg70
g2725
sg63
(lp2732
S'SERVER_PORT'
p2733
asbag56
(g77
g58
NtRp2734
(dp2735
g61
(dp2736
g88
g89
ssg70
g2725
sg63
(lp2737
S':'
asbag56
(g77
g58
NtRp2738
(dp2739
g61
(dp2740
sg70
g2725
sg63
(lp2741
g56
(g57
g58
NtRp2742
(dp2743
g61
(dp2744
g69
I3
ssg70
g2738
sg63
(lp2745
g1372
asbasbasbag56
(g72
g58
NtRp2746
(dp2747
g61
(dp2748
sg70
g2385
sg63
(lp2749
g56
(g77
g58
NtRp2750
(dp2751
g61
(dp2752
g81
g82
ssg70
g2746
sg63
(lp2753
S'SERVER_PROTOCOL'
p2754
asbag56
(g77
g58
NtRp2755
(dp2756
g61
(dp2757
g88
g89
ssg70
g2746
sg63
(lp2758
S':'
asbag56
(g77
g58
NtRp2759
(dp2760
g61
(dp2761
sg70
g2746
sg63
(lp2762
g56
(g57
g58
NtRp2763
(dp2764
g61
(dp2765
g69
I3
ssg70
g2759
sg63
(lp2766
g1394
asbasbasbag56
(g72
g58
NtRp2767
(dp2768
g61
(dp2769
sg70
g2385
sg63
(lp2770
g56
(g77
g58
NtRp2771
(dp2772
g61
(dp2773
g81
g82
ssg70
g2767
sg63
(lp2774
S'SERVER_SOFTWARE'
p2775
asbag56
(g77
g58
NtRp2776
(dp2777
g61
(dp2778
g88
g89
ssg70
g2767
sg63
(lp2779
S':'
asbag56
(g77
g58
NtRp2780
(dp2781
g61
(dp2782
sg70
g2767
sg63
(lp2783
g56
(g57
g58
NtRp2784
(dp2785
g61
(dp2786
g69
I3
ssg70
g2780
sg63
(lp2787
g1416
asbasbasbag56
(g72
g58
NtRp2788
(dp2789
g61
(dp2790
sg70
g2385
sg63
(lp2791
g56
(g77
g58
NtRp2792
(dp2793
g61
(dp2794
g81
g82
ssg70
g2788
sg63
(lp2795
S'wsgi.errors'
p2796
asbag56
(g77
g58
NtRp2797
(dp2798
g61
(dp2799
g88
g89
ssg70
g2788
sg63
(lp2800
S':'
asbag56
(g77
g58
NtRp2801
(dp2802
g61
(dp2803
sg70
g2788
sg63
(lp2804
g56
(g57
g58
NtRp2805
(dp2806
g61
(dp2807
g69
I3
ssg70
g2801
sg63
(lp2808
S"<open file '<stderr>', mode 'w' at 0x7f0a266f3270>"
p2809
asbasbasbag56
(g72
g58
NtRp2810
(dp2811
g61
(dp2812
sg70
g2385
sg63
(lp2813
g56
(g77
g58
NtRp2814
(dp2815
g61
(dp2816
g81
g82
ssg70
g2810
sg63
(lp2817
S'wsgi.file_wrapper'
p2818
asbag56
(g77
g58
NtRp2819
(dp2820
g61
(dp2821
g88
g89
ssg70
g2810
sg63
(lp2822
S':'
asbag56
(g77
g58
NtRp2823
(dp2824
g61
(dp2825
sg70
g2810
sg63
(lp2826
g56
(g57
g58
NtRp2827
(dp2828
g61
(dp2829
g69
I3
ssg70
g2823
sg63
(lp2830
S'<class wsgiref.util.FileWrapper at 0x1a73600>'
p2831
asbasbasbag56
(g72
g58
NtRp2832
(dp2833
g61
(dp2834
sg70
g2385
sg63
(lp2835
g56
(g77
g58
NtRp2836
(dp2837
g61
(dp2838
g81
g82
ssg70
g2832
sg63
(lp2839
S'wsgi.input'
p2840
asbag56
(g77
g58
NtRp2841
(dp2842
g61
(dp2843
g88
g89
ssg70
g2832
sg63
(lp2844
S':'
asbag56
(g77
g58
NtRp2845
(dp2846
g61
(dp2847
sg70
g2832
sg63
(lp2848
g56
(g57
g58
NtRp2849
(dp2850
g61
(dp2851
g69
I3
ssg70
g2845
sg63
(lp2852
S'<cStringIO.StringO object at 0x4023768>'
p2853
asbasbasbag56
(g72
g58
NtRp2854
(dp2855
g61
(dp2856
sg70
g2385
sg63
(lp2857
g56
(g77
g58
NtRp2858
(dp2859
g61
(dp2860
g81
g82
ssg70
g2854
sg63
(lp2861
S'wsgi.multiprocess'
p2862
asbag56
(g77
g58
NtRp2863
(dp2864
g61
(dp2865
g88
g89
ssg70
g2854
sg63
(lp2866
S':'
asbag56
(g77
g58
NtRp2867
(dp2868
g61
(dp2869
sg70
g2854
sg63
(lp2870
g56
(g57
g58
NtRp2871
(dp2872
g61
(dp2873
g69
I3
ssg70
g2867
sg63
(lp2874
g99
asbasbasbag56
(g72
g58
NtRp2875
(dp2876
g61
(dp2877
sg70
g2385
sg63
(lp2878
g56
(g77
g58
NtRp2879
(dp2880
g61
(dp2881
g81
g82
ssg70
g2875
sg63
(lp2882
S'wsgi.multithread'
p2883
asbag56
(g77
g58
NtRp2884
(dp2885
g61
(dp2886
g88
g89
ssg70
g2875
sg63
(lp2887
S':'
asbag56
(g77
g58
NtRp2888
(dp2889
g61
(dp2890
sg70
g2875
sg63
(lp2891
g56
(g57
g58
NtRp2892
(dp2893
g61
(dp2894
g69
I3
ssg70
g2888
sg63
(lp2895
g1656
asbasbasbag56
(g72
g58
NtRp2896
(dp2897
g61
(dp2898
sg70
g2385
sg63
(lp2899
g56
(g77
g58
NtRp2900
(dp2901
g61
(dp2902
g81
g82
ssg70
g2896
sg63
(lp2903
S'wsgi.run_once'
p2904
asbag56
(g77
g58
NtRp2905
(dp2906
g61
(dp2907
g88
g89
ssg70
g2896
sg63
(lp2908
S':'
asbag56
(g77
g58
NtRp2909
(dp2910
g61
(dp2911
sg70
g2896
sg63
(lp2912
g56
(g57
g58
NtRp2913
(dp2914
g61
(dp2915
g69
I3
ssg70
g2909
sg63
(lp2916
g99
asbasbasbag56
(g72
g58
NtRp2917
(dp2918
g61
(dp2919
sg70
g2385
sg63
(lp2920
g56
(g77
g58
NtRp2921
(dp2922
g61
(dp2923
g81
g82
ssg70
g2917
sg63
(lp2924
S'wsgi.url_scheme'
p2925
asbag56
(g77
g58
NtRp2926
(dp2927
g61
(dp2928
g88
g89
ssg70
g2917
sg63
(lp2929
S':'
asbag56
(g77
g58
NtRp2930
(dp2931
g61
(dp2932
sg70
g2917
sg63
(lp2933
g56
(g57
g58
NtRp2934
(dp2935
g61
(dp2936
g69
I3
ssg70
g2930
sg63
(lp2937
g1699
asbasbasbag56
(g72
g58
NtRp2938
(dp2939
g61
(dp2940
sg70
g2385
sg63
(lp2941
g56
(g77
g58
NtRp2942
(dp2943
g61
(dp2944
g81
g82
ssg70
g2938
sg63
(lp2945
S'wsgi.version'
p2946
asbag56
(g77
g58
NtRp2947
(dp2948
g61
(dp2949
g88
g89
ssg70
g2938
sg63
(lp2950
S':'
asbag56
(g77
g58
NtRp2951
(dp2952
g61
(dp2953
sg70
g2938
sg63
(lp2954
g56
(g57
g58
NtRp2955
(dp2956
g61
(dp2957
g69
I3
ssg70
g2951
sg63
(lp2958
S'1'
asbasbasbasbasbasbasbasbasbasbasbasbasbsS'frames'
p2959
(lp2960
(dp2961
S'file'
p2962
S'/windows/Users/Thomas/Dropbox/appz/2011/GAE/ddl-lagoon/gluon/restricted.py'
p2963
sS'dump'
p2964
(dp2965
S'environment'
p2966
S"{'A': <class 'gluon.html.A'>, 'Auth': <class 'gluon.tools.Auth'>, 'B': <class 'gluon.html.B'>, 'BEAUTIFY': <class 'gluon.html.BEAUTIFY'>, 'BODY': <class 'gluon.html.BODY'>, 'BR': <class 'gluon.html.BR'>, 'BUTTON': <class 'gluon.html.BUTTON'>, 'CAT': <class 'gluon.html.CAT'>, 'CENTER': <class 'gluon.html.CENTER'>, 'CLEANUP': <class 'gluon.validators.CLEANUP'>, ...}"
p2967
sS'ccode'
p2968
S'<code object <module> at 0x4031b30, file "/windo...ations/ddlagoon/controllers/default.py", line 11>'
p2969
ssS'lnum'
p2970
I194
sS'lines'
p2971
(dp2972
I192
S'        else:'
p2973
sI193
S'            ccode = compile2(code,layer)'
p2974
sI194
S'        exec ccode in environment'
p2975
sI195
S'    except HTTP:'
p2976
sI196
S'        raise'
p2977
sI197
S'    except Exception, error:'
p2978
sI198
S'        # XXX Show exception in Wing IDE if running in debugger'
p2979
sI189
S'    try:'
p2980
sI190
S'        if type(code) == types.CodeType:'
p2981
sI191
S'            ccode = code'
p2982
ssS'call'
p2983
S"(code='# -*- coding: utf-8 -*-\\n# this file is released ...=crud())\\n\\nresponse._vars=response._caller(index)\\n', environment={'A': <class 'gluon.html.A'>, 'Auth': <class 'gluon.tools.Auth'>, 'B': <class 'gluon.html.B'>, 'BEAUTIFY': <class 'gluon.html.BEAUTIFY'>, 'BODY': <class 'gluon.html.BODY'>, 'BR': <class 'gluon.html.BR'>, 'BUTTON': <class 'gluon.html.BUTTON'>, 'CAT': <class 'gluon.html.CAT'>, 'CENTER': <class 'gluon.html.CENTER'>, 'CLEANUP': <class 'gluon.validators.CLEANUP'>, ...}, layer='/windows/Users/Thomas/Dropbox/appz/2011/GAE/ddl-lagoon/applications/ddlagoon/controllers/default.py')"
p2984
sS'func'
p2985
S'restricted'
p2986
sa(dp2987
g2962
S'/windows/Users/Thomas/Dropbox/appz/2011/GAE/ddl-lagoon/applications/ddlagoon/controllers/default.py'
p2988
sg2964
(dp2989
sg2970
I274
sg2971
(dp2990
I263
S'    http://..../[app]/default/data/update/[table]/[id]'
p2991
sI264
S'    http://..../[app]/default/data/delete/[table]/[id]'
p2992
sI265
S'    http://..../[app]/default/data/select/[table]'
p2993
sI266
S'    http://..../[app]/default/data/search/[table]'
p2994
sI267
S'    but URLs bust be signed, i.e. linked with'
p2995
sI268
S"      A('table',_href=URL('data/tables',user_signature=True))"
p2996
sI269
S'    or with the signed load operator'
p2997
sI270
S"      LOAD('default','data.load',args='tables',ajax=True,user_signature=True)"
p2998
sI271
S'    """'
p2999
sI272
S'    return dict(form=crud())'
p3000
ssg2983
S'()'
p3001
sg2985
S'<module>'
p3002
sa(dp3003
g2962
S'/windows/Users/Thomas/Dropbox/appz/2011/GAE/ddl-lagoon/gluon/globals.py'
p3004
sg2964
(dp3005
S'self'
p3006
S'undefined'
p3007
sS'f'
S'<function index>'
p3008
ssg2970
I149
sg2971
(dp3009
I144
S'        self.meta = Storage()      # used by web2py_ajax.html'
p3010
sI145
S'        self.menu = []             # used by the default view layout'
p3011
sI146
S'        self.files = []            # used by web2py_ajax.html'
p3012
sI147
S'        self.generic_patterns = [] # patterns to allow generic views'
p3013
sI148
S'        self._vars = None'
p3014
sI149
S'        self._caller = lambda f: f()'
p3015
sI150
S'        self._view_environment = None'
p3016
sI151
S'        self._custom_commit = None'
p3017
sI152
S'        self._custom_rollback = None'
p3018
sI153
S''
ssg2983
S'(f=<function index>)'
p3019
sg2985
S'<lambda>'
p3020
sa(dp3021
g2962
S'/windows/Users/Thomas/Dropbox/appz/2011/GAE/ddl-lagoon/applications/ddlagoon/controllers/default.py'
p3022
sg2964
(dp3023
S'global db'
p3024
S"<DAL {'auth_event': <Table {'origin': <gluon.dal..., 'id': <gluon.dal.Field object at 0x2c92410>}>}>"
p3025
sS'ddlz'
p3026
g3007
sS'db.ddl.id'
p3027
S'<gluon.dal.Field object>'
p3028
sS').select'
p3029
g3007
sS'db.ddl'
p3030
S"<Table {'last_time_downloaded': <gluon.dal.Field...>, '_id': <gluon.dal.Field object at 0x2c92d90>}>"
p3031
ssg2970
I42
sg2971
(dp3032
I37
S'def index():'
p3033
sI38
S'    """'
p3034
sI39
S'    example action using the internationalization operator T and flash'
p3035
sI40
S'    rendered by views/default/index.html or views/generic.html'
p3036
sI41
S'    """'
p3037
sI42
S'    ddlz= db(db.ddl.id>0).select()'
p3038
sI43
S"    return dict(message=T('Hello World'),ddlz=ddlz)"
p3039
sI44
S''
sI45
S'def user():'
p3040
sI46
S'    """'
p3041
ssg2983
S'()'
p3042
sg2985
g1814
sa(dp3043
g2962
S'/windows/Users/Thomas/Dropbox/appz/2011/GAE/ddl-lagoon/gluon/dal.py'
p3044
sg2964
(dp3045
S'self.query'
p3046
S'<gluon.dal.Query object>'
p3047
sS'fields'
p3048
S'()'
p3049
sS'self'
p3050
S'<gluon.dal.Set object>'
p3051
sS'self.db._adapter.select'
p3052
S'<bound method SQLiteAdapter.select of <gluon.dal.SQLiteAdapter object>>'
p3053
sS'self.db._adapter'
p3054
S'<gluon.dal.SQLiteAdapter object>'
p3055
sS'attributes'
p3056
g44
sS'self.db'
p3057
S"<DAL {'auth_event': <Table {'origin': <gluon.dal..., 'id': <gluon.dal.Field object at 0x2c92410>}>}>"
p3058
ssg2970
I5697
sg2971
(dp3059
I5696
S'    def select(self, *fields, **attributes):'
p3060
sI5697
S'        return self.db._adapter.select(self.query,fields,attributes)'
p3061
sI5698
S''
sI5699
S'    def delete(self):'
p3062
sI5700
S'        tablename=self.db._adapter.get_table(self.query)'
p3063
sI5701
S'        self.delete_uploaded_files()'
p3064
sI5692
S''
sI5693
S'    def count(self,distinct=None):'
p3065
sI5694
S'        return self.db._adapter.count(self.query,distinct)'
p3066
sI5695
S''
ssg2983
S'(self=<gluon.dal.Set object>, *fields=(), **attributes={})'
p3067
sg2985
S'select'
p3068
sa(dp3069
g2962
S'/windows/Users/Thomas/Dropbox/appz/2011/GAE/ddl-lagoon/gluon/dal.py'
p3070
sg2964
(dp3071
S'self._colnames'
p3072
S"['ddl.id', 'ddl.filename', 'ddl.author', 'ddl.description', 'ddl.web_description', 'ddl.size', 'ddl.hash', 'ddl.parts', 'ddl.service', 'ddl.links', 'ddl.version', 'ddl.date_created', 'ddl.uploader', 'ddl.date_added', 'ddl.category', 'ddl.last_time_downloaded', 'ddl.times_downloaded', 'ddl.karma_pos', 'ddl.karma_neg', 'ddl.reported']"
p3073
sS'rows'
p3074
S'[(7, u"France Gall - Livre d\'Or Vol.1.pdf", None, None, None, 26553055, u\'0d93dee229d4c3a70981ce90889f8d3c\', 5, u\'twitpic\', u\'|766man|766m9b|766mad|766m9l|766m9g|\', 1.5, datetime.datetime(2011, 10, 26, 20, 54, 22), 1, datetime.datetime(2011, 10, 26, 20, 54, 22), None, None, 0, 0, 0, 0), (8, u\'tortoisehg-2.1.4-hg-1.9.3-x64.msi\', None, None, None, 24305664, u\'19483120cbc47a04f85c5a0382d639e9\', 4, u\'twitpic\', u\'|766mgt|766mhz|766mhn|766mhd|\', 1.5, datetime.datetime(2011, 10, 26, 20, 54, 53), 1, datetime.datetime(2011, 10, 26, 20, 54, 53), None, None, 0, 0, 0, 0), (9, u\'Nitro_PDF_Professional_6.2.1.10_x86.rar\', None, None, None, 43537485, u\'3a8d4fb358ac0105c56cb7f2736d012f\', 7, u\'twitpic\', u\'|766nzf|766nzp|766o0w|766o9e|766o0c|766o6w|766o76|\', 1.5, datetime.datetime(2011, 10, 26, 20, 59, 13), 1, datetime.datetime(2011, 10, 26, 20, 59, 13), None, None, 0, 0, 0, 0), (10, u\'BoardingPass.pdf\', None, None, None, 218248, u\'941445120aee95bae6374be6b4e0a319\', 1, u\'twitpic\', u\'|7676go|\', 1.5, datetime.datetime(2011, 10, 26, 21, 43, 10), 1, datetime.datetime(2011, 10, 26, 21, 43, 10), None, None, 0, 0, 0, 0)]'
p3075
sS'self'
p3076
S'<gluon.dal.SQLiteAdapter object>'
p3077
sS'self.parse'
p3078
S'<bound method SQLiteAdapter.parse of <gluon.dal.SQLiteAdapter object>>'
p3079
ssg2970
I1238
sg2971
(dp3080
I1233
S'            rows = response(sql)'
p3081
sI1234
S'        if isinstance(rows,tuple):'
p3082
sI1235
S'            rows = list(rows)'
p3083
sI1236
S"        limitby = attributes.get('limitby',None) or (0,)"
p3084
sI1237
S'        rows = self.rowslice(rows,limitby[0],None)'
p3085
sI1238
S'        return self.parse(rows,self._colnames)'
p3086
sI1239
S''
sI1240
S'    def _count(self,query,distinct=None):'
p3087
sI1241
S'        tablenames = self.tables(query)'
p3088
sI1242
S'        query = self.filter_tenant(query,tablenames)'
p3089
ssg2983
S'(self=<gluon.dal.SQLiteAdapter object>, query=<gluon.dal.Query object>, fields=(), attributes={})'
p3090
sg2985
g3068
sa(dp3091
g2962
S'/windows/Users/Thomas/Dropbox/appz/2011/GAE/ddl-lagoon/gluon/dal.py'
p3092
sg2964
(dp3093
S'rowsobj'
p3094
S'<gluon.dal.Rows object>'
p3095
sS'rowsobj.setvirtualfields'
p3096
S'<bound method Rows.setvirtualfields of <gluon.dal.Rows object>>'
p3097
sS'tablename'
p3098
S"'ddl'"
p3099
sS'item'
p3100
S"<class 'DDLVirtualFields'>"
p3101
ssg2970
I1525
sg2971
(dp3102
I1520
S'                        box[f] = (v.handler or VirtualCommand)(v.f,row)'
p3103
sI1521
S''
sI1522
S'            ### old style virtual fields'
p3104
sI1523
S'            for item in table.virtualfields:'
p3105
sI1524
S'                try:'
p3106
sI1525
S'                    rowsobj = rowsobj.setvirtualfields(**{tablename:item})'
p3107
sI1526
S'                except KeyError:'
p3108
sI1527
S'                    # to avoid breaking virtualfields when partial select'
p3109
sI1528
S'                    pass'
p3110
sI1529
S'        return rowsobj'
p3111
ssg2983
S'(self=<gluon.dal.SQLiteAdapter object>, rows=[(7, u"France Gall - Livre d\'Or Vol.1.pdf", None, None, None, 26553055, u\'0d93dee229d4c3a70981ce90889f8d3c\', 5, u\'twitpic\', u\'|766man|766m9b|766mad|766m9l|766m9g|\', 1.5, datetime.datetime(2011, 10, 26, 20, 54, 22), 1, datetime.datetime(2011, 10, 26, 20, 54, 22), None, None, 0, 0, 0, 0), (8, u\'tortoisehg-2.1.4-hg-1.9.3-x64.msi\', None, None, None, 24305664, u\'19483120cbc47a04f85c5a0382d639e9\', 4, u\'twitpic\', u\'|766mgt|766mhz|766mhn|766mhd|\', 1.5, datetime.datetime(2011, 10, 26, 20, 54, 53), 1, datetime.datetime(2011, 10, 26, 20, 54, 53), None, None, 0, 0, 0, 0), (9, u\'Nitro_PDF_Professional_6.2.1.10_x86.rar\', None, None, None, 43537485, u\'3a8d4fb358ac0105c56cb7f2736d012f\', 7, u\'twitpic\', u\'|766nzf|766nzp|766o0w|766o9e|766o0c|766o6w|766o76|\', 1.5, datetime.datetime(2011, 10, 26, 20, 59, 13), 1, datetime.datetime(2011, 10, 26, 20, 59, 13), None, None, 0, 0, 0, 0), (10, u\'BoardingPass.pdf\', None, None, None, 218248, u\'941445120aee95bae6374be6b4e0a319\', 1, u\'twitpic\', u\'|7676go|\', 1.5, datetime.datetime(2011, 10, 26, 21, 43, 10), 1, datetime.datetime(2011, 10, 26, 21, 43, 10), None, None, 0, 0, 0, 0)], colnames=[\'ddl.id\', \'ddl.filename\', \'ddl.author\', \'ddl.description\', \'ddl.web_description\', \'ddl.size\', \'ddl.hash\', \'ddl.parts\', \'ddl.service\', \'ddl.links\', \'ddl.version\', \'ddl.date_created\', \'ddl.uploader\', \'ddl.date_added\', \'ddl.category\', \'ddl.last_time_downloaded\', \'ddl.times_downloaded\', \'ddl.karma_pos\', \'ddl.karma_neg\', \'ddl.reported\'], blob_decode=True)'
p3112
sg2985
S'parse'
p3113
sa(dp3114
g2962
S'/windows/Users/Thomas/Dropbox/appz/2011/GAE/ddl-lagoon/gluon/dal.py'
p3115
sg2964
(dp3116
S'virtualfields.__dict__.update'
p3117
g3007
sS'virtualfields.__dict__'
p3118
S"dict_proxy({'__dict__': <attribute '__dict__' of...eadable': <function size_readable at 0x36b9cf8>})"
p3119
sS'virtualfields'
p3120
S"<class 'DDLVirtualFields'>"
p3121
sS'row'
p3122
S"<Row {'ddl': <Row {'last_time_downloaded': None,... 10, 26, 20, 54, 22), 'web_description': None}>}>"
p3123
ssg2970
I5839
sg2971
(dp3124
I5834
S'                        method = getattr(virtualfields,attribute)'
p3125
sI5835
S"                        if hasattr(method,'__lazy__'):"
p3126
sI5836
S'                            box[attribute]=VirtualCommand(method,row)'
p3127
sI5837
S'                        elif type(method)==types.MethodType:'
p3128
sI5838
S'                            if not updated:'
p3129
sI5839
S'                                virtualfields.__dict__.update(row)'
p3130
sI5840
S'                                updated = True'
p3131
sI5841
S'                            box[attribute]=method()'
p3132
sI5842
S'        return self'
p3133
sI5843
S''
ssg2983
S"(self=<gluon.dal.Rows object>, **keyed_virtualfields={'ddl': <class 'DDLVirtualFields'>})"
p3134
sg2985
S'setvirtualfields'
p3135
sasS'pyver'
p3136
S'Python 2.7.2+: /usr/bin/python'
p3137
sS'session'
p3138
g56
(g57
g58
NtRp3139
(dp3140
g61
(dp3141
sg63
(lp3142
g56
(g65
g58
NtRp3143
(dp3144
g61
(dp3145
g69
I5
ssg70
Nsg63
(lp3146
sbasbsS'etype'
p3147
S"<type 'exceptions.AttributeError'>"
p3148
sS'date'
p3149
S'Wed Oct 26 22:03:07 2011'
p3150
sS'response'
p3151
g56
(g57
g58
NtRp3152
(dp3153
g61
(dp3154
sg63
(lp3155
g56
(g65
g58
NtRp3156
(dp3157
g61
(dp3158
g69
I5
ssg70
Nsg63
(lp3159
g56
(g72
g58
NtRp3160
(dp3161
g61
(dp3162
sg70
g3156
sg63
(lp3163
g56
(g77
g58
NtRp3164
(dp3165
g61
(dp3166
g81
g82
ssg70
g3160
sg63
(lp3167
g154
asbag56
(g77
g58
NtRp3168
(dp3169
g61
(dp3170
g88
g89
ssg70
g3160
sg63
(lp3171
S':'
asbag56
(g77
g58
NtRp3172
(dp3173
g61
(dp3174
sg70
g3160
sg63
(lp3175
g56
(g57
g58
NtRp3176
(dp3177
g61
(dp3178
g69
I5
ssg70
g3172
sg63
(lp3179
S'<cStringIO.StringO object at 0x29f9ed8>'
p3180
asbasbasbag56
(g72
g58
NtRp3181
(dp3182
g61
(dp3183
sg70
g3156
sg63
(lp3184
g56
(g77
g58
NtRp3185
(dp3186
g61
(dp3187
g81
g82
ssg70
g3181
sg63
(lp3188
g220
asbag56
(g77
g58
NtRp3189
(dp3190
g61
(dp3191
g88
g89
ssg70
g3181
sg63
(lp3192
S':'
asbag56
(g77
g58
NtRp3193
(dp3194
g61
(dp3195
sg70
g3181
sg63
(lp3196
g56
(g57
g58
NtRp3197
(dp3198
g61
(dp3199
g69
I5
ssg70
g3193
sg63
(lp3200
g56
(g65
g58
NtRp3201
(dp3202
g61
(dp3203
g69
I4
ssg70
Nsg63
(lp3204
g56
(g72
g58
NtRp3205
(dp3206
g61
(dp3207
sg70
g3201
sg63
(lp3208
g56
(g77
g58
NtRp3209
(dp3210
g61
(dp3211
g81
g82
ssg70
g3205
sg63
(lp3212
S'session_id_ddlagoon'
p3213
asbag56
(g77
g58
NtRp3214
(dp3215
g61
(dp3216
g88
g89
ssg70
g3205
sg63
(lp3217
S':'
asbag56
(g77
g58
NtRp3218
(dp3219
g61
(dp3220
sg70
g3205
sg63
(lp3221
g56
(g57
g58
NtRp3222
(dp3223
g61
(dp3224
g69
I4
ssg70
g3218
sg63
(lp3225
g56
(g65
g58
NtRp3226
(dp3227
g61
(dp3228
g69
I3
ssg70
Nsg63
(lp3229
g56
(g72
g58
NtRp3230
(dp3231
g61
(dp3232
sg70
g3226
sg63
(lp3233
g56
(g77
g58
NtRp3234
(dp3235
g61
(dp3236
g81
g82
ssg70
g3230
sg63
(lp3237
g270
asbag56
(g77
g58
NtRp3238
(dp3239
g61
(dp3240
g88
g89
ssg70
g3230
sg63
(lp3241
S':'
asbag56
(g77
g58
NtRp3242
(dp3243
g61
(dp3244
sg70
g3230
sg63
(lp3245
g56
(g57
g58
NtRp3246
(dp3247
g61
(dp3248
g69
I3
ssg70
g3242
sg63
(lp3249
S''
asbasbasbag56
(g72
g58
NtRp3250
(dp3251
g61
(dp3252
sg70
g3226
sg63
(lp3253
g56
(g77
g58
NtRp3254
(dp3255
g61
(dp3256
g81
g82
ssg70
g3250
sg63
(lp3257
g291
asbag56
(g77
g58
NtRp3258
(dp3259
g61
(dp3260
g88
g89
ssg70
g3250
sg63
(lp3261
S':'
asbag56
(g77
g58
NtRp3262
(dp3263
g61
(dp3264
sg70
g3250
sg63
(lp3265
g56
(g57
g58
NtRp3266
(dp3267
g61
(dp3268
g69
I3
ssg70
g3262
sg63
(lp3269
S''
asbasbasbag56
(g72
g58
NtRp3270
(dp3271
g61
(dp3272
sg70
g3226
sg63
(lp3273
g56
(g77
g58
NtRp3274
(dp3275
g61
(dp3276
g81
g82
ssg70
g3270
sg63
(lp3277
g312
asbag56
(g77
g58
NtRp3278
(dp3279
g61
(dp3280
g88
g89
ssg70
g3270
sg63
(lp3281
S':'
asbag56
(g77
g58
NtRp3282
(dp3283
g61
(dp3284
sg70
g3270
sg63
(lp3285
g56
(g57
g58
NtRp3286
(dp3287
g61
(dp3288
g69
I3
ssg70
g3282
sg63
(lp3289
S''
asbasbasbag56
(g72
g58
NtRp3290
(dp3291
g61
(dp3292
sg70
g3226
sg63
(lp3293
g56
(g77
g58
NtRp3294
(dp3295
g61
(dp3296
g81
g82
ssg70
g3290
sg63
(lp3297
g333
asbag56
(g77
g58
NtRp3298
(dp3299
g61
(dp3300
g88
g89
ssg70
g3290
sg63
(lp3301
S':'
asbag56
(g77
g58
NtRp3302
(dp3303
g61
(dp3304
sg70
g3290
sg63
(lp3305
g56
(g57
g58
NtRp3306
(dp3307
g61
(dp3308
g69
I3
ssg70
g3302
sg63
(lp3309
S''
asbasbasbag56
(g72
g58
NtRp3310
(dp3311
g61
(dp3312
sg70
g3226
sg63
(lp3313
g56
(g77
g58
NtRp3314
(dp3315
g61
(dp3316
g81
g82
ssg70
g3310
sg63
(lp3317
g354
asbag56
(g77
g58
NtRp3318
(dp3319
g61
(dp3320
g88
g89
ssg70
g3310
sg63
(lp3321
S':'
asbag56
(g77
g58
NtRp3322
(dp3323
g61
(dp3324
sg70
g3310
sg63
(lp3325
g56
(g57
g58
NtRp3326
(dp3327
g61
(dp3328
g69
I3
ssg70
g3322
sg63
(lp3329
S''
asbasbasbag56
(g72
g58
NtRp3330
(dp3331
g61
(dp3332
sg70
g3226
sg63
(lp3333
g56
(g77
g58
NtRp3334
(dp3335
g61
(dp3336
g81
g82
ssg70
g3330
sg63
(lp3337
g375
asbag56
(g77
g58
NtRp3338
(dp3339
g61
(dp3340
g88
g89
ssg70
g3330
sg63
(lp3341
S':'
asbag56
(g77
g58
NtRp3342
(dp3343
g61
(dp3344
sg70
g3330
sg63
(lp3345
g56
(g57
g58
NtRp3346
(dp3347
g61
(dp3348
g69
I3
ssg70
g3342
sg63
(lp3349
S'/'
asbasbasbag56
(g72
g58
NtRp3350
(dp3351
g61
(dp3352
sg70
g3226
sg63
(lp3353
g56
(g77
g58
NtRp3354
(dp3355
g61
(dp3356
g81
g82
ssg70
g3350
sg63
(lp3357
g396
asbag56
(g77
g58
NtRp3358
(dp3359
g61
(dp3360
g88
g89
ssg70
g3350
sg63
(lp3361
S':'
asbag56
(g77
g58
NtRp3362
(dp3363
g61
(dp3364
sg70
g3350
sg63
(lp3365
g56
(g57
g58
NtRp3366
(dp3367
g61
(dp3368
g69
I3
ssg70
g3362
sg63
(lp3369
S''
asbasbasbag56
(g72
g58
NtRp3370
(dp3371
g61
(dp3372
sg70
g3226
sg63
(lp3373
g56
(g77
g58
NtRp3374
(dp3375
g61
(dp3376
g81
g82
ssg70
g3370
sg63
(lp3377
g417
asbag56
(g77
g58
NtRp3378
(dp3379
g61
(dp3380
g88
g89
ssg70
g3370
sg63
(lp3381
S':'
asbag56
(g77
g58
NtRp3382
(dp3383
g61
(dp3384
sg70
g3370
sg63
(lp3385
g56
(g57
g58
NtRp3386
(dp3387
g61
(dp3388
g69
I3
ssg70
g3382
sg63
(lp3389
S''
asbasbasbasbasbasbasbasbasbasbasbag56
(g72
g58
NtRp3390
(dp3391
g61
(dp3392
sg70
g3156
sg63
(lp3393
g56
(g77
g58
NtRp3394
(dp3395
g61
(dp3396
g81
g82
ssg70
g3390
sg63
(lp3397
S'files'
p3398
asbag56
(g77
g58
NtRp3399
(dp3400
g61
(dp3401
g88
g89
ssg70
g3390
sg63
(lp3402
S':'
asbag56
(g77
g58
NtRp3403
(dp3404
g61
(dp3405
sg70
g3390
sg63
(lp3406
g56
(g57
g58
NtRp3407
(dp3408
g61
(dp3409
g69
I5
ssg70
g3403
sg63
(lp3410
g56
(g65
g58
NtRp3411
(dp3412
g61
(dp3413
g69
I4
ssg70
Nsg63
(lp3414
sbasbasbasbag56
(g72
g58
NtRp3415
(dp3416
g61
(dp3417
sg70
g3156
sg63
(lp3418
g56
(g77
g58
NtRp3419
(dp3420
g61
(dp3421
g81
g82
ssg70
g3415
sg63
(lp3422
S'flash'
p3423
asbag56
(g77
g58
NtRp3424
(dp3425
g61
(dp3426
g88
g89
ssg70
g3415
sg63
(lp3427
S':'
asbag56
(g77
g58
NtRp3428
(dp3429
g61
(dp3430
sg70
g3415
sg63
(lp3431
g56
(g57
g58
NtRp3432
(dp3433
g61
(dp3434
g69
I5
ssg70
g3428
sg63
(lp3435
S''
asbasbasbag56
(g72
g58
NtRp3436
(dp3437
g61
(dp3438
sg70
g3156
sg63
(lp3439
g56
(g77
g58
NtRp3440
(dp3441
g61
(dp3442
g81
g82
ssg70
g3436
sg63
(lp3443
S'generic_patterns'
p3444
asbag56
(g77
g58
NtRp3445
(dp3446
g61
(dp3447
g88
g89
ssg70
g3436
sg63
(lp3448
S':'
asbag56
(g77
g58
NtRp3449
(dp3450
g61
(dp3451
sg70
g3436
sg63
(lp3452
g56
(g57
g58
NtRp3453
(dp3454
g61
(dp3455
g69
I5
ssg70
g3449
sg63
(lp3456
g56
(g65
g58
NtRp3457
(dp3458
g61
(dp3459
g69
I4
ssg70
Nsg63
(lp3460
g56
(g72
g58
NtRp3461
(dp3462
g61
(dp3463
sg70
g3457
sg63
(lp3464
g56
(g77
g58
NtRp3465
(dp3466
g61
(dp3467
sg70
g3461
sg63
(lp3468
g56
(g57
g58
NtRp3469
(dp3470
g61
(dp3471
g69
I4
ssg70
g3465
sg63
(lp3472
S'*'
asbasbasbasbasbasbasbag56
(g72
g58
NtRp3473
(dp3474
g61
(dp3475
sg70
g3156
sg63
(lp3476
g56
(g77
g58
NtRp3477
(dp3478
g61
(dp3479
g81
g82
ssg70
g3473
sg63
(lp3480
S'headers'
p3481
asbag56
(g77
g58
NtRp3482
(dp3483
g61
(dp3484
g88
g89
ssg70
g3473
sg63
(lp3485
S':'
asbag56
(g77
g58
NtRp3486
(dp3487
g61
(dp3488
sg70
g3473
sg63
(lp3489
g56
(g57
g58
NtRp3490
(dp3491
g61
(dp3492
g69
I5
ssg70
g3486
sg63
(lp3493
g56
(g65
g58
NtRp3494
(dp3495
g61
(dp3496
g69
I4
ssg70
Nsg63
(lp3497
g56
(g72
g58
NtRp3498
(dp3499
g61
(dp3500
sg70
g3494
sg63
(lp3501
g56
(g77
g58
NtRp3502
(dp3503
g61
(dp3504
g81
g82
ssg70
g3498
sg63
(lp3505
S'Cache-Control'
p3506
asbag56
(g77
g58
NtRp3507
(dp3508
g61
(dp3509
g88
g89
ssg70
g3498
sg63
(lp3510
S':'
asbag56
(g77
g58
NtRp3511
(dp3512
g61
(dp3513
sg70
g3498
sg63
(lp3514
g56
(g57
g58
NtRp3515
(dp3516
g61
(dp3517
g69
I4
ssg70
g3511
sg63
(lp3518
S'no-store, no-cache, must-revalidate, post-check=0, pre-check=0'
p3519
asbasbasbag56
(g72
g58
NtRp3520
(dp3521
g61
(dp3522
sg70
g3494
sg63
(lp3523
g56
(g77
g58
NtRp3524
(dp3525
g61
(dp3526
g81
g82
ssg70
g3520
sg63
(lp3527
S'Content-Type'
p3528
asbag56
(g77
g58
NtRp3529
(dp3530
g61
(dp3531
g88
g89
ssg70
g3520
sg63
(lp3532
S':'
asbag56
(g77
g58
NtRp3533
(dp3534
g61
(dp3535
sg70
g3520
sg63
(lp3536
g56
(g57
g58
NtRp3537
(dp3538
g61
(dp3539
g69
I4
ssg70
g3533
sg63
(lp3540
S'text/html; charset=utf-8'
p3541
asbasbasbag56
(g72
g58
NtRp3542
(dp3543
g61
(dp3544
sg70
g3494
sg63
(lp3545
g56
(g77
g58
NtRp3546
(dp3547
g61
(dp3548
g81
g82
ssg70
g3542
sg63
(lp3549
S'Expires'
p3550
asbag56
(g77
g58
NtRp3551
(dp3552
g61
(dp3553
g88
g89
ssg70
g3542
sg63
(lp3554
S':'
asbag56
(g77
g58
NtRp3555
(dp3556
g61
(dp3557
sg70
g3542
sg63
(lp3558
g56
(g57
g58
NtRp3559
(dp3560
g61
(dp3561
g69
I4
ssg70
g3555
sg63
(lp3562
S'Wed, 26 Oct 2011 21:03:07 GMT'
p3563
asbasbasbag56
(g72
g58
NtRp3564
(dp3565
g61
(dp3566
sg70
g3494
sg63
(lp3567
g56
(g77
g58
NtRp3568
(dp3569
g61
(dp3570
g81
g82
ssg70
g3564
sg63
(lp3571
S'Pragma'
p3572
asbag56
(g77
g58
NtRp3573
(dp3574
g61
(dp3575
g88
g89
ssg70
g3564
sg63
(lp3576
S':'
asbag56
(g77
g58
NtRp3577
(dp3578
g61
(dp3579
sg70
g3564
sg63
(lp3580
g56
(g57
g58
NtRp3581
(dp3582
g61
(dp3583
g69
I4
ssg70
g3577
sg63
(lp3584
S'no-cache'
p3585
asbasbasbag56
(g72
g58
NtRp3586
(dp3587
g61
(dp3588
sg70
g3494
sg63
(lp3589
g56
(g77
g58
NtRp3590
(dp3591
g61
(dp3592
g81
g82
ssg70
g3586
sg63
(lp3593
S'X-Powered-By'
p3594
asbag56
(g77
g58
NtRp3595
(dp3596
g61
(dp3597
g88
g89
ssg70
g3586
sg63
(lp3598
S':'
asbag56
(g77
g58
NtRp3599
(dp3600
g61
(dp3601
sg70
g3586
sg63
(lp3602
g56
(g57
g58
NtRp3603
(dp3604
g61
(dp3605
g69
I4
ssg70
g3599
sg63
(lp3606
S'web2py'
p3607
asbasbasbasbasbasbasbag56
(g72
g58
NtRp3608
(dp3609
g61
(dp3610
sg70
g3156
sg63
(lp3611
g56
(g77
g58
NtRp3612
(dp3613
g61
(dp3614
g81
g82
ssg70
g3608
sg63
(lp3615
S'menu'
p3616
asbag56
(g77
g58
NtRp3617
(dp3618
g61
(dp3619
g88
g89
ssg70
g3608
sg63
(lp3620
S':'
asbag56
(g77
g58
NtRp3621
(dp3622
g61
(dp3623
sg70
g3608
sg63
(lp3624
g56
(g57
g58
NtRp3625
(dp3626
g61
(dp3627
g69
I5
ssg70
g3621
sg63
(lp3628
g56
(g65
g58
NtRp3629
(dp3630
g61
(dp3631
g69
I4
ssg70
Nsg63
(lp3632
g56
(g72
g58
NtRp3633
(dp3634
g61
(dp3635
sg70
g3629
sg63
(lp3636
g56
(g77
g58
NtRp3637
(dp3638
g61
(dp3639
sg70
g3633
sg63
(lp3640
g56
(g57
g58
NtRp3641
(dp3642
g61
(dp3643
g69
I4
ssg70
g3637
sg63
(lp3644
g56
(g65
g58
NtRp3645
(dp3646
g61
(dp3647
g69
I3
ssg70
Nsg63
(lp3648
g56
(g72
g58
NtRp3649
(dp3650
g61
(dp3651
sg70
g3645
sg63
(lp3652
g56
(g77
g58
NtRp3653
(dp3654
g61
(dp3655
sg70
g3649
sg63
(lp3656
g56
(g57
g58
NtRp3657
(dp3658
g61
(dp3659
g69
I3
ssg70
g3653
sg63
(lp3660
cgluon.languages
lazyT_unpickle
p3661
(S't\x04\x00\x00\x00Home'
tRp3662
asbasbasbag56
(g72
g58
NtRp3663
(dp3664
g61
(dp3665
sg70
g3645
sg63
(lp3666
g56
(g77
g58
NtRp3667
(dp3668
g61
(dp3669
sg70
g3663
sg63
(lp3670
g56
(g57
g58
NtRp3671
(dp3672
g61
(dp3673
g69
I3
ssg70
g3667
sg63
(lp3674
g99
asbasbasbag56
(g72
g58
NtRp3675
(dp3676
g61
(dp3677
sg70
g3645
sg63
(lp3678
g56
(g77
g58
NtRp3679
(dp3680
g61
(dp3681
sg70
g3675
sg63
(lp3682
g56
(g57
g58
NtRp3683
(dp3684
g61
(dp3685
g69
I3
ssg70
g3679
sg63
(lp3686
S'/ddlagoon/default/index'
p3687
asbasbasbag56
(g72
g58
NtRp3688
(dp3689
g61
(dp3690
sg70
g3645
sg63
(lp3691
g56
(g77
g58
NtRp3692
(dp3693
g61
(dp3694
sg70
g3688
sg63
(lp3695
g56
(g57
g58
NtRp3696
(dp3697
g61
(dp3698
g69
I3
ssg70
g3692
sg63
(lp3699
g56
(g65
g58
NtRp3700
(dp3701
g61
(dp3702
g69
I2
ssg70
Nsg63
(lp3703
sbasbasbasbasbasbasbasbag56
(g72
g58
NtRp3704
(dp3705
g61
(dp3706
sg70
g3629
sg63
(lp3707
g56
(g77
g58
NtRp3708
(dp3709
g61
(dp3710
sg70
g3704
sg63
(lp3711
g56
(g57
g58
NtRp3712
(dp3713
g61
(dp3714
g69
I4
ssg70
g3708
sg63
(lp3715
g56
(g65
g58
NtRp3716
(dp3717
g61
(dp3718
g69
I3
ssg70
Nsg63
(lp3719
g56
(g72
g58
NtRp3720
(dp3721
g61
(dp3722
sg70
g3716
sg63
(lp3723
g56
(g77
g58
NtRp3724
(dp3725
g61
(dp3726
sg70
g3720
sg63
(lp3727
g56
(g57
g58
NtRp3728
(dp3729
g61
(dp3730
g69
I3
ssg70
g3724
sg63
(lp3731
g3661
(S's\x08\x00\x00\x00This App'
tRp3732
asbasbasbag56
(g72
g58
NtRp3733
(dp3734
g61
(dp3735
sg70
g3716
sg63
(lp3736
g56
(g77
g58
NtRp3737
(dp3738
g61
(dp3739
sg70
g3733
sg63
(lp3740
g56
(g57
g58
NtRp3741
(dp3742
g61
(dp3743
g69
I3
ssg70
g3737
sg63
(lp3744
g99
asbasbasbag56
(g72
g58
NtRp3745
(dp3746
g61
(dp3747
sg70
g3716
sg63
(lp3748
g56
(g77
g58
NtRp3749
(dp3750
g61
(dp3751
sg70
g3745
sg63
(lp3752
g56
(g57
g58
NtRp3753
(dp3754
g61
(dp3755
g69
I3
ssg70
g3749
sg63
(lp3756
S'/admin/default/design/ddlagoon'
p3757
asbasbasbag56
(g72
g58
NtRp3758
(dp3759
g61
(dp3760
sg70
g3716
sg63
(lp3761
g56
(g77
g58
NtRp3762
(dp3763
g61
(dp3764
sg70
g3758
sg63
(lp3765
g56
(g57
g58
NtRp3766
(dp3767
g61
(dp3768
g69
I3
ssg70
g3762
sg63
(lp3769
g56
(g65
g58
NtRp3770
(dp3771
g61
(dp3772
g69
I2
ssg70
Nsg63
(lp3773
g56
(g72
g58
NtRp3774
(dp3775
g61
(dp3776
sg70
g3770
sg63
(lp3777
g56
(g77
g58
NtRp3778
(dp3779
g61
(dp3780
sg70
g3774
sg63
(lp3781
g56
(g57
g58
NtRp3782
(dp3783
g61
(dp3784
g69
I2
ssg70
g3778
sg63
(lp3785
g56
(g65
g58
NtRp3786
(dp3787
g61
(dp3788
g69
I1
ssg70
Nsg63
(lp3789
g56
(g72
g58
NtRp3790
(dp3791
g61
(dp3792
sg70
g3786
sg63
(lp3793
g56
(g77
g58
NtRp3794
(dp3795
g61
(dp3796
sg70
g3790
sg63
(lp3797
g56
(g57
g58
NtRp3798
(dp3799
g61
(dp3800
g69
I1
ssg70
g3794
sg63
(lp3801
g3661
(S't\n\x00\x00\x00Controller'
tRp3802
asbasbasbag56
(g72
g58
NtRp3803
(dp3804
g61
(dp3805
sg70
g3786
sg63
(lp3806
g56
(g77
g58
NtRp3807
(dp3808
g61
(dp3809
sg70
g3803
sg63
(lp3810
g56
(g57
g58
NtRp3811
(dp3812
g61
(dp3813
g69
I1
ssg70
g3807
sg63
(lp3814
I00
asbasbasbag56
(g72
g58
NtRp3815
(dp3816
g61
(dp3817
sg70
g3786
sg63
(lp3818
g56
(g77
g58
NtRp3819
(dp3820
g61
(dp3821
sg70
g3815
sg63
(lp3822
g56
(g57
g58
NtRp3823
(dp3824
g61
(dp3825
g69
I1
ssg70
g3819
sg63
(lp3826
S'/admin/default/edit/ddlagoon/controllers/default.py'
p3827
asbasbasbasbasbasbasbag56
(g72
g58
NtRp3828
(dp3829
g61
(dp3830
sg70
g3770
sg63
(lp3831
g56
(g77
g58
NtRp3832
(dp3833
g61
(dp3834
sg70
g3828
sg63
(lp3835
g56
(g57
g58
NtRp3836
(dp3837
g61
(dp3838
g69
I2
ssg70
g3832
sg63
(lp3839
g56
(g65
g58
NtRp3840
(dp3841
g61
(dp3842
g69
I1
ssg70
Nsg63
(lp3843
g56
(g72
g58
NtRp3844
(dp3845
g61
(dp3846
sg70
g3840
sg63
(lp3847
g56
(g77
g58
NtRp3848
(dp3849
g61
(dp3850
sg70
g3844
sg63
(lp3851
g56
(g57
g58
NtRp3852
(dp3853
g61
(dp3854
g69
I1
ssg70
g3848
sg63
(lp3855
g3661
(S't\x04\x00\x00\x00View'
tRp3856
asbasbasbag56
(g72
g58
NtRp3857
(dp3858
g61
(dp3859
sg70
g3840
sg63
(lp3860
g56
(g77
g58
NtRp3861
(dp3862
g61
(dp3863
sg70
g3857
sg63
(lp3864
g56
(g57
g58
NtRp3865
(dp3866
g61
(dp3867
g69
I1
ssg70
g3861
sg63
(lp3868
I00
asbasbasbag56
(g72
g58
NtRp3869
(dp3870
g61
(dp3871
sg70
g3840
sg63
(lp3872
g56
(g77
g58
NtRp3873
(dp3874
g61
(dp3875
sg70
g3869
sg63
(lp3876
g56
(g57
g58
NtRp3877
(dp3878
g61
(dp3879
g69
I1
ssg70
g3873
sg63
(lp3880
S'/admin/default/edit/ddlagoon/views/default/index.html'
p3881
asbasbasbasbasbasbasbag56
(g72
g58
NtRp3882
(dp3883
g61
(dp3884
sg70
g3770
sg63
(lp3885
g56
(g77
g58
NtRp3886
(dp3887
g61
(dp3888
sg70
g3882
sg63
(lp3889
g56
(g57
g58
NtRp3890
(dp3891
g61
(dp3892
g69
I2
ssg70
g3886
sg63
(lp3893
g56
(g65
g58
NtRp3894
(dp3895
g61
(dp3896
g69
I1
ssg70
Nsg63
(lp3897
g56
(g72
g58
NtRp3898
(dp3899
g61
(dp3900
sg70
g3894
sg63
(lp3901
g56
(g77
g58
NtRp3902
(dp3903
g61
(dp3904
sg70
g3898
sg63
(lp3905
g56
(g57
g58
NtRp3906
(dp3907
g61
(dp3908
g69
I1
ssg70
g3902
sg63
(lp3909
g3661
(S't\x06\x00\x00\x00Layout'
tRp3910
asbasbasbag56
(g72
g58
NtRp3911
(dp3912
g61
(dp3913
sg70
g3894
sg63
(lp3914
g56
(g77
g58
NtRp3915
(dp3916
g61
(dp3917
sg70
g3911
sg63
(lp3918
g56
(g57
g58
NtRp3919
(dp3920
g61
(dp3921
g69
I1
ssg70
g3915
sg63
(lp3922
I00
asbasbasbag56
(g72
g58
NtRp3923
(dp3924
g61
(dp3925
sg70
g3894
sg63
(lp3926
g56
(g77
g58
NtRp3927
(dp3928
g61
(dp3929
sg70
g3923
sg63
(lp3930
g56
(g57
g58
NtRp3931
(dp3932
g61
(dp3933
g69
I1
ssg70
g3927
sg63
(lp3934
S'/admin/default/edit/ddlagoon/views/layout.html'
p3935
asbasbasbasbasbasbasbag56
(g72
g58
NtRp3936
(dp3937
g61
(dp3938
sg70
g3770
sg63
(lp3939
g56
(g77
g58
NtRp3940
(dp3941
g61
(dp3942
sg70
g3936
sg63
(lp3943
g56
(g57
g58
NtRp3944
(dp3945
g61
(dp3946
g69
I2
ssg70
g3940
sg63
(lp3947
g56
(g65
g58
NtRp3948
(dp3949
g61
(dp3950
g69
I1
ssg70
Nsg63
(lp3951
g56
(g72
g58
NtRp3952
(dp3953
g61
(dp3954
sg70
g3948
sg63
(lp3955
g56
(g77
g58
NtRp3956
(dp3957
g61
(dp3958
sg70
g3952
sg63
(lp3959
g56
(g57
g58
NtRp3960
(dp3961
g61
(dp3962
g69
I1
ssg70
g3956
sg63
(lp3963
g3661
(S't\n\x00\x00\x00Stylesheet'
tRp3964
asbasbasbag56
(g72
g58
NtRp3965
(dp3966
g61
(dp3967
sg70
g3948
sg63
(lp3968
g56
(g77
g58
NtRp3969
(dp3970
g61
(dp3971
sg70
g3965
sg63
(lp3972
g56
(g57
g58
NtRp3973
(dp3974
g61
(dp3975
g69
I1
ssg70
g3969
sg63
(lp3976
I00
asbasbasbag56
(g72
g58
NtRp3977
(dp3978
g61
(dp3979
sg70
g3948
sg63
(lp3980
g56
(g77
g58
NtRp3981
(dp3982
g61
(dp3983
sg70
g3977
sg63
(lp3984
g56
(g57
g58
NtRp3985
(dp3986
g61
(dp3987
g69
I1
ssg70
g3981
sg63
(lp3988
S'/admin/default/edit/ddlagoon/static/base.css'
p3989
asbasbasbasbasbasbasbag56
(g72
g58
NtRp3990
(dp3991
g61
(dp3992
sg70
g3770
sg63
(lp3993
g56
(g77
g58
NtRp3994
(dp3995
g61
(dp3996
sg70
g3990
sg63
(lp3997
g56
(g57
g58
NtRp3998
(dp3999
g61
(dp4000
g69
I2
ssg70
g3994
sg63
(lp4001
g56
(g65
g58
NtRp4002
(dp4003
g61
(dp4004
g69
I1
ssg70
Nsg63
(lp4005
g56
(g72
g58
NtRp4006
(dp4007
g61
(dp4008
sg70
g4002
sg63
(lp4009
g56
(g77
g58
NtRp4010
(dp4011
g61
(dp4012
sg70
g4006
sg63
(lp4013
g56
(g57
g58
NtRp4014
(dp4015
g61
(dp4016
g69
I1
ssg70
g4010
sg63
(lp4017
g3661
(S's\x08\x00\x00\x00DB Model'
tRp4018
asbasbasbag56
(g72
g58
NtRp4019
(dp4020
g61
(dp4021
sg70
g4002
sg63
(lp4022
g56
(g77
g58
NtRp4023
(dp4024
g61
(dp4025
sg70
g4019
sg63
(lp4026
g56
(g57
g58
NtRp4027
(dp4028
g61
(dp4029
g69
I1
ssg70
g4023
sg63
(lp4030
I00
asbasbasbag56
(g72
g58
NtRp4031
(dp4032
g61
(dp4033
sg70
g4002
sg63
(lp4034
g56
(g77
g58
NtRp4035
(dp4036
g61
(dp4037
sg70
g4031
sg63
(lp4038
g56
(g57
g58
NtRp4039
(dp4040
g61
(dp4041
g69
I1
ssg70
g4035
sg63
(lp4042
S'/admin/default/edit/ddlagoon/models/db.py'
p4043
asbasbasbasbasbasbasbag56
(g72
g58
NtRp4044
(dp4045
g61
(dp4046
sg70
g3770
sg63
(lp4047
g56
(g77
g58
NtRp4048
(dp4049
g61
(dp4050
sg70
g4044
sg63
(lp4051
g56
(g57
g58
NtRp4052
(dp4053
g61
(dp4054
g69
I2
ssg70
g4048
sg63
(lp4055
g56
(g65
g58
NtRp4056
(dp4057
g61
(dp4058
g69
I1
ssg70
Nsg63
(lp4059
g56
(g72
g58
NtRp4060
(dp4061
g61
(dp4062
sg70
g4056
sg63
(lp4063
g56
(g77
g58
NtRp4064
(dp4065
g61
(dp4066
sg70
g4060
sg63
(lp4067
g56
(g57
g58
NtRp4068
(dp4069
g61
(dp4070
g69
I1
ssg70
g4064
sg63
(lp4071
g3661
(S's\n\x00\x00\x00Menu Model'
tRp4072
asbasbasbag56
(g72
g58
NtRp4073
(dp4074
g61
(dp4075
sg70
g4056
sg63
(lp4076
g56
(g77
g58
NtRp4077
(dp4078
g61
(dp4079
sg70
g4073
sg63
(lp4080
g56
(g57
g58
NtRp4081
(dp4082
g61
(dp4083
g69
I1
ssg70
g4077
sg63
(lp4084
I00
asbasbasbag56
(g72
g58
NtRp4085
(dp4086
g61
(dp4087
sg70
g4056
sg63
(lp4088
g56
(g77
g58
NtRp4089
(dp4090
g61
(dp4091
sg70
g4085
sg63
(lp4092
g56
(g57
g58
NtRp4093
(dp4094
g61
(dp4095
g69
I1
ssg70
g4089
sg63
(lp4096
S'/admin/default/edit/ddlagoon/models/menu.py'
p4097
asbasbasbasbasbasbasbag56
(g72
g58
NtRp4098
(dp4099
g61
(dp4100
sg70
g3770
sg63
(lp4101
g56
(g77
g58
NtRp4102
(dp4103
g61
(dp4104
sg70
g4098
sg63
(lp4105
g56
(g57
g58
NtRp4106
(dp4107
g61
(dp4108
g69
I2
ssg70
g4102
sg63
(lp4109
g56
(g65
g58
NtRp4110
(dp4111
g61
(dp4112
g69
I1
ssg70
Nsg63
(lp4113
g56
(g72
g58
NtRp4114
(dp4115
g61
(dp4116
sg70
g4110
sg63
(lp4117
g56
(g77
g58
NtRp4118
(dp4119
g61
(dp4120
sg70
g4114
sg63
(lp4121
g56
(g57
g58
NtRp4122
(dp4123
g61
(dp4124
g69
I1
ssg70
g4118
sg63
(lp4125
g3661
(S't\x08\x00\x00\x00Database'
tRp4126
asbasbasbag56
(g72
g58
NtRp4127
(dp4128
g61
(dp4129
sg70
g4110
sg63
(lp4130
g56
(g77
g58
NtRp4131
(dp4132
g61
(dp4133
sg70
g4127
sg63
(lp4134
g56
(g57
g58
NtRp4135
(dp4136
g61
(dp4137
g69
I1
ssg70
g4131
sg63
(lp4138
I00
asbasbasbag56
(g72
g58
NtRp4139
(dp4140
g61
(dp4141
sg70
g4110
sg63
(lp4142
g56
(g77
g58
NtRp4143
(dp4144
g61
(dp4145
sg70
g4139
sg63
(lp4146
g56
(g57
g58
NtRp4147
(dp4148
g61
(dp4149
g69
I1
ssg70
g4143
sg63
(lp4150
S'/ddlagoon/appadmin/index'
p4151
asbasbasbasbasbasbasbag56
(g72
g58
NtRp4152
(dp4153
g61
(dp4154
sg70
g3770
sg63
(lp4155
g56
(g77
g58
NtRp4156
(dp4157
g61
(dp4158
sg70
g4152
sg63
(lp4159
g56
(g57
g58
NtRp4160
(dp4161
g61
(dp4162
g69
I2
ssg70
g4156
sg63
(lp4163
g56
(g65
g58
NtRp4164
(dp4165
g61
(dp4166
g69
I1
ssg70
Nsg63
(lp4167
g56
(g72
g58
NtRp4168
(dp4169
g61
(dp4170
sg70
g4164
sg63
(lp4171
g56
(g77
g58
NtRp4172
(dp4173
g61
(dp4174
sg70
g4168
sg63
(lp4175
g56
(g57
g58
NtRp4176
(dp4177
g61
(dp4178
g69
I1
ssg70
g4172
sg63
(lp4179
g3661
(S't\x06\x00\x00\x00Errors'
tRp4180
asbasbasbag56
(g72
g58
NtRp4181
(dp4182
g61
(dp4183
sg70
g4164
sg63
(lp4184
g56
(g77
g58
NtRp4185
(dp4186
g61
(dp4187
sg70
g4181
sg63
(lp4188
g56
(g57
g58
NtRp4189
(dp4190
g61
(dp4191
g69
I1
ssg70
g4185
sg63
(lp4192
I00
asbasbasbag56
(g72
g58
NtRp4193
(dp4194
g61
(dp4195
sg70
g4164
sg63
(lp4196
g56
(g77
g58
NtRp4197
(dp4198
g61
(dp4199
sg70
g4193
sg63
(lp4200
g56
(g57
g58
NtRp4201
(dp4202
g61
(dp4203
g69
I1
ssg70
g4197
sg63
(lp4204
S'/admin/default/errors/ddlagoon'
p4205
asbasbasbasbasbasbasbag56
(g72
g58
NtRp4206
(dp4207
g61
(dp4208
sg70
g3770
sg63
(lp4209
g56
(g77
g58
NtRp4210
(dp4211
g61
(dp4212
sg70
g4206
sg63
(lp4213
g56
(g57
g58
NtRp4214
(dp4215
g61
(dp4216
g69
I2
ssg70
g4210
sg63
(lp4217
g56
(g65
g58
NtRp4218
(dp4219
g61
(dp4220
g69
I1
ssg70
Nsg63
(lp4221
g56
(g72
g58
NtRp4222
(dp4223
g61
(dp4224
sg70
g4218
sg63
(lp4225
g56
(g77
g58
NtRp4226
(dp4227
g61
(dp4228
sg70
g4222
sg63
(lp4229
g56
(g57
g58
NtRp4230
(dp4231
g61
(dp4232
g69
I1
ssg70
g4226
sg63
(lp4233
g3661
(S't\x05\x00\x00\x00About'
tRp4234
asbasbasbag56
(g72
g58
NtRp4235
(dp4236
g61
(dp4237
sg70
g4218
sg63
(lp4238
g56
(g77
g58
NtRp4239
(dp4240
g61
(dp4241
sg70
g4235
sg63
(lp4242
g56
(g57
g58
NtRp4243
(dp4244
g61
(dp4245
g69
I1
ssg70
g4239
sg63
(lp4246
I00
asbasbasbag56
(g72
g58
NtRp4247
(dp4248
g61
(dp4249
sg70
g4218
sg63
(lp4250
g56
(g77
g58
NtRp4251
(dp4252
g61
(dp4253
sg70
g4247
sg63
(lp4254
g56
(g57
g58
NtRp4255
(dp4256
g61
(dp4257
g69
I1
ssg70
g4251
sg63
(lp4258
S'/admin/default/about/ddlagoon'
p4259
asbasbasbasbasbasbasbasbasbasbasbasbasbasbasbag56
(g72
g58
NtRp4260
(dp4261
g61
(dp4262
sg70
g3629
sg63
(lp4263
g56
(g77
g58
NtRp4264
(dp4265
g61
(dp4266
sg70
g4260
sg63
(lp4267
g56
(g57
g58
NtRp4268
(dp4269
g61
(dp4270
g69
I4
ssg70
g4264
sg63
(lp4271
g56
(g65
g58
NtRp4272
(dp4273
g61
(dp4274
g69
I3
ssg70
Nsg63
(lp4275
g56
(g72
g58
NtRp4276
(dp4277
g61
(dp4278
sg70
g4272
sg63
(lp4279
g56
(g77
g58
NtRp4280
(dp4281
g61
(dp4282
sg70
g4276
sg63
(lp4283
g56
(g57
g58
NtRp4284
(dp4285
g61
(dp4286
g69
I3
ssg70
g4280
sg63
(lp4287
g3661
(S't\t\x00\x00\x00Resources'
tRp4288
asbasbasbag56
(g72
g58
NtRp4289
(dp4290
g61
(dp4291
sg70
g4272
sg63
(lp4292
g56
(g77
g58
NtRp4293
(dp4294
g61
(dp4295
sg70
g4289
sg63
(lp4296
g56
(g57
g58
NtRp4297
(dp4298
g61
(dp4299
g69
I3
ssg70
g4293
sg63
(lp4300
g99
asbasbasbag56
(g72
g58
NtRp4301
(dp4302
g61
(dp4303
sg70
g4272
sg63
(lp4304
g56
(g77
g58
NtRp4305
(dp4306
g61
(dp4307
sg70
g4301
sg63
(lp4308
g56
(g57
g58
NtRp4309
(dp4310
g61
(dp4311
g69
I3
ssg70
g4305
sg63
(lp4312
S'None'
p4313
asbasbasbag56
(g72
g58
NtRp4314
(dp4315
g61
(dp4316
sg70
g4272
sg63
(lp4317
g56
(g77
g58
NtRp4318
(dp4319
g61
(dp4320
sg70
g4314
sg63
(lp4321
g56
(g57
g58
NtRp4322
(dp4323
g61
(dp4324
g69
I3
ssg70
g4318
sg63
(lp4325
g56
(g65
g58
NtRp4326
(dp4327
g61
(dp4328
g69
I2
ssg70
Nsg63
(lp4329
g56
(g72
g58
NtRp4330
(dp4331
g61
(dp4332
sg70
g4326
sg63
(lp4333
g56
(g77
g58
NtRp4334
(dp4335
g61
(dp4336
sg70
g4330
sg63
(lp4337
g56
(g57
g58
NtRp4338
(dp4339
g61
(dp4340
g69
I2
ssg70
g4334
sg63
(lp4341
g56
(g65
g58
NtRp4342
(dp4343
g61
(dp4344
g69
I1
ssg70
Nsg63
(lp4345
g56
(g72
g58
NtRp4346
(dp4347
g61
(dp4348
sg70
g4342
sg63
(lp4349
g56
(g77
g58
NtRp4350
(dp4351
g61
(dp4352
sg70
g4346
sg63
(lp4353
g56
(g57
g58
NtRp4354
(dp4355
g61
(dp4356
g69
I1
ssg70
g4350
sg63
(lp4357
g3661
(S't\r\x00\x00\x00Documentation'
tRp4358
asbasbasbag56
(g72
g58
NtRp4359
(dp4360
g61
(dp4361
sg70
g4342
sg63
(lp4362
g56
(g77
g58
NtRp4363
(dp4364
g61
(dp4365
sg70
g4359
sg63
(lp4366
g56
(g57
g58
NtRp4367
(dp4368
g61
(dp4369
g69
I1
ssg70
g4363
sg63
(lp4370
I00
asbasbasbag56
(g72
g58
NtRp4371
(dp4372
g61
(dp4373
sg70
g4342
sg63
(lp4374
g56
(g77
g58
NtRp4375
(dp4376
g61
(dp4377
sg70
g4371
sg63
(lp4378
g56
(g57
g58
NtRp4379
(dp4380
g61
(dp4381
g69
I1
ssg70
g4375
sg63
(lp4382
S'http://www.web2py.com/book'
p4383
asbasbasbag56
(g72
g58
NtRp4384
(dp4385
g61
(dp4386
sg70
g4342
sg63
(lp4387
g56
(g77
g58
NtRp4388
(dp4389
g61
(dp4390
sg70
g4384
sg63
(lp4391
g56
(g57
g58
NtRp4392
(dp4393
g61
(dp4394
g69
I1
ssg70
g4388
sg63
(lp4395
(lp4396
(g3661
(S't\x07\x00\x00\x00Preface'
tRp4397
I00
S'http://www.web2py.com/book/default/chapter/00'
p4398
tp4399
a(g3661
(S't\x0c\x00\x00\x00Introduction'
tRp4400
I00
S'http://www.web2py.com/book/default/chapter/01'
p4401
tp4402
a(g3661
(S't\x06\x00\x00\x00Python'
tRp4403
I00
S'http://www.web2py.com/book/default/chapter/02'
p4404
tp4405
a(g3661
(S't\x08\x00\x00\x00Overview'
tRp4406
I00
S'http://www.web2py.com/book/default/chapter/03'
p4407
tp4408
a(g3661
(S's\x08\x00\x00\x00The Core'
tRp4409
I00
S'http://www.web2py.com/book/default/chapter/04'
p4410
tp4411
a(g3661
(S's\t\x00\x00\x00The Views'
tRp4412
I00
S'http://www.web2py.com/book/default/chapter/05'
p4413
tp4414
a(g3661
(S't\x08\x00\x00\x00Database'
tRp4415
I00
S'http://www.web2py.com/book/default/chapter/06'
p4416
tp4417
a(g3661
(S's\x14\x00\x00\x00Forms and Validators'
tRp4418
I00
S'http://www.web2py.com/book/default/chapter/07'
p4419
tp4420
a(g3661
(S's\x0e\x00\x00\x00Access Control'
tRp4421
I00
S'http://www.web2py.com/book/default/chapter/08'
p4422
tp4423
a(g3661
(S't\x08\x00\x00\x00Services'
tRp4424
I00
S'http://www.web2py.com/book/default/chapter/09'
p4425
tp4426
a(g3661
(S's\x0c\x00\x00\x00Ajax Recipes'
tRp4427
I00
S'http://www.web2py.com/book/default/chapter/10'
p4428
tp4429
a(g3661
(S's\x12\x00\x00\x00Deployment Recipes'
tRp4430
I00
S'http://www.web2py.com/book/default/chapter/11'
p4431
tp4432
a(g3661
(S's\r\x00\x00\x00Other Recipes'
tRp4433
I00
S'http://www.web2py.com/book/default/chapter/12'
p4434
tp4435
a(g3661
(S's\r\x00\x00\x00Buy this book'
tRp4436
I00
S'http://stores.lulu.com/web2py'
p4437
tp4438
aasbasbasbasbasbasbasbag56
(g72
g58
NtRp4439
(dp4440
g61
(dp4441
sg70
g4326
sg63
(lp4442
g56
(g77
g58
NtRp4443
(dp4444
g61
(dp4445
sg70
g4439
sg63
(lp4446
g56
(g57
g58
NtRp4447
(dp4448
g61
(dp4449
g69
I2
ssg70
g4443
sg63
(lp4450
g56
(g65
g58
NtRp4451
(dp4452
g61
(dp4453
g69
I1
ssg70
Nsg63
(lp4454
g56
(g72
g58
NtRp4455
(dp4456
g61
(dp4457
sg70
g4451
sg63
(lp4458
g56
(g77
g58
NtRp4459
(dp4460
g61
(dp4461
sg70
g4455
sg63
(lp4462
g56
(g57
g58
NtRp4463
(dp4464
g61
(dp4465
g69
I1
ssg70
g4459
sg63
(lp4466
g3661
(S't\t\x00\x00\x00Community'
tRp4467
asbasbasbag56
(g72
g58
NtRp4468
(dp4469
g61
(dp4470
sg70
g4451
sg63
(lp4471
g56
(g77
g58
NtRp4472
(dp4473
g61
(dp4474
sg70
g4468
sg63
(lp4475
g56
(g57
g58
NtRp4476
(dp4477
g61
(dp4478
g69
I1
ssg70
g4472
sg63
(lp4479
I00
asbasbasbag56
(g72
g58
NtRp4480
(dp4481
g61
(dp4482
sg70
g4451
sg63
(lp4483
g56
(g77
g58
NtRp4484
(dp4485
g61
(dp4486
sg70
g4480
sg63
(lp4487
g56
(g57
g58
NtRp4488
(dp4489
g61
(dp4490
g69
I1
ssg70
g4484
sg63
(lp4491
Nasbasbasbag56
(g72
g58
NtRp4492
(dp4493
g61
(dp4494
sg70
g4451
sg63
(lp4495
g56
(g77
g58
NtRp4496
(dp4497
g61
(dp4498
sg70
g4492
sg63
(lp4499
g56
(g57
g58
NtRp4500
(dp4501
g61
(dp4502
g69
I1
ssg70
g4496
sg63
(lp4503
(lp4504
(g3661
(S't\x06\x00\x00\x00Groups'
tRp4505
I00
S'http://www.web2py.com/examples/default/usergroups'
p4506
tp4507
a(g3661
(S't\x07\x00\x00\x00Twitter'
tRp4508
I00
S'http://twitter.com/web2py'
p4509
tp4510
a(g3661
(S's\t\x00\x00\x00Live chat'
tRp4511
I00
S'http://mibbit.com/?channel=%23web2py&server=irc.mibbit.net'
p4512
tp4513
a(g3661
(S's\n\x00\x00\x00User Voice'
tRp4514
I00
S'http://web2py.uservoice.com/'
p4515
tp4516
aasbasbasbasbasbasbasbag56
(g72
g58
NtRp4517
(dp4518
g61
(dp4519
sg70
g4326
sg63
(lp4520
g56
(g77
g58
NtRp4521
(dp4522
g61
(dp4523
sg70
g4517
sg63
(lp4524
g56
(g57
g58
NtRp4525
(dp4526
g61
(dp4527
g69
I2
ssg70
g4521
sg63
(lp4528
g56
(g65
g58
NtRp4529
(dp4530
g61
(dp4531
g69
I1
ssg70
Nsg63
(lp4532
g56
(g72
g58
NtRp4533
(dp4534
g61
(dp4535
sg70
g4529
sg63
(lp4536
g56
(g77
g58
NtRp4537
(dp4538
g61
(dp4539
sg70
g4533
sg63
(lp4540
g56
(g57
g58
NtRp4541
(dp4542
g61
(dp4543
g69
I1
ssg70
g4537
sg63
(lp4544
g3661
(S't\x06\x00\x00\x00Web2py'
tRp4545
asbasbasbag56
(g72
g58
NtRp4546
(dp4547
g61
(dp4548
sg70
g4529
sg63
(lp4549
g56
(g77
g58
NtRp4550
(dp4551
g61
(dp4552
sg70
g4546
sg63
(lp4553
g56
(g57
g58
NtRp4554
(dp4555
g61
(dp4556
g69
I1
ssg70
g4550
sg63
(lp4557
I00
asbasbasbag56
(g72
g58
NtRp4558
(dp4559
g61
(dp4560
sg70
g4529
sg63
(lp4561
g56
(g77
g58
NtRp4562
(dp4563
g61
(dp4564
sg70
g4558
sg63
(lp4565
g56
(g57
g58
NtRp4566
(dp4567
g61
(dp4568
g69
I1
ssg70
g4562
sg63
(lp4569
S'http://www.web2py.com'
p4570
asbasbasbag56
(g72
g58
NtRp4571
(dp4572
g61
(dp4573
sg70
g4529
sg63
(lp4574
g56
(g77
g58
NtRp4575
(dp4576
g61
(dp4577
sg70
g4571
sg63
(lp4578
g56
(g57
g58
NtRp4579
(dp4580
g61
(dp4581
g69
I1
ssg70
g4575
sg63
(lp4582
(lp4583
(g3661
(S't\x08\x00\x00\x00Download'
tRp4584
I00
S'http://www.web2py.com/examples/default/download'
p4585
tp4586
a(g3661
(S't\x07\x00\x00\x00Support'
tRp4587
I00
S'http://www.web2py.com/examples/default/support'
p4588
tp4589
a(g3661
(S's\x0e\x00\x00\x00Quick Examples'
tRp4590
I00
S'http://web2py.com/examples/default/examples'
p4591
tp4592
a(g3661
(S't\x03\x00\x00\x00FAQ'
tRp4593
I00
S'http://web2py.com/AlterEgo'
p4594
tp4595
a(g3661
(S's\x11\x00\x00\x00Free Applications'
tRp4596
I00
S'http://web2py.com/appliances'
p4597
tp4598
a(g3661
(S't\x07\x00\x00\x00Plugins'
tRp4599
I00
S'http://web2py.com/plugins'
p4600
tp4601
a(g3661
(S't\x07\x00\x00\x00Recipes'
tRp4602
I00
S'http://web2pyslices.com/'
p4603
tp4604
a(g3661
(S't\x04\x00\x00\x00Demo'
tRp4605
I00
S'http://web2py.com/demo_admin'
p4606
tp4607
a(g3661
(S't\x08\x00\x00\x00Semantic'
tRp4608
I00
S'http://web2py.com/semantic'
p4609
tp4610
a(g3661
(S't\x07\x00\x00\x00Layouts'
tRp4611
I00
S'http://web2py.com/layouts'
p4612
tp4613
a(g3661
(S't\x06\x00\x00\x00Videos'
tRp4614
I00
S'http://www.web2py.com/examples/default/videos/'
p4615
tp4616
aasbasbasbasbasbasbasbasbasbasbasbasbasbasbasbasbasbasbasbag56
(g72
g58
NtRp4617
(dp4618
g61
(dp4619
sg70
g3156
sg63
(lp4620
g56
(g77
g58
NtRp4621
(dp4622
g61
(dp4623
g81
g82
ssg70
g4617
sg63
(lp4624
S'meta'
p4625
asbag56
(g77
g58
NtRp4626
(dp4627
g61
(dp4628
g88
g89
ssg70
g4617
sg63
(lp4629
S':'
asbag56
(g77
g58
NtRp4630
(dp4631
g61
(dp4632
sg70
g4617
sg63
(lp4633
g56
(g57
g58
NtRp4634
(dp4635
g61
(dp4636
g69
I5
ssg70
g4630
sg63
(lp4637
g56
(g65
g58
NtRp4638
(dp4639
g61
(dp4640
g69
I4
ssg70
Nsg63
(lp4641
g56
(g72
g58
NtRp4642
(dp4643
g61
(dp4644
sg70
g4638
sg63
(lp4645
g56
(g77
g58
NtRp4646
(dp4647
g61
(dp4648
g81
g82
ssg70
g4642
sg63
(lp4649
S'author'
p4650
asbag56
(g77
g58
NtRp4651
(dp4652
g61
(dp4653
g88
g89
ssg70
g4642
sg63
(lp4654
S':'
asbag56
(g77
g58
NtRp4655
(dp4656
g61
(dp4657
sg70
g4642
sg63
(lp4658
g56
(g57
g58
NtRp4659
(dp4660
g61
(dp4661
g69
I4
ssg70
g4655
sg63
(lp4662
S'Your Name <you@example.com>'
p4663
asbasbasbag56
(g72
g58
NtRp4664
(dp4665
g61
(dp4666
sg70
g4638
sg63
(lp4667
g56
(g77
g58
NtRp4668
(dp4669
g61
(dp4670
g81
g82
ssg70
g4664
sg63
(lp4671
S'copyright'
p4672
asbag56
(g77
g58
NtRp4673
(dp4674
g61
(dp4675
g88
g89
ssg70
g4664
sg63
(lp4676
S':'
asbag56
(g77
g58
NtRp4677
(dp4678
g61
(dp4679
sg70
g4664
sg63
(lp4680
g56
(g57
g58
NtRp4681
(dp4682
g61
(dp4683
g69
I4
ssg70
g4677
sg63
(lp4684
S'Copyright 2011'
p4685
asbasbasbag56
(g72
g58
NtRp4686
(dp4687
g61
(dp4688
sg70
g4638
sg63
(lp4689
g56
(g77
g58
NtRp4690
(dp4691
g61
(dp4692
g81
g82
ssg70
g4686
sg63
(lp4693
S'description'
p4694
asbag56
(g77
g58
NtRp4695
(dp4696
g61
(dp4697
g88
g89
ssg70
g4686
sg63
(lp4698
S':'
asbag56
(g77
g58
NtRp4699
(dp4700
g61
(dp4701
sg70
g4686
sg63
(lp4702
g56
(g57
g58
NtRp4703
(dp4704
g61
(dp4705
g69
I4
ssg70
g4699
sg63
(lp4706
S'a cool new app'
p4707
asbasbasbag56
(g72
g58
NtRp4708
(dp4709
g61
(dp4710
sg70
g4638
sg63
(lp4711
g56
(g77
g58
NtRp4712
(dp4713
g61
(dp4714
g81
g82
ssg70
g4708
sg63
(lp4715
S'generator'
p4716
asbag56
(g77
g58
NtRp4717
(dp4718
g61
(dp4719
g88
g89
ssg70
g4708
sg63
(lp4720
S':'
asbag56
(g77
g58
NtRp4721
(dp4722
g61
(dp4723
sg70
g4708
sg63
(lp4724
g56
(g57
g58
NtRp4725
(dp4726
g61
(dp4727
g69
I4
ssg70
g4721
sg63
(lp4728
S'Web2py Web Framework'
p4729
asbasbasbag56
(g72
g58
NtRp4730
(dp4731
g61
(dp4732
sg70
g4638
sg63
(lp4733
g56
(g77
g58
NtRp4734
(dp4735
g61
(dp4736
g81
g82
ssg70
g4730
sg63
(lp4737
S'keywords'
p4738
asbag56
(g77
g58
NtRp4739
(dp4740
g61
(dp4741
g88
g89
ssg70
g4730
sg63
(lp4742
S':'
asbag56
(g77
g58
NtRp4743
(dp4744
g61
(dp4745
sg70
g4730
sg63
(lp4746
g56
(g57
g58
NtRp4747
(dp4748
g61
(dp4749
g69
I4
ssg70
g4743
sg63
(lp4750
S'web2py, python, framework'
p4751
asbasbasbasbasbasbasbag56
(g72
g58
NtRp4752
(dp4753
g61
(dp4754
sg70
g3156
sg63
(lp4755
g56
(g77
g58
NtRp4756
(dp4757
g61
(dp4758
g81
g82
ssg70
g4752
sg63
(lp4759
S'postprocessing'
p4760
asbag56
(g77
g58
NtRp4761
(dp4762
g61
(dp4763
g88
g89
ssg70
g4752
sg63
(lp4764
S':'
asbag56
(g77
g58
NtRp4765
(dp4766
g61
(dp4767
sg70
g4752
sg63
(lp4768
g56
(g57
g58
NtRp4769
(dp4770
g61
(dp4771
g69
I5
ssg70
g4765
sg63
(lp4772
g56
(g65
g58
NtRp4773
(dp4774
g61
(dp4775
g69
I4
ssg70
Nsg63
(lp4776
sbasbasbasbag56
(g72
g58
NtRp4777
(dp4778
g61
(dp4779
sg70
g3156
sg63
(lp4780
g56
(g77
g58
NtRp4781
(dp4782
g61
(dp4783
g81
g82
ssg70
g4777
sg63
(lp4784
S'session_filename'
p4785
asbag56
(g77
g58
NtRp4786
(dp4787
g61
(dp4788
g88
g89
ssg70
g4777
sg63
(lp4789
S':'
asbag56
(g77
g58
NtRp4790
(dp4791
g61
(dp4792
sg70
g4777
sg63
(lp4793
g56
(g57
g58
NtRp4794
(dp4795
g61
(dp4796
g69
I5
ssg70
g4790
sg63
(lp4797
S'/windows/Users/Thomas/Dropbox/appz/2011/GAE/ddl-lagoon/applications/ddlagoon/sessions/127.0.0.1-c9bb195b-a52c-47ef-82b9-ea01bc246c2c'
p4798
asbasbasbag56
(g72
g58
NtRp4799
(dp4800
g61
(dp4801
sg70
g3156
sg63
(lp4802
g56
(g77
g58
NtRp4803
(dp4804
g61
(dp4805
g81
g82
ssg70
g4799
sg63
(lp4806
S'session_id'
p4807
asbag56
(g77
g58
NtRp4808
(dp4809
g61
(dp4810
g88
g89
ssg70
g4799
sg63
(lp4811
S':'
asbag56
(g77
g58
NtRp4812
(dp4813
g61
(dp4814
sg70
g4799
sg63
(lp4815
g56
(g57
g58
NtRp4816
(dp4817
g61
(dp4818
g69
I5
ssg70
g4812
sg63
(lp4819
S'127.0.0.1-c9bb195b-a52c-47ef-82b9-ea01bc246c2c'
p4820
asbasbasbag56
(g72
g58
NtRp4821
(dp4822
g61
(dp4823
sg70
g3156
sg63
(lp4824
g56
(g77
g58
NtRp4825
(dp4826
g61
(dp4827
g81
g82
ssg70
g4821
sg63
(lp4828
S'session_id_name'
p4829
asbag56
(g77
g58
NtRp4830
(dp4831
g61
(dp4832
g88
g89
ssg70
g4821
sg63
(lp4833
S':'
asbag56
(g77
g58
NtRp4834
(dp4835
g61
(dp4836
sg70
g4821
sg63
(lp4837
g56
(g57
g58
NtRp4838
(dp4839
g61
(dp4840
g69
I5
ssg70
g4834
sg63
(lp4841
g3213
asbasbasbag56
(g72
g58
NtRp4842
(dp4843
g61
(dp4844
sg70
g3156
sg63
(lp4845
g56
(g77
g58
NtRp4846
(dp4847
g61
(dp4848
g81
g82
ssg70
g4842
sg63
(lp4849
S'session_new'
p4850
asbag56
(g77
g58
NtRp4851
(dp4852
g61
(dp4853
g88
g89
ssg70
g4842
sg63
(lp4854
S':'
asbag56
(g77
g58
NtRp4855
(dp4856
g61
(dp4857
sg70
g4842
sg63
(lp4858
g56
(g57
g58
NtRp4859
(dp4860
g61
(dp4861
g69
I5
ssg70
g4855
sg63
(lp4862
g1656
asbasbasbag56
(g72
g58
NtRp4863
(dp4864
g61
(dp4865
sg70
g3156
sg63
(lp4866
g56
(g77
g58
NtRp4867
(dp4868
g61
(dp4869
g81
g82
ssg70
g4863
sg63
(lp4870
S'status'
p4871
asbag56
(g77
g58
NtRp4872
(dp4873
g61
(dp4874
g88
g89
ssg70
g4863
sg63
(lp4875
S':'
asbag56
(g77
g58
NtRp4876
(dp4877
g61
(dp4878
sg70
g4863
sg63
(lp4879
g56
(g57
g58
NtRp4880
(dp4881
g61
(dp4882
g69
I5
ssg70
g4876
sg63
(lp4883
S'200'
p4884
asbasbasbag56
(g72
g58
NtRp4885
(dp4886
g61
(dp4887
sg70
g3156
sg63
(lp4888
g56
(g77
g58
NtRp4889
(dp4890
g61
(dp4891
g81
g82
ssg70
g4885
sg63
(lp4892
S'subtitle'
p4893
asbag56
(g77
g58
NtRp4894
(dp4895
g61
(dp4896
g88
g89
ssg70
g4885
sg63
(lp4897
S':'
asbag56
(g77
g58
NtRp4898
(dp4899
g61
(dp4900
sg70
g4885
sg63
(lp4901
g56
(g57
g58
NtRp4902
(dp4903
g61
(dp4904
g69
I5
ssg70
g4898
sg63
(lp4905
g3661
(S's\r\x00\x00\x00customize me!'
tRp4906
asbasbasbag56
(g72
g58
NtRp4907
(dp4908
g61
(dp4909
sg70
g3156
sg63
(lp4910
g56
(g77
g58
NtRp4911
(dp4912
g61
(dp4913
g81
g82
ssg70
g4907
sg63
(lp4914
S'title'
p4915
asbag56
(g77
g58
NtRp4916
(dp4917
g61
(dp4918
g88
g89
ssg70
g4907
sg63
(lp4919
S':'
asbag56
(g77
g58
NtRp4920
(dp4921
g61
(dp4922
sg70
g4907
sg63
(lp4923
g56
(g57
g58
NtRp4924
(dp4925
g61
(dp4926
g69
I5
ssg70
g4920
sg63
(lp4927
g121
asbasbasbag56
(g72
g58
NtRp4928
(dp4929
g61
(dp4930
sg70
g3156
sg63
(lp4931
g56
(g77
g58
NtRp4932
(dp4933
g61
(dp4934
g81
g82
ssg70
g4928
sg63
(lp4935
g2300
asbag56
(g77
g58
NtRp4936
(dp4937
g61
(dp4938
g88
g89
ssg70
g4928
sg63
(lp4939
S':'
asbag56
(g77
g58
NtRp4940
(dp4941
g61
(dp4942
sg70
g4928
sg63
(lp4943
g56
(g57
g58
NtRp4944
(dp4945
g61
(dp4946
g69
I5
ssg70
g4940
sg63
(lp4947
g2313
asbasbasbag56
(g72
g58
NtRp4948
(dp4949
g61
(dp4950
sg70
g3156
sg63
(lp4951
g56
(g77
g58
NtRp4952
(dp4953
g61
(dp4954
g81
g82
ssg70
g4948
sg63
(lp4955
S'view'
p4956
asbag56
(g77
g58
NtRp4957
(dp4958
g61
(dp4959
g88
g89
ssg70
g4948
sg63
(lp4960
S':'
asbag56
(g77
g58
NtRp4961
(dp4962
g61
(dp4963
sg70
g4948
sg63
(lp4964
g56
(g57
g58
NtRp4965
(dp4966
g61
(dp4967
g69
I5
ssg70
g4961
sg63
(lp4968
S'default/index.html'
p4969
asbasbasbasbasbsS'locals'
p4970
(dp4971
S'box'
p4972
S"<Row {'last_time_downloaded': None, 'version': 1...1, 10, 26, 20, 54, 22), 'web_description': None}>"
p4973
sS'updated'
p4974
g99
sS'attribute'
p4975
S"'size_readable'"
p4976
sS'self'
p4977
S'<gluon.dal.Rows object>'
p4978
sS'tablename'
p4979
S"'ddl'"
p4980
sS'keyed_virtualfields'
p4981
S"{'ddl': <class 'DDLVirtualFields'>}"
p4982
sg61
S"['__class__', '__delattr__', '__dict__', '__doc__', '__format__', '__getattribute__', '__hash__', '__init__', '__module__', '__new__', '__reduce__', '__reduce_ex__', '__repr__', '__setattr__', '__sizeof__', '__str__', '__subclasshook__', '__weakref__', 'size_readable']"
p4983
sS'virtualfields'
p4984
S"<class 'DDLVirtualFields'>"
p4985
sS'method'
p4986
S'<unbound method DDLVirtualFields.size_readable>'
p4987
sS'row'
p4988
S"<Row {'ddl': <Row {'last_time_downloaded': None,... 10, 26, 20, 54, 22), 'web_description': None}>}>"
p4989
sssS'traceback'
p4990
S'Traceback (most recent call last):\n  File "/windows/Users/Thomas/Dropbox/appz/2011/GAE/ddl-lagoon/gluon/restricted.py", line 194, in restricted\n    exec ccode in environment\n  File "/windows/Users/Thomas/Dropbox/appz/2011/GAE/ddl-lagoon/applications/ddlagoon/controllers/default.py", line 274, in <module>\n  File "/windows/Users/Thomas/Dropbox/appz/2011/GAE/ddl-lagoon/gluon/globals.py", line 149, in <lambda>\n    self._caller = lambda f: f()\n  File "/windows/Users/Thomas/Dropbox/appz/2011/GAE/ddl-lagoon/applications/ddlagoon/controllers/default.py", line 42, in index\n    ddlz= db(db.ddl.id>0).select()\n  File "/windows/Users/Thomas/Dropbox/appz/2011/GAE/ddl-lagoon/gluon/dal.py", line 5697, in select\n    return self.db._adapter.select(self.query,fields,attributes)\n  File "/windows/Users/Thomas/Dropbox/appz/2011/GAE/ddl-lagoon/gluon/dal.py", line 1238, in select\n    return self.parse(rows,self._colnames)\n  File "/windows/Users/Thomas/Dropbox/appz/2011/GAE/ddl-lagoon/gluon/dal.py", line 1525, in parse\n    rowsobj = rowsobj.setvirtualfields(**{tablename:item})\n  File "/windows/Users/Thomas/Dropbox/appz/2011/GAE/ddl-lagoon/gluon/dal.py", line 5839, in setvirtualfields\n    virtualfields.__dict__.update(row)\nAttributeError: \'dictproxy\' object has no attribute \'update\'\n'
p4991
s.