(dp1
S'output'
p2
S''
sS'layer'
p3
S'/windows/Users/Thomas/Dropbox/appz/2011/ddlagoon/public_html/applications/ddlagoon/views/default/how_to_upload.html'
p4
sS'code'
p5
S'left_sidebar_enabled=right_sidebar_enabled=True\nresponse.write(\'\\r\\n\', escape=False)\nresponse.write(\'<!DOCTYPE html>\\n<html lang="\', escape=False)\nresponse.write(T.accepted_language or \'en\')\nresponse.write(\'" class="no-js"><!-- no-js need it for modernzr -->\\n  <head>\\n    \\n    <meta charset="utf-8" />        \\n    <!-- www.phpied.com/conditional-comments-block-downloads/ -->\\n    <!--[if IE]>\\n      <!-- Always force latest IE rendering engine \\n       (even in intranet) & Chrome Frame \\n       Remove this if you use the .htaccess -->\\n      <meta http-equiv="X-UA-Compatible" content="IE=edge,chrome=1">\\n    <![endif]-->    \\n\\n    <title>DDLagoon</title>\\n    \\n    <!-- http://dev.w3.org/html5/markup/meta.name.html -->\\n    <meta name="application-name" content="\', escape=False)\nresponse.write(request.application)\nresponse.write(\'" /> \\n    \\n    <!-- Speaking of Google, don\\\'t forget to set your site up: \\n     http://google.com/webmasters -->\\n    <meta name="google-site-verification" content="" />\\n    \\n    <!--  Mobile Viewport Fix\\n      j.mp/mobileviewport & davidbcalhoun.com/2010/viewport-metatag \\n      device-width: Occupy full width of the screen in its current orientation\\n      initial-scale = 1.0 retains dimensions instead of zooming out if page height > device height\\n      maximum-scale = 1.0 retains dimensions instead of zooming in if page width < device width\\n      -->\\n    <meta name="viewport" content="width=device-width, initial-scale=1.0, maximum-scale=1.0">\\n    \\n    <!-- Place favicon.ico and apple-touch-icon.png in the root of your domain and delete these references -->\\n    <link rel="shortcut icon" href="\', escape=False)\nresponse.write(URL(\'static\',\'favicon.ico\'))\nresponse.write(\'" type="image/x-icon">\\n    <link rel="apple-touch-icon" href="\', escape=False)\nresponse.write(URL(\'static\',\'favicon.png\'))\nresponse.write(\'">\\n\\n    <!-- For the less-enabled mobile browsers like Opera Mini -->\\n    <link rel="stylesheet" media="handheld" href="\', escape=False)\nresponse.write(URL(\'static\',\'css/handheld.css\'))\nresponse.write(\'">\\n    \\n    <!-- All JavaScript at the bottom, except for Modernizr which enables HTML5 elements & feature detects -->\\n    <script src="\', escape=False)\nresponse.write(URL(\'static\',\'js/modernizr-1.7.min.js\'))\nresponse.write(\'"></script>\\n    \\n    \', escape=False)\n#------  require CSS and JS files for this page (read info in base.css) ------\nresponse.write(\'\\n    \', escape=False)\nresponse.files.append(URL(\'static\',\'css/base.css\'))\nresponse.write(\'\\n    \', escape=False)\nresponse.files.append(URL(\'static\',\'css/superfish.css\'))\nresponse.write(\'\\n    \', escape=False)\nresponse.files.append(URL(\'static\',\'js/superfish.js\'))\nresponse.write(\'\\n    \', escape=False)\n#------ include web2py specific js code (jquery, calendar, form stuff) ------\nresponse.write(\'\\n    \', escape=False)\nresponse.files.insert(0,URL(\'static\',\'js/jquery.js\'))\nresponse.files.insert(1,URL(\'static\',\'css/anytime.css\'))\nresponse.files.insert(2,URL(\'static\',\'js/anytime.js\'))\nresponse.include_meta()\nresponse.include_files()\nresponse.write(\'\\n<script type="text/javascript"><!--\\n    // These variables are used by the web2py_ajax_init function in web2py_ajax.js (which is loaded below).\\n    var w2p_ajax_confirm_message = "\', escape=False)\nresponse.write(T(\'Are you sure you want to delete this object?\'))\nresponse.write(\'";\\n    var w2p_ajax_date_format = "\', escape=False)\nresponse.write(T(\'%Y-%m-%d\'))\nresponse.write(\'";\\n    var w2p_ajax_datetime_format = "\', escape=False)\nresponse.write(T(\'%Y-%m-%d %H:%M:%S\'))\nresponse.write(\'";\\n    //--></script>\\n    <script src="\', escape=False)\nresponse.write(URL(\'static\',\'js/web2py_ajax.js\'))\nresponse.write(\'" type="text/javascript"></script>\\n\', escape=False)\nresponse.write(\'\\n\\n    \', escape=False)\n#using sidebars need to know what sidebar you want to use\n#prior of using it, because of static width size of content, you can use\n#left_sidebar, right_sidebar, both or none (False left and right)\nleft_sidebar_enabled = globals().get(\'left_sidebar_enabled\',False)\nright_sidebar_enabled = globals().get(\'right_sidebar_enabled\',False)\nif left_sidebar_enabled and right_sidebar_enabled: width_content=\'63%\'\nelif left_sidebar_enabled != right_sidebar_enabled: width_content=\'740px\'\nelse: width_content=\'100%\'\nif left_sidebar_enabled: left_sidebar_style = \'style="display: block;"\'\nelse: left_sidebar_style = \'style="display: none;"\'\nif right_sidebar_enabled: right_sidebar_style = \'style="display: block;"\'\nelse: right_sidebar_style = \'style="display: none;"\'\nstyle_content = \'style="width: %s"\' % width_content\nresponse.write(\'\\n    \\n    <!-- uncomment here to load jquery-ui -->\\n    \\n    <link rel="stylesheet" href="http://ajax.googleapis.com/ajax/libs/jqueryui/1.8.16/themes/base/jquery-ui.css" type="text/css" media="all" />\\n    <script src="http://ajax.googleapis.com/ajax/libs/jqueryui/1.8.16/jquery-ui.min.js" type="text/javascript"></script>\\n    \\n   <!-- uncomment to load jquery-ui -->\\n    \\n    \\n  </head>\\n  \\n  <!-- paulirish.com/2008/conditional-stylesheets-vs-css-hacks-answer-neither/ -->  \\n  <!--[if lt IE 7 ]> <body class="ie6"> <![endif]-->\\n  <!--[if IE 7 ]>    <body class="ie7"> <![endif]-->\\n  <!--[if IE 8 ]>    <body class="ie8"> <![endif]-->\\n  <!--[if IE 9 ]>    <body class="ie9"> <![endif]-->\\n  <!--[if (gt IE 9)|!(IE)]><!--> <body> <!--<![endif]-->\\n    \\n    <div class="flash">\', escape=False)\nresponse.write(response.flash or \'\')\nresponse.write(\'</div> <!-- notification div -->\\n\\n        \\n\\n    <div id="container">                        \\n      \\n      <div id="wrapper">        \\n      \', escape=False)\ntry:\n    response.write(auth.navbar(action=URL(\'default\',\'user\')))\nexcept:pass\nresponse.write(\'\\n    \\n    <div id="header"> <!-- header and login nav -->\\n      \', escape=False)\nresponse.write(\' <!-- this is default header -->\\n      \\n      <h1>\\n        DDLagoon <span id="appname"> The lagoon of DDL</span>\\n      </h1>\\n      <div style="clear: both;"></div><!-- Clear the divs -->\\n      \', escape=False)\nresponse.write(\'\\n    </div><!-- header  -->\\n    \\n\\n    \\n    <div id="page"> <!-- Here my central body -->     \\n\\n      \', escape=False)\nif left_sidebar_enabled:\n    response.write(\'\\n          <div id="left_sidebar" \', escape=False)\n    response.write(XML(left_sidebar_style))\n    response.write(\' >\\n            <div style="padding: 4px;">\\n          \', escape=False)\n    response.write(\'<a href="/ddlagoon/default">Home</a> \', escape=False)\n    response.write(\'       \\n            </div>\\n          </div><!-- left_sidebar -->\\n      \', escape=False)\n    pass\nresponse.write(\'\\n\\n      <!-- content -->\\n      <div id="content" \', escape=False)\nresponse.write(XML(style_content))\nresponse.write(\' >\\n        \', escape=False)\nresponse.write(\'\\r\\n\', escape=False)\nif allowed:\n    response.write(\'\\r\\n        \', escape=False)\n    response.write(allowed)\n    response.write(\'\\r\\n        Aller, on va apprendre \\xc3\\xa0 uploader ;)<br /><br />\\r\\n\\r\\n        <b><u>Table des mati\\xc3\\xa8res</u><br />\\r\\n            <a href="#twitter">Twitter Account</a><br />\\r\\n        <a href="#param">Param\\xc3\\xa8tres du programme</a><br />\\r\\n        &nbsp;&nbsp;&nbsp;&nbsp;<a href="#twitpic">Twitpic Account</a><br />\\r\\n        &nbsp;&nbsp;&nbsp;&nbsp;<a href="#pictures">Pictures Folder</a><br />\\r\\n        </b><br /><br />\\r\\n\\r\\n\\r\\n        <h1><a name="twitter"></a>Twitter Account</h1>\\r\\n        Tout d\\\'abord, il nous faut un compte Twitter.<br />\\r\\n        Utilisez un <b>COMPTE TWITTER BIDON</b> que vous n\\\'utilisez pas, que vous allez cr\\xc3\\xa9er pour l\\\'occasion, <u>et changer de temps en temps</u>.<br />\\r\\n        Allez sur <a href="http://www.twitter.com" target="_blank">Twitter.com</a> et cr\\xc3\\xa9ez un compte bidon, avec une adresse de type <b>un_mail_bidon@yopmail.com</b>.<br />\\r\\n        <u>Exemple:</u><br />\\r\\n        <img src="http://content.screencast.com/users/Sp00ky31/folders/Jing/media/98ca5436-e535-481a-80f2-ee6d1a31fc65/2011-11-08_2213.png" /><br />\\r\\n        <img src="http://content.screencast.com/users/Sp00ky31/folders/Jing/media/e8d1824e-323d-42a8-a4f9-f76dba200c0e/2011-11-08_2214.png" /><br /><br />\\r\\n        Allez sur http://<b>un_mail_bidon</b>.yopmail.com (en remplacant un_mail_bidon par votre email yopmail sans le "@yopmail.com") et confirmez votre e-mail addresse.<br />\\r\\n        <img src="http://content.screencast.com/users/Sp00ky31/folders/Jing/media/80e86354-8ee4-428c-9c4a-9b594f2f2033/2011-11-08_2219.png" /><br /><br />\\r\\n        Votre compte Twitter est cr\\xc3\\xa9\\xc3\\xa9 et le mail confirm\\xc3\\xa9 !<br />\\r\\n        <img src="http://content.screencast.com/users/Sp00ky31/folders/Jing/media/e21c4f1c-fd1c-4627-845c-cc301de06bb2/2011-11-08_2221.png" /><br /><br />\\r\\n        Time to go sur <a href="http://www.twitpic.com">TwitPic</a> et de se connecter avec le compte Twitter fra\\xc3\\xaechement cr\\xc3\\xa9\\xc3\\xa9.<br />\\r\\n        <!-- copy and paste. Modify height and width if desired. --> <object id="scPlayer"  width="1215" height="845" type="application/x-shockwave-flash" data="http://content.screencast.com/users/Sp00ky31/folders/Jing/media/6df58711-7d88-4d3e-978c-58596e7e35ff/jingswfplayer.swf" > <param name="movie" value="http://content.screencast.com/users/Sp00ky31/folders/Jing/media/6df58711-7d88-4d3e-978c-58596e7e35ff/jingswfplayer.swf" /> <param name="quality" value="high" /> <param name="bgcolor" value="#FFFFFF" /> <param name="flashVars" value="thumb=http://content.screencast.com/users/Sp00ky31/folders/Jing/media/6df58711-7d88-4d3e-978c-58596e7e35ff/FirstFrame.jpg&containerwidth=1215&containerheight=845&content=http://content.screencast.com/users/Sp00ky31/folders/Jing/media/6df58711-7d88-4d3e-978c-58596e7e35ff/2011-11-08_2224.swf&blurover=false" /> <param name="allowFullScreen" value="true" /> <param name="scale" value="showall" /> <param name="allowScriptAccess" value="always" /> <param name="base" value="http://content.screencast.com/users/Sp00ky31/folders/Jing/media/6df58711-7d88-4d3e-978c-58596e7e35ff/" /> Unable to display content. Adobe Flash is required.</object>\\r\\n        <br /><br />\\r\\n        Si tout a bien fonctionn\\xc3\\xa9, vous \\xc3\\xaates connect\\xc3\\xa9 avec votre compte Twitter sous Twitpic, pr\\xc3\\xaat \\xc3\\xa0 utiliser ce compte pour uploader !<br />\\r\\n        <img src="http://content.screencast.com/users/Sp00ky31/folders/Jing/media/91cf414b-7557-403c-beaa-c21778aa2fb3/2011-11-08_2226.png" />\\r\\n<br /><br />\\r\\n        <h1><a name="param"></a>Param\\xc3\\xa8tres du programme</h1>\\r\\n        <h2><a name="twitpic"></a>Twitpic Account</h2>\\r\\n        \', escape=False)\n    response.write(tuto[\'start\'])\n    response.write(\'<br />\\r\\n        <img src="/ddlagoon/static/images/tuto_upload/01.png" /><br /><br />\\r\\n        \', escape=False)\n    response.write(tuto[\'go_to_profile_pre\'])\n    response.write(\' <a href="/ddlagoon/default/user/profile" target="_blank">\', escape=False)\n    response.write(tuto[\'profile\'])\n    response.write(\'</a> \', escape=False)\n    response.write(tuto[\'go_to_profile_suf\'])\n    response.write(\'<br /><br />\\r\\n        \', escape=False)\n    response.write(tuto[\'login\'])\n    response.write(\'<br />\\r\\n        <img src="http://content.screencast.com/users/Sp00ky31/folders/Jing/media/5ba743b3-efe8-4a04-a522-d7da8e6a74a2/2011-11-08_2132.png" /><br /><br />\\r\\n        \', escape=False)\n    response.write(tuto[\'go_to_settings\'])\n    response.write(\'<br />\\r\\n        <img src="http://content.screencast.com/users/Sp00ky31/folders/Jing/media/1af6f8de-da2c-43fd-8aa3-bb0b6a6bce32/2011-11-08_2207.png" /><br /><br />\\r\\n        Et mettez \\xc3\\xa0 jour avec votre compte Twitter/Twitpic fra\\xc3\\xaechement cr\\xc3\\xa9\\xc3\\xa9 !<br />\\r\\n        <u>Best practice:</u> Renouveller souvent son compte Twitter/Twitpic !\\r\\n        <h2><a name="pictures"></a>Pictures Folder</h2>\\r\\n        Eh oui, comme on utilise Twitpic, il nous faut <i>cacher</i> nos fichiers dans des images.<br />\\r\\n        Il vous faut donc sp\\xc3\\xa9cifier un dossier <b>avec beaucoup d\\\'images</b>, de pr\\xc3\\xa9f\\xc3\\xa9rence <b>entre 100 Kb et 2 Mb</b> (maximum: 4 Mb, formats reconnus : jpg gif png).<br />\\r\\n        Le programme reconna\\xc3\\xaetra tout seul les sous-dossiers, vous pouvez donc juste indiquer la racine d\\\'un dossier contenant des images.<br />\\r\\n        Ces images seront <b>PUBLIQUES</b>, (que tout le monde puisse les t\\xc3\\xa9l\\xc3\\xa9charger pour reconstituer les fichiers cach\\xc3\\xa9s dedans), ne mettez donc pas de photos personnelles dedans !!!<br />\\r\\n        Je vous ai upload\\xc3\\xa9 un <a href="http://www.mediafire.com/?n10u91g52057b10" target="_blank"><b>pack d\\\'images</b></a> (175 Mb) que vous pouvez utiliser.\\r\\n        <u>Best practice:</u> Renouveller souvent les images de ce dossier.<br /><br />\\r\\n        Enfin il suffit de glisser/d\\xc3\\xa9poser les fichiers \\xc3\\xa0 uploader et cliquer sur START !\\r\\n\', escape=False)\n    else\n    response.write(\'\\r\\n        You are not allowed to upload!\\r\\n\', escape=False)\n    pass\nresponse.write(\'\\r\\n\', escape=False)\nresponse.write(\'\\r\\n\', escape=False)\nresponse.write(\'\\r\\n\', escape=False)\nresponse.write(\' \\n      </div>\\n      <!-- content -->\\n\\n      \', escape=False)\nif right_sidebar_enabled:\n    response.write(\'\\n          <div id="right_sidebar" \', escape=False)\n    response.write(XML(right_sidebar_style))\n    response.write(\' >\\n            <div style="padding: 4px;">\\n              \', escape=False)\n    response.write(\'\\n            </div>\\n      </div><!-- right_sidebar -->\\n          \', escape=False)\n    pass\nresponse.write(\'\\n\\n\\n      <div style="clear: both;"></div><!-- Clear the divs -->\\n      \\n    </div><!-- page -->                         \\n    \\n    <div id="footer">\\n      \', escape=False)\nresponse.write(\' <!-- this is default footer -->\\n      <span style="float: left; padding-right: 6px;">\\n        <a href="/ddlagoon/default">DDLagoon</a>\\n      </span>\\n\\n        <span style="float: right; padding-right: 6px;">\', escape=False)\nresponse.write(T(\'Copyright\'))\nresponse.write(\' &#169; 2011</span>\\n      <div style="clear: both;"></div><!-- Clear the divs -->\\n      \', escape=False)\nresponse.write(\'\\n\\n    </div><!-- footer -->           \\n      </div><!-- wrapper -->\\n    </div><!-- container -->        \\n    \\n    <!--[if lt IE 7 ]>\\n    <script src="\', escape=False)\nresponse.write(URL(\'static\',\'js/dd_belatedpng.js\'))\nresponse.write(\'"></script>\\n    <script> DD_belatedPNG.fix(\\\'img, .png_bg\\\'); //fix any <img> or .png_bg background-images </script>\\n    <![endif]-->\\n    \', escape=False)\nif response.google_analytics_id:\n    response.write("<script>/* http://mathiasbynens.be/notes/async-analytics-snippet */ var _gaq=[[\'_setAccount\',\'", escape=False)\n    response.write(response.google_analyitics_id)\n    response.write("\'],[\'_trackPageview\']];(function(d,t){var g=d.createElement(t),s=d.getElementsByTagName(t)[0];g.src=\'//www.google-analytics.com/ga.js\';s.parentNode.insertBefore(g,s)}(document,\'script\')) </script>", escape=False)\n    pass\nresponse.write(\'\\n  </body>\\n</html>\\n\', escape=False)'
p6
sS'snapshot'
p7
(dp8
S'exception'
p9
(dp10
S'__getslice__'
p11
S"<method-wrapper '__getslice__' of exceptions.SyntaxError object>"
p12
sS'text'
p13
S"'    else\\n'"
p14
sS'__str__'
p15
S"<method-wrapper '__str__' of exceptions.SyntaxError object>"
p16
sS'__reduce__'
p17
S'<built-in method __reduce__ of exceptions.SyntaxError object>'
p18
sS'__dict__'
p19
S'{}'
p20
sS'__sizeof__'
p21
S'<built-in method __sizeof__ of exceptions.SyntaxError object>'
p22
sS'__init__'
p23
S"<method-wrapper '__init__' of exceptions.SyntaxError object>"
p24
sS'__setattr__'
p25
S"<method-wrapper '__setattr__' of exceptions.SyntaxError object>"
p26
sS'__reduce_ex__'
p27
S'<built-in method __reduce_ex__ of exceptions.SyntaxError object>'
p28
sS'__new__'
p29
S'<built-in method __new__ of type object>'
p30
sS'__format__'
p31
S'<built-in method __format__ of exceptions.SyntaxError object>'
p32
sS'__class__'
p33
S"<type 'exceptions.SyntaxError'>"
p34
sS'filename'
p35
S"'/windows/Users/Thomas/Dropbox/appz/2011/ddlagoon...cations/ddlagoon/views/default/how_to_upload.html'"
p36
sS'lineno'
p37
S'90'
p38
sS'msg'
p39
S"'invalid syntax'"
p40
sS'__doc__'
p41
S"'Invalid syntax.'"
p42
sS'__getitem__'
p43
S"<method-wrapper '__getitem__' of exceptions.SyntaxError object>"
p44
sS'__setstate__'
p45
S'<built-in method __setstate__ of exceptions.SyntaxError object>'
p46
sS'__getattribute__'
p47
S"<method-wrapper '__getattribute__' of exceptions.SyntaxError object>"
p48
sS'print_file_and_line'
p49
S'None'
p50
sS'args'
p51
S"('invalid syntax', ('/windows/Users/Thomas/Dropbox/appz/2011/ddlagoon...cations/ddlagoon/views/default/how_to_upload.html', 90, 8, '    else\\n'))"
p52
sS'__subclasshook__'
p53
S'<built-in method __subclasshook__ of type object>'
p54
sS'offset'
p55
S'8'
sS'__unicode__'
p56
S'<built-in method __unicode__ of exceptions.SyntaxError object>'
p57
sS'__delattr__'
p58
S"<method-wrapper '__delattr__' of exceptions.SyntaxError object>"
p59
sS'__repr__'
p60
S"<method-wrapper '__repr__' of exceptions.SyntaxError object>"
p61
sS'__hash__'
p62
S"<method-wrapper '__hash__' of exceptions.SyntaxError object>"
p63
ssS'evalue'
p64
S'invalid syntax (how_to_upload.html, line 90)'
p65
sS'request'
p66
ccopy_reg
_reconstructor
p67
(cgluon.html
BEAUTIFY
p68
c__builtin__
object
p69
NtRp70
(dp71
S'attributes'
p72
(dp73
sS'components'
p74
(lp75
g67
(cgluon.html
TABLE
p76
g69
NtRp77
(dp78
g72
(dp79
S'level'
p80
I5
ssS'parent'
p81
Nsg74
(lp82
g67
(cgluon.html
TR
p83
g69
NtRp84
(dp85
g72
(dp86
sg81
g77
sg74
(lp87
g67
(cgluon.html
TD
p88
g69
NtRp89
(dp90
g72
(dp91
S'_style'
p92
S'font-weight:bold;'
p93
ssg81
g84
sg74
(lp94
S'ajax'
p95
asbag67
(g88
g69
NtRp96
(dp97
g72
(dp98
S'_valign'
p99
S'top'
p100
ssg81
g84
sg74
(lp101
S':'
asbag67
(g88
g69
NtRp102
(dp103
g72
(dp104
sg81
g84
sg74
(lp105
g67
(g68
g69
NtRp106
(dp107
g72
(dp108
g80
I5
ssg81
g102
sg74
(lp109
S'False'
p110
asbasbasbag67
(g83
g69
NtRp111
(dp112
g72
(dp113
sg81
g77
sg74
(lp114
g67
(g88
g69
NtRp115
(dp116
g72
(dp117
g92
g93
ssg81
g111
sg74
(lp118
S'application'
p119
asbag67
(g88
g69
NtRp120
(dp121
g72
(dp122
g99
g100
ssg81
g111
sg74
(lp123
S':'
asbag67
(g88
g69
NtRp124
(dp125
g72
(dp126
sg81
g111
sg74
(lp127
g67
(g68
g69
NtRp128
(dp129
g72
(dp130
g80
I5
ssg81
g124
sg74
(lp131
S'ddlagoon'
p132
asbasbasbag67
(g83
g69
NtRp133
(dp134
g72
(dp135
sg81
g77
sg74
(lp136
g67
(g88
g69
NtRp137
(dp138
g72
(dp139
g92
g93
ssg81
g133
sg74
(lp140
g51
asbag67
(g88
g69
NtRp141
(dp142
g72
(dp143
g99
g100
ssg81
g133
sg74
(lp144
S':'
asbag67
(g88
g69
NtRp145
(dp146
g72
(dp147
sg81
g133
sg74
(lp148
g67
(g68
g69
NtRp149
(dp150
g72
(dp151
g80
I5
ssg81
g145
sg74
(lp152
g67
(g76
g69
NtRp153
(dp154
g72
(dp155
g80
I4
ssg81
Nsg74
(lp156
sbasbasbasbag67
(g83
g69
NtRp157
(dp158
g72
(dp159
sg81
g77
sg74
(lp160
g67
(g88
g69
NtRp161
(dp162
g72
(dp163
g92
g93
ssg81
g157
sg74
(lp164
S'body'
p165
asbag67
(g88
g69
NtRp166
(dp167
g72
(dp168
g99
g100
ssg81
g157
sg74
(lp169
S':'
asbag67
(g88
g69
NtRp170
(dp171
g72
(dp172
sg81
g157
sg74
(lp173
g67
(g68
g69
NtRp174
(dp175
g72
(dp176
g80
I5
ssg81
g170
sg74
(lp177
S'<cStringIO.StringO object at 0xfccae8>'
p178
asbasbasbag67
(g83
g69
NtRp179
(dp180
g72
(dp181
sg81
g77
sg74
(lp182
g67
(g88
g69
NtRp183
(dp184
g72
(dp185
g92
g93
ssg81
g179
sg74
(lp186
S'client'
p187
asbag67
(g88
g69
NtRp188
(dp189
g72
(dp190
g99
g100
ssg81
g179
sg74
(lp191
S':'
asbag67
(g88
g69
NtRp192
(dp193
g72
(dp194
sg81
g179
sg74
(lp195
g67
(g68
g69
NtRp196
(dp197
g72
(dp198
g80
I5
ssg81
g192
sg74
(lp199
S'127.0.0.1'
p200
asbasbasbag67
(g83
g69
NtRp201
(dp202
g72
(dp203
sg81
g77
sg74
(lp204
g67
(g88
g69
NtRp205
(dp206
g72
(dp207
g92
g93
ssg81
g201
sg74
(lp208
S'controller'
p209
asbag67
(g88
g69
NtRp210
(dp211
g72
(dp212
g99
g100
ssg81
g201
sg74
(lp213
S':'
asbag67
(g88
g69
NtRp214
(dp215
g72
(dp216
sg81
g201
sg74
(lp217
g67
(g68
g69
NtRp218
(dp219
g72
(dp220
g80
I5
ssg81
g214
sg74
(lp221
S'default'
p222
asbasbasbag67
(g83
g69
NtRp223
(dp224
g72
(dp225
sg81
g77
sg74
(lp226
g67
(g88
g69
NtRp227
(dp228
g72
(dp229
g92
g93
ssg81
g223
sg74
(lp230
S'cookies'
p231
asbag67
(g88
g69
NtRp232
(dp233
g72
(dp234
g99
g100
ssg81
g223
sg74
(lp235
S':'
asbag67
(g88
g69
NtRp236
(dp237
g72
(dp238
sg81
g223
sg74
(lp239
g67
(g68
g69
NtRp240
(dp241
g72
(dp242
g80
I5
ssg81
g236
sg74
(lp243
g67
(g76
g69
NtRp244
(dp245
g72
(dp246
g80
I4
ssg81
Nsg74
(lp247
g67
(g83
g69
NtRp248
(dp249
g72
(dp250
sg81
g244
sg74
(lp251
g67
(g88
g69
NtRp252
(dp253
g72
(dp254
g92
g93
ssg81
g248
sg74
(lp255
S'session_id_admin'
p256
asbag67
(g88
g69
NtRp257
(dp258
g72
(dp259
g99
g100
ssg81
g248
sg74
(lp260
S':'
asbag67
(g88
g69
NtRp261
(dp262
g72
(dp263
sg81
g248
sg74
(lp264
g67
(g68
g69
NtRp265
(dp266
g72
(dp267
g80
I4
ssg81
g261
sg74
(lp268
g67
(g76
g69
NtRp269
(dp270
g72
(dp271
g80
I3
ssg81
Nsg74
(lp272
g67
(g83
g69
NtRp273
(dp274
g72
(dp275
sg81
g269
sg74
(lp276
g67
(g88
g69
NtRp277
(dp278
g72
(dp279
g92
g93
ssg81
g273
sg74
(lp280
S'comment'
p281
asbag67
(g88
g69
NtRp282
(dp283
g72
(dp284
g99
g100
ssg81
g273
sg74
(lp285
S':'
asbag67
(g88
g69
NtRp286
(dp287
g72
(dp288
sg81
g273
sg74
(lp289
g67
(g68
g69
NtRp290
(dp291
g72
(dp292
g80
I3
ssg81
g286
sg74
(lp293
S''
asbasbasbag67
(g83
g69
NtRp294
(dp295
g72
(dp296
sg81
g269
sg74
(lp297
g67
(g88
g69
NtRp298
(dp299
g72
(dp300
g92
g93
ssg81
g294
sg74
(lp301
S'domain'
p302
asbag67
(g88
g69
NtRp303
(dp304
g72
(dp305
g99
g100
ssg81
g294
sg74
(lp306
S':'
asbag67
(g88
g69
NtRp307
(dp308
g72
(dp309
sg81
g294
sg74
(lp310
g67
(g68
g69
NtRp311
(dp312
g72
(dp313
g80
I3
ssg81
g307
sg74
(lp314
S''
asbasbasbag67
(g83
g69
NtRp315
(dp316
g72
(dp317
sg81
g269
sg74
(lp318
g67
(g88
g69
NtRp319
(dp320
g72
(dp321
g92
g93
ssg81
g315
sg74
(lp322
S'expires'
p323
asbag67
(g88
g69
NtRp324
(dp325
g72
(dp326
g99
g100
ssg81
g315
sg74
(lp327
S':'
asbag67
(g88
g69
NtRp328
(dp329
g72
(dp330
sg81
g315
sg74
(lp331
g67
(g68
g69
NtRp332
(dp333
g72
(dp334
g80
I3
ssg81
g328
sg74
(lp335
S''
asbasbasbag67
(g83
g69
NtRp336
(dp337
g72
(dp338
sg81
g269
sg74
(lp339
g67
(g88
g69
NtRp340
(dp341
g72
(dp342
g92
g93
ssg81
g336
sg74
(lp343
S'httponly'
p344
asbag67
(g88
g69
NtRp345
(dp346
g72
(dp347
g99
g100
ssg81
g336
sg74
(lp348
S':'
asbag67
(g88
g69
NtRp349
(dp350
g72
(dp351
sg81
g336
sg74
(lp352
g67
(g68
g69
NtRp353
(dp354
g72
(dp355
g80
I3
ssg81
g349
sg74
(lp356
S''
asbasbasbag67
(g83
g69
NtRp357
(dp358
g72
(dp359
sg81
g269
sg74
(lp360
g67
(g88
g69
NtRp361
(dp362
g72
(dp363
g92
g93
ssg81
g357
sg74
(lp364
S'max-age'
p365
asbag67
(g88
g69
NtRp366
(dp367
g72
(dp368
g99
g100
ssg81
g357
sg74
(lp369
S':'
asbag67
(g88
g69
NtRp370
(dp371
g72
(dp372
sg81
g357
sg74
(lp373
g67
(g68
g69
NtRp374
(dp375
g72
(dp376
g80
I3
ssg81
g370
sg74
(lp377
S''
asbasbasbag67
(g83
g69
NtRp378
(dp379
g72
(dp380
sg81
g269
sg74
(lp381
g67
(g88
g69
NtRp382
(dp383
g72
(dp384
g92
g93
ssg81
g378
sg74
(lp385
S'path'
p386
asbag67
(g88
g69
NtRp387
(dp388
g72
(dp389
g99
g100
ssg81
g378
sg74
(lp390
S':'
asbag67
(g88
g69
NtRp391
(dp392
g72
(dp393
sg81
g378
sg74
(lp394
g67
(g68
g69
NtRp395
(dp396
g72
(dp397
g80
I3
ssg81
g391
sg74
(lp398
S''
asbasbasbag67
(g83
g69
NtRp399
(dp400
g72
(dp401
sg81
g269
sg74
(lp402
g67
(g88
g69
NtRp403
(dp404
g72
(dp405
g92
g93
ssg81
g399
sg74
(lp406
S'secure'
p407
asbag67
(g88
g69
NtRp408
(dp409
g72
(dp410
g99
g100
ssg81
g399
sg74
(lp411
S':'
asbag67
(g88
g69
NtRp412
(dp413
g72
(dp414
sg81
g399
sg74
(lp415
g67
(g68
g69
NtRp416
(dp417
g72
(dp418
g80
I3
ssg81
g412
sg74
(lp419
S''
asbasbasbag67
(g83
g69
NtRp420
(dp421
g72
(dp422
sg81
g269
sg74
(lp423
g67
(g88
g69
NtRp424
(dp425
g72
(dp426
g92
g93
ssg81
g420
sg74
(lp427
S'version'
p428
asbag67
(g88
g69
NtRp429
(dp430
g72
(dp431
g99
g100
ssg81
g420
sg74
(lp432
S':'
asbag67
(g88
g69
NtRp433
(dp434
g72
(dp435
sg81
g420
sg74
(lp436
g67
(g68
g69
NtRp437
(dp438
g72
(dp439
g80
I3
ssg81
g433
sg74
(lp440
S''
asbasbasbasbasbasbasbag67
(g83
g69
NtRp441
(dp442
g72
(dp443
sg81
g244
sg74
(lp444
g67
(g88
g69
NtRp445
(dp446
g72
(dp447
g92
g93
ssg81
g441
sg74
(lp448
S'session_id_ddlagoon'
p449
asbag67
(g88
g69
NtRp450
(dp451
g72
(dp452
g99
g100
ssg81
g441
sg74
(lp453
S':'
asbag67
(g88
g69
NtRp454
(dp455
g72
(dp456
sg81
g441
sg74
(lp457
g67
(g68
g69
NtRp458
(dp459
g72
(dp460
g80
I4
ssg81
g454
sg74
(lp461
g67
(g76
g69
NtRp462
(dp463
g72
(dp464
g80
I3
ssg81
Nsg74
(lp465
g67
(g83
g69
NtRp466
(dp467
g72
(dp468
sg81
g462
sg74
(lp469
g67
(g88
g69
NtRp470
(dp471
g72
(dp472
g92
g93
ssg81
g466
sg74
(lp473
g281
asbag67
(g88
g69
NtRp474
(dp475
g72
(dp476
g99
g100
ssg81
g466
sg74
(lp477
S':'
asbag67
(g88
g69
NtRp478
(dp479
g72
(dp480
sg81
g466
sg74
(lp481
g67
(g68
g69
NtRp482
(dp483
g72
(dp484
g80
I3
ssg81
g478
sg74
(lp485
S''
asbasbasbag67
(g83
g69
NtRp486
(dp487
g72
(dp488
sg81
g462
sg74
(lp489
g67
(g88
g69
NtRp490
(dp491
g72
(dp492
g92
g93
ssg81
g486
sg74
(lp493
g302
asbag67
(g88
g69
NtRp494
(dp495
g72
(dp496
g99
g100
ssg81
g486
sg74
(lp497
S':'
asbag67
(g88
g69
NtRp498
(dp499
g72
(dp500
sg81
g486
sg74
(lp501
g67
(g68
g69
NtRp502
(dp503
g72
(dp504
g80
I3
ssg81
g498
sg74
(lp505
S''
asbasbasbag67
(g83
g69
NtRp506
(dp507
g72
(dp508
sg81
g462
sg74
(lp509
g67
(g88
g69
NtRp510
(dp511
g72
(dp512
g92
g93
ssg81
g506
sg74
(lp513
g323
asbag67
(g88
g69
NtRp514
(dp515
g72
(dp516
g99
g100
ssg81
g506
sg74
(lp517
S':'
asbag67
(g88
g69
NtRp518
(dp519
g72
(dp520
sg81
g506
sg74
(lp521
g67
(g68
g69
NtRp522
(dp523
g72
(dp524
g80
I3
ssg81
g518
sg74
(lp525
S''
asbasbasbag67
(g83
g69
NtRp526
(dp527
g72
(dp528
sg81
g462
sg74
(lp529
g67
(g88
g69
NtRp530
(dp531
g72
(dp532
g92
g93
ssg81
g526
sg74
(lp533
g344
asbag67
(g88
g69
NtRp534
(dp535
g72
(dp536
g99
g100
ssg81
g526
sg74
(lp537
S':'
asbag67
(g88
g69
NtRp538
(dp539
g72
(dp540
sg81
g526
sg74
(lp541
g67
(g68
g69
NtRp542
(dp543
g72
(dp544
g80
I3
ssg81
g538
sg74
(lp545
S''
asbasbasbag67
(g83
g69
NtRp546
(dp547
g72
(dp548
sg81
g462
sg74
(lp549
g67
(g88
g69
NtRp550
(dp551
g72
(dp552
g92
g93
ssg81
g546
sg74
(lp553
g365
asbag67
(g88
g69
NtRp554
(dp555
g72
(dp556
g99
g100
ssg81
g546
sg74
(lp557
S':'
asbag67
(g88
g69
NtRp558
(dp559
g72
(dp560
sg81
g546
sg74
(lp561
g67
(g68
g69
NtRp562
(dp563
g72
(dp564
g80
I3
ssg81
g558
sg74
(lp565
S''
asbasbasbag67
(g83
g69
NtRp566
(dp567
g72
(dp568
sg81
g462
sg74
(lp569
g67
(g88
g69
NtRp570
(dp571
g72
(dp572
g92
g93
ssg81
g566
sg74
(lp573
g386
asbag67
(g88
g69
NtRp574
(dp575
g72
(dp576
g99
g100
ssg81
g566
sg74
(lp577
S':'
asbag67
(g88
g69
NtRp578
(dp579
g72
(dp580
sg81
g566
sg74
(lp581
g67
(g68
g69
NtRp582
(dp583
g72
(dp584
g80
I3
ssg81
g578
sg74
(lp585
S''
asbasbasbag67
(g83
g69
NtRp586
(dp587
g72
(dp588
sg81
g462
sg74
(lp589
g67
(g88
g69
NtRp590
(dp591
g72
(dp592
g92
g93
ssg81
g586
sg74
(lp593
g407
asbag67
(g88
g69
NtRp594
(dp595
g72
(dp596
g99
g100
ssg81
g586
sg74
(lp597
S':'
asbag67
(g88
g69
NtRp598
(dp599
g72
(dp600
sg81
g586
sg74
(lp601
g67
(g68
g69
NtRp602
(dp603
g72
(dp604
g80
I3
ssg81
g598
sg74
(lp605
S''
asbasbasbag67
(g83
g69
NtRp606
(dp607
g72
(dp608
sg81
g462
sg74
(lp609
g67
(g88
g69
NtRp610
(dp611
g72
(dp612
g92
g93
ssg81
g606
sg74
(lp613
g428
asbag67
(g88
g69
NtRp614
(dp615
g72
(dp616
g99
g100
ssg81
g606
sg74
(lp617
S':'
asbag67
(g88
g69
NtRp618
(dp619
g72
(dp620
sg81
g606
sg74
(lp621
g67
(g68
g69
NtRp622
(dp623
g72
(dp624
g80
I3
ssg81
g618
sg74
(lp625
S''
asbasbasbasbasbasbasbag67
(g83
g69
NtRp626
(dp627
g72
(dp628
sg81
g244
sg74
(lp629
g67
(g88
g69
NtRp630
(dp631
g72
(dp632
g92
g93
ssg81
g626
sg74
(lp633
S'session_id_welcome'
p634
asbag67
(g88
g69
NtRp635
(dp636
g72
(dp637
g99
g100
ssg81
g626
sg74
(lp638
S':'
asbag67
(g88
g69
NtRp639
(dp640
g72
(dp641
sg81
g626
sg74
(lp642
g67
(g68
g69
NtRp643
(dp644
g72
(dp645
g80
I4
ssg81
g639
sg74
(lp646
g67
(g76
g69
NtRp647
(dp648
g72
(dp649
g80
I3
ssg81
Nsg74
(lp650
g67
(g83
g69
NtRp651
(dp652
g72
(dp653
sg81
g647
sg74
(lp654
g67
(g88
g69
NtRp655
(dp656
g72
(dp657
g92
g93
ssg81
g651
sg74
(lp658
g281
asbag67
(g88
g69
NtRp659
(dp660
g72
(dp661
g99
g100
ssg81
g651
sg74
(lp662
S':'
asbag67
(g88
g69
NtRp663
(dp664
g72
(dp665
sg81
g651
sg74
(lp666
g67
(g68
g69
NtRp667
(dp668
g72
(dp669
g80
I3
ssg81
g663
sg74
(lp670
S''
asbasbasbag67
(g83
g69
NtRp671
(dp672
g72
(dp673
sg81
g647
sg74
(lp674
g67
(g88
g69
NtRp675
(dp676
g72
(dp677
g92
g93
ssg81
g671
sg74
(lp678
g302
asbag67
(g88
g69
NtRp679
(dp680
g72
(dp681
g99
g100
ssg81
g671
sg74
(lp682
S':'
asbag67
(g88
g69
NtRp683
(dp684
g72
(dp685
sg81
g671
sg74
(lp686
g67
(g68
g69
NtRp687
(dp688
g72
(dp689
g80
I3
ssg81
g683
sg74
(lp690
S''
asbasbasbag67
(g83
g69
NtRp691
(dp692
g72
(dp693
sg81
g647
sg74
(lp694
g67
(g88
g69
NtRp695
(dp696
g72
(dp697
g92
g93
ssg81
g691
sg74
(lp698
g323
asbag67
(g88
g69
NtRp699
(dp700
g72
(dp701
g99
g100
ssg81
g691
sg74
(lp702
S':'
asbag67
(g88
g69
NtRp703
(dp704
g72
(dp705
sg81
g691
sg74
(lp706
g67
(g68
g69
NtRp707
(dp708
g72
(dp709
g80
I3
ssg81
g703
sg74
(lp710
S''
asbasbasbag67
(g83
g69
NtRp711
(dp712
g72
(dp713
sg81
g647
sg74
(lp714
g67
(g88
g69
NtRp715
(dp716
g72
(dp717
g92
g93
ssg81
g711
sg74
(lp718
g344
asbag67
(g88
g69
NtRp719
(dp720
g72
(dp721
g99
g100
ssg81
g711
sg74
(lp722
S':'
asbag67
(g88
g69
NtRp723
(dp724
g72
(dp725
sg81
g711
sg74
(lp726
g67
(g68
g69
NtRp727
(dp728
g72
(dp729
g80
I3
ssg81
g723
sg74
(lp730
S''
asbasbasbag67
(g83
g69
NtRp731
(dp732
g72
(dp733
sg81
g647
sg74
(lp734
g67
(g88
g69
NtRp735
(dp736
g72
(dp737
g92
g93
ssg81
g731
sg74
(lp738
g365
asbag67
(g88
g69
NtRp739
(dp740
g72
(dp741
g99
g100
ssg81
g731
sg74
(lp742
S':'
asbag67
(g88
g69
NtRp743
(dp744
g72
(dp745
sg81
g731
sg74
(lp746
g67
(g68
g69
NtRp747
(dp748
g72
(dp749
g80
I3
ssg81
g743
sg74
(lp750
S''
asbasbasbag67
(g83
g69
NtRp751
(dp752
g72
(dp753
sg81
g647
sg74
(lp754
g67
(g88
g69
NtRp755
(dp756
g72
(dp757
g92
g93
ssg81
g751
sg74
(lp758
g386
asbag67
(g88
g69
NtRp759
(dp760
g72
(dp761
g99
g100
ssg81
g751
sg74
(lp762
S':'
asbag67
(g88
g69
NtRp763
(dp764
g72
(dp765
sg81
g751
sg74
(lp766
g67
(g68
g69
NtRp767
(dp768
g72
(dp769
g80
I3
ssg81
g763
sg74
(lp770
S''
asbasbasbag67
(g83
g69
NtRp771
(dp772
g72
(dp773
sg81
g647
sg74
(lp774
g67
(g88
g69
NtRp775
(dp776
g72
(dp777
g92
g93
ssg81
g771
sg74
(lp778
g407
asbag67
(g88
g69
NtRp779
(dp780
g72
(dp781
g99
g100
ssg81
g771
sg74
(lp782
S':'
asbag67
(g88
g69
NtRp783
(dp784
g72
(dp785
sg81
g771
sg74
(lp786
g67
(g68
g69
NtRp787
(dp788
g72
(dp789
g80
I3
ssg81
g783
sg74
(lp790
S''
asbasbasbag67
(g83
g69
NtRp791
(dp792
g72
(dp793
sg81
g647
sg74
(lp794
g67
(g88
g69
NtRp795
(dp796
g72
(dp797
g92
g93
ssg81
g791
sg74
(lp798
g428
asbag67
(g88
g69
NtRp799
(dp800
g72
(dp801
g99
g100
ssg81
g791
sg74
(lp802
S':'
asbag67
(g88
g69
NtRp803
(dp804
g72
(dp805
sg81
g791
sg74
(lp806
g67
(g68
g69
NtRp807
(dp808
g72
(dp809
g80
I3
ssg81
g803
sg74
(lp810
S''
asbasbasbasbasbasbasbasbasbasbasbag67
(g83
g69
NtRp811
(dp812
g72
(dp813
sg81
g77
sg74
(lp814
g67
(g88
g69
NtRp815
(dp816
g72
(dp817
g92
g93
ssg81
g811
sg74
(lp818
S'env'
p819
asbag67
(g88
g69
NtRp820
(dp821
g72
(dp822
g99
g100
ssg81
g811
sg74
(lp823
S':'
asbag67
(g88
g69
NtRp824
(dp825
g72
(dp826
sg81
g811
sg74
(lp827
g67
(g68
g69
NtRp828
(dp829
g72
(dp830
g80
I5
ssg81
g824
sg74
(lp831
g67
(g76
g69
NtRp832
(dp833
g72
(dp834
g80
I4
ssg81
Nsg74
(lp835
g67
(g83
g69
NtRp836
(dp837
g72
(dp838
sg81
g832
sg74
(lp839
g67
(g88
g69
NtRp840
(dp841
g72
(dp842
g92
g93
ssg81
g836
sg74
(lp843
S'app_folders'
p844
asbag67
(g88
g69
NtRp845
(dp846
g72
(dp847
g99
g100
ssg81
g836
sg74
(lp848
S':'
asbag67
(g88
g69
NtRp849
(dp850
g72
(dp851
sg81
g836
sg74
(lp852
g67
(g68
g69
NtRp853
(dp854
g72
(dp855
g80
I4
ssg81
g849
sg74
(lp856
S"set(['/windows/Users/Thomas/Dropbox/appz/2011/ddlagoon/public_html/applications/ddlagoon/', '/windows/Users/Thomas/Dropbox/appz/2011/ddlagoon/public_html/applications/admin/', '/windows/Users/Thomas/Dropbox/appz/2011/ddlagoon/public_html/applications/welcome/'])"
p857
asbasbasbag67
(g83
g69
NtRp858
(dp859
g72
(dp860
sg81
g832
sg74
(lp861
g67
(g88
g69
NtRp862
(dp863
g72
(dp864
g92
g93
ssg81
g858
sg74
(lp865
S'applications_parent'
p866
asbag67
(g88
g69
NtRp867
(dp868
g72
(dp869
g99
g100
ssg81
g858
sg74
(lp870
S':'
asbag67
(g88
g69
NtRp871
(dp872
g72
(dp873
sg81
g858
sg74
(lp874
g67
(g68
g69
NtRp875
(dp876
g72
(dp877
g80
I4
ssg81
g871
sg74
(lp878
S'/windows/Users/Thomas/Dropbox/appz/2011/ddlagoon/public_html'
p879
asbasbasbag67
(g83
g69
NtRp880
(dp881
g72
(dp882
sg81
g832
sg74
(lp883
g67
(g88
g69
NtRp884
(dp885
g72
(dp886
g92
g93
ssg81
g880
sg74
(lp887
S'cmd_args'
p888
asbag67
(g88
g69
NtRp889
(dp890
g72
(dp891
g99
g100
ssg81
g880
sg74
(lp892
S':'
asbag67
(g88
g69
NtRp893
(dp894
g72
(dp895
sg81
g880
sg74
(lp896
g67
(g68
g69
NtRp897
(dp898
g72
(dp899
g80
I4
ssg81
g893
sg74
(lp900
g67
(g76
g69
NtRp901
(dp902
g72
(dp903
g80
I3
ssg81
Nsg74
(lp904
sbasbasbasbag67
(g83
g69
NtRp905
(dp906
g72
(dp907
sg81
g832
sg74
(lp908
g67
(g88
g69
NtRp909
(dp910
g72
(dp911
g92
g93
ssg81
g905
sg74
(lp912
S'cmd_options'
p913
asbag67
(g88
g69
NtRp914
(dp915
g72
(dp916
g99
g100
ssg81
g905
sg74
(lp917
S':'
asbag67
(g88
g69
NtRp918
(dp919
g72
(dp920
sg81
g905
sg74
(lp921
g67
(g68
g69
NtRp922
(dp923
g72
(dp924
g80
I4
ssg81
g918
sg74
(lp925
S"<Values at 0x1581c68: {'verbose': False, 'ip': '127.0.0.1', 'shutdown_timeout': 5, 'taskbar': False, 'nocron': False, 'pid_filename': 'httpserver.pid', 'maxthreads': None, 'softcron': False, 'server_name': 'VPCF22AJ', 'bpython': False, 'nogui': False, 'port': 8000, 'extcron': False, 'debuglevel': 30, 'test': None, 'folder': '/windows/Users/Thomas/Dropbox/appz/2011/ddlagoon/public_html', 'config': '', 'import_models': False, 'winservice': '', 'shell': None, 'run': '', 'log_filename': 'httpserver.log', 'args': [''], 'ssl_ca_certificate': None, 'scheduler': None, 'profiler_filename': None, 'ssl_private_key': '', 'password': 'admin', 'request_queue_size': 5, 'ssl_certificate': '', 'cronjob': False, 'plain': False, 'quiet': False, 'interfaces': None, 'minthreads': None, 'timeout': 10, 'numthreads': None, 'nobanner': False}>"
p926
asbasbasbag67
(g83
g69
NtRp927
(dp928
g72
(dp929
sg81
g832
sg74
(lp930
g67
(g88
g69
NtRp931
(dp932
g72
(dp933
g92
g93
ssg81
g927
sg74
(lp934
S'db_sessions'
p935
asbag67
(g88
g69
NtRp936
(dp937
g72
(dp938
g99
g100
ssg81
g927
sg74
(lp939
S':'
asbag67
(g88
g69
NtRp940
(dp941
g72
(dp942
sg81
g927
sg74
(lp943
g67
(g68
g69
NtRp944
(dp945
g72
(dp946
g80
I4
ssg81
g940
sg74
(lp947
S'set([])'
p948
asbasbasbag67
(g83
g69
NtRp949
(dp950
g72
(dp951
sg81
g832
sg74
(lp952
g67
(g88
g69
NtRp953
(dp954
g72
(dp955
g92
g93
ssg81
g949
sg74
(lp956
S'debugging'
p957
asbag67
(g88
g69
NtRp958
(dp959
g72
(dp960
g99
g100
ssg81
g949
sg74
(lp961
S':'
asbag67
(g88
g69
NtRp962
(dp963
g72
(dp964
sg81
g949
sg74
(lp965
g67
(g68
g69
NtRp966
(dp967
g72
(dp968
g80
I4
ssg81
g962
sg74
(lp969
g110
asbasbasbag67
(g83
g69
NtRp970
(dp971
g72
(dp972
sg81
g832
sg74
(lp973
g67
(g88
g69
NtRp974
(dp975
g72
(dp976
g92
g93
ssg81
g970
sg74
(lp977
S'gluon_parent'
p978
asbag67
(g88
g69
NtRp979
(dp980
g72
(dp981
g99
g100
ssg81
g970
sg74
(lp982
S':'
asbag67
(g88
g69
NtRp983
(dp984
g72
(dp985
sg81
g970
sg74
(lp986
g67
(g68
g69
NtRp987
(dp988
g72
(dp989
g80
I4
ssg81
g983
sg74
(lp990
S'/windows/Users/Thomas/Dropbox/appz/2011/ddlagoon/public_html'
p991
asbasbasbag67
(g83
g69
NtRp992
(dp993
g72
(dp994
sg81
g832
sg74
(lp995
g67
(g88
g69
NtRp996
(dp997
g72
(dp998
g92
g93
ssg81
g992
sg74
(lp999
S'http_accept'
p1000
asbag67
(g88
g69
NtRp1001
(dp1002
g72
(dp1003
g99
g100
ssg81
g992
sg74
(lp1004
S':'
asbag67
(g88
g69
NtRp1005
(dp1006
g72
(dp1007
sg81
g992
sg74
(lp1008
g67
(g68
g69
NtRp1009
(dp1010
g72
(dp1011
g80
I4
ssg81
g1005
sg74
(lp1012
S'text/html,application/xhtml+xml,application/xml;q=0.9,*/*;q=0.8'
p1013
asbasbasbag67
(g83
g69
NtRp1014
(dp1015
g72
(dp1016
sg81
g832
sg74
(lp1017
g67
(g88
g69
NtRp1018
(dp1019
g72
(dp1020
g92
g93
ssg81
g1014
sg74
(lp1021
S'http_accept_charset'
p1022
asbag67
(g88
g69
NtRp1023
(dp1024
g72
(dp1025
g99
g100
ssg81
g1014
sg74
(lp1026
S':'
asbag67
(g88
g69
NtRp1027
(dp1028
g72
(dp1029
sg81
g1014
sg74
(lp1030
g67
(g68
g69
NtRp1031
(dp1032
g72
(dp1033
g80
I4
ssg81
g1027
sg74
(lp1034
S'ISO-8859-1,utf-8;q=0.7,*;q=0.3'
p1035
asbasbasbag67
(g83
g69
NtRp1036
(dp1037
g72
(dp1038
sg81
g832
sg74
(lp1039
g67
(g88
g69
NtRp1040
(dp1041
g72
(dp1042
g92
g93
ssg81
g1036
sg74
(lp1043
S'http_accept_encoding'
p1044
asbag67
(g88
g69
NtRp1045
(dp1046
g72
(dp1047
g99
g100
ssg81
g1036
sg74
(lp1048
S':'
asbag67
(g88
g69
NtRp1049
(dp1050
g72
(dp1051
sg81
g1036
sg74
(lp1052
g67
(g68
g69
NtRp1053
(dp1054
g72
(dp1055
g80
I4
ssg81
g1049
sg74
(lp1056
S'gzip,deflate,sdch'
p1057
asbasbasbag67
(g83
g69
NtRp1058
(dp1059
g72
(dp1060
sg81
g832
sg74
(lp1061
g67
(g88
g69
NtRp1062
(dp1063
g72
(dp1064
g92
g93
ssg81
g1058
sg74
(lp1065
S'http_accept_language'
p1066
asbag67
(g88
g69
NtRp1067
(dp1068
g72
(dp1069
g99
g100
ssg81
g1058
sg74
(lp1070
S':'
asbag67
(g88
g69
NtRp1071
(dp1072
g72
(dp1073
sg81
g1058
sg74
(lp1074
g67
(g68
g69
NtRp1075
(dp1076
g72
(dp1077
g80
I4
ssg81
g1071
sg74
(lp1078
S'en-US,en;q=0.8,fr;q=0.6'
p1079
asbasbasbag67
(g83
g69
NtRp1080
(dp1081
g72
(dp1082
sg81
g832
sg74
(lp1083
g67
(g88
g69
NtRp1084
(dp1085
g72
(dp1086
g92
g93
ssg81
g1080
sg74
(lp1087
S'http_connection'
p1088
asbag67
(g88
g69
NtRp1089
(dp1090
g72
(dp1091
g99
g100
ssg81
g1080
sg74
(lp1092
S':'
asbag67
(g88
g69
NtRp1093
(dp1094
g72
(dp1095
sg81
g1080
sg74
(lp1096
g67
(g68
g69
NtRp1097
(dp1098
g72
(dp1099
g80
I4
ssg81
g1093
sg74
(lp1100
S'keep-alive'
p1101
asbasbasbag67
(g83
g69
NtRp1102
(dp1103
g72
(dp1104
sg81
g832
sg74
(lp1105
g67
(g88
g69
NtRp1106
(dp1107
g72
(dp1108
g92
g93
ssg81
g1102
sg74
(lp1109
S'http_cookie'
p1110
asbag67
(g88
g69
NtRp1111
(dp1112
g72
(dp1113
g99
g100
ssg81
g1102
sg74
(lp1114
S':'
asbag67
(g88
g69
NtRp1115
(dp1116
g72
(dp1117
sg81
g1102
sg74
(lp1118
g67
(g68
g69
NtRp1119
(dp1120
g72
(dp1121
g80
I4
ssg81
g1115
sg74
(lp1122
S'__utma_a2a=5510587673.1349489975.1317933049.1319659660.1319659660.47; session_id_welcome=127.0.0.1-286d0a26-bf08-49fa-8872-3d7fbc467c81; session_id_admin=127.0.0.1-c0b7fa09-8500-4aea-b720-4893cc278df8; session_id_ddlagoon=127.0.0.1-a8cd47ee-ccb5-4235-8c76-15b25c6b7c82'
p1123
asbasbasbag67
(g83
g69
NtRp1124
(dp1125
g72
(dp1126
sg81
g832
sg74
(lp1127
g67
(g88
g69
NtRp1128
(dp1129
g72
(dp1130
g92
g93
ssg81
g1124
sg74
(lp1131
S'http_host'
p1132
asbag67
(g88
g69
NtRp1133
(dp1134
g72
(dp1135
g99
g100
ssg81
g1124
sg74
(lp1136
S':'
asbag67
(g88
g69
NtRp1137
(dp1138
g72
(dp1139
sg81
g1124
sg74
(lp1140
g67
(g68
g69
NtRp1141
(dp1142
g72
(dp1143
g80
I4
ssg81
g1137
sg74
(lp1144
S'127.0.0.1:8000'
p1145
asbasbasbag67
(g83
g69
NtRp1146
(dp1147
g72
(dp1148
sg81
g832
sg74
(lp1149
g67
(g88
g69
NtRp1150
(dp1151
g72
(dp1152
g92
g93
ssg81
g1146
sg74
(lp1153
S'http_user_agent'
p1154
asbag67
(g88
g69
NtRp1155
(dp1156
g72
(dp1157
g99
g100
ssg81
g1146
sg74
(lp1158
S':'
asbag67
(g88
g69
NtRp1159
(dp1160
g72
(dp1161
sg81
g1146
sg74
(lp1162
g67
(g68
g69
NtRp1163
(dp1164
g72
(dp1165
g80
I4
ssg81
g1159
sg74
(lp1166
S'Mozilla/5.0 (X11; Linux x86_64) AppleWebKit/535.2 (KHTML, like Gecko) Chrome/15.0.874.106 Safari/535.2'
p1167
asbasbasbag67
(g83
g69
NtRp1168
(dp1169
g72
(dp1170
sg81
g832
sg74
(lp1171
g67
(g88
g69
NtRp1172
(dp1173
g72
(dp1174
g92
g93
ssg81
g1168
sg74
(lp1175
S'is_jython'
p1176
asbag67
(g88
g69
NtRp1177
(dp1178
g72
(dp1179
g99
g100
ssg81
g1168
sg74
(lp1180
S':'
asbag67
(g88
g69
NtRp1181
(dp1182
g72
(dp1183
sg81
g1168
sg74
(lp1184
g67
(g68
g69
NtRp1185
(dp1186
g72
(dp1187
g80
I4
ssg81
g1181
sg74
(lp1188
g110
asbasbasbag67
(g83
g69
NtRp1189
(dp1190
g72
(dp1191
sg81
g832
sg74
(lp1192
g67
(g88
g69
NtRp1193
(dp1194
g72
(dp1195
g92
g93
ssg81
g1189
sg74
(lp1196
S'path_info'
p1197
asbag67
(g88
g69
NtRp1198
(dp1199
g72
(dp1200
g99
g100
ssg81
g1189
sg74
(lp1201
S':'
asbag67
(g88
g69
NtRp1202
(dp1203
g72
(dp1204
sg81
g1189
sg74
(lp1205
g67
(g68
g69
NtRp1206
(dp1207
g72
(dp1208
g80
I4
ssg81
g1202
sg74
(lp1209
S'/ddlagoon/default/how_to_upload'
p1210
asbasbasbag67
(g83
g69
NtRp1211
(dp1212
g72
(dp1213
sg81
g832
sg74
(lp1214
g67
(g88
g69
NtRp1215
(dp1216
g72
(dp1217
g92
g93
ssg81
g1211
sg74
(lp1218
S'query_string'
p1219
asbag67
(g88
g69
NtRp1220
(dp1221
g72
(dp1222
g99
g100
ssg81
g1211
sg74
(lp1223
S':'
asbag67
(g88
g69
NtRp1224
(dp1225
g72
(dp1226
sg81
g1211
sg74
(lp1227
g67
(g68
g69
NtRp1228
(dp1229
g72
(dp1230
g80
I4
ssg81
g1224
sg74
(lp1231
S''
asbasbasbag67
(g83
g69
NtRp1232
(dp1233
g72
(dp1234
sg81
g832
sg74
(lp1235
g67
(g88
g69
NtRp1236
(dp1237
g72
(dp1238
g92
g93
ssg81
g1232
sg74
(lp1239
S'remote_addr'
p1240
asbag67
(g88
g69
NtRp1241
(dp1242
g72
(dp1243
g99
g100
ssg81
g1232
sg74
(lp1244
S':'
asbag67
(g88
g69
NtRp1245
(dp1246
g72
(dp1247
sg81
g1232
sg74
(lp1248
g67
(g68
g69
NtRp1249
(dp1250
g72
(dp1251
g80
I4
ssg81
g1245
sg74
(lp1252
g200
asbasbasbag67
(g83
g69
NtRp1253
(dp1254
g72
(dp1255
sg81
g832
sg74
(lp1256
g67
(g88
g69
NtRp1257
(dp1258
g72
(dp1259
g92
g93
ssg81
g1253
sg74
(lp1260
S'remote_port'
p1261
asbag67
(g88
g69
NtRp1262
(dp1263
g72
(dp1264
g99
g100
ssg81
g1253
sg74
(lp1265
S':'
asbag67
(g88
g69
NtRp1266
(dp1267
g72
(dp1268
sg81
g1253
sg74
(lp1269
g67
(g68
g69
NtRp1270
(dp1271
g72
(dp1272
g80
I4
ssg81
g1266
sg74
(lp1273
S'57421'
p1274
asbasbasbag67
(g83
g69
NtRp1275
(dp1276
g72
(dp1277
sg81
g832
sg74
(lp1278
g67
(g88
g69
NtRp1279
(dp1280
g72
(dp1281
g92
g93
ssg81
g1275
sg74
(lp1282
S'request_method'
p1283
asbag67
(g88
g69
NtRp1284
(dp1285
g72
(dp1286
g99
g100
ssg81
g1275
sg74
(lp1287
S':'
asbag67
(g88
g69
NtRp1288
(dp1289
g72
(dp1290
sg81
g1275
sg74
(lp1291
g67
(g68
g69
NtRp1292
(dp1293
g72
(dp1294
g80
I4
ssg81
g1288
sg74
(lp1295
S'GET'
p1296
asbasbasbag67
(g83
g69
NtRp1297
(dp1298
g72
(dp1299
sg81
g832
sg74
(lp1300
g67
(g88
g69
NtRp1301
(dp1302
g72
(dp1303
g92
g93
ssg81
g1297
sg74
(lp1304
S'script_name'
p1305
asbag67
(g88
g69
NtRp1306
(dp1307
g72
(dp1308
g99
g100
ssg81
g1297
sg74
(lp1309
S':'
asbag67
(g88
g69
NtRp1310
(dp1311
g72
(dp1312
sg81
g1297
sg74
(lp1313
g67
(g68
g69
NtRp1314
(dp1315
g72
(dp1316
g80
I4
ssg81
g1310
sg74
(lp1317
S''
asbasbasbag67
(g83
g69
NtRp1318
(dp1319
g72
(dp1320
sg81
g832
sg74
(lp1321
g67
(g88
g69
NtRp1322
(dp1323
g72
(dp1324
g92
g93
ssg81
g1318
sg74
(lp1325
S'server_name'
p1326
asbag67
(g88
g69
NtRp1327
(dp1328
g72
(dp1329
g99
g100
ssg81
g1318
sg74
(lp1330
S':'
asbag67
(g88
g69
NtRp1331
(dp1332
g72
(dp1333
sg81
g1318
sg74
(lp1334
g67
(g68
g69
NtRp1335
(dp1336
g72
(dp1337
g80
I4
ssg81
g1331
sg74
(lp1338
S'VPCF22AJ'
p1339
asbasbasbag67
(g83
g69
NtRp1340
(dp1341
g72
(dp1342
sg81
g832
sg74
(lp1343
g67
(g88
g69
NtRp1344
(dp1345
g72
(dp1346
g92
g93
ssg81
g1340
sg74
(lp1347
S'server_port'
p1348
asbag67
(g88
g69
NtRp1349
(dp1350
g72
(dp1351
g99
g100
ssg81
g1340
sg74
(lp1352
S':'
asbag67
(g88
g69
NtRp1353
(dp1354
g72
(dp1355
sg81
g1340
sg74
(lp1356
g67
(g68
g69
NtRp1357
(dp1358
g72
(dp1359
g80
I4
ssg81
g1353
sg74
(lp1360
S'8000'
p1361
asbasbasbag67
(g83
g69
NtRp1362
(dp1363
g72
(dp1364
sg81
g832
sg74
(lp1365
g67
(g88
g69
NtRp1366
(dp1367
g72
(dp1368
g92
g93
ssg81
g1362
sg74
(lp1369
S'server_protocol'
p1370
asbag67
(g88
g69
NtRp1371
(dp1372
g72
(dp1373
g99
g100
ssg81
g1362
sg74
(lp1374
S':'
asbag67
(g88
g69
NtRp1375
(dp1376
g72
(dp1377
sg81
g1362
sg74
(lp1378
g67
(g68
g69
NtRp1379
(dp1380
g72
(dp1381
g80
I4
ssg81
g1375
sg74
(lp1382
S'HTTP/1.1'
p1383
asbasbasbag67
(g83
g69
NtRp1384
(dp1385
g72
(dp1386
sg81
g832
sg74
(lp1387
g67
(g88
g69
NtRp1388
(dp1389
g72
(dp1390
g92
g93
ssg81
g1384
sg74
(lp1391
S'server_software'
p1392
asbag67
(g88
g69
NtRp1393
(dp1394
g72
(dp1395
g99
g100
ssg81
g1384
sg74
(lp1396
S':'
asbag67
(g88
g69
NtRp1397
(dp1398
g72
(dp1399
sg81
g1384
sg74
(lp1400
g67
(g68
g69
NtRp1401
(dp1402
g72
(dp1403
g80
I4
ssg81
g1397
sg74
(lp1404
S'Rocket 1.2.4'
p1405
asbasbasbag67
(g83
g69
NtRp1406
(dp1407
g72
(dp1408
sg81
g832
sg74
(lp1409
g67
(g88
g69
NtRp1410
(dp1411
g72
(dp1412
g92
g93
ssg81
g1406
sg74
(lp1413
S'web2py_crontype'
p1414
asbag67
(g88
g69
NtRp1415
(dp1416
g72
(dp1417
g99
g100
ssg81
g1406
sg74
(lp1418
S':'
asbag67
(g88
g69
NtRp1419
(dp1420
g72
(dp1421
sg81
g1406
sg74
(lp1422
g67
(g68
g69
NtRp1423
(dp1424
g72
(dp1425
g80
I4
ssg81
g1419
sg74
(lp1426
S'hard'
p1427
asbasbasbag67
(g83
g69
NtRp1428
(dp1429
g72
(dp1430
sg81
g832
sg74
(lp1431
g67
(g88
g69
NtRp1432
(dp1433
g72
(dp1434
g92
g93
ssg81
g1428
sg74
(lp1435
S'web2py_path'
p1436
asbag67
(g88
g69
NtRp1437
(dp1438
g72
(dp1439
g99
g100
ssg81
g1428
sg74
(lp1440
S':'
asbag67
(g88
g69
NtRp1441
(dp1442
g72
(dp1443
sg81
g1428
sg74
(lp1444
g67
(g68
g69
NtRp1445
(dp1446
g72
(dp1447
g80
I4
ssg81
g1441
sg74
(lp1448
g879
asbasbasbag67
(g83
g69
NtRp1449
(dp1450
g72
(dp1451
sg81
g832
sg74
(lp1452
g67
(g88
g69
NtRp1453
(dp1454
g72
(dp1455
g92
g93
ssg81
g1449
sg74
(lp1456
S'web2py_version'
p1457
asbag67
(g88
g69
NtRp1458
(dp1459
g72
(dp1460
g99
g100
ssg81
g1449
sg74
(lp1461
S':'
asbag67
(g88
g69
NtRp1462
(dp1463
g72
(dp1464
sg81
g1449
sg74
(lp1465
g67
(g68
g69
NtRp1466
(dp1467
g72
(dp1468
g80
I4
ssg81
g1462
sg74
(lp1469
g67
(g76
g69
NtRp1470
(dp1471
g72
(dp1472
g80
I3
ssg81
Nsg74
(lp1473
g67
(g83
g69
NtRp1474
(dp1475
g72
(dp1476
sg81
g1470
sg74
(lp1477
g67
(g88
g69
NtRp1478
(dp1479
g72
(dp1480
sg81
g1474
sg74
(lp1481
g67
(g68
g69
NtRp1482
(dp1483
g72
(dp1484
g80
I3
ssg81
g1478
sg74
(lp1485
S'1'
asbasbasbag67
(g83
g69
NtRp1486
(dp1487
g72
(dp1488
sg81
g1470
sg74
(lp1489
g67
(g88
g69
NtRp1490
(dp1491
g72
(dp1492
sg81
g1486
sg74
(lp1493
g67
(g68
g69
NtRp1494
(dp1495
g72
(dp1496
g80
I3
ssg81
g1490
sg74
(lp1497
S'99'
p1498
asbasbasbag67
(g83
g69
NtRp1499
(dp1500
g72
(dp1501
sg81
g1470
sg74
(lp1502
g67
(g88
g69
NtRp1503
(dp1504
g72
(dp1505
sg81
g1499
sg74
(lp1506
g67
(g68
g69
NtRp1507
(dp1508
g72
(dp1509
g80
I3
ssg81
g1503
sg74
(lp1510
S'2'
asbasbasbag67
(g83
g69
NtRp1511
(dp1512
g72
(dp1513
sg81
g1470
sg74
(lp1514
g67
(g88
g69
NtRp1515
(dp1516
g72
(dp1517
sg81
g1511
sg74
(lp1518
g67
(g68
g69
NtRp1519
(dp1520
g72
(dp1521
g80
I3
ssg81
g1515
sg74
(lp1522
S'datetime.datetime(2011, 9, 26, 6, 55, 33)'
p1523
asbasbasbag67
(g83
g69
NtRp1524
(dp1525
g72
(dp1526
sg81
g1470
sg74
(lp1527
g67
(g88
g69
NtRp1528
(dp1529
g72
(dp1530
sg81
g1524
sg74
(lp1531
g67
(g68
g69
NtRp1532
(dp1533
g72
(dp1534
g80
I3
ssg81
g1528
sg74
(lp1535
S'stable'
p1536
asbasbasbasbasbasbasbag67
(g83
g69
NtRp1537
(dp1538
g72
(dp1539
sg81
g832
sg74
(lp1540
g67
(g88
g69
NtRp1541
(dp1542
g72
(dp1543
g92
g93
ssg81
g1537
sg74
(lp1544
S'wsgi_errors'
p1545
asbag67
(g88
g69
NtRp1546
(dp1547
g72
(dp1548
g99
g100
ssg81
g1537
sg74
(lp1549
S':'
asbag67
(g88
g69
NtRp1550
(dp1551
g72
(dp1552
sg81
g1537
sg74
(lp1553
g67
(g68
g69
NtRp1554
(dp1555
g72
(dp1556
g80
I4
ssg81
g1550
sg74
(lp1557
S"<open file '<stderr>', mode 'w' at 0x7f5e9e0e81e0>"
p1558
asbasbasbag67
(g83
g69
NtRp1559
(dp1560
g72
(dp1561
sg81
g832
sg74
(lp1562
g67
(g88
g69
NtRp1563
(dp1564
g72
(dp1565
g92
g93
ssg81
g1559
sg74
(lp1566
S'wsgi_file_wrapper'
p1567
asbag67
(g88
g69
NtRp1568
(dp1569
g72
(dp1570
g99
g100
ssg81
g1559
sg74
(lp1571
S':'
asbag67
(g88
g69
NtRp1572
(dp1573
g72
(dp1574
sg81
g1559
sg74
(lp1575
g67
(g68
g69
NtRp1576
(dp1577
g72
(dp1578
g80
I4
ssg81
g1572
sg74
(lp1579
S'<class wsgiref.util.FileWrapper at 0x136e3b0>'
p1580
asbasbasbag67
(g83
g69
NtRp1581
(dp1582
g72
(dp1583
sg81
g832
sg74
(lp1584
g67
(g88
g69
NtRp1585
(dp1586
g72
(dp1587
g92
g93
ssg81
g1581
sg74
(lp1588
S'wsgi_input'
p1589
asbag67
(g88
g69
NtRp1590
(dp1591
g72
(dp1592
g99
g100
ssg81
g1581
sg74
(lp1593
S':'
asbag67
(g88
g69
NtRp1594
(dp1595
g72
(dp1596
sg81
g1581
sg74
(lp1597
g67
(g68
g69
NtRp1598
(dp1599
g72
(dp1600
g80
I4
ssg81
g1594
sg74
(lp1601
S'<socket._fileobject object at 0x1dace50>'
p1602
asbasbasbag67
(g83
g69
NtRp1603
(dp1604
g72
(dp1605
sg81
g832
sg74
(lp1606
g67
(g88
g69
NtRp1607
(dp1608
g72
(dp1609
g92
g93
ssg81
g1603
sg74
(lp1610
S'wsgi_multiprocess'
p1611
asbag67
(g88
g69
NtRp1612
(dp1613
g72
(dp1614
g99
g100
ssg81
g1603
sg74
(lp1615
S':'
asbag67
(g88
g69
NtRp1616
(dp1617
g72
(dp1618
sg81
g1603
sg74
(lp1619
g67
(g68
g69
NtRp1620
(dp1621
g72
(dp1622
g80
I4
ssg81
g1616
sg74
(lp1623
g110
asbasbasbag67
(g83
g69
NtRp1624
(dp1625
g72
(dp1626
sg81
g832
sg74
(lp1627
g67
(g88
g69
NtRp1628
(dp1629
g72
(dp1630
g92
g93
ssg81
g1624
sg74
(lp1631
S'wsgi_multithread'
p1632
asbag67
(g88
g69
NtRp1633
(dp1634
g72
(dp1635
g99
g100
ssg81
g1624
sg74
(lp1636
S':'
asbag67
(g88
g69
NtRp1637
(dp1638
g72
(dp1639
sg81
g1624
sg74
(lp1640
g67
(g68
g69
NtRp1641
(dp1642
g72
(dp1643
g80
I4
ssg81
g1637
sg74
(lp1644
S'True'
p1645
asbasbasbag67
(g83
g69
NtRp1646
(dp1647
g72
(dp1648
sg81
g832
sg74
(lp1649
g67
(g88
g69
NtRp1650
(dp1651
g72
(dp1652
g92
g93
ssg81
g1646
sg74
(lp1653
S'wsgi_run_once'
p1654
asbag67
(g88
g69
NtRp1655
(dp1656
g72
(dp1657
g99
g100
ssg81
g1646
sg74
(lp1658
S':'
asbag67
(g88
g69
NtRp1659
(dp1660
g72
(dp1661
sg81
g1646
sg74
(lp1662
g67
(g68
g69
NtRp1663
(dp1664
g72
(dp1665
g80
I4
ssg81
g1659
sg74
(lp1666
g110
asbasbasbag67
(g83
g69
NtRp1667
(dp1668
g72
(dp1669
sg81
g832
sg74
(lp1670
g67
(g88
g69
NtRp1671
(dp1672
g72
(dp1673
g92
g93
ssg81
g1667
sg74
(lp1674
S'wsgi_url_scheme'
p1675
asbag67
(g88
g69
NtRp1676
(dp1677
g72
(dp1678
g99
g100
ssg81
g1667
sg74
(lp1679
S':'
asbag67
(g88
g69
NtRp1680
(dp1681
g72
(dp1682
sg81
g1667
sg74
(lp1683
g67
(g68
g69
NtRp1684
(dp1685
g72
(dp1686
g80
I4
ssg81
g1680
sg74
(lp1687
S'http'
p1688
asbasbasbag67
(g83
g69
NtRp1689
(dp1690
g72
(dp1691
sg81
g832
sg74
(lp1692
g67
(g88
g69
NtRp1693
(dp1694
g72
(dp1695
g92
g93
ssg81
g1689
sg74
(lp1696
S'wsgi_version'
p1697
asbag67
(g88
g69
NtRp1698
(dp1699
g72
(dp1700
g99
g100
ssg81
g1689
sg74
(lp1701
S':'
asbag67
(g88
g69
NtRp1702
(dp1703
g72
(dp1704
sg81
g1689
sg74
(lp1705
g67
(g68
g69
NtRp1706
(dp1707
g72
(dp1708
g80
I4
ssg81
g1702
sg74
(lp1709
g67
(g76
g69
NtRp1710
(dp1711
g72
(dp1712
g80
I3
ssg81
Nsg74
(lp1713
g67
(g83
g69
NtRp1714
(dp1715
g72
(dp1716
sg81
g1710
sg74
(lp1717
g67
(g88
g69
NtRp1718
(dp1719
g72
(dp1720
sg81
g1714
sg74
(lp1721
g67
(g68
g69
NtRp1722
(dp1723
g72
(dp1724
g80
I3
ssg81
g1718
sg74
(lp1725
S'1'
asbasbasbag67
(g83
g69
NtRp1726
(dp1727
g72
(dp1728
sg81
g1710
sg74
(lp1729
g67
(g88
g69
NtRp1730
(dp1731
g72
(dp1732
sg81
g1726
sg74
(lp1733
g67
(g68
g69
NtRp1734
(dp1735
g72
(dp1736
g80
I3
ssg81
g1730
sg74
(lp1737
S'0'
asbasbasbasbasbasbasbasbasbasbasbag67
(g83
g69
NtRp1738
(dp1739
g72
(dp1740
sg81
g77
sg74
(lp1741
g67
(g88
g69
NtRp1742
(dp1743
g72
(dp1744
g92
g93
ssg81
g1738
sg74
(lp1745
S'extension'
p1746
asbag67
(g88
g69
NtRp1747
(dp1748
g72
(dp1749
g99
g100
ssg81
g1738
sg74
(lp1750
S':'
asbag67
(g88
g69
NtRp1751
(dp1752
g72
(dp1753
sg81
g1738
sg74
(lp1754
g67
(g68
g69
NtRp1755
(dp1756
g72
(dp1757
g80
I5
ssg81
g1751
sg74
(lp1758
S'html'
p1759
asbasbasbag67
(g83
g69
NtRp1760
(dp1761
g72
(dp1762
sg81
g77
sg74
(lp1763
g67
(g88
g69
NtRp1764
(dp1765
g72
(dp1766
g92
g93
ssg81
g1760
sg74
(lp1767
S'folder'
p1768
asbag67
(g88
g69
NtRp1769
(dp1770
g72
(dp1771
g99
g100
ssg81
g1760
sg74
(lp1772
S':'
asbag67
(g88
g69
NtRp1773
(dp1774
g72
(dp1775
sg81
g1760
sg74
(lp1776
g67
(g68
g69
NtRp1777
(dp1778
g72
(dp1779
g80
I5
ssg81
g1773
sg74
(lp1780
S'/windows/Users/Thomas/Dropbox/appz/2011/ddlagoon/public_html/applications/ddlagoon/'
p1781
asbasbasbag67
(g83
g69
NtRp1782
(dp1783
g72
(dp1784
sg81
g77
sg74
(lp1785
g67
(g88
g69
NtRp1786
(dp1787
g72
(dp1788
g92
g93
ssg81
g1782
sg74
(lp1789
S'function'
p1790
asbag67
(g88
g69
NtRp1791
(dp1792
g72
(dp1793
g99
g100
ssg81
g1782
sg74
(lp1794
S':'
asbag67
(g88
g69
NtRp1795
(dp1796
g72
(dp1797
sg81
g1782
sg74
(lp1798
g67
(g68
g69
NtRp1799
(dp1800
g72
(dp1801
g80
I5
ssg81
g1795
sg74
(lp1802
S'how_to_upload'
p1803
asbasbasbag67
(g83
g69
NtRp1804
(dp1805
g72
(dp1806
sg81
g77
sg74
(lp1807
g67
(g88
g69
NtRp1808
(dp1809
g72
(dp1810
g92
g93
ssg81
g1804
sg74
(lp1811
S'get_vars'
p1812
asbag67
(g88
g69
NtRp1813
(dp1814
g72
(dp1815
g99
g100
ssg81
g1804
sg74
(lp1816
S':'
asbag67
(g88
g69
NtRp1817
(dp1818
g72
(dp1819
sg81
g1804
sg74
(lp1820
g67
(g68
g69
NtRp1821
(dp1822
g72
(dp1823
g80
I5
ssg81
g1817
sg74
(lp1824
g67
(g76
g69
NtRp1825
(dp1826
g72
(dp1827
g80
I4
ssg81
Nsg74
(lp1828
sbasbasbasbag67
(g83
g69
NtRp1829
(dp1830
g72
(dp1831
sg81
g77
sg74
(lp1832
g67
(g88
g69
NtRp1833
(dp1834
g72
(dp1835
g92
g93
ssg81
g1829
sg74
(lp1836
S'global_settings'
p1837
asbag67
(g88
g69
NtRp1838
(dp1839
g72
(dp1840
g99
g100
ssg81
g1829
sg74
(lp1841
S':'
asbag67
(g88
g69
NtRp1842
(dp1843
g72
(dp1844
sg81
g1829
sg74
(lp1845
g67
(g68
g69
NtRp1846
(dp1847
g72
(dp1848
g80
I5
ssg81
g1842
sg74
(lp1849
g67
(g76
g69
NtRp1850
(dp1851
g72
(dp1852
g80
I4
ssg81
Nsg74
(lp1853
g67
(g83
g69
NtRp1854
(dp1855
g72
(dp1856
sg81
g1850
sg74
(lp1857
g67
(g88
g69
NtRp1858
(dp1859
g72
(dp1860
g92
g93
ssg81
g1854
sg74
(lp1861
g844
asbag67
(g88
g69
NtRp1862
(dp1863
g72
(dp1864
g99
g100
ssg81
g1854
sg74
(lp1865
S':'
asbag67
(g88
g69
NtRp1866
(dp1867
g72
(dp1868
sg81
g1854
sg74
(lp1869
g67
(g68
g69
NtRp1870
(dp1871
g72
(dp1872
g80
I4
ssg81
g1866
sg74
(lp1873
S"set(['/windows/Users/Thomas/Dropbox/appz/2011/ddlagoon/public_html/applications/ddlagoon/', '/windows/Users/Thomas/Dropbox/appz/2011/ddlagoon/public_html/applications/admin/', '/windows/Users/Thomas/Dropbox/appz/2011/ddlagoon/public_html/applications/welcome/'])"
p1874
asbasbasbag67
(g83
g69
NtRp1875
(dp1876
g72
(dp1877
sg81
g1850
sg74
(lp1878
g67
(g88
g69
NtRp1879
(dp1880
g72
(dp1881
g92
g93
ssg81
g1875
sg74
(lp1882
g866
asbag67
(g88
g69
NtRp1883
(dp1884
g72
(dp1885
g99
g100
ssg81
g1875
sg74
(lp1886
S':'
asbag67
(g88
g69
NtRp1887
(dp1888
g72
(dp1889
sg81
g1875
sg74
(lp1890
g67
(g68
g69
NtRp1891
(dp1892
g72
(dp1893
g80
I4
ssg81
g1887
sg74
(lp1894
g879
asbasbasbag67
(g83
g69
NtRp1895
(dp1896
g72
(dp1897
sg81
g1850
sg74
(lp1898
g67
(g88
g69
NtRp1899
(dp1900
g72
(dp1901
g92
g93
ssg81
g1895
sg74
(lp1902
g888
asbag67
(g88
g69
NtRp1903
(dp1904
g72
(dp1905
g99
g100
ssg81
g1895
sg74
(lp1906
S':'
asbag67
(g88
g69
NtRp1907
(dp1908
g72
(dp1909
sg81
g1895
sg74
(lp1910
g67
(g68
g69
NtRp1911
(dp1912
g72
(dp1913
g80
I4
ssg81
g1907
sg74
(lp1914
g67
(g76
g69
NtRp1915
(dp1916
g72
(dp1917
g80
I3
ssg81
Nsg74
(lp1918
sbasbasbasbag67
(g83
g69
NtRp1919
(dp1920
g72
(dp1921
sg81
g1850
sg74
(lp1922
g67
(g88
g69
NtRp1923
(dp1924
g72
(dp1925
g92
g93
ssg81
g1919
sg74
(lp1926
g913
asbag67
(g88
g69
NtRp1927
(dp1928
g72
(dp1929
g99
g100
ssg81
g1919
sg74
(lp1930
S':'
asbag67
(g88
g69
NtRp1931
(dp1932
g72
(dp1933
sg81
g1919
sg74
(lp1934
g67
(g68
g69
NtRp1935
(dp1936
g72
(dp1937
g80
I4
ssg81
g1931
sg74
(lp1938
S"<Values at 0x1581c68: {'verbose': False, 'ip': '127.0.0.1', 'shutdown_timeout': 5, 'taskbar': False, 'nocron': False, 'pid_filename': 'httpserver.pid', 'maxthreads': None, 'softcron': False, 'server_name': 'VPCF22AJ', 'bpython': False, 'nogui': False, 'port': 8000, 'extcron': False, 'debuglevel': 30, 'test': None, 'folder': '/windows/Users/Thomas/Dropbox/appz/2011/ddlagoon/public_html', 'config': '', 'import_models': False, 'winservice': '', 'shell': None, 'run': '', 'log_filename': 'httpserver.log', 'args': [''], 'ssl_ca_certificate': None, 'scheduler': None, 'profiler_filename': None, 'ssl_private_key': '', 'password': 'admin', 'request_queue_size': 5, 'ssl_certificate': '', 'cronjob': False, 'plain': False, 'quiet': False, 'interfaces': None, 'minthreads': None, 'timeout': 10, 'numthreads': None, 'nobanner': False}>"
p1939
asbasbasbag67
(g83
g69
NtRp1940
(dp1941
g72
(dp1942
sg81
g1850
sg74
(lp1943
g67
(g88
g69
NtRp1944
(dp1945
g72
(dp1946
g92
g93
ssg81
g1940
sg74
(lp1947
g935
asbag67
(g88
g69
NtRp1948
(dp1949
g72
(dp1950
g99
g100
ssg81
g1940
sg74
(lp1951
S':'
asbag67
(g88
g69
NtRp1952
(dp1953
g72
(dp1954
sg81
g1940
sg74
(lp1955
g67
(g68
g69
NtRp1956
(dp1957
g72
(dp1958
g80
I4
ssg81
g1952
sg74
(lp1959
S'set([])'
p1960
asbasbasbag67
(g83
g69
NtRp1961
(dp1962
g72
(dp1963
sg81
g1850
sg74
(lp1964
g67
(g88
g69
NtRp1965
(dp1966
g72
(dp1967
g92
g93
ssg81
g1961
sg74
(lp1968
g957
asbag67
(g88
g69
NtRp1969
(dp1970
g72
(dp1971
g99
g100
ssg81
g1961
sg74
(lp1972
S':'
asbag67
(g88
g69
NtRp1973
(dp1974
g72
(dp1975
sg81
g1961
sg74
(lp1976
g67
(g68
g69
NtRp1977
(dp1978
g72
(dp1979
g80
I4
ssg81
g1973
sg74
(lp1980
g110
asbasbasbag67
(g83
g69
NtRp1981
(dp1982
g72
(dp1983
sg81
g1850
sg74
(lp1984
g67
(g88
g69
NtRp1985
(dp1986
g72
(dp1987
g92
g93
ssg81
g1981
sg74
(lp1988
g978
asbag67
(g88
g69
NtRp1989
(dp1990
g72
(dp1991
g99
g100
ssg81
g1981
sg74
(lp1992
S':'
asbag67
(g88
g69
NtRp1993
(dp1994
g72
(dp1995
sg81
g1981
sg74
(lp1996
g67
(g68
g69
NtRp1997
(dp1998
g72
(dp1999
g80
I4
ssg81
g1993
sg74
(lp2000
g991
asbasbasbag67
(g83
g69
NtRp2001
(dp2002
g72
(dp2003
sg81
g1850
sg74
(lp2004
g67
(g88
g69
NtRp2005
(dp2006
g72
(dp2007
g92
g93
ssg81
g2001
sg74
(lp2008
g1176
asbag67
(g88
g69
NtRp2009
(dp2010
g72
(dp2011
g99
g100
ssg81
g2001
sg74
(lp2012
S':'
asbag67
(g88
g69
NtRp2013
(dp2014
g72
(dp2015
sg81
g2001
sg74
(lp2016
g67
(g68
g69
NtRp2017
(dp2018
g72
(dp2019
g80
I4
ssg81
g2013
sg74
(lp2020
g110
asbasbasbag67
(g83
g69
NtRp2021
(dp2022
g72
(dp2023
sg81
g1850
sg74
(lp2024
g67
(g88
g69
NtRp2025
(dp2026
g72
(dp2027
g92
g93
ssg81
g2021
sg74
(lp2028
g1414
asbag67
(g88
g69
NtRp2029
(dp2030
g72
(dp2031
g99
g100
ssg81
g2021
sg74
(lp2032
S':'
asbag67
(g88
g69
NtRp2033
(dp2034
g72
(dp2035
sg81
g2021
sg74
(lp2036
g67
(g68
g69
NtRp2037
(dp2038
g72
(dp2039
g80
I4
ssg81
g2033
sg74
(lp2040
g1427
asbasbasbag67
(g83
g69
NtRp2041
(dp2042
g72
(dp2043
sg81
g1850
sg74
(lp2044
g67
(g88
g69
NtRp2045
(dp2046
g72
(dp2047
g92
g93
ssg81
g2041
sg74
(lp2048
g1457
asbag67
(g88
g69
NtRp2049
(dp2050
g72
(dp2051
g99
g100
ssg81
g2041
sg74
(lp2052
S':'
asbag67
(g88
g69
NtRp2053
(dp2054
g72
(dp2055
sg81
g2041
sg74
(lp2056
g67
(g68
g69
NtRp2057
(dp2058
g72
(dp2059
g80
I4
ssg81
g2053
sg74
(lp2060
g67
(g76
g69
NtRp2061
(dp2062
g72
(dp2063
g80
I3
ssg81
Nsg74
(lp2064
g67
(g83
g69
NtRp2065
(dp2066
g72
(dp2067
sg81
g2061
sg74
(lp2068
g67
(g88
g69
NtRp2069
(dp2070
g72
(dp2071
sg81
g2065
sg74
(lp2072
g67
(g68
g69
NtRp2073
(dp2074
g72
(dp2075
g80
I3
ssg81
g2069
sg74
(lp2076
S'1'
asbasbasbag67
(g83
g69
NtRp2077
(dp2078
g72
(dp2079
sg81
g2061
sg74
(lp2080
g67
(g88
g69
NtRp2081
(dp2082
g72
(dp2083
sg81
g2077
sg74
(lp2084
g67
(g68
g69
NtRp2085
(dp2086
g72
(dp2087
g80
I3
ssg81
g2081
sg74
(lp2088
S'99'
p2089
asbasbasbag67
(g83
g69
NtRp2090
(dp2091
g72
(dp2092
sg81
g2061
sg74
(lp2093
g67
(g88
g69
NtRp2094
(dp2095
g72
(dp2096
sg81
g2090
sg74
(lp2097
g67
(g68
g69
NtRp2098
(dp2099
g72
(dp2100
g80
I3
ssg81
g2094
sg74
(lp2101
S'2'
asbasbasbag67
(g83
g69
NtRp2102
(dp2103
g72
(dp2104
sg81
g2061
sg74
(lp2105
g67
(g88
g69
NtRp2106
(dp2107
g72
(dp2108
sg81
g2102
sg74
(lp2109
g67
(g68
g69
NtRp2110
(dp2111
g72
(dp2112
g80
I3
ssg81
g2106
sg74
(lp2113
S'datetime.datetime(2011, 9, 26, 6, 55, 33)'
p2114
asbasbasbag67
(g83
g69
NtRp2115
(dp2116
g72
(dp2117
sg81
g2061
sg74
(lp2118
g67
(g88
g69
NtRp2119
(dp2120
g72
(dp2121
sg81
g2115
sg74
(lp2122
g67
(g68
g69
NtRp2123
(dp2124
g72
(dp2125
g80
I3
ssg81
g2119
sg74
(lp2126
g1536
asbasbasbasbasbasbasbasbasbasbasbag67
(g83
g69
NtRp2127
(dp2128
g72
(dp2129
sg81
g77
sg74
(lp2130
g67
(g88
g69
NtRp2131
(dp2132
g72
(dp2133
g92
g93
ssg81
g2127
sg74
(lp2134
S'is_https'
p2135
asbag67
(g88
g69
NtRp2136
(dp2137
g72
(dp2138
g99
g100
ssg81
g2127
sg74
(lp2139
S':'
asbag67
(g88
g69
NtRp2140
(dp2141
g72
(dp2142
sg81
g2127
sg74
(lp2143
g67
(g68
g69
NtRp2144
(dp2145
g72
(dp2146
g80
I5
ssg81
g2140
sg74
(lp2147
g110
asbasbasbag67
(g83
g69
NtRp2148
(dp2149
g72
(dp2150
sg81
g77
sg74
(lp2151
g67
(g88
g69
NtRp2152
(dp2153
g72
(dp2154
g92
g93
ssg81
g2148
sg74
(lp2155
S'is_local'
p2156
asbag67
(g88
g69
NtRp2157
(dp2158
g72
(dp2159
g99
g100
ssg81
g2148
sg74
(lp2160
S':'
asbag67
(g88
g69
NtRp2161
(dp2162
g72
(dp2163
sg81
g2148
sg74
(lp2164
g67
(g68
g69
NtRp2165
(dp2166
g72
(dp2167
g80
I5
ssg81
g2161
sg74
(lp2168
g1645
asbasbasbag67
(g83
g69
NtRp2169
(dp2170
g72
(dp2171
sg81
g77
sg74
(lp2172
g67
(g88
g69
NtRp2173
(dp2174
g72
(dp2175
g92
g93
ssg81
g2169
sg74
(lp2176
S'is_restful'
p2177
asbag67
(g88
g69
NtRp2178
(dp2179
g72
(dp2180
g99
g100
ssg81
g2169
sg74
(lp2181
S':'
asbag67
(g88
g69
NtRp2182
(dp2183
g72
(dp2184
sg81
g2169
sg74
(lp2185
g67
(g68
g69
NtRp2186
(dp2187
g72
(dp2188
g80
I5
ssg81
g2182
sg74
(lp2189
g110
asbasbasbag67
(g83
g69
NtRp2190
(dp2191
g72
(dp2192
sg81
g77
sg74
(lp2193
g67
(g88
g69
NtRp2194
(dp2195
g72
(dp2196
g92
g93
ssg81
g2190
sg74
(lp2197
S'now'
p2198
asbag67
(g88
g69
NtRp2199
(dp2200
g72
(dp2201
g99
g100
ssg81
g2190
sg74
(lp2202
S':'
asbag67
(g88
g69
NtRp2203
(dp2204
g72
(dp2205
sg81
g2190
sg74
(lp2206
g67
(g68
g69
NtRp2207
(dp2208
g72
(dp2209
g80
I5
ssg81
g2203
sg74
(lp2210
S'datetime.datetime(2011, 11, 9, 10, 13, 35, 355673)'
p2211
asbasbasbag67
(g83
g69
NtRp2212
(dp2213
g72
(dp2214
sg81
g77
sg74
(lp2215
g67
(g88
g69
NtRp2216
(dp2217
g72
(dp2218
g92
g93
ssg81
g2212
sg74
(lp2219
S'post_vars'
p2220
asbag67
(g88
g69
NtRp2221
(dp2222
g72
(dp2223
g99
g100
ssg81
g2212
sg74
(lp2224
S':'
asbag67
(g88
g69
NtRp2225
(dp2226
g72
(dp2227
sg81
g2212
sg74
(lp2228
g67
(g68
g69
NtRp2229
(dp2230
g72
(dp2231
g80
I5
ssg81
g2225
sg74
(lp2232
g67
(g76
g69
NtRp2233
(dp2234
g72
(dp2235
g80
I4
ssg81
Nsg74
(lp2236
sbasbasbasbag67
(g83
g69
NtRp2237
(dp2238
g72
(dp2239
sg81
g77
sg74
(lp2240
g67
(g88
g69
NtRp2241
(dp2242
g72
(dp2243
g92
g93
ssg81
g2237
sg74
(lp2244
S'url'
p2245
asbag67
(g88
g69
NtRp2246
(dp2247
g72
(dp2248
g99
g100
ssg81
g2237
sg74
(lp2249
S':'
asbag67
(g88
g69
NtRp2250
(dp2251
g72
(dp2252
sg81
g2237
sg74
(lp2253
g67
(g68
g69
NtRp2254
(dp2255
g72
(dp2256
g80
I5
ssg81
g2250
sg74
(lp2257
S'/ddlagoon/default/how_to_upload'
p2258
asbasbasbag67
(g83
g69
NtRp2259
(dp2260
g72
(dp2261
sg81
g77
sg74
(lp2262
g67
(g88
g69
NtRp2263
(dp2264
g72
(dp2265
g92
g93
ssg81
g2259
sg74
(lp2266
S'utcnow'
p2267
asbag67
(g88
g69
NtRp2268
(dp2269
g72
(dp2270
g99
g100
ssg81
g2259
sg74
(lp2271
S':'
asbag67
(g88
g69
NtRp2272
(dp2273
g72
(dp2274
sg81
g2259
sg74
(lp2275
g67
(g68
g69
NtRp2276
(dp2277
g72
(dp2278
g80
I5
ssg81
g2272
sg74
(lp2279
S'datetime.datetime(2011, 11, 9, 10, 13, 35, 355689)'
p2280
asbasbasbag67
(g83
g69
NtRp2281
(dp2282
g72
(dp2283
sg81
g77
sg74
(lp2284
g67
(g88
g69
NtRp2285
(dp2286
g72
(dp2287
g92
g93
ssg81
g2281
sg74
(lp2288
S'uuid'
p2289
asbag67
(g88
g69
NtRp2290
(dp2291
g72
(dp2292
g99
g100
ssg81
g2281
sg74
(lp2293
S':'
asbag67
(g88
g69
NtRp2294
(dp2295
g72
(dp2296
sg81
g2281
sg74
(lp2297
g67
(g68
g69
NtRp2298
(dp2299
g72
(dp2300
g80
I5
ssg81
g2294
sg74
(lp2301
S'ddlagoon/127.0.0.1.2011-11-09.10-13-35.f7cb4650-b7d0-440e-8f5f-fc5c9a5ad899'
p2302
asbasbasbag67
(g83
g69
NtRp2303
(dp2304
g72
(dp2305
sg81
g77
sg74
(lp2306
g67
(g88
g69
NtRp2307
(dp2308
g72
(dp2309
g92
g93
ssg81
g2303
sg74
(lp2310
S'vars'
p2311
asbag67
(g88
g69
NtRp2312
(dp2313
g72
(dp2314
g99
g100
ssg81
g2303
sg74
(lp2315
S':'
asbag67
(g88
g69
NtRp2316
(dp2317
g72
(dp2318
sg81
g2303
sg74
(lp2319
g67
(g68
g69
NtRp2320
(dp2321
g72
(dp2322
g80
I5
ssg81
g2316
sg74
(lp2323
g67
(g76
g69
NtRp2324
(dp2325
g72
(dp2326
g80
I4
ssg81
Nsg74
(lp2327
sbasbasbasbag67
(g83
g69
NtRp2328
(dp2329
g72
(dp2330
sg81
g77
sg74
(lp2331
g67
(g88
g69
NtRp2332
(dp2333
g72
(dp2334
g92
g93
ssg81
g2328
sg74
(lp2335
S'wsgi'
p2336
asbag67
(g88
g69
NtRp2337
(dp2338
g72
(dp2339
g99
g100
ssg81
g2328
sg74
(lp2340
S':'
asbag67
(g88
g69
NtRp2341
(dp2342
g72
(dp2343
sg81
g2328
sg74
(lp2344
g67
(g68
g69
NtRp2345
(dp2346
g72
(dp2347
g80
I5
ssg81
g2341
sg74
(lp2348
g67
(g76
g69
NtRp2349
(dp2350
g72
(dp2351
g80
I4
ssg81
Nsg74
(lp2352
g67
(g83
g69
NtRp2353
(dp2354
g72
(dp2355
sg81
g2349
sg74
(lp2356
g67
(g88
g69
NtRp2357
(dp2358
g72
(dp2359
g92
g93
ssg81
g2353
sg74
(lp2360
S'environ'
p2361
asbag67
(g88
g69
NtRp2362
(dp2363
g72
(dp2364
g99
g100
ssg81
g2353
sg74
(lp2365
S':'
asbag67
(g88
g69
NtRp2366
(dp2367
g72
(dp2368
sg81
g2353
sg74
(lp2369
g67
(g68
g69
NtRp2370
(dp2371
g72
(dp2372
g80
I4
ssg81
g2366
sg74
(lp2373
g67
(g76
g69
NtRp2374
(dp2375
g72
(dp2376
g80
I3
ssg81
Nsg74
(lp2377
g67
(g83
g69
NtRp2378
(dp2379
g72
(dp2380
sg81
g2374
sg74
(lp2381
g67
(g88
g69
NtRp2382
(dp2383
g72
(dp2384
g92
g93
ssg81
g2378
sg74
(lp2385
S'HTTP_ACCEPT'
p2386
asbag67
(g88
g69
NtRp2387
(dp2388
g72
(dp2389
g99
g100
ssg81
g2378
sg74
(lp2390
S':'
asbag67
(g88
g69
NtRp2391
(dp2392
g72
(dp2393
sg81
g2378
sg74
(lp2394
g67
(g68
g69
NtRp2395
(dp2396
g72
(dp2397
g80
I3
ssg81
g2391
sg74
(lp2398
g1013
asbasbasbag67
(g83
g69
NtRp2399
(dp2400
g72
(dp2401
sg81
g2374
sg74
(lp2402
g67
(g88
g69
NtRp2403
(dp2404
g72
(dp2405
g92
g93
ssg81
g2399
sg74
(lp2406
S'HTTP_ACCEPT_CHARSET'
p2407
asbag67
(g88
g69
NtRp2408
(dp2409
g72
(dp2410
g99
g100
ssg81
g2399
sg74
(lp2411
S':'
asbag67
(g88
g69
NtRp2412
(dp2413
g72
(dp2414
sg81
g2399
sg74
(lp2415
g67
(g68
g69
NtRp2416
(dp2417
g72
(dp2418
g80
I3
ssg81
g2412
sg74
(lp2419
g1035
asbasbasbag67
(g83
g69
NtRp2420
(dp2421
g72
(dp2422
sg81
g2374
sg74
(lp2423
g67
(g88
g69
NtRp2424
(dp2425
g72
(dp2426
g92
g93
ssg81
g2420
sg74
(lp2427
S'HTTP_ACCEPT_ENCODING'
p2428
asbag67
(g88
g69
NtRp2429
(dp2430
g72
(dp2431
g99
g100
ssg81
g2420
sg74
(lp2432
S':'
asbag67
(g88
g69
NtRp2433
(dp2434
g72
(dp2435
sg81
g2420
sg74
(lp2436
g67
(g68
g69
NtRp2437
(dp2438
g72
(dp2439
g80
I3
ssg81
g2433
sg74
(lp2440
g1057
asbasbasbag67
(g83
g69
NtRp2441
(dp2442
g72
(dp2443
sg81
g2374
sg74
(lp2444
g67
(g88
g69
NtRp2445
(dp2446
g72
(dp2447
g92
g93
ssg81
g2441
sg74
(lp2448
S'HTTP_ACCEPT_LANGUAGE'
p2449
asbag67
(g88
g69
NtRp2450
(dp2451
g72
(dp2452
g99
g100
ssg81
g2441
sg74
(lp2453
S':'
asbag67
(g88
g69
NtRp2454
(dp2455
g72
(dp2456
sg81
g2441
sg74
(lp2457
g67
(g68
g69
NtRp2458
(dp2459
g72
(dp2460
g80
I3
ssg81
g2454
sg74
(lp2461
g1079
asbasbasbag67
(g83
g69
NtRp2462
(dp2463
g72
(dp2464
sg81
g2374
sg74
(lp2465
g67
(g88
g69
NtRp2466
(dp2467
g72
(dp2468
g92
g93
ssg81
g2462
sg74
(lp2469
S'HTTP_CONNECTION'
p2470
asbag67
(g88
g69
NtRp2471
(dp2472
g72
(dp2473
g99
g100
ssg81
g2462
sg74
(lp2474
S':'
asbag67
(g88
g69
NtRp2475
(dp2476
g72
(dp2477
sg81
g2462
sg74
(lp2478
g67
(g68
g69
NtRp2479
(dp2480
g72
(dp2481
g80
I3
ssg81
g2475
sg74
(lp2482
g1101
asbasbasbag67
(g83
g69
NtRp2483
(dp2484
g72
(dp2485
sg81
g2374
sg74
(lp2486
g67
(g88
g69
NtRp2487
(dp2488
g72
(dp2489
g92
g93
ssg81
g2483
sg74
(lp2490
S'HTTP_COOKIE'
p2491
asbag67
(g88
g69
NtRp2492
(dp2493
g72
(dp2494
g99
g100
ssg81
g2483
sg74
(lp2495
S':'
asbag67
(g88
g69
NtRp2496
(dp2497
g72
(dp2498
sg81
g2483
sg74
(lp2499
g67
(g68
g69
NtRp2500
(dp2501
g72
(dp2502
g80
I3
ssg81
g2496
sg74
(lp2503
g1123
asbasbasbag67
(g83
g69
NtRp2504
(dp2505
g72
(dp2506
sg81
g2374
sg74
(lp2507
g67
(g88
g69
NtRp2508
(dp2509
g72
(dp2510
g92
g93
ssg81
g2504
sg74
(lp2511
S'HTTP_HOST'
p2512
asbag67
(g88
g69
NtRp2513
(dp2514
g72
(dp2515
g99
g100
ssg81
g2504
sg74
(lp2516
S':'
asbag67
(g88
g69
NtRp2517
(dp2518
g72
(dp2519
sg81
g2504
sg74
(lp2520
g67
(g68
g69
NtRp2521
(dp2522
g72
(dp2523
g80
I3
ssg81
g2517
sg74
(lp2524
g1145
asbasbasbag67
(g83
g69
NtRp2525
(dp2526
g72
(dp2527
sg81
g2374
sg74
(lp2528
g67
(g88
g69
NtRp2529
(dp2530
g72
(dp2531
g92
g93
ssg81
g2525
sg74
(lp2532
S'HTTP_USER_AGENT'
p2533
asbag67
(g88
g69
NtRp2534
(dp2535
g72
(dp2536
g99
g100
ssg81
g2525
sg74
(lp2537
S':'
asbag67
(g88
g69
NtRp2538
(dp2539
g72
(dp2540
sg81
g2525
sg74
(lp2541
g67
(g68
g69
NtRp2542
(dp2543
g72
(dp2544
g80
I3
ssg81
g2538
sg74
(lp2545
g1167
asbasbasbag67
(g83
g69
NtRp2546
(dp2547
g72
(dp2548
sg81
g2374
sg74
(lp2549
g67
(g88
g69
NtRp2550
(dp2551
g72
(dp2552
g92
g93
ssg81
g2546
sg74
(lp2553
S'PATH_INFO'
p2554
asbag67
(g88
g69
NtRp2555
(dp2556
g72
(dp2557
g99
g100
ssg81
g2546
sg74
(lp2558
S':'
asbag67
(g88
g69
NtRp2559
(dp2560
g72
(dp2561
sg81
g2546
sg74
(lp2562
g67
(g68
g69
NtRp2563
(dp2564
g72
(dp2565
g80
I3
ssg81
g2559
sg74
(lp2566
g1210
asbasbasbag67
(g83
g69
NtRp2567
(dp2568
g72
(dp2569
sg81
g2374
sg74
(lp2570
g67
(g88
g69
NtRp2571
(dp2572
g72
(dp2573
g92
g93
ssg81
g2567
sg74
(lp2574
S'QUERY_STRING'
p2575
asbag67
(g88
g69
NtRp2576
(dp2577
g72
(dp2578
g99
g100
ssg81
g2567
sg74
(lp2579
S':'
asbag67
(g88
g69
NtRp2580
(dp2581
g72
(dp2582
sg81
g2567
sg74
(lp2583
g67
(g68
g69
NtRp2584
(dp2585
g72
(dp2586
g80
I3
ssg81
g2580
sg74
(lp2587
S''
asbasbasbag67
(g83
g69
NtRp2588
(dp2589
g72
(dp2590
sg81
g2374
sg74
(lp2591
g67
(g88
g69
NtRp2592
(dp2593
g72
(dp2594
g92
g93
ssg81
g2588
sg74
(lp2595
S'REMOTE_ADDR'
p2596
asbag67
(g88
g69
NtRp2597
(dp2598
g72
(dp2599
g99
g100
ssg81
g2588
sg74
(lp2600
S':'
asbag67
(g88
g69
NtRp2601
(dp2602
g72
(dp2603
sg81
g2588
sg74
(lp2604
g67
(g68
g69
NtRp2605
(dp2606
g72
(dp2607
g80
I3
ssg81
g2601
sg74
(lp2608
g200
asbasbasbag67
(g83
g69
NtRp2609
(dp2610
g72
(dp2611
sg81
g2374
sg74
(lp2612
g67
(g88
g69
NtRp2613
(dp2614
g72
(dp2615
g92
g93
ssg81
g2609
sg74
(lp2616
S'REMOTE_PORT'
p2617
asbag67
(g88
g69
NtRp2618
(dp2619
g72
(dp2620
g99
g100
ssg81
g2609
sg74
(lp2621
S':'
asbag67
(g88
g69
NtRp2622
(dp2623
g72
(dp2624
sg81
g2609
sg74
(lp2625
g67
(g68
g69
NtRp2626
(dp2627
g72
(dp2628
g80
I3
ssg81
g2622
sg74
(lp2629
g1274
asbasbasbag67
(g83
g69
NtRp2630
(dp2631
g72
(dp2632
sg81
g2374
sg74
(lp2633
g67
(g88
g69
NtRp2634
(dp2635
g72
(dp2636
g92
g93
ssg81
g2630
sg74
(lp2637
S'REQUEST_METHOD'
p2638
asbag67
(g88
g69
NtRp2639
(dp2640
g72
(dp2641
g99
g100
ssg81
g2630
sg74
(lp2642
S':'
asbag67
(g88
g69
NtRp2643
(dp2644
g72
(dp2645
sg81
g2630
sg74
(lp2646
g67
(g68
g69
NtRp2647
(dp2648
g72
(dp2649
g80
I3
ssg81
g2643
sg74
(lp2650
g1296
asbasbasbag67
(g83
g69
NtRp2651
(dp2652
g72
(dp2653
sg81
g2374
sg74
(lp2654
g67
(g88
g69
NtRp2655
(dp2656
g72
(dp2657
g92
g93
ssg81
g2651
sg74
(lp2658
S'SCRIPT_NAME'
p2659
asbag67
(g88
g69
NtRp2660
(dp2661
g72
(dp2662
g99
g100
ssg81
g2651
sg74
(lp2663
S':'
asbag67
(g88
g69
NtRp2664
(dp2665
g72
(dp2666
sg81
g2651
sg74
(lp2667
g67
(g68
g69
NtRp2668
(dp2669
g72
(dp2670
g80
I3
ssg81
g2664
sg74
(lp2671
S''
asbasbasbag67
(g83
g69
NtRp2672
(dp2673
g72
(dp2674
sg81
g2374
sg74
(lp2675
g67
(g88
g69
NtRp2676
(dp2677
g72
(dp2678
g92
g93
ssg81
g2672
sg74
(lp2679
S'SERVER_NAME'
p2680
asbag67
(g88
g69
NtRp2681
(dp2682
g72
(dp2683
g99
g100
ssg81
g2672
sg74
(lp2684
S':'
asbag67
(g88
g69
NtRp2685
(dp2686
g72
(dp2687
sg81
g2672
sg74
(lp2688
g67
(g68
g69
NtRp2689
(dp2690
g72
(dp2691
g80
I3
ssg81
g2685
sg74
(lp2692
g1339
asbasbasbag67
(g83
g69
NtRp2693
(dp2694
g72
(dp2695
sg81
g2374
sg74
(lp2696
g67
(g88
g69
NtRp2697
(dp2698
g72
(dp2699
g92
g93
ssg81
g2693
sg74
(lp2700
S'SERVER_PORT'
p2701
asbag67
(g88
g69
NtRp2702
(dp2703
g72
(dp2704
g99
g100
ssg81
g2693
sg74
(lp2705
S':'
asbag67
(g88
g69
NtRp2706
(dp2707
g72
(dp2708
sg81
g2693
sg74
(lp2709
g67
(g68
g69
NtRp2710
(dp2711
g72
(dp2712
g80
I3
ssg81
g2706
sg74
(lp2713
g1361
asbasbasbag67
(g83
g69
NtRp2714
(dp2715
g72
(dp2716
sg81
g2374
sg74
(lp2717
g67
(g88
g69
NtRp2718
(dp2719
g72
(dp2720
g92
g93
ssg81
g2714
sg74
(lp2721
S'SERVER_PROTOCOL'
p2722
asbag67
(g88
g69
NtRp2723
(dp2724
g72
(dp2725
g99
g100
ssg81
g2714
sg74
(lp2726
S':'
asbag67
(g88
g69
NtRp2727
(dp2728
g72
(dp2729
sg81
g2714
sg74
(lp2730
g67
(g68
g69
NtRp2731
(dp2732
g72
(dp2733
g80
I3
ssg81
g2727
sg74
(lp2734
g1383
asbasbasbag67
(g83
g69
NtRp2735
(dp2736
g72
(dp2737
sg81
g2374
sg74
(lp2738
g67
(g88
g69
NtRp2739
(dp2740
g72
(dp2741
g92
g93
ssg81
g2735
sg74
(lp2742
S'SERVER_SOFTWARE'
p2743
asbag67
(g88
g69
NtRp2744
(dp2745
g72
(dp2746
g99
g100
ssg81
g2735
sg74
(lp2747
S':'
asbag67
(g88
g69
NtRp2748
(dp2749
g72
(dp2750
sg81
g2735
sg74
(lp2751
g67
(g68
g69
NtRp2752
(dp2753
g72
(dp2754
g80
I3
ssg81
g2748
sg74
(lp2755
g1405
asbasbasbag67
(g83
g69
NtRp2756
(dp2757
g72
(dp2758
sg81
g2374
sg74
(lp2759
g67
(g88
g69
NtRp2760
(dp2761
g72
(dp2762
g92
g93
ssg81
g2756
sg74
(lp2763
S'wsgi.errors'
p2764
asbag67
(g88
g69
NtRp2765
(dp2766
g72
(dp2767
g99
g100
ssg81
g2756
sg74
(lp2768
S':'
asbag67
(g88
g69
NtRp2769
(dp2770
g72
(dp2771
sg81
g2756
sg74
(lp2772
g67
(g68
g69
NtRp2773
(dp2774
g72
(dp2775
g80
I3
ssg81
g2769
sg74
(lp2776
S"<open file '<stderr>', mode 'w' at 0x7f5e9e0e81e0>"
p2777
asbasbasbag67
(g83
g69
NtRp2778
(dp2779
g72
(dp2780
sg81
g2374
sg74
(lp2781
g67
(g88
g69
NtRp2782
(dp2783
g72
(dp2784
g92
g93
ssg81
g2778
sg74
(lp2785
S'wsgi.file_wrapper'
p2786
asbag67
(g88
g69
NtRp2787
(dp2788
g72
(dp2789
g99
g100
ssg81
g2778
sg74
(lp2790
S':'
asbag67
(g88
g69
NtRp2791
(dp2792
g72
(dp2793
sg81
g2778
sg74
(lp2794
g67
(g68
g69
NtRp2795
(dp2796
g72
(dp2797
g80
I3
ssg81
g2791
sg74
(lp2798
S'<class wsgiref.util.FileWrapper at 0x136e3b0>'
p2799
asbasbasbag67
(g83
g69
NtRp2800
(dp2801
g72
(dp2802
sg81
g2374
sg74
(lp2803
g67
(g88
g69
NtRp2804
(dp2805
g72
(dp2806
g92
g93
ssg81
g2800
sg74
(lp2807
S'wsgi.input'
p2808
asbag67
(g88
g69
NtRp2809
(dp2810
g72
(dp2811
g99
g100
ssg81
g2800
sg74
(lp2812
S':'
asbag67
(g88
g69
NtRp2813
(dp2814
g72
(dp2815
sg81
g2800
sg74
(lp2816
g67
(g68
g69
NtRp2817
(dp2818
g72
(dp2819
g80
I3
ssg81
g2813
sg74
(lp2820
S'<cStringIO.StringO object at 0xfccae8>'
p2821
asbasbasbag67
(g83
g69
NtRp2822
(dp2823
g72
(dp2824
sg81
g2374
sg74
(lp2825
g67
(g88
g69
NtRp2826
(dp2827
g72
(dp2828
g92
g93
ssg81
g2822
sg74
(lp2829
S'wsgi.multiprocess'
p2830
asbag67
(g88
g69
NtRp2831
(dp2832
g72
(dp2833
g99
g100
ssg81
g2822
sg74
(lp2834
S':'
asbag67
(g88
g69
NtRp2835
(dp2836
g72
(dp2837
sg81
g2822
sg74
(lp2838
g67
(g68
g69
NtRp2839
(dp2840
g72
(dp2841
g80
I3
ssg81
g2835
sg74
(lp2842
g110
asbasbasbag67
(g83
g69
NtRp2843
(dp2844
g72
(dp2845
sg81
g2374
sg74
(lp2846
g67
(g88
g69
NtRp2847
(dp2848
g72
(dp2849
g92
g93
ssg81
g2843
sg74
(lp2850
S'wsgi.multithread'
p2851
asbag67
(g88
g69
NtRp2852
(dp2853
g72
(dp2854
g99
g100
ssg81
g2843
sg74
(lp2855
S':'
asbag67
(g88
g69
NtRp2856
(dp2857
g72
(dp2858
sg81
g2843
sg74
(lp2859
g67
(g68
g69
NtRp2860
(dp2861
g72
(dp2862
g80
I3
ssg81
g2856
sg74
(lp2863
g1645
asbasbasbag67
(g83
g69
NtRp2864
(dp2865
g72
(dp2866
sg81
g2374
sg74
(lp2867
g67
(g88
g69
NtRp2868
(dp2869
g72
(dp2870
g92
g93
ssg81
g2864
sg74
(lp2871
S'wsgi.run_once'
p2872
asbag67
(g88
g69
NtRp2873
(dp2874
g72
(dp2875
g99
g100
ssg81
g2864
sg74
(lp2876
S':'
asbag67
(g88
g69
NtRp2877
(dp2878
g72
(dp2879
sg81
g2864
sg74
(lp2880
g67
(g68
g69
NtRp2881
(dp2882
g72
(dp2883
g80
I3
ssg81
g2877
sg74
(lp2884
g110
asbasbasbag67
(g83
g69
NtRp2885
(dp2886
g72
(dp2887
sg81
g2374
sg74
(lp2888
g67
(g88
g69
NtRp2889
(dp2890
g72
(dp2891
g92
g93
ssg81
g2885
sg74
(lp2892
S'wsgi.url_scheme'
p2893
asbag67
(g88
g69
NtRp2894
(dp2895
g72
(dp2896
g99
g100
ssg81
g2885
sg74
(lp2897
S':'
asbag67
(g88
g69
NtRp2898
(dp2899
g72
(dp2900
sg81
g2885
sg74
(lp2901
g67
(g68
g69
NtRp2902
(dp2903
g72
(dp2904
g80
I3
ssg81
g2898
sg74
(lp2905
g1688
asbasbasbag67
(g83
g69
NtRp2906
(dp2907
g72
(dp2908
sg81
g2374
sg74
(lp2909
g67
(g88
g69
NtRp2910
(dp2911
g72
(dp2912
g92
g93
ssg81
g2906
sg74
(lp2913
S'wsgi.version'
p2914
asbag67
(g88
g69
NtRp2915
(dp2916
g72
(dp2917
g99
g100
ssg81
g2906
sg74
(lp2918
S':'
asbag67
(g88
g69
NtRp2919
(dp2920
g72
(dp2921
sg81
g2906
sg74
(lp2922
g67
(g68
g69
NtRp2923
(dp2924
g72
(dp2925
g80
I3
ssg81
g2919
sg74
(lp2926
S'1'
asbasbasbasbasbasbasbasbasbasbasbasbasbsS'frames'
p2927
(lp2928
(dp2929
S'file'
p2930
S'/home/thomas/Dropbox/appz/2011/ddlagoon/public_html/gluon/restricted.py'
p2931
sS'dump'
p2932
(dp2933
S'code'
p2934
S'"left_sidebar_enabled=right_sidebar_enabled=True\\n...nse.write(\'\\\\n  </body>\\\\n</html>\\\\n\', escape=False)"'
p2935
sS'layer'
p2936
S"'/windows/Users/Thomas/Dropbox/appz/2011/ddlagoon...cations/ddlagoon/views/default/how_to_upload.html'"
p2937
sS'global compile2'
p2938
S'<function compile2>'
p2939
sS'ccode'
p2940
S'undefined'
p2941
ssS'lnum'
p2942
I193
sS'lines'
p2943
(dp2944
I192
S'        else:'
p2945
sI193
S'            ccode = compile2(code,layer)'
p2946
sI194
S'        exec ccode in environment'
p2947
sI195
S'    except HTTP:'
p2948
sI196
S'        raise'
p2949
sI197
S'    except Exception, error:'
p2950
sI188
S"    environment['__file__'] = layer"
p2951
sI189
S'    try:'
p2952
sI190
S'        if type(code) == types.CodeType:'
p2953
sI191
S'            ccode = code'
p2954
ssS'call'
p2955
S'(code="left_sidebar_enabled=right_sidebar_enabled=True\\n...nse.write(\'\\\\n  </body>\\\\n</html>\\\\n\', escape=False)", environment={\'A\': <class \'gluon.html.A\'>, \'Auth\': <class \'gluon.tools.Auth\'>, \'B\': <class \'gluon.html.B\'>, \'BEAUTIFY\': <class \'gluon.html.BEAUTIFY\'>, \'BODY\': <class \'gluon.html.BODY\'>, \'BR\': <class \'gluon.html.BR\'>, \'BUTTON\': <class \'gluon.html.BUTTON\'>, \'CAT\': <class \'gluon.html.CAT\'>, \'CENTER\': <class \'gluon.html.CENTER\'>, \'CLEANUP\': <class \'gluon.validators.CLEANUP\'>, ...}, layer=\'/windows/Users/Thomas/Dropbox/appz/2011/ddlagoon...cations/ddlagoon/views/default/how_to_upload.html\')'
p2956
sS'func'
p2957
S'restricted'
p2958
sa(dp2959
g2930
S'/home/thomas/Dropbox/appz/2011/ddlagoon/public_html/gluon/restricted.py'
p2960
sg2932
(dp2961
S'builtincompile'
p2962
S'<built-in function compile>'
p2963
sS'code'
p2964
S'"left_sidebar_enabled=right_sidebar_enabled=True\\n...nse.write(\'\\\\n  </body>\\\\n</html>\\\\n\', escape=False)"'
p2965
sS'code.rstrip'
p2966
S'<built-in method rstrip of str object>'
p2967
sS').replace'
p2968
g2941
sS'layer'
p2969
S"'/windows/Users/Thomas/Dropbox/appz/2011/ddlagoon...cations/ddlagoon/views/default/how_to_upload.html'"
p2970
ssg2942
I179
sg2943
(dp2971
I174
S''
sI175
S'def compile2(code,layer):'
p2972
sI176
S'    """'
p2973
sI177
S"    The +'\\n' is necessary else compile fails when code ends in a comment."
p2974
sI178
S'    """'
p2975
sI179
S"    return compile(code.rstrip().replace('\\r\\n','\\n')+'\\n', layer, 'exec')"
p2976
sI180
S''
sI181
S"def restricted(code, environment=None, layer='Unknown'):"
p2977
sI182
S'    """'
p2978
sI183
S'    runs code in environment and returns the output. if an exception occurs'
p2979
ssg2955
S'(code="left_sidebar_enabled=right_sidebar_enabled=True\\n...nse.write(\'\\\\n  </body>\\\\n</html>\\\\n\', escape=False)", layer=\'/windows/Users/Thomas/Dropbox/appz/2011/ddlagoon...cations/ddlagoon/views/default/how_to_upload.html\')'
p2980
sg2957
S'compile2'
p2981
sasS'pyver'
p2982
S'Python 2.6.7: /usr/bin/python2.6'
p2983
sS'session'
p2984
g67
(g68
g69
NtRp2985
(dp2986
g72
(dp2987
sg74
(lp2988
g67
(g76
g69
NtRp2989
(dp2990
g72
(dp2991
g80
I5
ssg81
Nsg74
(lp2992
g67
(g83
g69
NtRp2993
(dp2994
g72
(dp2995
sg81
g2989
sg74
(lp2996
g67
(g88
g69
NtRp2997
(dp2998
g72
(dp2999
g92
g93
ssg81
g2993
sg74
(lp3000
S'auth'
p3001
asbag67
(g88
g69
NtRp3002
(dp3003
g72
(dp3004
g99
g100
ssg81
g2993
sg74
(lp3005
S':'
asbag67
(g88
g69
NtRp3006
(dp3007
g72
(dp3008
sg81
g2993
sg74
(lp3009
g67
(g68
g69
NtRp3010
(dp3011
g72
(dp3012
g80
I5
ssg81
g3006
sg74
(lp3013
g67
(g76
g69
NtRp3014
(dp3015
g72
(dp3016
g80
I4
ssg81
Nsg74
(lp3017
g67
(g83
g69
NtRp3018
(dp3019
g72
(dp3020
sg81
g3014
sg74
(lp3021
g67
(g88
g69
NtRp3022
(dp3023
g72
(dp3024
g92
g93
ssg81
g3018
sg74
(lp3025
S'expiration'
p3026
asbag67
(g88
g69
NtRp3027
(dp3028
g72
(dp3029
g99
g100
ssg81
g3018
sg74
(lp3030
S':'
asbag67
(g88
g69
NtRp3031
(dp3032
g72
(dp3033
sg81
g3018
sg74
(lp3034
g67
(g68
g69
NtRp3035
(dp3036
g72
(dp3037
g80
I4
ssg81
g3031
sg74
(lp3038
S'2592000'
p3039
asbasbasbag67
(g83
g69
NtRp3040
(dp3041
g72
(dp3042
sg81
g3014
sg74
(lp3043
g67
(g88
g69
NtRp3044
(dp3045
g72
(dp3046
g92
g93
ssg81
g3040
sg74
(lp3047
S'hmac_key'
p3048
asbag67
(g88
g69
NtRp3049
(dp3050
g72
(dp3051
g99
g100
ssg81
g3040
sg74
(lp3052
S':'
asbag67
(g88
g69
NtRp3053
(dp3054
g72
(dp3055
sg81
g3040
sg74
(lp3056
g67
(g68
g69
NtRp3057
(dp3058
g72
(dp3059
g80
I4
ssg81
g3053
sg74
(lp3060
S'7e670c78-9271-4640-9ed9-43e3c6eed23e'
p3061
asbasbasbag67
(g83
g69
NtRp3062
(dp3063
g72
(dp3064
sg81
g3014
sg74
(lp3065
g67
(g88
g69
NtRp3066
(dp3067
g72
(dp3068
g92
g93
ssg81
g3062
sg74
(lp3069
S'last_visit'
p3070
asbag67
(g88
g69
NtRp3071
(dp3072
g72
(dp3073
g99
g100
ssg81
g3062
sg74
(lp3074
S':'
asbag67
(g88
g69
NtRp3075
(dp3076
g72
(dp3077
sg81
g3062
sg74
(lp3078
g67
(g68
g69
NtRp3079
(dp3080
g72
(dp3081
g80
I4
ssg81
g3075
sg74
(lp3082
S'datetime.datetime(2011, 11, 9, 10, 9, 49, 435287)'
p3083
asbasbasbag67
(g83
g69
NtRp3084
(dp3085
g72
(dp3086
sg81
g3014
sg74
(lp3087
g67
(g88
g69
NtRp3088
(dp3089
g72
(dp3090
g92
g93
ssg81
g3084
sg74
(lp3091
S'remember'
p3092
asbag67
(g88
g69
NtRp3093
(dp3094
g72
(dp3095
g99
g100
ssg81
g3084
sg74
(lp3096
S':'
asbag67
(g88
g69
NtRp3097
(dp3098
g72
(dp3099
sg81
g3084
sg74
(lp3100
g67
(g68
g69
NtRp3101
(dp3102
g72
(dp3103
g80
I4
ssg81
g3097
sg74
(lp3104
g110
asbasbasbag67
(g83
g69
NtRp3105
(dp3106
g72
(dp3107
sg81
g3014
sg74
(lp3108
g67
(g88
g69
NtRp3109
(dp3110
g72
(dp3111
g92
g93
ssg81
g3105
sg74
(lp3112
S'user'
p3113
asbag67
(g88
g69
NtRp3114
(dp3115
g72
(dp3116
g99
g100
ssg81
g3105
sg74
(lp3117
S':'
asbag67
(g88
g69
NtRp3118
(dp3119
g72
(dp3120
sg81
g3105
sg74
(lp3121
g67
(g68
g69
NtRp3122
(dp3123
g72
(dp3124
g80
I4
ssg81
g3118
sg74
(lp3125
g67
(g76
g69
NtRp3126
(dp3127
g72
(dp3128
g80
I3
ssg81
Nsg74
(lp3129
g67
(g83
g69
NtRp3130
(dp3131
g72
(dp3132
sg81
g3126
sg74
(lp3133
g67
(g88
g69
NtRp3134
(dp3135
g72
(dp3136
g92
g93
ssg81
g3130
sg74
(lp3137
S'allow_porn'
p3138
asbag67
(g88
g69
NtRp3139
(dp3140
g72
(dp3141
g99
g100
ssg81
g3130
sg74
(lp3142
S':'
asbag67
(g88
g69
NtRp3143
(dp3144
g72
(dp3145
sg81
g3130
sg74
(lp3146
g67
(g68
g69
NtRp3147
(dp3148
g72
(dp3149
g80
I3
ssg81
g3143
sg74
(lp3150
g110
asbasbasbag67
(g83
g69
NtRp3151
(dp3152
g72
(dp3153
sg81
g3126
sg74
(lp3154
g67
(g88
g69
NtRp3155
(dp3156
g72
(dp3157
g92
g93
ssg81
g3151
sg74
(lp3158
S'email'
p3159
asbag67
(g88
g69
NtRp3160
(dp3161
g72
(dp3162
g99
g100
ssg81
g3151
sg74
(lp3163
S':'
asbag67
(g88
g69
NtRp3164
(dp3165
g72
(dp3166
sg81
g3151
sg74
(lp3167
g67
(g68
g69
NtRp3168
(dp3169
g72
(dp3170
g80
I3
ssg81
g3164
sg74
(lp3171
S'thomas.dallagnese@gmail.com'
p3172
asbasbasbag67
(g83
g69
NtRp3173
(dp3174
g72
(dp3175
sg81
g3126
sg74
(lp3176
g67
(g88
g69
NtRp3177
(dp3178
g72
(dp3179
g92
g93
ssg81
g3173
sg74
(lp3180
S'first_name'
p3181
asbag67
(g88
g69
NtRp3182
(dp3183
g72
(dp3184
g99
g100
ssg81
g3173
sg74
(lp3185
S':'
asbag67
(g88
g69
NtRp3186
(dp3187
g72
(dp3188
sg81
g3173
sg74
(lp3189
g67
(g68
g69
NtRp3190
(dp3191
g72
(dp3192
g80
I3
ssg81
g3186
sg74
(lp3193
S'Thomas'
p3194
asbasbasbag67
(g83
g69
NtRp3195
(dp3196
g72
(dp3197
sg81
g3126
sg74
(lp3198
g67
(g88
g69
NtRp3199
(dp3200
g72
(dp3201
g92
g93
ssg81
g3195
sg74
(lp3202
S'id'
p3203
asbag67
(g88
g69
NtRp3204
(dp3205
g72
(dp3206
g99
g100
ssg81
g3195
sg74
(lp3207
S':'
asbag67
(g88
g69
NtRp3208
(dp3209
g72
(dp3210
sg81
g3195
sg74
(lp3211
g67
(g68
g69
NtRp3212
(dp3213
g72
(dp3214
g80
I3
ssg81
g3208
sg74
(lp3215
S'1'
asbasbasbag67
(g83
g69
NtRp3216
(dp3217
g72
(dp3218
sg81
g3126
sg74
(lp3219
g67
(g88
g69
NtRp3220
(dp3221
g72
(dp3222
g92
g93
ssg81
g3216
sg74
(lp3223
S'is_uploader'
p3224
asbag67
(g88
g69
NtRp3225
(dp3226
g72
(dp3227
g99
g100
ssg81
g3216
sg74
(lp3228
S':'
asbag67
(g88
g69
NtRp3229
(dp3230
g72
(dp3231
sg81
g3216
sg74
(lp3232
g67
(g68
g69
NtRp3233
(dp3234
g72
(dp3235
g80
I3
ssg81
g3229
sg74
(lp3236
g110
asbasbasbag67
(g83
g69
NtRp3237
(dp3238
g72
(dp3239
sg81
g3126
sg74
(lp3240
g67
(g88
g69
NtRp3241
(dp3242
g72
(dp3243
g92
g93
ssg81
g3237
sg74
(lp3244
S'last_name'
p3245
asbag67
(g88
g69
NtRp3246
(dp3247
g72
(dp3248
g99
g100
ssg81
g3237
sg74
(lp3249
S':'
asbag67
(g88
g69
NtRp3250
(dp3251
g72
(dp3252
sg81
g3237
sg74
(lp3253
g67
(g68
g69
NtRp3254
(dp3255
g72
(dp3256
g80
I3
ssg81
g3250
sg74
(lp3257
S"Dall'Agnese"
p3258
asbasbasbag67
(g83
g69
NtRp3259
(dp3260
g72
(dp3261
sg81
g3126
sg74
(lp3262
g67
(g88
g69
NtRp3263
(dp3264
g72
(dp3265
g92
g93
ssg81
g3259
sg74
(lp3266
S'nickname'
p3267
asbag67
(g88
g69
NtRp3268
(dp3269
g72
(dp3270
g99
g100
ssg81
g3259
sg74
(lp3271
S':'
asbag67
(g88
g69
NtRp3272
(dp3273
g72
(dp3274
sg81
g3259
sg74
(lp3275
g67
(g68
g69
NtRp3276
(dp3277
g72
(dp3278
g80
I3
ssg81
g3272
sg74
(lp3279
S'$p00ky'
p3280
asbasbasbag67
(g83
g69
NtRp3281
(dp3282
g72
(dp3283
sg81
g3126
sg74
(lp3284
g67
(g88
g69
NtRp3285
(dp3286
g72
(dp3287
g92
g93
ssg81
g3281
sg74
(lp3288
S'password'
p3289
asbag67
(g88
g69
NtRp3290
(dp3291
g72
(dp3292
g99
g100
ssg81
g3281
sg74
(lp3293
S':'
asbag67
(g88
g69
NtRp3294
(dp3295
g72
(dp3296
sg81
g3281
sg74
(lp3297
g67
(g68
g69
NtRp3298
(dp3299
g72
(dp3300
g80
I3
ssg81
g3294
sg74
(lp3301
S'None'
p3302
asbasbasbag67
(g83
g69
NtRp3303
(dp3304
g72
(dp3305
sg81
g3126
sg74
(lp3306
g67
(g88
g69
NtRp3307
(dp3308
g72
(dp3309
g92
g93
ssg81
g3303
sg74
(lp3310
S'registration_key'
p3311
asbag67
(g88
g69
NtRp3312
(dp3313
g72
(dp3314
g99
g100
ssg81
g3303
sg74
(lp3315
S':'
asbag67
(g88
g69
NtRp3316
(dp3317
g72
(dp3318
sg81
g3303
sg74
(lp3319
g67
(g68
g69
NtRp3320
(dp3321
g72
(dp3322
g80
I3
ssg81
g3316
sg74
(lp3323
S''
asbasbasbag67
(g83
g69
NtRp3324
(dp3325
g72
(dp3326
sg81
g3126
sg74
(lp3327
g67
(g88
g69
NtRp3328
(dp3329
g72
(dp3330
g92
g93
ssg81
g3324
sg74
(lp3331
S'reset_password_key'
p3332
asbag67
(g88
g69
NtRp3333
(dp3334
g72
(dp3335
g99
g100
ssg81
g3324
sg74
(lp3336
S':'
asbag67
(g88
g69
NtRp3337
(dp3338
g72
(dp3339
sg81
g3324
sg74
(lp3340
g67
(g68
g69
NtRp3341
(dp3342
g72
(dp3343
g80
I3
ssg81
g3337
sg74
(lp3344
S''
asbasbasbag67
(g83
g69
NtRp3345
(dp3346
g72
(dp3347
sg81
g3126
sg74
(lp3348
g67
(g88
g69
NtRp3349
(dp3350
g72
(dp3351
g92
g93
ssg81
g3345
sg74
(lp3352
S'uploader_key'
p3353
asbag67
(g88
g69
NtRp3354
(dp3355
g72
(dp3356
g99
g100
ssg81
g3345
sg74
(lp3357
S':'
asbag67
(g88
g69
NtRp3358
(dp3359
g72
(dp3360
sg81
g3345
sg74
(lp3361
g67
(g68
g69
NtRp3362
(dp3363
g72
(dp3364
g80
I3
ssg81
g3358
sg74
(lp3365
S'50eced9b22d27bc6a9b28d6e600d34dc'
p3366
asbasbasbasbasbasbasbasbasbasbasbag67
(g83
g69
NtRp3367
(dp3368
g72
(dp3369
sg81
g2989
sg74
(lp3370
g67
(g88
g69
NtRp3371
(dp3372
g72
(dp3373
g92
g93
ssg81
g3367
sg74
(lp3374
S'last_query'
p3375
asbag67
(g88
g69
NtRp3376
(dp3377
g72
(dp3378
g99
g100
ssg81
g3367
sg74
(lp3379
S':'
asbag67
(g88
g69
NtRp3380
(dp3381
g72
(dp3382
sg81
g3367
sg74
(lp3383
g67
(g68
g69
NtRp3384
(dp3385
g72
(dp3386
g80
I5
ssg81
g3380
sg74
(lp3387
S'db.auth_user.id>0'
p3388
asbasbasbasbasbsS'etype'
p3389
S"<type 'exceptions.SyntaxError'>"
p3390
sS'date'
p3391
S'Wed Nov  9 10:13:35 2011'
p3392
sS'response'
p3393
g67
(g68
g69
NtRp3394
(dp3395
g72
(dp3396
sg74
(lp3397
g67
(g76
g69
NtRp3398
(dp3399
g72
(dp3400
g80
I5
ssg81
Nsg74
(lp3401
g67
(g83
g69
NtRp3402
(dp3403
g72
(dp3404
sg81
g3398
sg74
(lp3405
g67
(g88
g69
NtRp3406
(dp3407
g72
(dp3408
g92
g93
ssg81
g3402
sg74
(lp3409
g165
asbag67
(g88
g69
NtRp3410
(dp3411
g72
(dp3412
g99
g100
ssg81
g3402
sg74
(lp3413
S':'
asbag67
(g88
g69
NtRp3414
(dp3415
g72
(dp3416
sg81
g3402
sg74
(lp3417
g67
(g68
g69
NtRp3418
(dp3419
g72
(dp3420
g80
I5
ssg81
g3414
sg74
(lp3421
S'<cStringIO.StringO object at 0x20d1c38>'
p3422
asbasbasbag67
(g83
g69
NtRp3423
(dp3424
g72
(dp3425
sg81
g3398
sg74
(lp3426
g67
(g88
g69
NtRp3427
(dp3428
g72
(dp3429
g92
g93
ssg81
g3423
sg74
(lp3430
g231
asbag67
(g88
g69
NtRp3431
(dp3432
g72
(dp3433
g99
g100
ssg81
g3423
sg74
(lp3434
S':'
asbag67
(g88
g69
NtRp3435
(dp3436
g72
(dp3437
sg81
g3423
sg74
(lp3438
g67
(g68
g69
NtRp3439
(dp3440
g72
(dp3441
g80
I5
ssg81
g3435
sg74
(lp3442
g67
(g76
g69
NtRp3443
(dp3444
g72
(dp3445
g80
I4
ssg81
Nsg74
(lp3446
g67
(g83
g69
NtRp3447
(dp3448
g72
(dp3449
sg81
g3443
sg74
(lp3450
g67
(g88
g69
NtRp3451
(dp3452
g72
(dp3453
g92
g93
ssg81
g3447
sg74
(lp3454
S'session_id_ddlagoon'
p3455
asbag67
(g88
g69
NtRp3456
(dp3457
g72
(dp3458
g99
g100
ssg81
g3447
sg74
(lp3459
S':'
asbag67
(g88
g69
NtRp3460
(dp3461
g72
(dp3462
sg81
g3447
sg74
(lp3463
g67
(g68
g69
NtRp3464
(dp3465
g72
(dp3466
g80
I4
ssg81
g3460
sg74
(lp3467
g67
(g76
g69
NtRp3468
(dp3469
g72
(dp3470
g80
I3
ssg81
Nsg74
(lp3471
g67
(g83
g69
NtRp3472
(dp3473
g72
(dp3474
sg81
g3468
sg74
(lp3475
g67
(g88
g69
NtRp3476
(dp3477
g72
(dp3478
g92
g93
ssg81
g3472
sg74
(lp3479
g281
asbag67
(g88
g69
NtRp3480
(dp3481
g72
(dp3482
g99
g100
ssg81
g3472
sg74
(lp3483
S':'
asbag67
(g88
g69
NtRp3484
(dp3485
g72
(dp3486
sg81
g3472
sg74
(lp3487
g67
(g68
g69
NtRp3488
(dp3489
g72
(dp3490
g80
I3
ssg81
g3484
sg74
(lp3491
S''
asbasbasbag67
(g83
g69
NtRp3492
(dp3493
g72
(dp3494
sg81
g3468
sg74
(lp3495
g67
(g88
g69
NtRp3496
(dp3497
g72
(dp3498
g92
g93
ssg81
g3492
sg74
(lp3499
g302
asbag67
(g88
g69
NtRp3500
(dp3501
g72
(dp3502
g99
g100
ssg81
g3492
sg74
(lp3503
S':'
asbag67
(g88
g69
NtRp3504
(dp3505
g72
(dp3506
sg81
g3492
sg74
(lp3507
g67
(g68
g69
NtRp3508
(dp3509
g72
(dp3510
g80
I3
ssg81
g3504
sg74
(lp3511
S''
asbasbasbag67
(g83
g69
NtRp3512
(dp3513
g72
(dp3514
sg81
g3468
sg74
(lp3515
g67
(g88
g69
NtRp3516
(dp3517
g72
(dp3518
g92
g93
ssg81
g3512
sg74
(lp3519
g323
asbag67
(g88
g69
NtRp3520
(dp3521
g72
(dp3522
g99
g100
ssg81
g3512
sg74
(lp3523
S':'
asbag67
(g88
g69
NtRp3524
(dp3525
g72
(dp3526
sg81
g3512
sg74
(lp3527
g67
(g68
g69
NtRp3528
(dp3529
g72
(dp3530
g80
I3
ssg81
g3524
sg74
(lp3531
S''
asbasbasbag67
(g83
g69
NtRp3532
(dp3533
g72
(dp3534
sg81
g3468
sg74
(lp3535
g67
(g88
g69
NtRp3536
(dp3537
g72
(dp3538
g92
g93
ssg81
g3532
sg74
(lp3539
g344
asbag67
(g88
g69
NtRp3540
(dp3541
g72
(dp3542
g99
g100
ssg81
g3532
sg74
(lp3543
S':'
asbag67
(g88
g69
NtRp3544
(dp3545
g72
(dp3546
sg81
g3532
sg74
(lp3547
g67
(g68
g69
NtRp3548
(dp3549
g72
(dp3550
g80
I3
ssg81
g3544
sg74
(lp3551
S''
asbasbasbag67
(g83
g69
NtRp3552
(dp3553
g72
(dp3554
sg81
g3468
sg74
(lp3555
g67
(g88
g69
NtRp3556
(dp3557
g72
(dp3558
g92
g93
ssg81
g3552
sg74
(lp3559
g365
asbag67
(g88
g69
NtRp3560
(dp3561
g72
(dp3562
g99
g100
ssg81
g3552
sg74
(lp3563
S':'
asbag67
(g88
g69
NtRp3564
(dp3565
g72
(dp3566
sg81
g3552
sg74
(lp3567
g67
(g68
g69
NtRp3568
(dp3569
g72
(dp3570
g80
I3
ssg81
g3564
sg74
(lp3571
S''
asbasbasbag67
(g83
g69
NtRp3572
(dp3573
g72
(dp3574
sg81
g3468
sg74
(lp3575
g67
(g88
g69
NtRp3576
(dp3577
g72
(dp3578
g92
g93
ssg81
g3572
sg74
(lp3579
g386
asbag67
(g88
g69
NtRp3580
(dp3581
g72
(dp3582
g99
g100
ssg81
g3572
sg74
(lp3583
S':'
asbag67
(g88
g69
NtRp3584
(dp3585
g72
(dp3586
sg81
g3572
sg74
(lp3587
g67
(g68
g69
NtRp3588
(dp3589
g72
(dp3590
g80
I3
ssg81
g3584
sg74
(lp3591
S'/'
asbasbasbag67
(g83
g69
NtRp3592
(dp3593
g72
(dp3594
sg81
g3468
sg74
(lp3595
g67
(g88
g69
NtRp3596
(dp3597
g72
(dp3598
g92
g93
ssg81
g3592
sg74
(lp3599
g407
asbag67
(g88
g69
NtRp3600
(dp3601
g72
(dp3602
g99
g100
ssg81
g3592
sg74
(lp3603
S':'
asbag67
(g88
g69
NtRp3604
(dp3605
g72
(dp3606
sg81
g3592
sg74
(lp3607
g67
(g68
g69
NtRp3608
(dp3609
g72
(dp3610
g80
I3
ssg81
g3604
sg74
(lp3611
S''
asbasbasbag67
(g83
g69
NtRp3612
(dp3613
g72
(dp3614
sg81
g3468
sg74
(lp3615
g67
(g88
g69
NtRp3616
(dp3617
g72
(dp3618
g92
g93
ssg81
g3612
sg74
(lp3619
g428
asbag67
(g88
g69
NtRp3620
(dp3621
g72
(dp3622
g99
g100
ssg81
g3612
sg74
(lp3623
S':'
asbag67
(g88
g69
NtRp3624
(dp3625
g72
(dp3626
sg81
g3612
sg74
(lp3627
g67
(g68
g69
NtRp3628
(dp3629
g72
(dp3630
g80
I3
ssg81
g3624
sg74
(lp3631
S''
asbasbasbasbasbasbasbasbasbasbasbag67
(g83
g69
NtRp3632
(dp3633
g72
(dp3634
sg81
g3398
sg74
(lp3635
g67
(g88
g69
NtRp3636
(dp3637
g72
(dp3638
g92
g93
ssg81
g3632
sg74
(lp3639
S'files'
p3640
asbag67
(g88
g69
NtRp3641
(dp3642
g72
(dp3643
g99
g100
ssg81
g3632
sg74
(lp3644
S':'
asbag67
(g88
g69
NtRp3645
(dp3646
g72
(dp3647
sg81
g3632
sg74
(lp3648
g67
(g68
g69
NtRp3649
(dp3650
g72
(dp3651
g80
I5
ssg81
g3645
sg74
(lp3652
g67
(g76
g69
NtRp3653
(dp3654
g72
(dp3655
g80
I4
ssg81
Nsg74
(lp3656
sbasbasbasbag67
(g83
g69
NtRp3657
(dp3658
g72
(dp3659
sg81
g3398
sg74
(lp3660
g67
(g88
g69
NtRp3661
(dp3662
g72
(dp3663
g92
g93
ssg81
g3657
sg74
(lp3664
S'flash'
p3665
asbag67
(g88
g69
NtRp3666
(dp3667
g72
(dp3668
g99
g100
ssg81
g3657
sg74
(lp3669
S':'
asbag67
(g88
g69
NtRp3670
(dp3671
g72
(dp3672
sg81
g3657
sg74
(lp3673
g67
(g68
g69
NtRp3674
(dp3675
g72
(dp3676
g80
I5
ssg81
g3670
sg74
(lp3677
S''
asbasbasbag67
(g83
g69
NtRp3678
(dp3679
g72
(dp3680
sg81
g3398
sg74
(lp3681
g67
(g88
g69
NtRp3682
(dp3683
g72
(dp3684
g92
g93
ssg81
g3678
sg74
(lp3685
S'generic_patterns'
p3686
asbag67
(g88
g69
NtRp3687
(dp3688
g72
(dp3689
g99
g100
ssg81
g3678
sg74
(lp3690
S':'
asbag67
(g88
g69
NtRp3691
(dp3692
g72
(dp3693
sg81
g3678
sg74
(lp3694
g67
(g68
g69
NtRp3695
(dp3696
g72
(dp3697
g80
I5
ssg81
g3691
sg74
(lp3698
g67
(g76
g69
NtRp3699
(dp3700
g72
(dp3701
g80
I4
ssg81
Nsg74
(lp3702
g67
(g83
g69
NtRp3703
(dp3704
g72
(dp3705
sg81
g3699
sg74
(lp3706
g67
(g88
g69
NtRp3707
(dp3708
g72
(dp3709
sg81
g3703
sg74
(lp3710
g67
(g68
g69
NtRp3711
(dp3712
g72
(dp3713
g80
I4
ssg81
g3707
sg74
(lp3714
S'*'
asbasbasbasbasbasbasbag67
(g83
g69
NtRp3715
(dp3716
g72
(dp3717
sg81
g3398
sg74
(lp3718
g67
(g88
g69
NtRp3719
(dp3720
g72
(dp3721
g92
g93
ssg81
g3715
sg74
(lp3722
S'headers'
p3723
asbag67
(g88
g69
NtRp3724
(dp3725
g72
(dp3726
g99
g100
ssg81
g3715
sg74
(lp3727
S':'
asbag67
(g88
g69
NtRp3728
(dp3729
g72
(dp3730
sg81
g3715
sg74
(lp3731
g67
(g68
g69
NtRp3732
(dp3733
g72
(dp3734
g80
I5
ssg81
g3728
sg74
(lp3735
g67
(g76
g69
NtRp3736
(dp3737
g72
(dp3738
g80
I4
ssg81
Nsg74
(lp3739
g67
(g83
g69
NtRp3740
(dp3741
g72
(dp3742
sg81
g3736
sg74
(lp3743
g67
(g88
g69
NtRp3744
(dp3745
g72
(dp3746
g92
g93
ssg81
g3740
sg74
(lp3747
S'Cache-Control'
p3748
asbag67
(g88
g69
NtRp3749
(dp3750
g72
(dp3751
g99
g100
ssg81
g3740
sg74
(lp3752
S':'
asbag67
(g88
g69
NtRp3753
(dp3754
g72
(dp3755
sg81
g3740
sg74
(lp3756
g67
(g68
g69
NtRp3757
(dp3758
g72
(dp3759
g80
I4
ssg81
g3753
sg74
(lp3760
S'no-store, no-cache, must-revalidate, post-check=0, pre-check=0'
p3761
asbasbasbag67
(g83
g69
NtRp3762
(dp3763
g72
(dp3764
sg81
g3736
sg74
(lp3765
g67
(g88
g69
NtRp3766
(dp3767
g72
(dp3768
g92
g93
ssg81
g3762
sg74
(lp3769
S'Content-Type'
p3770
asbag67
(g88
g69
NtRp3771
(dp3772
g72
(dp3773
g99
g100
ssg81
g3762
sg74
(lp3774
S':'
asbag67
(g88
g69
NtRp3775
(dp3776
g72
(dp3777
sg81
g3762
sg74
(lp3778
g67
(g68
g69
NtRp3779
(dp3780
g72
(dp3781
g80
I4
ssg81
g3775
sg74
(lp3782
S'text/html; charset=utf-8'
p3783
asbasbasbag67
(g83
g69
NtRp3784
(dp3785
g72
(dp3786
sg81
g3736
sg74
(lp3787
g67
(g88
g69
NtRp3788
(dp3789
g72
(dp3790
g92
g93
ssg81
g3784
sg74
(lp3791
S'Expires'
p3792
asbag67
(g88
g69
NtRp3793
(dp3794
g72
(dp3795
g99
g100
ssg81
g3784
sg74
(lp3796
S':'
asbag67
(g88
g69
NtRp3797
(dp3798
g72
(dp3799
sg81
g3784
sg74
(lp3800
g67
(g68
g69
NtRp3801
(dp3802
g72
(dp3803
g80
I4
ssg81
g3797
sg74
(lp3804
S'Wed, 09 Nov 2011 10:13:35 GMT'
p3805
asbasbasbag67
(g83
g69
NtRp3806
(dp3807
g72
(dp3808
sg81
g3736
sg74
(lp3809
g67
(g88
g69
NtRp3810
(dp3811
g72
(dp3812
g92
g93
ssg81
g3806
sg74
(lp3813
S'Pragma'
p3814
asbag67
(g88
g69
NtRp3815
(dp3816
g72
(dp3817
g99
g100
ssg81
g3806
sg74
(lp3818
S':'
asbag67
(g88
g69
NtRp3819
(dp3820
g72
(dp3821
sg81
g3806
sg74
(lp3822
g67
(g68
g69
NtRp3823
(dp3824
g72
(dp3825
g80
I4
ssg81
g3819
sg74
(lp3826
S'no-cache'
p3827
asbasbasbag67
(g83
g69
NtRp3828
(dp3829
g72
(dp3830
sg81
g3736
sg74
(lp3831
g67
(g88
g69
NtRp3832
(dp3833
g72
(dp3834
g92
g93
ssg81
g3828
sg74
(lp3835
S'X-Powered-By'
p3836
asbag67
(g88
g69
NtRp3837
(dp3838
g72
(dp3839
g99
g100
ssg81
g3828
sg74
(lp3840
S':'
asbag67
(g88
g69
NtRp3841
(dp3842
g72
(dp3843
sg81
g3828
sg74
(lp3844
g67
(g68
g69
NtRp3845
(dp3846
g72
(dp3847
g80
I4
ssg81
g3841
sg74
(lp3848
S'web2py'
p3849
asbasbasbasbasbasbasbag67
(g83
g69
NtRp3850
(dp3851
g72
(dp3852
sg81
g3398
sg74
(lp3853
g67
(g88
g69
NtRp3854
(dp3855
g72
(dp3856
g92
g93
ssg81
g3850
sg74
(lp3857
S'menu'
p3858
asbag67
(g88
g69
NtRp3859
(dp3860
g72
(dp3861
g99
g100
ssg81
g3850
sg74
(lp3862
S':'
asbag67
(g88
g69
NtRp3863
(dp3864
g72
(dp3865
sg81
g3850
sg74
(lp3866
g67
(g68
g69
NtRp3867
(dp3868
g72
(dp3869
g80
I5
ssg81
g3863
sg74
(lp3870
g67
(g76
g69
NtRp3871
(dp3872
g72
(dp3873
g80
I4
ssg81
Nsg74
(lp3874
g67
(g83
g69
NtRp3875
(dp3876
g72
(dp3877
sg81
g3871
sg74
(lp3878
g67
(g88
g69
NtRp3879
(dp3880
g72
(dp3881
sg81
g3875
sg74
(lp3882
g67
(g68
g69
NtRp3883
(dp3884
g72
(dp3885
g80
I4
ssg81
g3879
sg74
(lp3886
g67
(g76
g69
NtRp3887
(dp3888
g72
(dp3889
g80
I3
ssg81
Nsg74
(lp3890
g67
(g83
g69
NtRp3891
(dp3892
g72
(dp3893
sg81
g3887
sg74
(lp3894
g67
(g88
g69
NtRp3895
(dp3896
g72
(dp3897
sg81
g3891
sg74
(lp3898
g67
(g68
g69
NtRp3899
(dp3900
g72
(dp3901
g80
I3
ssg81
g3895
sg74
(lp3902
cgluon.languages
lazyT_unpickle
p3903
(S's\x04\x00\x00\x00Home'
tRp3904
asbasbasbag67
(g83
g69
NtRp3905
(dp3906
g72
(dp3907
sg81
g3887
sg74
(lp3908
g67
(g88
g69
NtRp3909
(dp3910
g72
(dp3911
sg81
g3905
sg74
(lp3912
g67
(g68
g69
NtRp3913
(dp3914
g72
(dp3915
g80
I3
ssg81
g3909
sg74
(lp3916
g110
asbasbasbag67
(g83
g69
NtRp3917
(dp3918
g72
(dp3919
sg81
g3887
sg74
(lp3920
g67
(g88
g69
NtRp3921
(dp3922
g72
(dp3923
sg81
g3917
sg74
(lp3924
g67
(g68
g69
NtRp3925
(dp3926
g72
(dp3927
g80
I3
ssg81
g3921
sg74
(lp3928
S'/ddlagoon/default/index'
p3929
asbasbasbag67
(g83
g69
NtRp3930
(dp3931
g72
(dp3932
sg81
g3887
sg74
(lp3933
g67
(g88
g69
NtRp3934
(dp3935
g72
(dp3936
sg81
g3930
sg74
(lp3937
g67
(g68
g69
NtRp3938
(dp3939
g72
(dp3940
g80
I3
ssg81
g3934
sg74
(lp3941
g67
(g76
g69
NtRp3942
(dp3943
g72
(dp3944
g80
I2
ssg81
Nsg74
(lp3945
sbasbasbasbasbasbasbasbag67
(g83
g69
NtRp3946
(dp3947
g72
(dp3948
sg81
g3871
sg74
(lp3949
g67
(g88
g69
NtRp3950
(dp3951
g72
(dp3952
sg81
g3946
sg74
(lp3953
g67
(g68
g69
NtRp3954
(dp3955
g72
(dp3956
g80
I4
ssg81
g3950
sg74
(lp3957
g67
(g76
g69
NtRp3958
(dp3959
g72
(dp3960
g80
I3
ssg81
Nsg74
(lp3961
g67
(g83
g69
NtRp3962
(dp3963
g72
(dp3964
sg81
g3958
sg74
(lp3965
g67
(g88
g69
NtRp3966
(dp3967
g72
(dp3968
sg81
g3962
sg74
(lp3969
g67
(g68
g69
NtRp3970
(dp3971
g72
(dp3972
g80
I3
ssg81
g3966
sg74
(lp3973
g3903
(S's\x08\x00\x00\x00This App'
tRp3974
asbasbasbag67
(g83
g69
NtRp3975
(dp3976
g72
(dp3977
sg81
g3958
sg74
(lp3978
g67
(g88
g69
NtRp3979
(dp3980
g72
(dp3981
sg81
g3975
sg74
(lp3982
g67
(g68
g69
NtRp3983
(dp3984
g72
(dp3985
g80
I3
ssg81
g3979
sg74
(lp3986
g110
asbasbasbag67
(g83
g69
NtRp3987
(dp3988
g72
(dp3989
sg81
g3958
sg74
(lp3990
g67
(g88
g69
NtRp3991
(dp3992
g72
(dp3993
sg81
g3987
sg74
(lp3994
g67
(g68
g69
NtRp3995
(dp3996
g72
(dp3997
g80
I3
ssg81
g3991
sg74
(lp3998
S'/admin/default/design/ddlagoon'
p3999
asbasbasbag67
(g83
g69
NtRp4000
(dp4001
g72
(dp4002
sg81
g3958
sg74
(lp4003
g67
(g88
g69
NtRp4004
(dp4005
g72
(dp4006
sg81
g4000
sg74
(lp4007
g67
(g68
g69
NtRp4008
(dp4009
g72
(dp4010
g80
I3
ssg81
g4004
sg74
(lp4011
g67
(g76
g69
NtRp4012
(dp4013
g72
(dp4014
g80
I2
ssg81
Nsg74
(lp4015
g67
(g83
g69
NtRp4016
(dp4017
g72
(dp4018
sg81
g4012
sg74
(lp4019
g67
(g88
g69
NtRp4020
(dp4021
g72
(dp4022
sg81
g4016
sg74
(lp4023
g67
(g68
g69
NtRp4024
(dp4025
g72
(dp4026
g80
I2
ssg81
g4020
sg74
(lp4027
g67
(g76
g69
NtRp4028
(dp4029
g72
(dp4030
g80
I1
ssg81
Nsg74
(lp4031
g67
(g83
g69
NtRp4032
(dp4033
g72
(dp4034
sg81
g4028
sg74
(lp4035
g67
(g88
g69
NtRp4036
(dp4037
g72
(dp4038
sg81
g4032
sg74
(lp4039
g67
(g68
g69
NtRp4040
(dp4041
g72
(dp4042
g80
I1
ssg81
g4036
sg74
(lp4043
g3903
(S's\n\x00\x00\x00Controller'
tRp4044
asbasbasbag67
(g83
g69
NtRp4045
(dp4046
g72
(dp4047
sg81
g4028
sg74
(lp4048
g67
(g88
g69
NtRp4049
(dp4050
g72
(dp4051
sg81
g4045
sg74
(lp4052
g67
(g68
g69
NtRp4053
(dp4054
g72
(dp4055
g80
I1
ssg81
g4049
sg74
(lp4056
I00
asbasbasbag67
(g83
g69
NtRp4057
(dp4058
g72
(dp4059
sg81
g4028
sg74
(lp4060
g67
(g88
g69
NtRp4061
(dp4062
g72
(dp4063
sg81
g4057
sg74
(lp4064
g67
(g68
g69
NtRp4065
(dp4066
g72
(dp4067
g80
I1
ssg81
g4061
sg74
(lp4068
S'/admin/default/edit/ddlagoon/controllers/default.py'
p4069
asbasbasbasbasbasbasbag67
(g83
g69
NtRp4070
(dp4071
g72
(dp4072
sg81
g4012
sg74
(lp4073
g67
(g88
g69
NtRp4074
(dp4075
g72
(dp4076
sg81
g4070
sg74
(lp4077
g67
(g68
g69
NtRp4078
(dp4079
g72
(dp4080
g80
I2
ssg81
g4074
sg74
(lp4081
g67
(g76
g69
NtRp4082
(dp4083
g72
(dp4084
g80
I1
ssg81
Nsg74
(lp4085
g67
(g83
g69
NtRp4086
(dp4087
g72
(dp4088
sg81
g4082
sg74
(lp4089
g67
(g88
g69
NtRp4090
(dp4091
g72
(dp4092
sg81
g4086
sg74
(lp4093
g67
(g68
g69
NtRp4094
(dp4095
g72
(dp4096
g80
I1
ssg81
g4090
sg74
(lp4097
g3903
(S's\x04\x00\x00\x00View'
tRp4098
asbasbasbag67
(g83
g69
NtRp4099
(dp4100
g72
(dp4101
sg81
g4082
sg74
(lp4102
g67
(g88
g69
NtRp4103
(dp4104
g72
(dp4105
sg81
g4099
sg74
(lp4106
g67
(g68
g69
NtRp4107
(dp4108
g72
(dp4109
g80
I1
ssg81
g4103
sg74
(lp4110
I00
asbasbasbag67
(g83
g69
NtRp4111
(dp4112
g72
(dp4113
sg81
g4082
sg74
(lp4114
g67
(g88
g69
NtRp4115
(dp4116
g72
(dp4117
sg81
g4111
sg74
(lp4118
g67
(g68
g69
NtRp4119
(dp4120
g72
(dp4121
g80
I1
ssg81
g4115
sg74
(lp4122
S'/admin/default/edit/ddlagoon/views/default/how_to_upload.html'
p4123
asbasbasbasbasbasbasbag67
(g83
g69
NtRp4124
(dp4125
g72
(dp4126
sg81
g4012
sg74
(lp4127
g67
(g88
g69
NtRp4128
(dp4129
g72
(dp4130
sg81
g4124
sg74
(lp4131
g67
(g68
g69
NtRp4132
(dp4133
g72
(dp4134
g80
I2
ssg81
g4128
sg74
(lp4135
g67
(g76
g69
NtRp4136
(dp4137
g72
(dp4138
g80
I1
ssg81
Nsg74
(lp4139
g67
(g83
g69
NtRp4140
(dp4141
g72
(dp4142
sg81
g4136
sg74
(lp4143
g67
(g88
g69
NtRp4144
(dp4145
g72
(dp4146
sg81
g4140
sg74
(lp4147
g67
(g68
g69
NtRp4148
(dp4149
g72
(dp4150
g80
I1
ssg81
g4144
sg74
(lp4151
g3903
(S's\x06\x00\x00\x00Layout'
tRp4152
asbasbasbag67
(g83
g69
NtRp4153
(dp4154
g72
(dp4155
sg81
g4136
sg74
(lp4156
g67
(g88
g69
NtRp4157
(dp4158
g72
(dp4159
sg81
g4153
sg74
(lp4160
g67
(g68
g69
NtRp4161
(dp4162
g72
(dp4163
g80
I1
ssg81
g4157
sg74
(lp4164
I00
asbasbasbag67
(g83
g69
NtRp4165
(dp4166
g72
(dp4167
sg81
g4136
sg74
(lp4168
g67
(g88
g69
NtRp4169
(dp4170
g72
(dp4171
sg81
g4165
sg74
(lp4172
g67
(g68
g69
NtRp4173
(dp4174
g72
(dp4175
g80
I1
ssg81
g4169
sg74
(lp4176
S'/admin/default/edit/ddlagoon/views/layout.html'
p4177
asbasbasbasbasbasbasbag67
(g83
g69
NtRp4178
(dp4179
g72
(dp4180
sg81
g4012
sg74
(lp4181
g67
(g88
g69
NtRp4182
(dp4183
g72
(dp4184
sg81
g4178
sg74
(lp4185
g67
(g68
g69
NtRp4186
(dp4187
g72
(dp4188
g80
I2
ssg81
g4182
sg74
(lp4189
g67
(g76
g69
NtRp4190
(dp4191
g72
(dp4192
g80
I1
ssg81
Nsg74
(lp4193
g67
(g83
g69
NtRp4194
(dp4195
g72
(dp4196
sg81
g4190
sg74
(lp4197
g67
(g88
g69
NtRp4198
(dp4199
g72
(dp4200
sg81
g4194
sg74
(lp4201
g67
(g68
g69
NtRp4202
(dp4203
g72
(dp4204
g80
I1
ssg81
g4198
sg74
(lp4205
g3903
(S's\n\x00\x00\x00Stylesheet'
tRp4206
asbasbasbag67
(g83
g69
NtRp4207
(dp4208
g72
(dp4209
sg81
g4190
sg74
(lp4210
g67
(g88
g69
NtRp4211
(dp4212
g72
(dp4213
sg81
g4207
sg74
(lp4214
g67
(g68
g69
NtRp4215
(dp4216
g72
(dp4217
g80
I1
ssg81
g4211
sg74
(lp4218
I00
asbasbasbag67
(g83
g69
NtRp4219
(dp4220
g72
(dp4221
sg81
g4190
sg74
(lp4222
g67
(g88
g69
NtRp4223
(dp4224
g72
(dp4225
sg81
g4219
sg74
(lp4226
g67
(g68
g69
NtRp4227
(dp4228
g72
(dp4229
g80
I1
ssg81
g4223
sg74
(lp4230
S'/admin/default/edit/ddlagoon/static/base.css'
p4231
asbasbasbasbasbasbasbag67
(g83
g69
NtRp4232
(dp4233
g72
(dp4234
sg81
g4012
sg74
(lp4235
g67
(g88
g69
NtRp4236
(dp4237
g72
(dp4238
sg81
g4232
sg74
(lp4239
g67
(g68
g69
NtRp4240
(dp4241
g72
(dp4242
g80
I2
ssg81
g4236
sg74
(lp4243
g67
(g76
g69
NtRp4244
(dp4245
g72
(dp4246
g80
I1
ssg81
Nsg74
(lp4247
g67
(g83
g69
NtRp4248
(dp4249
g72
(dp4250
sg81
g4244
sg74
(lp4251
g67
(g88
g69
NtRp4252
(dp4253
g72
(dp4254
sg81
g4248
sg74
(lp4255
g67
(g68
g69
NtRp4256
(dp4257
g72
(dp4258
g80
I1
ssg81
g4252
sg74
(lp4259
g3903
(S's\x08\x00\x00\x00DB Model'
tRp4260
asbasbasbag67
(g83
g69
NtRp4261
(dp4262
g72
(dp4263
sg81
g4244
sg74
(lp4264
g67
(g88
g69
NtRp4265
(dp4266
g72
(dp4267
sg81
g4261
sg74
(lp4268
g67
(g68
g69
NtRp4269
(dp4270
g72
(dp4271
g80
I1
ssg81
g4265
sg74
(lp4272
I00
asbasbasbag67
(g83
g69
NtRp4273
(dp4274
g72
(dp4275
sg81
g4244
sg74
(lp4276
g67
(g88
g69
NtRp4277
(dp4278
g72
(dp4279
sg81
g4273
sg74
(lp4280
g67
(g68
g69
NtRp4281
(dp4282
g72
(dp4283
g80
I1
ssg81
g4277
sg74
(lp4284
S'/admin/default/edit/ddlagoon/models/db.py'
p4285
asbasbasbasbasbasbasbag67
(g83
g69
NtRp4286
(dp4287
g72
(dp4288
sg81
g4012
sg74
(lp4289
g67
(g88
g69
NtRp4290
(dp4291
g72
(dp4292
sg81
g4286
sg74
(lp4293
g67
(g68
g69
NtRp4294
(dp4295
g72
(dp4296
g80
I2
ssg81
g4290
sg74
(lp4297
g67
(g76
g69
NtRp4298
(dp4299
g72
(dp4300
g80
I1
ssg81
Nsg74
(lp4301
g67
(g83
g69
NtRp4302
(dp4303
g72
(dp4304
sg81
g4298
sg74
(lp4305
g67
(g88
g69
NtRp4306
(dp4307
g72
(dp4308
sg81
g4302
sg74
(lp4309
g67
(g68
g69
NtRp4310
(dp4311
g72
(dp4312
g80
I1
ssg81
g4306
sg74
(lp4313
g3903
(S's\n\x00\x00\x00Menu Model'
tRp4314
asbasbasbag67
(g83
g69
NtRp4315
(dp4316
g72
(dp4317
sg81
g4298
sg74
(lp4318
g67
(g88
g69
NtRp4319
(dp4320
g72
(dp4321
sg81
g4315
sg74
(lp4322
g67
(g68
g69
NtRp4323
(dp4324
g72
(dp4325
g80
I1
ssg81
g4319
sg74
(lp4326
I00
asbasbasbag67
(g83
g69
NtRp4327
(dp4328
g72
(dp4329
sg81
g4298
sg74
(lp4330
g67
(g88
g69
NtRp4331
(dp4332
g72
(dp4333
sg81
g4327
sg74
(lp4334
g67
(g68
g69
NtRp4335
(dp4336
g72
(dp4337
g80
I1
ssg81
g4331
sg74
(lp4338
S'/admin/default/edit/ddlagoon/models/menu.py'
p4339
asbasbasbasbasbasbasbag67
(g83
g69
NtRp4340
(dp4341
g72
(dp4342
sg81
g4012
sg74
(lp4343
g67
(g88
g69
NtRp4344
(dp4345
g72
(dp4346
sg81
g4340
sg74
(lp4347
g67
(g68
g69
NtRp4348
(dp4349
g72
(dp4350
g80
I2
ssg81
g4344
sg74
(lp4351
g67
(g76
g69
NtRp4352
(dp4353
g72
(dp4354
g80
I1
ssg81
Nsg74
(lp4355
g67
(g83
g69
NtRp4356
(dp4357
g72
(dp4358
sg81
g4352
sg74
(lp4359
g67
(g88
g69
NtRp4360
(dp4361
g72
(dp4362
sg81
g4356
sg74
(lp4363
g67
(g68
g69
NtRp4364
(dp4365
g72
(dp4366
g80
I1
ssg81
g4360
sg74
(lp4367
g3903
(S's\x08\x00\x00\x00Database'
tRp4368
asbasbasbag67
(g83
g69
NtRp4369
(dp4370
g72
(dp4371
sg81
g4352
sg74
(lp4372
g67
(g88
g69
NtRp4373
(dp4374
g72
(dp4375
sg81
g4369
sg74
(lp4376
g67
(g68
g69
NtRp4377
(dp4378
g72
(dp4379
g80
I1
ssg81
g4373
sg74
(lp4380
I00
asbasbasbag67
(g83
g69
NtRp4381
(dp4382
g72
(dp4383
sg81
g4352
sg74
(lp4384
g67
(g88
g69
NtRp4385
(dp4386
g72
(dp4387
sg81
g4381
sg74
(lp4388
g67
(g68
g69
NtRp4389
(dp4390
g72
(dp4391
g80
I1
ssg81
g4385
sg74
(lp4392
S'/ddlagoon/appadmin/index'
p4393
asbasbasbasbasbasbasbag67
(g83
g69
NtRp4394
(dp4395
g72
(dp4396
sg81
g4012
sg74
(lp4397
g67
(g88
g69
NtRp4398
(dp4399
g72
(dp4400
sg81
g4394
sg74
(lp4401
g67
(g68
g69
NtRp4402
(dp4403
g72
(dp4404
g80
I2
ssg81
g4398
sg74
(lp4405
g67
(g76
g69
NtRp4406
(dp4407
g72
(dp4408
g80
I1
ssg81
Nsg74
(lp4409
g67
(g83
g69
NtRp4410
(dp4411
g72
(dp4412
sg81
g4406
sg74
(lp4413
g67
(g88
g69
NtRp4414
(dp4415
g72
(dp4416
sg81
g4410
sg74
(lp4417
g67
(g68
g69
NtRp4418
(dp4419
g72
(dp4420
g80
I1
ssg81
g4414
sg74
(lp4421
g3903
(S's\x06\x00\x00\x00Errors'
tRp4422
asbasbasbag67
(g83
g69
NtRp4423
(dp4424
g72
(dp4425
sg81
g4406
sg74
(lp4426
g67
(g88
g69
NtRp4427
(dp4428
g72
(dp4429
sg81
g4423
sg74
(lp4430
g67
(g68
g69
NtRp4431
(dp4432
g72
(dp4433
g80
I1
ssg81
g4427
sg74
(lp4434
I00
asbasbasbag67
(g83
g69
NtRp4435
(dp4436
g72
(dp4437
sg81
g4406
sg74
(lp4438
g67
(g88
g69
NtRp4439
(dp4440
g72
(dp4441
sg81
g4435
sg74
(lp4442
g67
(g68
g69
NtRp4443
(dp4444
g72
(dp4445
g80
I1
ssg81
g4439
sg74
(lp4446
S'/admin/default/errors/ddlagoon'
p4447
asbasbasbasbasbasbasbag67
(g83
g69
NtRp4448
(dp4449
g72
(dp4450
sg81
g4012
sg74
(lp4451
g67
(g88
g69
NtRp4452
(dp4453
g72
(dp4454
sg81
g4448
sg74
(lp4455
g67
(g68
g69
NtRp4456
(dp4457
g72
(dp4458
g80
I2
ssg81
g4452
sg74
(lp4459
g67
(g76
g69
NtRp4460
(dp4461
g72
(dp4462
g80
I1
ssg81
Nsg74
(lp4463
g67
(g83
g69
NtRp4464
(dp4465
g72
(dp4466
sg81
g4460
sg74
(lp4467
g67
(g88
g69
NtRp4468
(dp4469
g72
(dp4470
sg81
g4464
sg74
(lp4471
g67
(g68
g69
NtRp4472
(dp4473
g72
(dp4474
g80
I1
ssg81
g4468
sg74
(lp4475
g3903
(S's\x05\x00\x00\x00About'
tRp4476
asbasbasbag67
(g83
g69
NtRp4477
(dp4478
g72
(dp4479
sg81
g4460
sg74
(lp4480
g67
(g88
g69
NtRp4481
(dp4482
g72
(dp4483
sg81
g4477
sg74
(lp4484
g67
(g68
g69
NtRp4485
(dp4486
g72
(dp4487
g80
I1
ssg81
g4481
sg74
(lp4488
I00
asbasbasbag67
(g83
g69
NtRp4489
(dp4490
g72
(dp4491
sg81
g4460
sg74
(lp4492
g67
(g88
g69
NtRp4493
(dp4494
g72
(dp4495
sg81
g4489
sg74
(lp4496
g67
(g68
g69
NtRp4497
(dp4498
g72
(dp4499
g80
I1
ssg81
g4493
sg74
(lp4500
S'/admin/default/about/ddlagoon'
p4501
asbasbasbasbasbasbasbasbasbasbasbasbasbasbasbag67
(g83
g69
NtRp4502
(dp4503
g72
(dp4504
sg81
g3871
sg74
(lp4505
g67
(g88
g69
NtRp4506
(dp4507
g72
(dp4508
sg81
g4502
sg74
(lp4509
g67
(g68
g69
NtRp4510
(dp4511
g72
(dp4512
g80
I4
ssg81
g4506
sg74
(lp4513
g67
(g76
g69
NtRp4514
(dp4515
g72
(dp4516
g80
I3
ssg81
Nsg74
(lp4517
g67
(g83
g69
NtRp4518
(dp4519
g72
(dp4520
sg81
g4514
sg74
(lp4521
g67
(g88
g69
NtRp4522
(dp4523
g72
(dp4524
sg81
g4518
sg74
(lp4525
g67
(g68
g69
NtRp4526
(dp4527
g72
(dp4528
g80
I3
ssg81
g4522
sg74
(lp4529
g3903
(S's\t\x00\x00\x00Resources'
tRp4530
asbasbasbag67
(g83
g69
NtRp4531
(dp4532
g72
(dp4533
sg81
g4514
sg74
(lp4534
g67
(g88
g69
NtRp4535
(dp4536
g72
(dp4537
sg81
g4531
sg74
(lp4538
g67
(g68
g69
NtRp4539
(dp4540
g72
(dp4541
g80
I3
ssg81
g4535
sg74
(lp4542
g110
asbasbasbag67
(g83
g69
NtRp4543
(dp4544
g72
(dp4545
sg81
g4514
sg74
(lp4546
g67
(g88
g69
NtRp4547
(dp4548
g72
(dp4549
sg81
g4543
sg74
(lp4550
g67
(g68
g69
NtRp4551
(dp4552
g72
(dp4553
g80
I3
ssg81
g4547
sg74
(lp4554
S'None'
p4555
asbasbasbag67
(g83
g69
NtRp4556
(dp4557
g72
(dp4558
sg81
g4514
sg74
(lp4559
g67
(g88
g69
NtRp4560
(dp4561
g72
(dp4562
sg81
g4556
sg74
(lp4563
g67
(g68
g69
NtRp4564
(dp4565
g72
(dp4566
g80
I3
ssg81
g4560
sg74
(lp4567
g67
(g76
g69
NtRp4568
(dp4569
g72
(dp4570
g80
I2
ssg81
Nsg74
(lp4571
g67
(g83
g69
NtRp4572
(dp4573
g72
(dp4574
sg81
g4568
sg74
(lp4575
g67
(g88
g69
NtRp4576
(dp4577
g72
(dp4578
sg81
g4572
sg74
(lp4579
g67
(g68
g69
NtRp4580
(dp4581
g72
(dp4582
g80
I2
ssg81
g4576
sg74
(lp4583
g67
(g76
g69
NtRp4584
(dp4585
g72
(dp4586
g80
I1
ssg81
Nsg74
(lp4587
g67
(g83
g69
NtRp4588
(dp4589
g72
(dp4590
sg81
g4584
sg74
(lp4591
g67
(g88
g69
NtRp4592
(dp4593
g72
(dp4594
sg81
g4588
sg74
(lp4595
g67
(g68
g69
NtRp4596
(dp4597
g72
(dp4598
g80
I1
ssg81
g4592
sg74
(lp4599
g3903
(S's\r\x00\x00\x00Documentation'
tRp4600
asbasbasbag67
(g83
g69
NtRp4601
(dp4602
g72
(dp4603
sg81
g4584
sg74
(lp4604
g67
(g88
g69
NtRp4605
(dp4606
g72
(dp4607
sg81
g4601
sg74
(lp4608
g67
(g68
g69
NtRp4609
(dp4610
g72
(dp4611
g80
I1
ssg81
g4605
sg74
(lp4612
I00
asbasbasbag67
(g83
g69
NtRp4613
(dp4614
g72
(dp4615
sg81
g4584
sg74
(lp4616
g67
(g88
g69
NtRp4617
(dp4618
g72
(dp4619
sg81
g4613
sg74
(lp4620
g67
(g68
g69
NtRp4621
(dp4622
g72
(dp4623
g80
I1
ssg81
g4617
sg74
(lp4624
S'http://www.web2py.com/book'
p4625
asbasbasbag67
(g83
g69
NtRp4626
(dp4627
g72
(dp4628
sg81
g4584
sg74
(lp4629
g67
(g88
g69
NtRp4630
(dp4631
g72
(dp4632
sg81
g4626
sg74
(lp4633
g67
(g68
g69
NtRp4634
(dp4635
g72
(dp4636
g80
I1
ssg81
g4630
sg74
(lp4637
(lp4638
(g3903
(S's\x07\x00\x00\x00Preface'
tRp4639
I00
S'http://www.web2py.com/book/default/chapter/00'
p4640
tp4641
a(g3903
(S's\x0c\x00\x00\x00Introduction'
tRp4642
I00
S'http://www.web2py.com/book/default/chapter/01'
p4643
tp4644
a(g3903
(S's\x06\x00\x00\x00Python'
tRp4645
I00
S'http://www.web2py.com/book/default/chapter/02'
p4646
tp4647
a(g3903
(S's\x08\x00\x00\x00Overview'
tRp4648
I00
S'http://www.web2py.com/book/default/chapter/03'
p4649
tp4650
a(g3903
(S's\x08\x00\x00\x00The Core'
tRp4651
I00
S'http://www.web2py.com/book/default/chapter/04'
p4652
tp4653
a(g3903
(S's\t\x00\x00\x00The Views'
tRp4654
I00
S'http://www.web2py.com/book/default/chapter/05'
p4655
tp4656
a(g3903
(S's\x08\x00\x00\x00Database'
tRp4657
I00
S'http://www.web2py.com/book/default/chapter/06'
p4658
tp4659
a(g3903
(S's\x14\x00\x00\x00Forms and Validators'
tRp4660
I00
S'http://www.web2py.com/book/default/chapter/07'
p4661
tp4662
a(g3903
(S's\x0e\x00\x00\x00Access Control'
tRp4663
I00
S'http://www.web2py.com/book/default/chapter/08'
p4664
tp4665
a(g3903
(S's\x08\x00\x00\x00Services'
tRp4666
I00
S'http://www.web2py.com/book/default/chapter/09'
p4667
tp4668
a(g3903
(S's\x0c\x00\x00\x00Ajax Recipes'
tRp4669
I00
S'http://www.web2py.com/book/default/chapter/10'
p4670
tp4671
a(g3903
(S's\x12\x00\x00\x00Deployment Recipes'
tRp4672
I00
S'http://www.web2py.com/book/default/chapter/11'
p4673
tp4674
a(g3903
(S's\r\x00\x00\x00Other Recipes'
tRp4675
I00
S'http://www.web2py.com/book/default/chapter/12'
p4676
tp4677
a(g3903
(S's\r\x00\x00\x00Buy this book'
tRp4678
I00
S'http://stores.lulu.com/web2py'
p4679
tp4680
aasbasbasbasbasbasbasbag67
(g83
g69
NtRp4681
(dp4682
g72
(dp4683
sg81
g4568
sg74
(lp4684
g67
(g88
g69
NtRp4685
(dp4686
g72
(dp4687
sg81
g4681
sg74
(lp4688
g67
(g68
g69
NtRp4689
(dp4690
g72
(dp4691
g80
I2
ssg81
g4685
sg74
(lp4692
g67
(g76
g69
NtRp4693
(dp4694
g72
(dp4695
g80
I1
ssg81
Nsg74
(lp4696
g67
(g83
g69
NtRp4697
(dp4698
g72
(dp4699
sg81
g4693
sg74
(lp4700
g67
(g88
g69
NtRp4701
(dp4702
g72
(dp4703
sg81
g4697
sg74
(lp4704
g67
(g68
g69
NtRp4705
(dp4706
g72
(dp4707
g80
I1
ssg81
g4701
sg74
(lp4708
g3903
(S's\t\x00\x00\x00Community'
tRp4709
asbasbasbag67
(g83
g69
NtRp4710
(dp4711
g72
(dp4712
sg81
g4693
sg74
(lp4713
g67
(g88
g69
NtRp4714
(dp4715
g72
(dp4716
sg81
g4710
sg74
(lp4717
g67
(g68
g69
NtRp4718
(dp4719
g72
(dp4720
g80
I1
ssg81
g4714
sg74
(lp4721
I00
asbasbasbag67
(g83
g69
NtRp4722
(dp4723
g72
(dp4724
sg81
g4693
sg74
(lp4725
g67
(g88
g69
NtRp4726
(dp4727
g72
(dp4728
sg81
g4722
sg74
(lp4729
g67
(g68
g69
NtRp4730
(dp4731
g72
(dp4732
g80
I1
ssg81
g4726
sg74
(lp4733
Nasbasbasbag67
(g83
g69
NtRp4734
(dp4735
g72
(dp4736
sg81
g4693
sg74
(lp4737
g67
(g88
g69
NtRp4738
(dp4739
g72
(dp4740
sg81
g4734
sg74
(lp4741
g67
(g68
g69
NtRp4742
(dp4743
g72
(dp4744
g80
I1
ssg81
g4738
sg74
(lp4745
(lp4746
(g3903
(S's\x06\x00\x00\x00Groups'
tRp4747
I00
S'http://www.web2py.com/examples/default/usergroups'
p4748
tp4749
a(g3903
(S's\x07\x00\x00\x00Twitter'
tRp4750
I00
S'http://twitter.com/web2py'
p4751
tp4752
a(g3903
(S's\t\x00\x00\x00Live chat'
tRp4753
I00
S'http://mibbit.com/?channel=%23web2py&server=irc.mibbit.net'
p4754
tp4755
a(g3903
(S's\n\x00\x00\x00User Voice'
tRp4756
I00
S'http://web2py.uservoice.com/'
p4757
tp4758
aasbasbasbasbasbasbasbag67
(g83
g69
NtRp4759
(dp4760
g72
(dp4761
sg81
g4568
sg74
(lp4762
g67
(g88
g69
NtRp4763
(dp4764
g72
(dp4765
sg81
g4759
sg74
(lp4766
g67
(g68
g69
NtRp4767
(dp4768
g72
(dp4769
g80
I2
ssg81
g4763
sg74
(lp4770
g67
(g76
g69
NtRp4771
(dp4772
g72
(dp4773
g80
I1
ssg81
Nsg74
(lp4774
g67
(g83
g69
NtRp4775
(dp4776
g72
(dp4777
sg81
g4771
sg74
(lp4778
g67
(g88
g69
NtRp4779
(dp4780
g72
(dp4781
sg81
g4775
sg74
(lp4782
g67
(g68
g69
NtRp4783
(dp4784
g72
(dp4785
g80
I1
ssg81
g4779
sg74
(lp4786
g3903
(S's\x06\x00\x00\x00Web2py'
tRp4787
asbasbasbag67
(g83
g69
NtRp4788
(dp4789
g72
(dp4790
sg81
g4771
sg74
(lp4791
g67
(g88
g69
NtRp4792
(dp4793
g72
(dp4794
sg81
g4788
sg74
(lp4795
g67
(g68
g69
NtRp4796
(dp4797
g72
(dp4798
g80
I1
ssg81
g4792
sg74
(lp4799
I00
asbasbasbag67
(g83
g69
NtRp4800
(dp4801
g72
(dp4802
sg81
g4771
sg74
(lp4803
g67
(g88
g69
NtRp4804
(dp4805
g72
(dp4806
sg81
g4800
sg74
(lp4807
g67
(g68
g69
NtRp4808
(dp4809
g72
(dp4810
g80
I1
ssg81
g4804
sg74
(lp4811
S'http://www.web2py.com'
p4812
asbasbasbag67
(g83
g69
NtRp4813
(dp4814
g72
(dp4815
sg81
g4771
sg74
(lp4816
g67
(g88
g69
NtRp4817
(dp4818
g72
(dp4819
sg81
g4813
sg74
(lp4820
g67
(g68
g69
NtRp4821
(dp4822
g72
(dp4823
g80
I1
ssg81
g4817
sg74
(lp4824
(lp4825
(g3903
(S's\x08\x00\x00\x00Download'
tRp4826
I00
S'http://www.web2py.com/examples/default/download'
p4827
tp4828
a(g3903
(S's\x07\x00\x00\x00Support'
tRp4829
I00
S'http://www.web2py.com/examples/default/support'
p4830
tp4831
a(g3903
(S's\x0e\x00\x00\x00Quick Examples'
tRp4832
I00
S'http://web2py.com/examples/default/examples'
p4833
tp4834
a(g3903
(S's\x03\x00\x00\x00FAQ'
tRp4835
I00
S'http://web2py.com/AlterEgo'
p4836
tp4837
a(g3903
(S's\x11\x00\x00\x00Free Applications'
tRp4838
I00
S'http://web2py.com/appliances'
p4839
tp4840
a(g3903
(S's\x07\x00\x00\x00Plugins'
tRp4841
I00
S'http://web2py.com/plugins'
p4842
tp4843
a(g3903
(S's\x07\x00\x00\x00Recipes'
tRp4844
I00
S'http://web2pyslices.com/'
p4845
tp4846
a(g3903
(S's\x04\x00\x00\x00Demo'
tRp4847
I00
S'http://web2py.com/demo_admin'
p4848
tp4849
a(g3903
(S's\x08\x00\x00\x00Semantic'
tRp4850
I00
S'http://web2py.com/semantic'
p4851
tp4852
a(g3903
(S's\x07\x00\x00\x00Layouts'
tRp4853
I00
S'http://web2py.com/layouts'
p4854
tp4855
a(g3903
(S's\x06\x00\x00\x00Videos'
tRp4856
I00
S'http://www.web2py.com/examples/default/videos/'
p4857
tp4858
aasbasbasbasbasbasbasbasbasbasbasbasbasbasbasbasbasbasbasbag67
(g83
g69
NtRp4859
(dp4860
g72
(dp4861
sg81
g3398
sg74
(lp4862
g67
(g88
g69
NtRp4863
(dp4864
g72
(dp4865
g92
g93
ssg81
g4859
sg74
(lp4866
S'meta'
p4867
asbag67
(g88
g69
NtRp4868
(dp4869
g72
(dp4870
g99
g100
ssg81
g4859
sg74
(lp4871
S':'
asbag67
(g88
g69
NtRp4872
(dp4873
g72
(dp4874
sg81
g4859
sg74
(lp4875
g67
(g68
g69
NtRp4876
(dp4877
g72
(dp4878
g80
I5
ssg81
g4872
sg74
(lp4879
g67
(g76
g69
NtRp4880
(dp4881
g72
(dp4882
g80
I4
ssg81
Nsg74
(lp4883
g67
(g83
g69
NtRp4884
(dp4885
g72
(dp4886
sg81
g4880
sg74
(lp4887
g67
(g88
g69
NtRp4888
(dp4889
g72
(dp4890
g92
g93
ssg81
g4884
sg74
(lp4891
S'author'
p4892
asbag67
(g88
g69
NtRp4893
(dp4894
g72
(dp4895
g99
g100
ssg81
g4884
sg74
(lp4896
S':'
asbag67
(g88
g69
NtRp4897
(dp4898
g72
(dp4899
sg81
g4884
sg74
(lp4900
g67
(g68
g69
NtRp4901
(dp4902
g72
(dp4903
g80
I4
ssg81
g4897
sg74
(lp4904
S'Your Name <you@example.com>'
p4905
asbasbasbag67
(g83
g69
NtRp4906
(dp4907
g72
(dp4908
sg81
g4880
sg74
(lp4909
g67
(g88
g69
NtRp4910
(dp4911
g72
(dp4912
g92
g93
ssg81
g4906
sg74
(lp4913
S'copyright'
p4914
asbag67
(g88
g69
NtRp4915
(dp4916
g72
(dp4917
g99
g100
ssg81
g4906
sg74
(lp4918
S':'
asbag67
(g88
g69
NtRp4919
(dp4920
g72
(dp4921
sg81
g4906
sg74
(lp4922
g67
(g68
g69
NtRp4923
(dp4924
g72
(dp4925
g80
I4
ssg81
g4919
sg74
(lp4926
S'Copyright 2011'
p4927
asbasbasbag67
(g83
g69
NtRp4928
(dp4929
g72
(dp4930
sg81
g4880
sg74
(lp4931
g67
(g88
g69
NtRp4932
(dp4933
g72
(dp4934
g92
g93
ssg81
g4928
sg74
(lp4935
S'description'
p4936
asbag67
(g88
g69
NtRp4937
(dp4938
g72
(dp4939
g99
g100
ssg81
g4928
sg74
(lp4940
S':'
asbag67
(g88
g69
NtRp4941
(dp4942
g72
(dp4943
sg81
g4928
sg74
(lp4944
g67
(g68
g69
NtRp4945
(dp4946
g72
(dp4947
g80
I4
ssg81
g4941
sg74
(lp4948
S'a cool new app'
p4949
asbasbasbag67
(g83
g69
NtRp4950
(dp4951
g72
(dp4952
sg81
g4880
sg74
(lp4953
g67
(g88
g69
NtRp4954
(dp4955
g72
(dp4956
g92
g93
ssg81
g4950
sg74
(lp4957
S'generator'
p4958
asbag67
(g88
g69
NtRp4959
(dp4960
g72
(dp4961
g99
g100
ssg81
g4950
sg74
(lp4962
S':'
asbag67
(g88
g69
NtRp4963
(dp4964
g72
(dp4965
sg81
g4950
sg74
(lp4966
g67
(g68
g69
NtRp4967
(dp4968
g72
(dp4969
g80
I4
ssg81
g4963
sg74
(lp4970
S'Web2py Web Framework'
p4971
asbasbasbag67
(g83
g69
NtRp4972
(dp4973
g72
(dp4974
sg81
g4880
sg74
(lp4975
g67
(g88
g69
NtRp4976
(dp4977
g72
(dp4978
g92
g93
ssg81
g4972
sg74
(lp4979
S'keywords'
p4980
asbag67
(g88
g69
NtRp4981
(dp4982
g72
(dp4983
g99
g100
ssg81
g4972
sg74
(lp4984
S':'
asbag67
(g88
g69
NtRp4985
(dp4986
g72
(dp4987
sg81
g4972
sg74
(lp4988
g67
(g68
g69
NtRp4989
(dp4990
g72
(dp4991
g80
I4
ssg81
g4985
sg74
(lp4992
S'web2py, python, framework'
p4993
asbasbasbasbasbasbasbag67
(g83
g69
NtRp4994
(dp4995
g72
(dp4996
sg81
g3398
sg74
(lp4997
g67
(g88
g69
NtRp4998
(dp4999
g72
(dp5000
g92
g93
ssg81
g4994
sg74
(lp5001
S'postprocessing'
p5002
asbag67
(g88
g69
NtRp5003
(dp5004
g72
(dp5005
g99
g100
ssg81
g4994
sg74
(lp5006
S':'
asbag67
(g88
g69
NtRp5007
(dp5008
g72
(dp5009
sg81
g4994
sg74
(lp5010
g67
(g68
g69
NtRp5011
(dp5012
g72
(dp5013
g80
I5
ssg81
g5007
sg74
(lp5014
g67
(g76
g69
NtRp5015
(dp5016
g72
(dp5017
g80
I4
ssg81
Nsg74
(lp5018
sbasbasbasbag67
(g83
g69
NtRp5019
(dp5020
g72
(dp5021
sg81
g3398
sg74
(lp5022
g67
(g88
g69
NtRp5023
(dp5024
g72
(dp5025
g92
g93
ssg81
g5019
sg74
(lp5026
S'session_file'
p5027
asbag67
(g88
g69
NtRp5028
(dp5029
g72
(dp5030
g99
g100
ssg81
g5019
sg74
(lp5031
S':'
asbag67
(g88
g69
NtRp5032
(dp5033
g72
(dp5034
sg81
g5019
sg74
(lp5035
g67
(g68
g69
NtRp5036
(dp5037
g72
(dp5038
g80
I5
ssg81
g5032
sg74
(lp5039
S"<open file '/windows/Users/Thomas/Dropbox/appz/2011/ddlagoon/public_html/applications/ddlagoon/sessions/127.0.0.1-a8cd47ee-ccb5-4235-8c76-15b25c6b7c82', mode 'rb+' at 0x207d9c0>"
p5040
asbasbasbag67
(g83
g69
NtRp5041
(dp5042
g72
(dp5043
sg81
g3398
sg74
(lp5044
g67
(g88
g69
NtRp5045
(dp5046
g72
(dp5047
g92
g93
ssg81
g5041
sg74
(lp5048
S'session_filename'
p5049
asbag67
(g88
g69
NtRp5050
(dp5051
g72
(dp5052
g99
g100
ssg81
g5041
sg74
(lp5053
S':'
asbag67
(g88
g69
NtRp5054
(dp5055
g72
(dp5056
sg81
g5041
sg74
(lp5057
g67
(g68
g69
NtRp5058
(dp5059
g72
(dp5060
g80
I5
ssg81
g5054
sg74
(lp5061
S'/windows/Users/Thomas/Dropbox/appz/2011/ddlagoon/public_html/applications/ddlagoon/sessions/127.0.0.1-a8cd47ee-ccb5-4235-8c76-15b25c6b7c82'
p5062
asbasbasbag67
(g83
g69
NtRp5063
(dp5064
g72
(dp5065
sg81
g3398
sg74
(lp5066
g67
(g88
g69
NtRp5067
(dp5068
g72
(dp5069
g92
g93
ssg81
g5063
sg74
(lp5070
S'session_id'
p5071
asbag67
(g88
g69
NtRp5072
(dp5073
g72
(dp5074
g99
g100
ssg81
g5063
sg74
(lp5075
S':'
asbag67
(g88
g69
NtRp5076
(dp5077
g72
(dp5078
sg81
g5063
sg74
(lp5079
g67
(g68
g69
NtRp5080
(dp5081
g72
(dp5082
g80
I5
ssg81
g5076
sg74
(lp5083
S'127.0.0.1-a8cd47ee-ccb5-4235-8c76-15b25c6b7c82'
p5084
asbasbasbag67
(g83
g69
NtRp5085
(dp5086
g72
(dp5087
sg81
g3398
sg74
(lp5088
g67
(g88
g69
NtRp5089
(dp5090
g72
(dp5091
g92
g93
ssg81
g5085
sg74
(lp5092
S'session_id_name'
p5093
asbag67
(g88
g69
NtRp5094
(dp5095
g72
(dp5096
g99
g100
ssg81
g5085
sg74
(lp5097
S':'
asbag67
(g88
g69
NtRp5098
(dp5099
g72
(dp5100
sg81
g5085
sg74
(lp5101
g67
(g68
g69
NtRp5102
(dp5103
g72
(dp5104
g80
I5
ssg81
g5098
sg74
(lp5105
g3455
asbasbasbag67
(g83
g69
NtRp5106
(dp5107
g72
(dp5108
sg81
g3398
sg74
(lp5109
g67
(g88
g69
NtRp5110
(dp5111
g72
(dp5112
g92
g93
ssg81
g5106
sg74
(lp5113
S'session_locked'
p5114
asbag67
(g88
g69
NtRp5115
(dp5116
g72
(dp5117
g99
g100
ssg81
g5106
sg74
(lp5118
S':'
asbag67
(g88
g69
NtRp5119
(dp5120
g72
(dp5121
sg81
g5106
sg74
(lp5122
g67
(g68
g69
NtRp5123
(dp5124
g72
(dp5125
g80
I5
ssg81
g5119
sg74
(lp5126
g1645
asbasbasbag67
(g83
g69
NtRp5127
(dp5128
g72
(dp5129
sg81
g3398
sg74
(lp5130
g67
(g88
g69
NtRp5131
(dp5132
g72
(dp5133
g92
g93
ssg81
g5127
sg74
(lp5134
S'session_new'
p5135
asbag67
(g88
g69
NtRp5136
(dp5137
g72
(dp5138
g99
g100
ssg81
g5127
sg74
(lp5139
S':'
asbag67
(g88
g69
NtRp5140
(dp5141
g72
(dp5142
sg81
g5127
sg74
(lp5143
g67
(g68
g69
NtRp5144
(dp5145
g72
(dp5146
g80
I5
ssg81
g5140
sg74
(lp5147
g110
asbasbasbag67
(g83
g69
NtRp5148
(dp5149
g72
(dp5150
sg81
g3398
sg74
(lp5151
g67
(g88
g69
NtRp5152
(dp5153
g72
(dp5154
g92
g93
ssg81
g5148
sg74
(lp5155
S'status'
p5156
asbag67
(g88
g69
NtRp5157
(dp5158
g72
(dp5159
g99
g100
ssg81
g5148
sg74
(lp5160
S':'
asbag67
(g88
g69
NtRp5161
(dp5162
g72
(dp5163
sg81
g5148
sg74
(lp5164
g67
(g68
g69
NtRp5165
(dp5166
g72
(dp5167
g80
I5
ssg81
g5161
sg74
(lp5168
S'200'
p5169
asbasbasbag67
(g83
g69
NtRp5170
(dp5171
g72
(dp5172
sg81
g3398
sg74
(lp5173
g67
(g88
g69
NtRp5174
(dp5175
g72
(dp5176
g92
g93
ssg81
g5170
sg74
(lp5177
S'subtitle'
p5178
asbag67
(g88
g69
NtRp5179
(dp5180
g72
(dp5181
g99
g100
ssg81
g5170
sg74
(lp5182
S':'
asbag67
(g88
g69
NtRp5183
(dp5184
g72
(dp5185
sg81
g5170
sg74
(lp5186
g67
(g68
g69
NtRp5187
(dp5188
g72
(dp5189
g80
I5
ssg81
g5183
sg74
(lp5190
g3903
(S's\r\x00\x00\x00customize me!'
tRp5191
asbasbasbag67
(g83
g69
NtRp5192
(dp5193
g72
(dp5194
sg81
g3398
sg74
(lp5195
g67
(g88
g69
NtRp5196
(dp5197
g72
(dp5198
g92
g93
ssg81
g5192
sg74
(lp5199
S'title'
p5200
asbag67
(g88
g69
NtRp5201
(dp5202
g72
(dp5203
g99
g100
ssg81
g5192
sg74
(lp5204
S':'
asbag67
(g88
g69
NtRp5205
(dp5206
g72
(dp5207
sg81
g5192
sg74
(lp5208
g67
(g68
g69
NtRp5209
(dp5210
g72
(dp5211
g80
I5
ssg81
g5205
sg74
(lp5212
g132
asbasbasbag67
(g83
g69
NtRp5213
(dp5214
g72
(dp5215
sg81
g3398
sg74
(lp5216
g67
(g88
g69
NtRp5217
(dp5218
g72
(dp5219
g92
g93
ssg81
g5213
sg74
(lp5220
g2289
asbag67
(g88
g69
NtRp5221
(dp5222
g72
(dp5223
g99
g100
ssg81
g5213
sg74
(lp5224
S':'
asbag67
(g88
g69
NtRp5225
(dp5226
g72
(dp5227
sg81
g5213
sg74
(lp5228
g67
(g68
g69
NtRp5229
(dp5230
g72
(dp5231
g80
I5
ssg81
g5225
sg74
(lp5232
g2302
asbasbasbag67
(g83
g69
NtRp5233
(dp5234
g72
(dp5235
sg81
g3398
sg74
(lp5236
g67
(g88
g69
NtRp5237
(dp5238
g72
(dp5239
g92
g93
ssg81
g5233
sg74
(lp5240
S'view'
p5241
asbag67
(g88
g69
NtRp5242
(dp5243
g72
(dp5244
g99
g100
ssg81
g5233
sg74
(lp5245
S':'
asbag67
(g88
g69
NtRp5246
(dp5247
g72
(dp5248
sg81
g5233
sg74
(lp5249
g67
(g68
g69
NtRp5250
(dp5251
g72
(dp5252
g80
I5
ssg81
g5246
sg74
(lp5253
S'default/how_to_upload.html'
p5254
asbasbasbasbasbsS'locals'
p5255
(dp5256
g3
S"'/windows/Users/Thomas/Dropbox/appz/2011/ddlagoon...cations/ddlagoon/views/default/how_to_upload.html'"
p5257
sg5
S'"left_sidebar_enabled=right_sidebar_enabled=True\\n...nse.write(\'\\\\n  </body>\\\\n</html>\\\\n\', escape=False)"'
p5258
sssS'traceback'
p5259
S'Traceback (most recent call last):\n  File "/home/thomas/Dropbox/appz/2011/ddlagoon/public_html/gluon/restricted.py", line 193, in restricted\n    ccode = compile2(code,layer)\n  File "/home/thomas/Dropbox/appz/2011/ddlagoon/public_html/gluon/restricted.py", line 179, in compile2\n    return compile(code.rstrip().replace(\'\\r\\n\',\'\\n\')+\'\\n\', layer, \'exec\')\n  File "/windows/Users/Thomas/Dropbox/appz/2011/ddlagoon/public_html/applications/ddlagoon/views/default/how_to_upload.html", line 90\n    else\n       ^\nSyntaxError: invalid syntax\n'
p5260
s.