(dp1
S'output'
p2
S''
sS'layer'
p3
S'/windows/Users/Thomas/Dropbox/appz/2011/GAE/ddl-lagoon/applications/ddlagoon/controllers/ddl.py'
p4
sS'code'
p5
S'import tempfile\nfrom time import mktime\n\nif False:\n    from applications.ddlagoon.models.db import service, db\n\nfrom gluon.contrib import simplejson as json\n\n__author__ = \'thomas\'\n\ndef get():\n    return service()\n\n@service.xml\ndef ddl(id="", filename=""):\n    # find the record\n    ddl= db((db.ddl.filename==filename) & (db.ddl.id==id)).select().first()\n    if not ddl:\n        return "404 - File not found."\n    else:\n        # prepare the file\n        ddl = {\n            \'author\':ddl.author,\n            \'filename\':ddl.filename,\n            \'description\':ddl.description,\n            \'size\':ddl.size,\n            \'hash\':ddl.hash,\n            \'parts\':ddl.parts,\n            \'service\':ddl.service,\n            \'links\':ddl.links,\n            \'version\':ddl.version,\n            \'time\':int(mktime(ddl.date_added.timetuple()))\n        }\n        ddlJson = json.dumps(ddl, sort_keys=True, indent=4)\n        # temp file\n        ddlFile = tempfile.TemporaryFile()\n        with open(ddlFile, "rb") as myFile:\n            myFile.write(ddlJson)\n        return response.download(ddlFile)\nresponse._vars=response._caller(get)\n'
p6
sS'snapshot'
p7
(dp8
S'exception'
p9
(dp10
S'__hash__'
p11
S"<method-wrapper '__hash__' of exceptions.TypeError object>"
p12
sS'__setattr__'
p13
S"<method-wrapper '__setattr__' of exceptions.TypeError object>"
p14
sS'__reduce_ex__'
p15
S'<built-in method __reduce_ex__ of exceptions.TypeError object>'
p16
sS'__getslice__'
p17
S"<method-wrapper '__getslice__' of exceptions.TypeError object>"
p18
sS'__getitem__'
p19
S"<method-wrapper '__getitem__' of exceptions.TypeError object>"
p20
sS'__setstate__'
p21
S'<built-in method __setstate__ of exceptions.TypeError object>'
p22
sS'args'
p23
S"('coercing to Unicode: need string or buffer, file found',)"
p24
sS'__reduce__'
p25
S'<built-in method __reduce__ of exceptions.TypeError object>'
p26
sS'__str__'
p27
S"<method-wrapper '__str__' of exceptions.TypeError object>"
p28
sS'__format__'
p29
S'<built-in method __format__ of exceptions.TypeError object>'
p30
sS'__getattribute__'
p31
S"<method-wrapper '__getattribute__' of exceptions.TypeError object>"
p32
sS'__class__'
p33
S"<type 'exceptions.TypeError'>"
p34
sS'__unicode__'
p35
S'<built-in method __unicode__ of exceptions.TypeError object>'
p36
sS'__delattr__'
p37
S"<method-wrapper '__delattr__' of exceptions.TypeError object>"
p38
sS'__subclasshook__'
p39
S'<built-in method __subclasshook__ of type object>'
p40
sS'__repr__'
p41
S"<method-wrapper '__repr__' of exceptions.TypeError object>"
p42
sS'__dict__'
p43
S'{}'
p44
sS'__sizeof__'
p45
S'<built-in method __sizeof__ of exceptions.TypeError object>'
p46
sS'__doc__'
p47
S"'Inappropriate argument type.'"
p48
sS'__init__'
p49
S"<method-wrapper '__init__' of exceptions.TypeError object>"
p50
sS'__new__'
p51
S'<built-in method __new__ of type object>'
p52
ssS'evalue'
p53
S'coercing to Unicode: need string or buffer, file found'
p54
sS'request'
p55
ccopy_reg
_reconstructor
p56
(cgluon.html
BEAUTIFY
p57
c__builtin__
object
p58
NtRp59
(dp60
S'attributes'
p61
(dp62
sS'components'
p63
(lp64
g56
(cgluon.html
TABLE
p65
g58
NtRp66
(dp67
g61
(dp68
S'level'
p69
I5
ssS'parent'
p70
Nsg63
(lp71
g56
(cgluon.html
TR
p72
g58
NtRp73
(dp74
g61
(dp75
sg70
g66
sg63
(lp76
g56
(cgluon.html
TD
p77
g58
NtRp78
(dp79
g61
(dp80
S'_style'
p81
S'font-weight:bold;'
p82
ssg70
g73
sg63
(lp83
S'ajax'
p84
asbag56
(g77
g58
NtRp85
(dp86
g61
(dp87
S'_valign'
p88
S'top'
p89
ssg70
g73
sg63
(lp90
S':'
asbag56
(g77
g58
NtRp91
(dp92
g61
(dp93
sg70
g73
sg63
(lp94
g56
(g57
g58
NtRp95
(dp96
g61
(dp97
g69
I5
ssg70
g91
sg63
(lp98
S'False'
p99
asbasbasbag56
(g72
g58
NtRp100
(dp101
g61
(dp102
sg70
g66
sg63
(lp103
g56
(g77
g58
NtRp104
(dp105
g61
(dp106
g81
g82
ssg70
g100
sg63
(lp107
S'application'
p108
asbag56
(g77
g58
NtRp109
(dp110
g61
(dp111
g88
g89
ssg70
g100
sg63
(lp112
S':'
asbag56
(g77
g58
NtRp113
(dp114
g61
(dp115
sg70
g100
sg63
(lp116
g56
(g57
g58
NtRp117
(dp118
g61
(dp119
g69
I5
ssg70
g113
sg63
(lp120
S'ddlagoon'
p121
asbasbasbag56
(g72
g58
NtRp122
(dp123
g61
(dp124
sg70
g66
sg63
(lp125
g56
(g77
g58
NtRp126
(dp127
g61
(dp128
g81
g82
ssg70
g122
sg63
(lp129
g23
asbag56
(g77
g58
NtRp130
(dp131
g61
(dp132
g88
g89
ssg70
g122
sg63
(lp133
S':'
asbag56
(g77
g58
NtRp134
(dp135
g61
(dp136
sg70
g122
sg63
(lp137
g56
(g57
g58
NtRp138
(dp139
g61
(dp140
g69
I5
ssg70
g134
sg63
(lp141
g56
(g65
g58
NtRp142
(dp143
g61
(dp144
g69
I4
ssg70
Nsg63
(lp145
g56
(g72
g58
NtRp146
(dp147
g61
(dp148
sg70
g142
sg63
(lp149
g56
(g77
g58
NtRp150
(dp151
g61
(dp152
sg70
g146
sg63
(lp153
g56
(g57
g58
NtRp154
(dp155
g61
(dp156
g69
I4
ssg70
g150
sg63
(lp157
S'run'
p158
asbasbasbag56
(g72
g58
NtRp159
(dp160
g61
(dp161
sg70
g142
sg63
(lp162
g56
(g77
g58
NtRp163
(dp164
g61
(dp165
sg70
g159
sg63
(lp166
g56
(g57
g58
NtRp167
(dp168
g61
(dp169
g69
I4
ssg70
g163
sg63
(lp170
S'ddl'
p171
asbasbasbag56
(g72
g58
NtRp172
(dp173
g61
(dp174
sg70
g142
sg63
(lp175
g56
(g77
g58
NtRp176
(dp177
g61
(dp178
sg70
g172
sg63
(lp179
g56
(g57
g58
NtRp180
(dp181
g61
(dp182
g69
I4
ssg70
g176
sg63
(lp183
S'14'
p184
asbasbasbag56
(g72
g58
NtRp185
(dp186
g61
(dp187
sg70
g142
sg63
(lp188
g56
(g77
g58
NtRp189
(dp190
g61
(dp191
sg70
g185
sg63
(lp192
g56
(g57
g58
NtRp193
(dp194
g61
(dp195
g69
I4
ssg70
g189
sg63
(lp196
S'The_Thing_2011_TS_XviD_READNFO___MiSTERE.avi'
p197
asbasbasbasbasbasbasbag56
(g72
g58
NtRp198
(dp199
g61
(dp200
sg70
g66
sg63
(lp201
g56
(g77
g58
NtRp202
(dp203
g61
(dp204
g81
g82
ssg70
g198
sg63
(lp205
S'body'
p206
asbag56
(g77
g58
NtRp207
(dp208
g61
(dp209
g88
g89
ssg70
g198
sg63
(lp210
S':'
asbag56
(g77
g58
NtRp211
(dp212
g61
(dp213
sg70
g198
sg63
(lp214
g56
(g57
g58
NtRp215
(dp216
g61
(dp217
g69
I5
ssg70
g211
sg63
(lp218
S'<cStringIO.StringO object at 0x3558d18>'
p219
asbasbasbag56
(g72
g58
NtRp220
(dp221
g61
(dp222
sg70
g66
sg63
(lp223
g56
(g77
g58
NtRp224
(dp225
g61
(dp226
g81
g82
ssg70
g220
sg63
(lp227
S'client'
p228
asbag56
(g77
g58
NtRp229
(dp230
g61
(dp231
g88
g89
ssg70
g220
sg63
(lp232
S':'
asbag56
(g77
g58
NtRp233
(dp234
g61
(dp235
sg70
g220
sg63
(lp236
g56
(g57
g58
NtRp237
(dp238
g61
(dp239
g69
I5
ssg70
g233
sg63
(lp240
S'127.0.0.1'
p241
asbasbasbag56
(g72
g58
NtRp242
(dp243
g61
(dp244
sg70
g66
sg63
(lp245
g56
(g77
g58
NtRp246
(dp247
g61
(dp248
g81
g82
ssg70
g242
sg63
(lp249
S'controller'
p250
asbag56
(g77
g58
NtRp251
(dp252
g61
(dp253
g88
g89
ssg70
g242
sg63
(lp254
S':'
asbag56
(g77
g58
NtRp255
(dp256
g61
(dp257
sg70
g242
sg63
(lp258
g56
(g57
g58
NtRp259
(dp260
g61
(dp261
g69
I5
ssg70
g255
sg63
(lp262
S'ddl'
p263
asbasbasbag56
(g72
g58
NtRp264
(dp265
g61
(dp266
sg70
g66
sg63
(lp267
g56
(g77
g58
NtRp268
(dp269
g61
(dp270
g81
g82
ssg70
g264
sg63
(lp271
S'cookies'
p272
asbag56
(g77
g58
NtRp273
(dp274
g61
(dp275
g88
g89
ssg70
g264
sg63
(lp276
S':'
asbag56
(g77
g58
NtRp277
(dp278
g61
(dp279
sg70
g264
sg63
(lp280
g56
(g57
g58
NtRp281
(dp282
g61
(dp283
g69
I5
ssg70
g277
sg63
(lp284
g56
(g65
g58
NtRp285
(dp286
g61
(dp287
g69
I4
ssg70
Nsg63
(lp288
g56
(g72
g58
NtRp289
(dp290
g61
(dp291
sg70
g285
sg63
(lp292
g56
(g77
g58
NtRp293
(dp294
g61
(dp295
g81
g82
ssg70
g289
sg63
(lp296
S'session_id_admin'
p297
asbag56
(g77
g58
NtRp298
(dp299
g61
(dp300
g88
g89
ssg70
g289
sg63
(lp301
S':'
asbag56
(g77
g58
NtRp302
(dp303
g61
(dp304
sg70
g289
sg63
(lp305
g56
(g57
g58
NtRp306
(dp307
g61
(dp308
g69
I4
ssg70
g302
sg63
(lp309
g56
(g65
g58
NtRp310
(dp311
g61
(dp312
g69
I3
ssg70
Nsg63
(lp313
g56
(g72
g58
NtRp314
(dp315
g61
(dp316
sg70
g310
sg63
(lp317
g56
(g77
g58
NtRp318
(dp319
g61
(dp320
g81
g82
ssg70
g314
sg63
(lp321
S'comment'
p322
asbag56
(g77
g58
NtRp323
(dp324
g61
(dp325
g88
g89
ssg70
g314
sg63
(lp326
S':'
asbag56
(g77
g58
NtRp327
(dp328
g61
(dp329
sg70
g314
sg63
(lp330
g56
(g57
g58
NtRp331
(dp332
g61
(dp333
g69
I3
ssg70
g327
sg63
(lp334
S''
asbasbasbag56
(g72
g58
NtRp335
(dp336
g61
(dp337
sg70
g310
sg63
(lp338
g56
(g77
g58
NtRp339
(dp340
g61
(dp341
g81
g82
ssg70
g335
sg63
(lp342
S'domain'
p343
asbag56
(g77
g58
NtRp344
(dp345
g61
(dp346
g88
g89
ssg70
g335
sg63
(lp347
S':'
asbag56
(g77
g58
NtRp348
(dp349
g61
(dp350
sg70
g335
sg63
(lp351
g56
(g57
g58
NtRp352
(dp353
g61
(dp354
g69
I3
ssg70
g348
sg63
(lp355
S''
asbasbasbag56
(g72
g58
NtRp356
(dp357
g61
(dp358
sg70
g310
sg63
(lp359
g56
(g77
g58
NtRp360
(dp361
g61
(dp362
g81
g82
ssg70
g356
sg63
(lp363
S'expires'
p364
asbag56
(g77
g58
NtRp365
(dp366
g61
(dp367
g88
g89
ssg70
g356
sg63
(lp368
S':'
asbag56
(g77
g58
NtRp369
(dp370
g61
(dp371
sg70
g356
sg63
(lp372
g56
(g57
g58
NtRp373
(dp374
g61
(dp375
g69
I3
ssg70
g369
sg63
(lp376
S''
asbasbasbag56
(g72
g58
NtRp377
(dp378
g61
(dp379
sg70
g310
sg63
(lp380
g56
(g77
g58
NtRp381
(dp382
g61
(dp383
g81
g82
ssg70
g377
sg63
(lp384
S'httponly'
p385
asbag56
(g77
g58
NtRp386
(dp387
g61
(dp388
g88
g89
ssg70
g377
sg63
(lp389
S':'
asbag56
(g77
g58
NtRp390
(dp391
g61
(dp392
sg70
g377
sg63
(lp393
g56
(g57
g58
NtRp394
(dp395
g61
(dp396
g69
I3
ssg70
g390
sg63
(lp397
S''
asbasbasbag56
(g72
g58
NtRp398
(dp399
g61
(dp400
sg70
g310
sg63
(lp401
g56
(g77
g58
NtRp402
(dp403
g61
(dp404
g81
g82
ssg70
g398
sg63
(lp405
S'max-age'
p406
asbag56
(g77
g58
NtRp407
(dp408
g61
(dp409
g88
g89
ssg70
g398
sg63
(lp410
S':'
asbag56
(g77
g58
NtRp411
(dp412
g61
(dp413
sg70
g398
sg63
(lp414
g56
(g57
g58
NtRp415
(dp416
g61
(dp417
g69
I3
ssg70
g411
sg63
(lp418
S''
asbasbasbag56
(g72
g58
NtRp419
(dp420
g61
(dp421
sg70
g310
sg63
(lp422
g56
(g77
g58
NtRp423
(dp424
g61
(dp425
g81
g82
ssg70
g419
sg63
(lp426
S'path'
p427
asbag56
(g77
g58
NtRp428
(dp429
g61
(dp430
g88
g89
ssg70
g419
sg63
(lp431
S':'
asbag56
(g77
g58
NtRp432
(dp433
g61
(dp434
sg70
g419
sg63
(lp435
g56
(g57
g58
NtRp436
(dp437
g61
(dp438
g69
I3
ssg70
g432
sg63
(lp439
S''
asbasbasbag56
(g72
g58
NtRp440
(dp441
g61
(dp442
sg70
g310
sg63
(lp443
g56
(g77
g58
NtRp444
(dp445
g61
(dp446
g81
g82
ssg70
g440
sg63
(lp447
S'secure'
p448
asbag56
(g77
g58
NtRp449
(dp450
g61
(dp451
g88
g89
ssg70
g440
sg63
(lp452
S':'
asbag56
(g77
g58
NtRp453
(dp454
g61
(dp455
sg70
g440
sg63
(lp456
g56
(g57
g58
NtRp457
(dp458
g61
(dp459
g69
I3
ssg70
g453
sg63
(lp460
S''
asbasbasbag56
(g72
g58
NtRp461
(dp462
g61
(dp463
sg70
g310
sg63
(lp464
g56
(g77
g58
NtRp465
(dp466
g61
(dp467
g81
g82
ssg70
g461
sg63
(lp468
S'version'
p469
asbag56
(g77
g58
NtRp470
(dp471
g61
(dp472
g88
g89
ssg70
g461
sg63
(lp473
S':'
asbag56
(g77
g58
NtRp474
(dp475
g61
(dp476
sg70
g461
sg63
(lp477
g56
(g57
g58
NtRp478
(dp479
g61
(dp480
g69
I3
ssg70
g474
sg63
(lp481
S''
asbasbasbasbasbasbasbag56
(g72
g58
NtRp482
(dp483
g61
(dp484
sg70
g285
sg63
(lp485
g56
(g77
g58
NtRp486
(dp487
g61
(dp488
g81
g82
ssg70
g482
sg63
(lp489
S'session_id_ddlagoon'
p490
asbag56
(g77
g58
NtRp491
(dp492
g61
(dp493
g88
g89
ssg70
g482
sg63
(lp494
S':'
asbag56
(g77
g58
NtRp495
(dp496
g61
(dp497
sg70
g482
sg63
(lp498
g56
(g57
g58
NtRp499
(dp500
g61
(dp501
g69
I4
ssg70
g495
sg63
(lp502
g56
(g65
g58
NtRp503
(dp504
g61
(dp505
g69
I3
ssg70
Nsg63
(lp506
g56
(g72
g58
NtRp507
(dp508
g61
(dp509
sg70
g503
sg63
(lp510
g56
(g77
g58
NtRp511
(dp512
g61
(dp513
g81
g82
ssg70
g507
sg63
(lp514
g322
asbag56
(g77
g58
NtRp515
(dp516
g61
(dp517
g88
g89
ssg70
g507
sg63
(lp518
S':'
asbag56
(g77
g58
NtRp519
(dp520
g61
(dp521
sg70
g507
sg63
(lp522
g56
(g57
g58
NtRp523
(dp524
g61
(dp525
g69
I3
ssg70
g519
sg63
(lp526
S''
asbasbasbag56
(g72
g58
NtRp527
(dp528
g61
(dp529
sg70
g503
sg63
(lp530
g56
(g77
g58
NtRp531
(dp532
g61
(dp533
g81
g82
ssg70
g527
sg63
(lp534
g343
asbag56
(g77
g58
NtRp535
(dp536
g61
(dp537
g88
g89
ssg70
g527
sg63
(lp538
S':'
asbag56
(g77
g58
NtRp539
(dp540
g61
(dp541
sg70
g527
sg63
(lp542
g56
(g57
g58
NtRp543
(dp544
g61
(dp545
g69
I3
ssg70
g539
sg63
(lp546
S''
asbasbasbag56
(g72
g58
NtRp547
(dp548
g61
(dp549
sg70
g503
sg63
(lp550
g56
(g77
g58
NtRp551
(dp552
g61
(dp553
g81
g82
ssg70
g547
sg63
(lp554
g364
asbag56
(g77
g58
NtRp555
(dp556
g61
(dp557
g88
g89
ssg70
g547
sg63
(lp558
S':'
asbag56
(g77
g58
NtRp559
(dp560
g61
(dp561
sg70
g547
sg63
(lp562
g56
(g57
g58
NtRp563
(dp564
g61
(dp565
g69
I3
ssg70
g559
sg63
(lp566
S''
asbasbasbag56
(g72
g58
NtRp567
(dp568
g61
(dp569
sg70
g503
sg63
(lp570
g56
(g77
g58
NtRp571
(dp572
g61
(dp573
g81
g82
ssg70
g567
sg63
(lp574
g385
asbag56
(g77
g58
NtRp575
(dp576
g61
(dp577
g88
g89
ssg70
g567
sg63
(lp578
S':'
asbag56
(g77
g58
NtRp579
(dp580
g61
(dp581
sg70
g567
sg63
(lp582
g56
(g57
g58
NtRp583
(dp584
g61
(dp585
g69
I3
ssg70
g579
sg63
(lp586
S''
asbasbasbag56
(g72
g58
NtRp587
(dp588
g61
(dp589
sg70
g503
sg63
(lp590
g56
(g77
g58
NtRp591
(dp592
g61
(dp593
g81
g82
ssg70
g587
sg63
(lp594
g406
asbag56
(g77
g58
NtRp595
(dp596
g61
(dp597
g88
g89
ssg70
g587
sg63
(lp598
S':'
asbag56
(g77
g58
NtRp599
(dp600
g61
(dp601
sg70
g587
sg63
(lp602
g56
(g57
g58
NtRp603
(dp604
g61
(dp605
g69
I3
ssg70
g599
sg63
(lp606
S''
asbasbasbag56
(g72
g58
NtRp607
(dp608
g61
(dp609
sg70
g503
sg63
(lp610
g56
(g77
g58
NtRp611
(dp612
g61
(dp613
g81
g82
ssg70
g607
sg63
(lp614
g427
asbag56
(g77
g58
NtRp615
(dp616
g61
(dp617
g88
g89
ssg70
g607
sg63
(lp618
S':'
asbag56
(g77
g58
NtRp619
(dp620
g61
(dp621
sg70
g607
sg63
(lp622
g56
(g57
g58
NtRp623
(dp624
g61
(dp625
g69
I3
ssg70
g619
sg63
(lp626
S''
asbasbasbag56
(g72
g58
NtRp627
(dp628
g61
(dp629
sg70
g503
sg63
(lp630
g56
(g77
g58
NtRp631
(dp632
g61
(dp633
g81
g82
ssg70
g627
sg63
(lp634
g448
asbag56
(g77
g58
NtRp635
(dp636
g61
(dp637
g88
g89
ssg70
g627
sg63
(lp638
S':'
asbag56
(g77
g58
NtRp639
(dp640
g61
(dp641
sg70
g627
sg63
(lp642
g56
(g57
g58
NtRp643
(dp644
g61
(dp645
g69
I3
ssg70
g639
sg63
(lp646
S''
asbasbasbag56
(g72
g58
NtRp647
(dp648
g61
(dp649
sg70
g503
sg63
(lp650
g56
(g77
g58
NtRp651
(dp652
g61
(dp653
g81
g82
ssg70
g647
sg63
(lp654
g469
asbag56
(g77
g58
NtRp655
(dp656
g61
(dp657
g88
g89
ssg70
g647
sg63
(lp658
S':'
asbag56
(g77
g58
NtRp659
(dp660
g61
(dp661
sg70
g647
sg63
(lp662
g56
(g57
g58
NtRp663
(dp664
g61
(dp665
g69
I3
ssg70
g659
sg63
(lp666
S''
asbasbasbasbasbasbasbag56
(g72
g58
NtRp667
(dp668
g61
(dp669
sg70
g285
sg63
(lp670
g56
(g77
g58
NtRp671
(dp672
g61
(dp673
g81
g82
ssg70
g667
sg63
(lp674
S'session_id_welcome'
p675
asbag56
(g77
g58
NtRp676
(dp677
g61
(dp678
g88
g89
ssg70
g667
sg63
(lp679
S':'
asbag56
(g77
g58
NtRp680
(dp681
g61
(dp682
sg70
g667
sg63
(lp683
g56
(g57
g58
NtRp684
(dp685
g61
(dp686
g69
I4
ssg70
g680
sg63
(lp687
g56
(g65
g58
NtRp688
(dp689
g61
(dp690
g69
I3
ssg70
Nsg63
(lp691
g56
(g72
g58
NtRp692
(dp693
g61
(dp694
sg70
g688
sg63
(lp695
g56
(g77
g58
NtRp696
(dp697
g61
(dp698
g81
g82
ssg70
g692
sg63
(lp699
g322
asbag56
(g77
g58
NtRp700
(dp701
g61
(dp702
g88
g89
ssg70
g692
sg63
(lp703
S':'
asbag56
(g77
g58
NtRp704
(dp705
g61
(dp706
sg70
g692
sg63
(lp707
g56
(g57
g58
NtRp708
(dp709
g61
(dp710
g69
I3
ssg70
g704
sg63
(lp711
S''
asbasbasbag56
(g72
g58
NtRp712
(dp713
g61
(dp714
sg70
g688
sg63
(lp715
g56
(g77
g58
NtRp716
(dp717
g61
(dp718
g81
g82
ssg70
g712
sg63
(lp719
g343
asbag56
(g77
g58
NtRp720
(dp721
g61
(dp722
g88
g89
ssg70
g712
sg63
(lp723
S':'
asbag56
(g77
g58
NtRp724
(dp725
g61
(dp726
sg70
g712
sg63
(lp727
g56
(g57
g58
NtRp728
(dp729
g61
(dp730
g69
I3
ssg70
g724
sg63
(lp731
S''
asbasbasbag56
(g72
g58
NtRp732
(dp733
g61
(dp734
sg70
g688
sg63
(lp735
g56
(g77
g58
NtRp736
(dp737
g61
(dp738
g81
g82
ssg70
g732
sg63
(lp739
g364
asbag56
(g77
g58
NtRp740
(dp741
g61
(dp742
g88
g89
ssg70
g732
sg63
(lp743
S':'
asbag56
(g77
g58
NtRp744
(dp745
g61
(dp746
sg70
g732
sg63
(lp747
g56
(g57
g58
NtRp748
(dp749
g61
(dp750
g69
I3
ssg70
g744
sg63
(lp751
S''
asbasbasbag56
(g72
g58
NtRp752
(dp753
g61
(dp754
sg70
g688
sg63
(lp755
g56
(g77
g58
NtRp756
(dp757
g61
(dp758
g81
g82
ssg70
g752
sg63
(lp759
g385
asbag56
(g77
g58
NtRp760
(dp761
g61
(dp762
g88
g89
ssg70
g752
sg63
(lp763
S':'
asbag56
(g77
g58
NtRp764
(dp765
g61
(dp766
sg70
g752
sg63
(lp767
g56
(g57
g58
NtRp768
(dp769
g61
(dp770
g69
I3
ssg70
g764
sg63
(lp771
S''
asbasbasbag56
(g72
g58
NtRp772
(dp773
g61
(dp774
sg70
g688
sg63
(lp775
g56
(g77
g58
NtRp776
(dp777
g61
(dp778
g81
g82
ssg70
g772
sg63
(lp779
g406
asbag56
(g77
g58
NtRp780
(dp781
g61
(dp782
g88
g89
ssg70
g772
sg63
(lp783
S':'
asbag56
(g77
g58
NtRp784
(dp785
g61
(dp786
sg70
g772
sg63
(lp787
g56
(g57
g58
NtRp788
(dp789
g61
(dp790
g69
I3
ssg70
g784
sg63
(lp791
S''
asbasbasbag56
(g72
g58
NtRp792
(dp793
g61
(dp794
sg70
g688
sg63
(lp795
g56
(g77
g58
NtRp796
(dp797
g61
(dp798
g81
g82
ssg70
g792
sg63
(lp799
g427
asbag56
(g77
g58
NtRp800
(dp801
g61
(dp802
g88
g89
ssg70
g792
sg63
(lp803
S':'
asbag56
(g77
g58
NtRp804
(dp805
g61
(dp806
sg70
g792
sg63
(lp807
g56
(g57
g58
NtRp808
(dp809
g61
(dp810
g69
I3
ssg70
g804
sg63
(lp811
S''
asbasbasbag56
(g72
g58
NtRp812
(dp813
g61
(dp814
sg70
g688
sg63
(lp815
g56
(g77
g58
NtRp816
(dp817
g61
(dp818
g81
g82
ssg70
g812
sg63
(lp819
g448
asbag56
(g77
g58
NtRp820
(dp821
g61
(dp822
g88
g89
ssg70
g812
sg63
(lp823
S':'
asbag56
(g77
g58
NtRp824
(dp825
g61
(dp826
sg70
g812
sg63
(lp827
g56
(g57
g58
NtRp828
(dp829
g61
(dp830
g69
I3
ssg70
g824
sg63
(lp831
S''
asbasbasbag56
(g72
g58
NtRp832
(dp833
g61
(dp834
sg70
g688
sg63
(lp835
g56
(g77
g58
NtRp836
(dp837
g61
(dp838
g81
g82
ssg70
g832
sg63
(lp839
g469
asbag56
(g77
g58
NtRp840
(dp841
g61
(dp842
g88
g89
ssg70
g832
sg63
(lp843
S':'
asbag56
(g77
g58
NtRp844
(dp845
g61
(dp846
sg70
g832
sg63
(lp847
g56
(g57
g58
NtRp848
(dp849
g61
(dp850
g69
I3
ssg70
g844
sg63
(lp851
S''
asbasbasbasbasbasbasbasbasbasbasbag56
(g72
g58
NtRp852
(dp853
g61
(dp854
sg70
g66
sg63
(lp855
g56
(g77
g58
NtRp856
(dp857
g61
(dp858
g81
g82
ssg70
g852
sg63
(lp859
S'env'
p860
asbag56
(g77
g58
NtRp861
(dp862
g61
(dp863
g88
g89
ssg70
g852
sg63
(lp864
S':'
asbag56
(g77
g58
NtRp865
(dp866
g61
(dp867
sg70
g852
sg63
(lp868
g56
(g57
g58
NtRp869
(dp870
g61
(dp871
g69
I5
ssg70
g865
sg63
(lp872
g56
(g65
g58
NtRp873
(dp874
g61
(dp875
g69
I4
ssg70
Nsg63
(lp876
g56
(g72
g58
NtRp877
(dp878
g61
(dp879
sg70
g873
sg63
(lp880
g56
(g77
g58
NtRp881
(dp882
g61
(dp883
g81
g82
ssg70
g877
sg63
(lp884
S'app_folders'
p885
asbag56
(g77
g58
NtRp886
(dp887
g61
(dp888
g88
g89
ssg70
g877
sg63
(lp889
S':'
asbag56
(g77
g58
NtRp890
(dp891
g61
(dp892
sg70
g877
sg63
(lp893
g56
(g57
g58
NtRp894
(dp895
g61
(dp896
g69
I4
ssg70
g890
sg63
(lp897
S"set(['/windows/Users/Thomas/Dropbox/appz/2011/GAE/ddl-lagoon/applications/ddlagoon/', '/windows/Users/Thomas/Dropbox/appz/2011/GAE/ddl-lagoon/applications/welcome/', '/windows/Users/Thomas/Dropbox/appz/2011/GAE/ddl-lagoon/applications/admin/'])"
p898
asbasbasbag56
(g72
g58
NtRp899
(dp900
g61
(dp901
sg70
g873
sg63
(lp902
g56
(g77
g58
NtRp903
(dp904
g61
(dp905
g81
g82
ssg70
g899
sg63
(lp906
S'applications_parent'
p907
asbag56
(g77
g58
NtRp908
(dp909
g61
(dp910
g88
g89
ssg70
g899
sg63
(lp911
S':'
asbag56
(g77
g58
NtRp912
(dp913
g61
(dp914
sg70
g899
sg63
(lp915
g56
(g57
g58
NtRp916
(dp917
g61
(dp918
g69
I4
ssg70
g912
sg63
(lp919
S'/windows/Users/Thomas/Dropbox/appz/2011/GAE/ddl-lagoon'
p920
asbasbasbag56
(g72
g58
NtRp921
(dp922
g61
(dp923
sg70
g873
sg63
(lp924
g56
(g77
g58
NtRp925
(dp926
g61
(dp927
g81
g82
ssg70
g921
sg63
(lp928
S'cmd_args'
p929
asbag56
(g77
g58
NtRp930
(dp931
g61
(dp932
g88
g89
ssg70
g921
sg63
(lp933
S':'
asbag56
(g77
g58
NtRp934
(dp935
g61
(dp936
sg70
g921
sg63
(lp937
g56
(g57
g58
NtRp938
(dp939
g61
(dp940
g69
I4
ssg70
g934
sg63
(lp941
g56
(g65
g58
NtRp942
(dp943
g61
(dp944
g69
I3
ssg70
Nsg63
(lp945
sbasbasbasbag56
(g72
g58
NtRp946
(dp947
g61
(dp948
sg70
g873
sg63
(lp949
g56
(g77
g58
NtRp950
(dp951
g61
(dp952
g81
g82
ssg70
g946
sg63
(lp953
S'cmd_options'
p954
asbag56
(g77
g58
NtRp955
(dp956
g61
(dp957
g88
g89
ssg70
g946
sg63
(lp958
S':'
asbag56
(g77
g58
NtRp959
(dp960
g61
(dp961
sg70
g946
sg63
(lp962
g56
(g57
g58
NtRp963
(dp964
g61
(dp965
g69
I4
ssg70
g959
sg63
(lp966
S"<Values at 0x2569cf8: {'verbose': False, 'ip': '127.0.0.1', 'shutdown_timeout': 5, 'taskbar': False, 'nocron': False, 'pid_filename': 'httpserver.pid', 'maxthreads': None, 'softcron': False, 'server_name': 'VPCF22AJ', 'bpython': False, 'nogui': False, 'port': 8000, 'extcron': False, 'debuglevel': 30, 'test': None, 'folder': '/windows/Users/Thomas/Dropbox/appz/2011/GAE/ddl-lagoon', 'config': '', 'import_models': False, 'winservice': '', 'shell': None, 'run': '', 'log_filename': 'httpserver.log', 'args': [''], 'ssl_ca_certificate': None, 'scheduler': None, 'profiler_filename': None, 'ssl_private_key': '', 'password': 'admin', 'request_queue_size': 5, 'ssl_certificate': '', 'cronjob': False, 'plain': False, 'quiet': False, 'interfaces': None, 'minthreads': None, 'timeout': 10, 'numthreads': None, 'nobanner': False}>"
p967
asbasbasbag56
(g72
g58
NtRp968
(dp969
g61
(dp970
sg70
g873
sg63
(lp971
g56
(g77
g58
NtRp972
(dp973
g61
(dp974
g81
g82
ssg70
g968
sg63
(lp975
S'db_sessions'
p976
asbag56
(g77
g58
NtRp977
(dp978
g61
(dp979
g88
g89
ssg70
g968
sg63
(lp980
S':'
asbag56
(g77
g58
NtRp981
(dp982
g61
(dp983
sg70
g968
sg63
(lp984
g56
(g57
g58
NtRp985
(dp986
g61
(dp987
g69
I4
ssg70
g981
sg63
(lp988
S'set([])'
p989
asbasbasbag56
(g72
g58
NtRp990
(dp991
g61
(dp992
sg70
g873
sg63
(lp993
g56
(g77
g58
NtRp994
(dp995
g61
(dp996
g81
g82
ssg70
g990
sg63
(lp997
S'debugging'
p998
asbag56
(g77
g58
NtRp999
(dp1000
g61
(dp1001
g88
g89
ssg70
g990
sg63
(lp1002
S':'
asbag56
(g77
g58
NtRp1003
(dp1004
g61
(dp1005
sg70
g990
sg63
(lp1006
g56
(g57
g58
NtRp1007
(dp1008
g61
(dp1009
g69
I4
ssg70
g1003
sg63
(lp1010
g99
asbasbasbag56
(g72
g58
NtRp1011
(dp1012
g61
(dp1013
sg70
g873
sg63
(lp1014
g56
(g77
g58
NtRp1015
(dp1016
g61
(dp1017
g81
g82
ssg70
g1011
sg63
(lp1018
S'gluon_parent'
p1019
asbag56
(g77
g58
NtRp1020
(dp1021
g61
(dp1022
g88
g89
ssg70
g1011
sg63
(lp1023
S':'
asbag56
(g77
g58
NtRp1024
(dp1025
g61
(dp1026
sg70
g1011
sg63
(lp1027
g56
(g57
g58
NtRp1028
(dp1029
g61
(dp1030
g69
I4
ssg70
g1024
sg63
(lp1031
S'/windows/Users/Thomas/Dropbox/appz/2011/GAE/ddl-lagoon'
p1032
asbasbasbag56
(g72
g58
NtRp1033
(dp1034
g61
(dp1035
sg70
g873
sg63
(lp1036
g56
(g77
g58
NtRp1037
(dp1038
g61
(dp1039
g81
g82
ssg70
g1033
sg63
(lp1040
S'http_accept'
p1041
asbag56
(g77
g58
NtRp1042
(dp1043
g61
(dp1044
g88
g89
ssg70
g1033
sg63
(lp1045
S':'
asbag56
(g77
g58
NtRp1046
(dp1047
g61
(dp1048
sg70
g1033
sg63
(lp1049
g56
(g57
g58
NtRp1050
(dp1051
g61
(dp1052
g69
I4
ssg70
g1046
sg63
(lp1053
S'text/html,application/xhtml+xml,application/xml;q=0.9,*/*;q=0.8'
p1054
asbasbasbag56
(g72
g58
NtRp1055
(dp1056
g61
(dp1057
sg70
g873
sg63
(lp1058
g56
(g77
g58
NtRp1059
(dp1060
g61
(dp1061
g81
g82
ssg70
g1055
sg63
(lp1062
S'http_accept_charset'
p1063
asbag56
(g77
g58
NtRp1064
(dp1065
g61
(dp1066
g88
g89
ssg70
g1055
sg63
(lp1067
S':'
asbag56
(g77
g58
NtRp1068
(dp1069
g61
(dp1070
sg70
g1055
sg63
(lp1071
g56
(g57
g58
NtRp1072
(dp1073
g61
(dp1074
g69
I4
ssg70
g1068
sg63
(lp1075
S'ISO-8859-1,utf-8;q=0.7,*;q=0.3'
p1076
asbasbasbag56
(g72
g58
NtRp1077
(dp1078
g61
(dp1079
sg70
g873
sg63
(lp1080
g56
(g77
g58
NtRp1081
(dp1082
g61
(dp1083
g81
g82
ssg70
g1077
sg63
(lp1084
S'http_accept_encoding'
p1085
asbag56
(g77
g58
NtRp1086
(dp1087
g61
(dp1088
g88
g89
ssg70
g1077
sg63
(lp1089
S':'
asbag56
(g77
g58
NtRp1090
(dp1091
g61
(dp1092
sg70
g1077
sg63
(lp1093
g56
(g57
g58
NtRp1094
(dp1095
g61
(dp1096
g69
I4
ssg70
g1090
sg63
(lp1097
S'gzip,deflate,sdch'
p1098
asbasbasbag56
(g72
g58
NtRp1099
(dp1100
g61
(dp1101
sg70
g873
sg63
(lp1102
g56
(g77
g58
NtRp1103
(dp1104
g61
(dp1105
g81
g82
ssg70
g1099
sg63
(lp1106
S'http_accept_language'
p1107
asbag56
(g77
g58
NtRp1108
(dp1109
g61
(dp1110
g88
g89
ssg70
g1099
sg63
(lp1111
S':'
asbag56
(g77
g58
NtRp1112
(dp1113
g61
(dp1114
sg70
g1099
sg63
(lp1115
g56
(g57
g58
NtRp1116
(dp1117
g61
(dp1118
g69
I4
ssg70
g1112
sg63
(lp1119
S'en-US,en;q=0.8,fr;q=0.6'
p1120
asbasbasbag56
(g72
g58
NtRp1121
(dp1122
g61
(dp1123
sg70
g873
sg63
(lp1124
g56
(g77
g58
NtRp1125
(dp1126
g61
(dp1127
g81
g82
ssg70
g1121
sg63
(lp1128
S'http_cache_control'
p1129
asbag56
(g77
g58
NtRp1130
(dp1131
g61
(dp1132
g88
g89
ssg70
g1121
sg63
(lp1133
S':'
asbag56
(g77
g58
NtRp1134
(dp1135
g61
(dp1136
sg70
g1121
sg63
(lp1137
g56
(g57
g58
NtRp1138
(dp1139
g61
(dp1140
g69
I4
ssg70
g1134
sg63
(lp1141
S'max-age=0'
p1142
asbasbasbag56
(g72
g58
NtRp1143
(dp1144
g61
(dp1145
sg70
g873
sg63
(lp1146
g56
(g77
g58
NtRp1147
(dp1148
g61
(dp1149
g81
g82
ssg70
g1143
sg63
(lp1150
S'http_connection'
p1151
asbag56
(g77
g58
NtRp1152
(dp1153
g61
(dp1154
g88
g89
ssg70
g1143
sg63
(lp1155
S':'
asbag56
(g77
g58
NtRp1156
(dp1157
g61
(dp1158
sg70
g1143
sg63
(lp1159
g56
(g57
g58
NtRp1160
(dp1161
g61
(dp1162
g69
I4
ssg70
g1156
sg63
(lp1163
S'keep-alive'
p1164
asbasbasbag56
(g72
g58
NtRp1165
(dp1166
g61
(dp1167
sg70
g873
sg63
(lp1168
g56
(g77
g58
NtRp1169
(dp1170
g61
(dp1171
g81
g82
ssg70
g1165
sg63
(lp1172
S'http_cookie'
p1173
asbag56
(g77
g58
NtRp1174
(dp1175
g61
(dp1176
g88
g89
ssg70
g1165
sg63
(lp1177
S':'
asbag56
(g77
g58
NtRp1178
(dp1179
g61
(dp1180
sg70
g1165
sg63
(lp1181
g56
(g57
g58
NtRp1182
(dp1183
g61
(dp1184
g69
I4
ssg70
g1178
sg63
(lp1185
S'__utma_a2a=5510587673.1349489975.1317933049.1319659660.1319659660.47; session_id_welcome=127.0.0.1-f7fb4a09-ce09-4815-abcc-fca1d9093faf; session_id_ddlagoon=127.0.0.1-9c121861-d997-4ee2-a927-3ae7d7064021; session_id_admin=127.0.0.1-975d2e86-8c26-4bdc-8b21-2f846f38d507'
p1186
asbasbasbag56
(g72
g58
NtRp1187
(dp1188
g61
(dp1189
sg70
g873
sg63
(lp1190
g56
(g77
g58
NtRp1191
(dp1192
g61
(dp1193
g81
g82
ssg70
g1187
sg63
(lp1194
S'http_host'
p1195
asbag56
(g77
g58
NtRp1196
(dp1197
g61
(dp1198
g88
g89
ssg70
g1187
sg63
(lp1199
S':'
asbag56
(g77
g58
NtRp1200
(dp1201
g61
(dp1202
sg70
g1187
sg63
(lp1203
g56
(g57
g58
NtRp1204
(dp1205
g61
(dp1206
g69
I4
ssg70
g1200
sg63
(lp1207
S'127.0.0.1:8000'
p1208
asbasbasbag56
(g72
g58
NtRp1209
(dp1210
g61
(dp1211
sg70
g873
sg63
(lp1212
g56
(g77
g58
NtRp1213
(dp1214
g61
(dp1215
g81
g82
ssg70
g1209
sg63
(lp1216
S'http_referer'
p1217
asbag56
(g77
g58
NtRp1218
(dp1219
g61
(dp1220
g88
g89
ssg70
g1209
sg63
(lp1221
S':'
asbag56
(g77
g58
NtRp1222
(dp1223
g61
(dp1224
sg70
g1209
sg63
(lp1225
g56
(g57
g58
NtRp1226
(dp1227
g61
(dp1228
g69
I4
ssg70
g1222
sg63
(lp1229
S'http://127.0.0.1:8000/ddlagoon/default'
p1230
asbasbasbag56
(g72
g58
NtRp1231
(dp1232
g61
(dp1233
sg70
g873
sg63
(lp1234
g56
(g77
g58
NtRp1235
(dp1236
g61
(dp1237
g81
g82
ssg70
g1231
sg63
(lp1238
S'http_user_agent'
p1239
asbag56
(g77
g58
NtRp1240
(dp1241
g61
(dp1242
g88
g89
ssg70
g1231
sg63
(lp1243
S':'
asbag56
(g77
g58
NtRp1244
(dp1245
g61
(dp1246
sg70
g1231
sg63
(lp1247
g56
(g57
g58
NtRp1248
(dp1249
g61
(dp1250
g69
I4
ssg70
g1244
sg63
(lp1251
S'Mozilla/5.0 (X11; Linux x86_64) AppleWebKit/535.2 (KHTML, like Gecko) Chrome/15.0.874.106 Safari/535.2'
p1252
asbasbasbag56
(g72
g58
NtRp1253
(dp1254
g61
(dp1255
sg70
g873
sg63
(lp1256
g56
(g77
g58
NtRp1257
(dp1258
g61
(dp1259
g81
g82
ssg70
g1253
sg63
(lp1260
S'is_jython'
p1261
asbag56
(g77
g58
NtRp1262
(dp1263
g61
(dp1264
g88
g89
ssg70
g1253
sg63
(lp1265
S':'
asbag56
(g77
g58
NtRp1266
(dp1267
g61
(dp1268
sg70
g1253
sg63
(lp1269
g56
(g57
g58
NtRp1270
(dp1271
g61
(dp1272
g69
I4
ssg70
g1266
sg63
(lp1273
g99
asbasbasbag56
(g72
g58
NtRp1274
(dp1275
g61
(dp1276
sg70
g873
sg63
(lp1277
g56
(g77
g58
NtRp1278
(dp1279
g61
(dp1280
g81
g82
ssg70
g1274
sg63
(lp1281
S'path_info'
p1282
asbag56
(g77
g58
NtRp1283
(dp1284
g61
(dp1285
g88
g89
ssg70
g1274
sg63
(lp1286
S':'
asbag56
(g77
g58
NtRp1287
(dp1288
g61
(dp1289
sg70
g1274
sg63
(lp1290
g56
(g57
g58
NtRp1291
(dp1292
g61
(dp1293
g69
I4
ssg70
g1287
sg63
(lp1294
S'/ddlagoon/ddl/get/run/ddl/14/The_Thing_2011_TS_XviD_READNFO___MiSTERE.avi'
p1295
asbasbasbag56
(g72
g58
NtRp1296
(dp1297
g61
(dp1298
sg70
g873
sg63
(lp1299
g56
(g77
g58
NtRp1300
(dp1301
g61
(dp1302
g81
g82
ssg70
g1296
sg63
(lp1303
S'query_string'
p1304
asbag56
(g77
g58
NtRp1305
(dp1306
g61
(dp1307
g88
g89
ssg70
g1296
sg63
(lp1308
S':'
asbag56
(g77
g58
NtRp1309
(dp1310
g61
(dp1311
sg70
g1296
sg63
(lp1312
g56
(g57
g58
NtRp1313
(dp1314
g61
(dp1315
g69
I4
ssg70
g1309
sg63
(lp1316
S''
asbasbasbag56
(g72
g58
NtRp1317
(dp1318
g61
(dp1319
sg70
g873
sg63
(lp1320
g56
(g77
g58
NtRp1321
(dp1322
g61
(dp1323
g81
g82
ssg70
g1317
sg63
(lp1324
S'remote_addr'
p1325
asbag56
(g77
g58
NtRp1326
(dp1327
g61
(dp1328
g88
g89
ssg70
g1317
sg63
(lp1329
S':'
asbag56
(g77
g58
NtRp1330
(dp1331
g61
(dp1332
sg70
g1317
sg63
(lp1333
g56
(g57
g58
NtRp1334
(dp1335
g61
(dp1336
g69
I4
ssg70
g1330
sg63
(lp1337
g241
asbasbasbag56
(g72
g58
NtRp1338
(dp1339
g61
(dp1340
sg70
g873
sg63
(lp1341
g56
(g77
g58
NtRp1342
(dp1343
g61
(dp1344
g81
g82
ssg70
g1338
sg63
(lp1345
S'remote_port'
p1346
asbag56
(g77
g58
NtRp1347
(dp1348
g61
(dp1349
g88
g89
ssg70
g1338
sg63
(lp1350
S':'
asbag56
(g77
g58
NtRp1351
(dp1352
g61
(dp1353
sg70
g1338
sg63
(lp1354
g56
(g57
g58
NtRp1355
(dp1356
g61
(dp1357
g69
I4
ssg70
g1351
sg63
(lp1358
S'45086'
p1359
asbasbasbag56
(g72
g58
NtRp1360
(dp1361
g61
(dp1362
sg70
g873
sg63
(lp1363
g56
(g77
g58
NtRp1364
(dp1365
g61
(dp1366
g81
g82
ssg70
g1360
sg63
(lp1367
S'request_method'
p1368
asbag56
(g77
g58
NtRp1369
(dp1370
g61
(dp1371
g88
g89
ssg70
g1360
sg63
(lp1372
S':'
asbag56
(g77
g58
NtRp1373
(dp1374
g61
(dp1375
sg70
g1360
sg63
(lp1376
g56
(g57
g58
NtRp1377
(dp1378
g61
(dp1379
g69
I4
ssg70
g1373
sg63
(lp1380
S'GET'
p1381
asbasbasbag56
(g72
g58
NtRp1382
(dp1383
g61
(dp1384
sg70
g873
sg63
(lp1385
g56
(g77
g58
NtRp1386
(dp1387
g61
(dp1388
g81
g82
ssg70
g1382
sg63
(lp1389
S'request_uri'
p1390
asbag56
(g77
g58
NtRp1391
(dp1392
g61
(dp1393
g88
g89
ssg70
g1382
sg63
(lp1394
S':'
asbag56
(g77
g58
NtRp1395
(dp1396
g61
(dp1397
sg70
g1382
sg63
(lp1398
g56
(g57
g58
NtRp1399
(dp1400
g61
(dp1401
g69
I4
ssg70
g1395
sg63
(lp1402
g1295
asbasbasbag56
(g72
g58
NtRp1403
(dp1404
g61
(dp1405
sg70
g873
sg63
(lp1406
g56
(g77
g58
NtRp1407
(dp1408
g61
(dp1409
g81
g82
ssg70
g1403
sg63
(lp1410
S'script_name'
p1411
asbag56
(g77
g58
NtRp1412
(dp1413
g61
(dp1414
g88
g89
ssg70
g1403
sg63
(lp1415
S':'
asbag56
(g77
g58
NtRp1416
(dp1417
g61
(dp1418
sg70
g1403
sg63
(lp1419
g56
(g57
g58
NtRp1420
(dp1421
g61
(dp1422
g69
I4
ssg70
g1416
sg63
(lp1423
S''
asbasbasbag56
(g72
g58
NtRp1424
(dp1425
g61
(dp1426
sg70
g873
sg63
(lp1427
g56
(g77
g58
NtRp1428
(dp1429
g61
(dp1430
g81
g82
ssg70
g1424
sg63
(lp1431
S'server_name'
p1432
asbag56
(g77
g58
NtRp1433
(dp1434
g61
(dp1435
g88
g89
ssg70
g1424
sg63
(lp1436
S':'
asbag56
(g77
g58
NtRp1437
(dp1438
g61
(dp1439
sg70
g1424
sg63
(lp1440
g56
(g57
g58
NtRp1441
(dp1442
g61
(dp1443
g69
I4
ssg70
g1437
sg63
(lp1444
S'VPCF22AJ'
p1445
asbasbasbag56
(g72
g58
NtRp1446
(dp1447
g61
(dp1448
sg70
g873
sg63
(lp1449
g56
(g77
g58
NtRp1450
(dp1451
g61
(dp1452
g81
g82
ssg70
g1446
sg63
(lp1453
S'server_port'
p1454
asbag56
(g77
g58
NtRp1455
(dp1456
g61
(dp1457
g88
g89
ssg70
g1446
sg63
(lp1458
S':'
asbag56
(g77
g58
NtRp1459
(dp1460
g61
(dp1461
sg70
g1446
sg63
(lp1462
g56
(g57
g58
NtRp1463
(dp1464
g61
(dp1465
g69
I4
ssg70
g1459
sg63
(lp1466
S'8000'
p1467
asbasbasbag56
(g72
g58
NtRp1468
(dp1469
g61
(dp1470
sg70
g873
sg63
(lp1471
g56
(g77
g58
NtRp1472
(dp1473
g61
(dp1474
g81
g82
ssg70
g1468
sg63
(lp1475
S'server_protocol'
p1476
asbag56
(g77
g58
NtRp1477
(dp1478
g61
(dp1479
g88
g89
ssg70
g1468
sg63
(lp1480
S':'
asbag56
(g77
g58
NtRp1481
(dp1482
g61
(dp1483
sg70
g1468
sg63
(lp1484
g56
(g57
g58
NtRp1485
(dp1486
g61
(dp1487
g69
I4
ssg70
g1481
sg63
(lp1488
S'HTTP/1.1'
p1489
asbasbasbag56
(g72
g58
NtRp1490
(dp1491
g61
(dp1492
sg70
g873
sg63
(lp1493
g56
(g77
g58
NtRp1494
(dp1495
g61
(dp1496
g81
g82
ssg70
g1490
sg63
(lp1497
S'server_software'
p1498
asbag56
(g77
g58
NtRp1499
(dp1500
g61
(dp1501
g88
g89
ssg70
g1490
sg63
(lp1502
S':'
asbag56
(g77
g58
NtRp1503
(dp1504
g61
(dp1505
sg70
g1490
sg63
(lp1506
g56
(g57
g58
NtRp1507
(dp1508
g61
(dp1509
g69
I4
ssg70
g1503
sg63
(lp1510
S'Rocket 1.2.4'
p1511
asbasbasbag56
(g72
g58
NtRp1512
(dp1513
g61
(dp1514
sg70
g873
sg63
(lp1515
g56
(g77
g58
NtRp1516
(dp1517
g61
(dp1518
g81
g82
ssg70
g1512
sg63
(lp1519
S'web2py_crontype'
p1520
asbag56
(g77
g58
NtRp1521
(dp1522
g61
(dp1523
g88
g89
ssg70
g1512
sg63
(lp1524
S':'
asbag56
(g77
g58
NtRp1525
(dp1526
g61
(dp1527
sg70
g1512
sg63
(lp1528
g56
(g57
g58
NtRp1529
(dp1530
g61
(dp1531
g69
I4
ssg70
g1525
sg63
(lp1532
S'hard'
p1533
asbasbasbag56
(g72
g58
NtRp1534
(dp1535
g61
(dp1536
sg70
g873
sg63
(lp1537
g56
(g77
g58
NtRp1538
(dp1539
g61
(dp1540
g81
g82
ssg70
g1534
sg63
(lp1541
S'web2py_original_uri'
p1542
asbag56
(g77
g58
NtRp1543
(dp1544
g61
(dp1545
g88
g89
ssg70
g1534
sg63
(lp1546
S':'
asbag56
(g77
g58
NtRp1547
(dp1548
g61
(dp1549
sg70
g1534
sg63
(lp1550
g56
(g57
g58
NtRp1551
(dp1552
g61
(dp1553
g69
I4
ssg70
g1547
sg63
(lp1554
g1295
asbasbasbag56
(g72
g58
NtRp1555
(dp1556
g61
(dp1557
sg70
g873
sg63
(lp1558
g56
(g77
g58
NtRp1559
(dp1560
g61
(dp1561
g81
g82
ssg70
g1555
sg63
(lp1562
S'web2py_path'
p1563
asbag56
(g77
g58
NtRp1564
(dp1565
g61
(dp1566
g88
g89
ssg70
g1555
sg63
(lp1567
S':'
asbag56
(g77
g58
NtRp1568
(dp1569
g61
(dp1570
sg70
g1555
sg63
(lp1571
g56
(g57
g58
NtRp1572
(dp1573
g61
(dp1574
g69
I4
ssg70
g1568
sg63
(lp1575
g920
asbasbasbag56
(g72
g58
NtRp1576
(dp1577
g61
(dp1578
sg70
g873
sg63
(lp1579
g56
(g77
g58
NtRp1580
(dp1581
g61
(dp1582
g81
g82
ssg70
g1576
sg63
(lp1583
S'web2py_version'
p1584
asbag56
(g77
g58
NtRp1585
(dp1586
g61
(dp1587
g88
g89
ssg70
g1576
sg63
(lp1588
S':'
asbag56
(g77
g58
NtRp1589
(dp1590
g61
(dp1591
sg70
g1576
sg63
(lp1592
g56
(g57
g58
NtRp1593
(dp1594
g61
(dp1595
g69
I4
ssg70
g1589
sg63
(lp1596
g56
(g65
g58
NtRp1597
(dp1598
g61
(dp1599
g69
I3
ssg70
Nsg63
(lp1600
g56
(g72
g58
NtRp1601
(dp1602
g61
(dp1603
sg70
g1597
sg63
(lp1604
g56
(g77
g58
NtRp1605
(dp1606
g61
(dp1607
sg70
g1601
sg63
(lp1608
g56
(g57
g58
NtRp1609
(dp1610
g61
(dp1611
g69
I3
ssg70
g1605
sg63
(lp1612
S'1'
asbasbasbag56
(g72
g58
NtRp1613
(dp1614
g61
(dp1615
sg70
g1597
sg63
(lp1616
g56
(g77
g58
NtRp1617
(dp1618
g61
(dp1619
sg70
g1613
sg63
(lp1620
g56
(g57
g58
NtRp1621
(dp1622
g61
(dp1623
g69
I3
ssg70
g1617
sg63
(lp1624
S'99'
p1625
asbasbasbag56
(g72
g58
NtRp1626
(dp1627
g61
(dp1628
sg70
g1597
sg63
(lp1629
g56
(g77
g58
NtRp1630
(dp1631
g61
(dp1632
sg70
g1626
sg63
(lp1633
g56
(g57
g58
NtRp1634
(dp1635
g61
(dp1636
g69
I3
ssg70
g1630
sg63
(lp1637
S'2'
asbasbasbag56
(g72
g58
NtRp1638
(dp1639
g61
(dp1640
sg70
g1597
sg63
(lp1641
g56
(g77
g58
NtRp1642
(dp1643
g61
(dp1644
sg70
g1638
sg63
(lp1645
g56
(g57
g58
NtRp1646
(dp1647
g61
(dp1648
g69
I3
ssg70
g1642
sg63
(lp1649
S'datetime.datetime(2011, 9, 26, 6, 55, 33)'
p1650
asbasbasbag56
(g72
g58
NtRp1651
(dp1652
g61
(dp1653
sg70
g1597
sg63
(lp1654
g56
(g77
g58
NtRp1655
(dp1656
g61
(dp1657
sg70
g1651
sg63
(lp1658
g56
(g57
g58
NtRp1659
(dp1660
g61
(dp1661
g69
I3
ssg70
g1655
sg63
(lp1662
S'stable'
p1663
asbasbasbasbasbasbasbag56
(g72
g58
NtRp1664
(dp1665
g61
(dp1666
sg70
g873
sg63
(lp1667
g56
(g77
g58
NtRp1668
(dp1669
g61
(dp1670
g81
g82
ssg70
g1664
sg63
(lp1671
S'wsgi_errors'
p1672
asbag56
(g77
g58
NtRp1673
(dp1674
g61
(dp1675
g88
g89
ssg70
g1664
sg63
(lp1676
S':'
asbag56
(g77
g58
NtRp1677
(dp1678
g61
(dp1679
sg70
g1664
sg63
(lp1680
g56
(g57
g58
NtRp1681
(dp1682
g61
(dp1683
g69
I4
ssg70
g1677
sg63
(lp1684
S"<open file '<stderr>', mode 'w' at 0x7f0d1464c1e0>"
p1685
asbasbasbag56
(g72
g58
NtRp1686
(dp1687
g61
(dp1688
sg70
g873
sg63
(lp1689
g56
(g77
g58
NtRp1690
(dp1691
g61
(dp1692
g81
g82
ssg70
g1686
sg63
(lp1693
S'wsgi_file_wrapper'
p1694
asbag56
(g77
g58
NtRp1695
(dp1696
g61
(dp1697
g88
g89
ssg70
g1686
sg63
(lp1698
S':'
asbag56
(g77
g58
NtRp1699
(dp1700
g61
(dp1701
sg70
g1686
sg63
(lp1702
g56
(g57
g58
NtRp1703
(dp1704
g61
(dp1705
g69
I4
ssg70
g1699
sg63
(lp1706
S'<class wsgiref.util.FileWrapper at 0x24c5110>'
p1707
asbasbasbag56
(g72
g58
NtRp1708
(dp1709
g61
(dp1710
sg70
g873
sg63
(lp1711
g56
(g77
g58
NtRp1712
(dp1713
g61
(dp1714
g81
g82
ssg70
g1708
sg63
(lp1715
S'wsgi_input'
p1716
asbag56
(g77
g58
NtRp1717
(dp1718
g61
(dp1719
g88
g89
ssg70
g1708
sg63
(lp1720
S':'
asbag56
(g77
g58
NtRp1721
(dp1722
g61
(dp1723
sg70
g1708
sg63
(lp1724
g56
(g57
g58
NtRp1725
(dp1726
g61
(dp1727
g69
I4
ssg70
g1721
sg63
(lp1728
S'<socket._fileobject object at 0x2ddb6d0>'
p1729
asbasbasbag56
(g72
g58
NtRp1730
(dp1731
g61
(dp1732
sg70
g873
sg63
(lp1733
g56
(g77
g58
NtRp1734
(dp1735
g61
(dp1736
g81
g82
ssg70
g1730
sg63
(lp1737
S'wsgi_multiprocess'
p1738
asbag56
(g77
g58
NtRp1739
(dp1740
g61
(dp1741
g88
g89
ssg70
g1730
sg63
(lp1742
S':'
asbag56
(g77
g58
NtRp1743
(dp1744
g61
(dp1745
sg70
g1730
sg63
(lp1746
g56
(g57
g58
NtRp1747
(dp1748
g61
(dp1749
g69
I4
ssg70
g1743
sg63
(lp1750
g99
asbasbasbag56
(g72
g58
NtRp1751
(dp1752
g61
(dp1753
sg70
g873
sg63
(lp1754
g56
(g77
g58
NtRp1755
(dp1756
g61
(dp1757
g81
g82
ssg70
g1751
sg63
(lp1758
S'wsgi_multithread'
p1759
asbag56
(g77
g58
NtRp1760
(dp1761
g61
(dp1762
g88
g89
ssg70
g1751
sg63
(lp1763
S':'
asbag56
(g77
g58
NtRp1764
(dp1765
g61
(dp1766
sg70
g1751
sg63
(lp1767
g56
(g57
g58
NtRp1768
(dp1769
g61
(dp1770
g69
I4
ssg70
g1764
sg63
(lp1771
S'True'
p1772
asbasbasbag56
(g72
g58
NtRp1773
(dp1774
g61
(dp1775
sg70
g873
sg63
(lp1776
g56
(g77
g58
NtRp1777
(dp1778
g61
(dp1779
g81
g82
ssg70
g1773
sg63
(lp1780
S'wsgi_run_once'
p1781
asbag56
(g77
g58
NtRp1782
(dp1783
g61
(dp1784
g88
g89
ssg70
g1773
sg63
(lp1785
S':'
asbag56
(g77
g58
NtRp1786
(dp1787
g61
(dp1788
sg70
g1773
sg63
(lp1789
g56
(g57
g58
NtRp1790
(dp1791
g61
(dp1792
g69
I4
ssg70
g1786
sg63
(lp1793
g99
asbasbasbag56
(g72
g58
NtRp1794
(dp1795
g61
(dp1796
sg70
g873
sg63
(lp1797
g56
(g77
g58
NtRp1798
(dp1799
g61
(dp1800
g81
g82
ssg70
g1794
sg63
(lp1801
S'wsgi_url_scheme'
p1802
asbag56
(g77
g58
NtRp1803
(dp1804
g61
(dp1805
g88
g89
ssg70
g1794
sg63
(lp1806
S':'
asbag56
(g77
g58
NtRp1807
(dp1808
g61
(dp1809
sg70
g1794
sg63
(lp1810
g56
(g57
g58
NtRp1811
(dp1812
g61
(dp1813
g69
I4
ssg70
g1807
sg63
(lp1814
S'http'
p1815
asbasbasbag56
(g72
g58
NtRp1816
(dp1817
g61
(dp1818
sg70
g873
sg63
(lp1819
g56
(g77
g58
NtRp1820
(dp1821
g61
(dp1822
g81
g82
ssg70
g1816
sg63
(lp1823
S'wsgi_version'
p1824
asbag56
(g77
g58
NtRp1825
(dp1826
g61
(dp1827
g88
g89
ssg70
g1816
sg63
(lp1828
S':'
asbag56
(g77
g58
NtRp1829
(dp1830
g61
(dp1831
sg70
g1816
sg63
(lp1832
g56
(g57
g58
NtRp1833
(dp1834
g61
(dp1835
g69
I4
ssg70
g1829
sg63
(lp1836
g56
(g65
g58
NtRp1837
(dp1838
g61
(dp1839
g69
I3
ssg70
Nsg63
(lp1840
g56
(g72
g58
NtRp1841
(dp1842
g61
(dp1843
sg70
g1837
sg63
(lp1844
g56
(g77
g58
NtRp1845
(dp1846
g61
(dp1847
sg70
g1841
sg63
(lp1848
g56
(g57
g58
NtRp1849
(dp1850
g61
(dp1851
g69
I3
ssg70
g1845
sg63
(lp1852
S'1'
asbasbasbag56
(g72
g58
NtRp1853
(dp1854
g61
(dp1855
sg70
g1837
sg63
(lp1856
g56
(g77
g58
NtRp1857
(dp1858
g61
(dp1859
sg70
g1853
sg63
(lp1860
g56
(g57
g58
NtRp1861
(dp1862
g61
(dp1863
g69
I3
ssg70
g1857
sg63
(lp1864
S'0'
asbasbasbasbasbasbasbasbasbasbasbag56
(g72
g58
NtRp1865
(dp1866
g61
(dp1867
sg70
g66
sg63
(lp1868
g56
(g77
g58
NtRp1869
(dp1870
g61
(dp1871
g81
g82
ssg70
g1865
sg63
(lp1872
S'extension'
p1873
asbag56
(g77
g58
NtRp1874
(dp1875
g61
(dp1876
g88
g89
ssg70
g1865
sg63
(lp1877
S':'
asbag56
(g77
g58
NtRp1878
(dp1879
g61
(dp1880
sg70
g1865
sg63
(lp1881
g56
(g57
g58
NtRp1882
(dp1883
g61
(dp1884
g69
I5
ssg70
g1878
sg63
(lp1885
S'html'
p1886
asbasbasbag56
(g72
g58
NtRp1887
(dp1888
g61
(dp1889
sg70
g66
sg63
(lp1890
g56
(g77
g58
NtRp1891
(dp1892
g61
(dp1893
g81
g82
ssg70
g1887
sg63
(lp1894
S'folder'
p1895
asbag56
(g77
g58
NtRp1896
(dp1897
g61
(dp1898
g88
g89
ssg70
g1887
sg63
(lp1899
S':'
asbag56
(g77
g58
NtRp1900
(dp1901
g61
(dp1902
sg70
g1887
sg63
(lp1903
g56
(g57
g58
NtRp1904
(dp1905
g61
(dp1906
g69
I5
ssg70
g1900
sg63
(lp1907
S'/windows/Users/Thomas/Dropbox/appz/2011/GAE/ddl-lagoon/applications/ddlagoon/'
p1908
asbasbasbag56
(g72
g58
NtRp1909
(dp1910
g61
(dp1911
sg70
g66
sg63
(lp1912
g56
(g77
g58
NtRp1913
(dp1914
g61
(dp1915
g81
g82
ssg70
g1909
sg63
(lp1916
S'function'
p1917
asbag56
(g77
g58
NtRp1918
(dp1919
g61
(dp1920
g88
g89
ssg70
g1909
sg63
(lp1921
S':'
asbag56
(g77
g58
NtRp1922
(dp1923
g61
(dp1924
sg70
g1909
sg63
(lp1925
g56
(g57
g58
NtRp1926
(dp1927
g61
(dp1928
g69
I5
ssg70
g1922
sg63
(lp1929
S'get'
p1930
asbasbasbag56
(g72
g58
NtRp1931
(dp1932
g61
(dp1933
sg70
g66
sg63
(lp1934
g56
(g77
g58
NtRp1935
(dp1936
g61
(dp1937
g81
g82
ssg70
g1931
sg63
(lp1938
S'get_vars'
p1939
asbag56
(g77
g58
NtRp1940
(dp1941
g61
(dp1942
g88
g89
ssg70
g1931
sg63
(lp1943
S':'
asbag56
(g77
g58
NtRp1944
(dp1945
g61
(dp1946
sg70
g1931
sg63
(lp1947
g56
(g57
g58
NtRp1948
(dp1949
g61
(dp1950
g69
I5
ssg70
g1944
sg63
(lp1951
g56
(g65
g58
NtRp1952
(dp1953
g61
(dp1954
g69
I4
ssg70
Nsg63
(lp1955
sbasbasbasbag56
(g72
g58
NtRp1956
(dp1957
g61
(dp1958
sg70
g66
sg63
(lp1959
g56
(g77
g58
NtRp1960
(dp1961
g61
(dp1962
g81
g82
ssg70
g1956
sg63
(lp1963
S'global_settings'
p1964
asbag56
(g77
g58
NtRp1965
(dp1966
g61
(dp1967
g88
g89
ssg70
g1956
sg63
(lp1968
S':'
asbag56
(g77
g58
NtRp1969
(dp1970
g61
(dp1971
sg70
g1956
sg63
(lp1972
g56
(g57
g58
NtRp1973
(dp1974
g61
(dp1975
g69
I5
ssg70
g1969
sg63
(lp1976
g56
(g65
g58
NtRp1977
(dp1978
g61
(dp1979
g69
I4
ssg70
Nsg63
(lp1980
g56
(g72
g58
NtRp1981
(dp1982
g61
(dp1983
sg70
g1977
sg63
(lp1984
g56
(g77
g58
NtRp1985
(dp1986
g61
(dp1987
g81
g82
ssg70
g1981
sg63
(lp1988
g885
asbag56
(g77
g58
NtRp1989
(dp1990
g61
(dp1991
g88
g89
ssg70
g1981
sg63
(lp1992
S':'
asbag56
(g77
g58
NtRp1993
(dp1994
g61
(dp1995
sg70
g1981
sg63
(lp1996
g56
(g57
g58
NtRp1997
(dp1998
g61
(dp1999
g69
I4
ssg70
g1993
sg63
(lp2000
S"set(['/windows/Users/Thomas/Dropbox/appz/2011/GAE/ddl-lagoon/applications/ddlagoon/', '/windows/Users/Thomas/Dropbox/appz/2011/GAE/ddl-lagoon/applications/welcome/', '/windows/Users/Thomas/Dropbox/appz/2011/GAE/ddl-lagoon/applications/admin/'])"
p2001
asbasbasbag56
(g72
g58
NtRp2002
(dp2003
g61
(dp2004
sg70
g1977
sg63
(lp2005
g56
(g77
g58
NtRp2006
(dp2007
g61
(dp2008
g81
g82
ssg70
g2002
sg63
(lp2009
g907
asbag56
(g77
g58
NtRp2010
(dp2011
g61
(dp2012
g88
g89
ssg70
g2002
sg63
(lp2013
S':'
asbag56
(g77
g58
NtRp2014
(dp2015
g61
(dp2016
sg70
g2002
sg63
(lp2017
g56
(g57
g58
NtRp2018
(dp2019
g61
(dp2020
g69
I4
ssg70
g2014
sg63
(lp2021
g920
asbasbasbag56
(g72
g58
NtRp2022
(dp2023
g61
(dp2024
sg70
g1977
sg63
(lp2025
g56
(g77
g58
NtRp2026
(dp2027
g61
(dp2028
g81
g82
ssg70
g2022
sg63
(lp2029
g929
asbag56
(g77
g58
NtRp2030
(dp2031
g61
(dp2032
g88
g89
ssg70
g2022
sg63
(lp2033
S':'
asbag56
(g77
g58
NtRp2034
(dp2035
g61
(dp2036
sg70
g2022
sg63
(lp2037
g56
(g57
g58
NtRp2038
(dp2039
g61
(dp2040
g69
I4
ssg70
g2034
sg63
(lp2041
g56
(g65
g58
NtRp2042
(dp2043
g61
(dp2044
g69
I3
ssg70
Nsg63
(lp2045
sbasbasbasbag56
(g72
g58
NtRp2046
(dp2047
g61
(dp2048
sg70
g1977
sg63
(lp2049
g56
(g77
g58
NtRp2050
(dp2051
g61
(dp2052
g81
g82
ssg70
g2046
sg63
(lp2053
g954
asbag56
(g77
g58
NtRp2054
(dp2055
g61
(dp2056
g88
g89
ssg70
g2046
sg63
(lp2057
S':'
asbag56
(g77
g58
NtRp2058
(dp2059
g61
(dp2060
sg70
g2046
sg63
(lp2061
g56
(g57
g58
NtRp2062
(dp2063
g61
(dp2064
g69
I4
ssg70
g2058
sg63
(lp2065
S"<Values at 0x2569cf8: {'verbose': False, 'ip': '127.0.0.1', 'shutdown_timeout': 5, 'taskbar': False, 'nocron': False, 'pid_filename': 'httpserver.pid', 'maxthreads': None, 'softcron': False, 'server_name': 'VPCF22AJ', 'bpython': False, 'nogui': False, 'port': 8000, 'extcron': False, 'debuglevel': 30, 'test': None, 'folder': '/windows/Users/Thomas/Dropbox/appz/2011/GAE/ddl-lagoon', 'config': '', 'import_models': False, 'winservice': '', 'shell': None, 'run': '', 'log_filename': 'httpserver.log', 'args': [''], 'ssl_ca_certificate': None, 'scheduler': None, 'profiler_filename': None, 'ssl_private_key': '', 'password': 'admin', 'request_queue_size': 5, 'ssl_certificate': '', 'cronjob': False, 'plain': False, 'quiet': False, 'interfaces': None, 'minthreads': None, 'timeout': 10, 'numthreads': None, 'nobanner': False}>"
p2066
asbasbasbag56
(g72
g58
NtRp2067
(dp2068
g61
(dp2069
sg70
g1977
sg63
(lp2070
g56
(g77
g58
NtRp2071
(dp2072
g61
(dp2073
g81
g82
ssg70
g2067
sg63
(lp2074
g976
asbag56
(g77
g58
NtRp2075
(dp2076
g61
(dp2077
g88
g89
ssg70
g2067
sg63
(lp2078
S':'
asbag56
(g77
g58
NtRp2079
(dp2080
g61
(dp2081
sg70
g2067
sg63
(lp2082
g56
(g57
g58
NtRp2083
(dp2084
g61
(dp2085
g69
I4
ssg70
g2079
sg63
(lp2086
S'set([])'
p2087
asbasbasbag56
(g72
g58
NtRp2088
(dp2089
g61
(dp2090
sg70
g1977
sg63
(lp2091
g56
(g77
g58
NtRp2092
(dp2093
g61
(dp2094
g81
g82
ssg70
g2088
sg63
(lp2095
g998
asbag56
(g77
g58
NtRp2096
(dp2097
g61
(dp2098
g88
g89
ssg70
g2088
sg63
(lp2099
S':'
asbag56
(g77
g58
NtRp2100
(dp2101
g61
(dp2102
sg70
g2088
sg63
(lp2103
g56
(g57
g58
NtRp2104
(dp2105
g61
(dp2106
g69
I4
ssg70
g2100
sg63
(lp2107
g99
asbasbasbag56
(g72
g58
NtRp2108
(dp2109
g61
(dp2110
sg70
g1977
sg63
(lp2111
g56
(g77
g58
NtRp2112
(dp2113
g61
(dp2114
g81
g82
ssg70
g2108
sg63
(lp2115
g1019
asbag56
(g77
g58
NtRp2116
(dp2117
g61
(dp2118
g88
g89
ssg70
g2108
sg63
(lp2119
S':'
asbag56
(g77
g58
NtRp2120
(dp2121
g61
(dp2122
sg70
g2108
sg63
(lp2123
g56
(g57
g58
NtRp2124
(dp2125
g61
(dp2126
g69
I4
ssg70
g2120
sg63
(lp2127
g1032
asbasbasbag56
(g72
g58
NtRp2128
(dp2129
g61
(dp2130
sg70
g1977
sg63
(lp2131
g56
(g77
g58
NtRp2132
(dp2133
g61
(dp2134
g81
g82
ssg70
g2128
sg63
(lp2135
g1261
asbag56
(g77
g58
NtRp2136
(dp2137
g61
(dp2138
g88
g89
ssg70
g2128
sg63
(lp2139
S':'
asbag56
(g77
g58
NtRp2140
(dp2141
g61
(dp2142
sg70
g2128
sg63
(lp2143
g56
(g57
g58
NtRp2144
(dp2145
g61
(dp2146
g69
I4
ssg70
g2140
sg63
(lp2147
g99
asbasbasbag56
(g72
g58
NtRp2148
(dp2149
g61
(dp2150
sg70
g1977
sg63
(lp2151
g56
(g77
g58
NtRp2152
(dp2153
g61
(dp2154
g81
g82
ssg70
g2148
sg63
(lp2155
g1520
asbag56
(g77
g58
NtRp2156
(dp2157
g61
(dp2158
g88
g89
ssg70
g2148
sg63
(lp2159
S':'
asbag56
(g77
g58
NtRp2160
(dp2161
g61
(dp2162
sg70
g2148
sg63
(lp2163
g56
(g57
g58
NtRp2164
(dp2165
g61
(dp2166
g69
I4
ssg70
g2160
sg63
(lp2167
g1533
asbasbasbag56
(g72
g58
NtRp2168
(dp2169
g61
(dp2170
sg70
g1977
sg63
(lp2171
g56
(g77
g58
NtRp2172
(dp2173
g61
(dp2174
g81
g82
ssg70
g2168
sg63
(lp2175
g1584
asbag56
(g77
g58
NtRp2176
(dp2177
g61
(dp2178
g88
g89
ssg70
g2168
sg63
(lp2179
S':'
asbag56
(g77
g58
NtRp2180
(dp2181
g61
(dp2182
sg70
g2168
sg63
(lp2183
g56
(g57
g58
NtRp2184
(dp2185
g61
(dp2186
g69
I4
ssg70
g2180
sg63
(lp2187
g56
(g65
g58
NtRp2188
(dp2189
g61
(dp2190
g69
I3
ssg70
Nsg63
(lp2191
g56
(g72
g58
NtRp2192
(dp2193
g61
(dp2194
sg70
g2188
sg63
(lp2195
g56
(g77
g58
NtRp2196
(dp2197
g61
(dp2198
sg70
g2192
sg63
(lp2199
g56
(g57
g58
NtRp2200
(dp2201
g61
(dp2202
g69
I3
ssg70
g2196
sg63
(lp2203
S'1'
asbasbasbag56
(g72
g58
NtRp2204
(dp2205
g61
(dp2206
sg70
g2188
sg63
(lp2207
g56
(g77
g58
NtRp2208
(dp2209
g61
(dp2210
sg70
g2204
sg63
(lp2211
g56
(g57
g58
NtRp2212
(dp2213
g61
(dp2214
g69
I3
ssg70
g2208
sg63
(lp2215
S'99'
p2216
asbasbasbag56
(g72
g58
NtRp2217
(dp2218
g61
(dp2219
sg70
g2188
sg63
(lp2220
g56
(g77
g58
NtRp2221
(dp2222
g61
(dp2223
sg70
g2217
sg63
(lp2224
g56
(g57
g58
NtRp2225
(dp2226
g61
(dp2227
g69
I3
ssg70
g2221
sg63
(lp2228
S'2'
asbasbasbag56
(g72
g58
NtRp2229
(dp2230
g61
(dp2231
sg70
g2188
sg63
(lp2232
g56
(g77
g58
NtRp2233
(dp2234
g61
(dp2235
sg70
g2229
sg63
(lp2236
g56
(g57
g58
NtRp2237
(dp2238
g61
(dp2239
g69
I3
ssg70
g2233
sg63
(lp2240
S'datetime.datetime(2011, 9, 26, 6, 55, 33)'
p2241
asbasbasbag56
(g72
g58
NtRp2242
(dp2243
g61
(dp2244
sg70
g2188
sg63
(lp2245
g56
(g77
g58
NtRp2246
(dp2247
g61
(dp2248
sg70
g2242
sg63
(lp2249
g56
(g57
g58
NtRp2250
(dp2251
g61
(dp2252
g69
I3
ssg70
g2246
sg63
(lp2253
g1663
asbasbasbasbasbasbasbasbasbasbasbag56
(g72
g58
NtRp2254
(dp2255
g61
(dp2256
sg70
g66
sg63
(lp2257
g56
(g77
g58
NtRp2258
(dp2259
g61
(dp2260
g81
g82
ssg70
g2254
sg63
(lp2261
S'is_https'
p2262
asbag56
(g77
g58
NtRp2263
(dp2264
g61
(dp2265
g88
g89
ssg70
g2254
sg63
(lp2266
S':'
asbag56
(g77
g58
NtRp2267
(dp2268
g61
(dp2269
sg70
g2254
sg63
(lp2270
g56
(g57
g58
NtRp2271
(dp2272
g61
(dp2273
g69
I5
ssg70
g2267
sg63
(lp2274
g99
asbasbasbag56
(g72
g58
NtRp2275
(dp2276
g61
(dp2277
sg70
g66
sg63
(lp2278
g56
(g77
g58
NtRp2279
(dp2280
g61
(dp2281
g81
g82
ssg70
g2275
sg63
(lp2282
S'is_local'
p2283
asbag56
(g77
g58
NtRp2284
(dp2285
g61
(dp2286
g88
g89
ssg70
g2275
sg63
(lp2287
S':'
asbag56
(g77
g58
NtRp2288
(dp2289
g61
(dp2290
sg70
g2275
sg63
(lp2291
g56
(g57
g58
NtRp2292
(dp2293
g61
(dp2294
g69
I5
ssg70
g2288
sg63
(lp2295
g1772
asbasbasbag56
(g72
g58
NtRp2296
(dp2297
g61
(dp2298
sg70
g66
sg63
(lp2299
g56
(g77
g58
NtRp2300
(dp2301
g61
(dp2302
g81
g82
ssg70
g2296
sg63
(lp2303
S'is_restful'
p2304
asbag56
(g77
g58
NtRp2305
(dp2306
g61
(dp2307
g88
g89
ssg70
g2296
sg63
(lp2308
S':'
asbag56
(g77
g58
NtRp2309
(dp2310
g61
(dp2311
sg70
g2296
sg63
(lp2312
g56
(g57
g58
NtRp2313
(dp2314
g61
(dp2315
g69
I5
ssg70
g2309
sg63
(lp2316
g99
asbasbasbag56
(g72
g58
NtRp2317
(dp2318
g61
(dp2319
sg70
g66
sg63
(lp2320
g56
(g77
g58
NtRp2321
(dp2322
g61
(dp2323
g81
g82
ssg70
g2317
sg63
(lp2324
S'now'
p2325
asbag56
(g77
g58
NtRp2326
(dp2327
g61
(dp2328
g88
g89
ssg70
g2317
sg63
(lp2329
S':'
asbag56
(g77
g58
NtRp2330
(dp2331
g61
(dp2332
sg70
g2317
sg63
(lp2333
g56
(g57
g58
NtRp2334
(dp2335
g61
(dp2336
g69
I5
ssg70
g2330
sg63
(lp2337
S'datetime.datetime(2011, 10, 27, 11, 1, 34, 887945)'
p2338
asbasbasbag56
(g72
g58
NtRp2339
(dp2340
g61
(dp2341
sg70
g66
sg63
(lp2342
g56
(g77
g58
NtRp2343
(dp2344
g61
(dp2345
g81
g82
ssg70
g2339
sg63
(lp2346
S'post_vars'
p2347
asbag56
(g77
g58
NtRp2348
(dp2349
g61
(dp2350
g88
g89
ssg70
g2339
sg63
(lp2351
S':'
asbag56
(g77
g58
NtRp2352
(dp2353
g61
(dp2354
sg70
g2339
sg63
(lp2355
g56
(g57
g58
NtRp2356
(dp2357
g61
(dp2358
g69
I5
ssg70
g2352
sg63
(lp2359
g56
(g65
g58
NtRp2360
(dp2361
g61
(dp2362
g69
I4
ssg70
Nsg63
(lp2363
sbasbasbasbag56
(g72
g58
NtRp2364
(dp2365
g61
(dp2366
sg70
g66
sg63
(lp2367
g56
(g77
g58
NtRp2368
(dp2369
g61
(dp2370
g81
g82
ssg70
g2364
sg63
(lp2371
S'raw_args'
p2372
asbag56
(g77
g58
NtRp2373
(dp2374
g61
(dp2375
g88
g89
ssg70
g2364
sg63
(lp2376
S':'
asbag56
(g77
g58
NtRp2377
(dp2378
g61
(dp2379
sg70
g2364
sg63
(lp2380
g56
(g57
g58
NtRp2381
(dp2382
g61
(dp2383
g69
I5
ssg70
g2377
sg63
(lp2384
S'run/ddl/14/The_Thing_2011_TS_XviD_READNFO___MiSTERE.avi'
p2385
asbasbasbag56
(g72
g58
NtRp2386
(dp2387
g61
(dp2388
sg70
g66
sg63
(lp2389
g56
(g77
g58
NtRp2390
(dp2391
g61
(dp2392
g81
g82
ssg70
g2386
sg63
(lp2393
S'url'
p2394
asbag56
(g77
g58
NtRp2395
(dp2396
g61
(dp2397
g88
g89
ssg70
g2386
sg63
(lp2398
S':'
asbag56
(g77
g58
NtRp2399
(dp2400
g61
(dp2401
sg70
g2386
sg63
(lp2402
g56
(g57
g58
NtRp2403
(dp2404
g61
(dp2405
g69
I5
ssg70
g2399
sg63
(lp2406
S'/ddlagoon/ddl/get/run/ddl/14/The_Thing_2011_TS_XviD_READNFO___MiSTERE.avi'
p2407
asbasbasbag56
(g72
g58
NtRp2408
(dp2409
g61
(dp2410
sg70
g66
sg63
(lp2411
g56
(g77
g58
NtRp2412
(dp2413
g61
(dp2414
g81
g82
ssg70
g2408
sg63
(lp2415
S'utcnow'
p2416
asbag56
(g77
g58
NtRp2417
(dp2418
g61
(dp2419
g88
g89
ssg70
g2408
sg63
(lp2420
S':'
asbag56
(g77
g58
NtRp2421
(dp2422
g61
(dp2423
sg70
g2408
sg63
(lp2424
g56
(g57
g58
NtRp2425
(dp2426
g61
(dp2427
g69
I5
ssg70
g2421
sg63
(lp2428
S'datetime.datetime(2011, 10, 27, 10, 1, 34, 887984)'
p2429
asbasbasbag56
(g72
g58
NtRp2430
(dp2431
g61
(dp2432
sg70
g66
sg63
(lp2433
g56
(g77
g58
NtRp2434
(dp2435
g61
(dp2436
g81
g82
ssg70
g2430
sg63
(lp2437
S'uuid'
p2438
asbag56
(g77
g58
NtRp2439
(dp2440
g61
(dp2441
g88
g89
ssg70
g2430
sg63
(lp2442
S':'
asbag56
(g77
g58
NtRp2443
(dp2444
g61
(dp2445
sg70
g2430
sg63
(lp2446
g56
(g57
g58
NtRp2447
(dp2448
g61
(dp2449
g69
I5
ssg70
g2443
sg63
(lp2450
S'ddlagoon/127.0.0.1.2011-10-27.11-01-34.a04f7abf-2e67-47c3-92d6-69ff90c02525'
p2451
asbasbasbag56
(g72
g58
NtRp2452
(dp2453
g61
(dp2454
sg70
g66
sg63
(lp2455
g56
(g77
g58
NtRp2456
(dp2457
g61
(dp2458
g81
g82
ssg70
g2452
sg63
(lp2459
S'vars'
p2460
asbag56
(g77
g58
NtRp2461
(dp2462
g61
(dp2463
g88
g89
ssg70
g2452
sg63
(lp2464
S':'
asbag56
(g77
g58
NtRp2465
(dp2466
g61
(dp2467
sg70
g2452
sg63
(lp2468
g56
(g57
g58
NtRp2469
(dp2470
g61
(dp2471
g69
I5
ssg70
g2465
sg63
(lp2472
g56
(g65
g58
NtRp2473
(dp2474
g61
(dp2475
g69
I4
ssg70
Nsg63
(lp2476
sbasbasbasbag56
(g72
g58
NtRp2477
(dp2478
g61
(dp2479
sg70
g66
sg63
(lp2480
g56
(g77
g58
NtRp2481
(dp2482
g61
(dp2483
g81
g82
ssg70
g2477
sg63
(lp2484
S'wsgi'
p2485
asbag56
(g77
g58
NtRp2486
(dp2487
g61
(dp2488
g88
g89
ssg70
g2477
sg63
(lp2489
S':'
asbag56
(g77
g58
NtRp2490
(dp2491
g61
(dp2492
sg70
g2477
sg63
(lp2493
g56
(g57
g58
NtRp2494
(dp2495
g61
(dp2496
g69
I5
ssg70
g2490
sg63
(lp2497
g56
(g65
g58
NtRp2498
(dp2499
g61
(dp2500
g69
I4
ssg70
Nsg63
(lp2501
g56
(g72
g58
NtRp2502
(dp2503
g61
(dp2504
sg70
g2498
sg63
(lp2505
g56
(g77
g58
NtRp2506
(dp2507
g61
(dp2508
g81
g82
ssg70
g2502
sg63
(lp2509
S'environ'
p2510
asbag56
(g77
g58
NtRp2511
(dp2512
g61
(dp2513
g88
g89
ssg70
g2502
sg63
(lp2514
S':'
asbag56
(g77
g58
NtRp2515
(dp2516
g61
(dp2517
sg70
g2502
sg63
(lp2518
g56
(g57
g58
NtRp2519
(dp2520
g61
(dp2521
g69
I4
ssg70
g2515
sg63
(lp2522
g56
(g65
g58
NtRp2523
(dp2524
g61
(dp2525
g69
I3
ssg70
Nsg63
(lp2526
g56
(g72
g58
NtRp2527
(dp2528
g61
(dp2529
sg70
g2523
sg63
(lp2530
g56
(g77
g58
NtRp2531
(dp2532
g61
(dp2533
g81
g82
ssg70
g2527
sg63
(lp2534
S'HTTP_ACCEPT'
p2535
asbag56
(g77
g58
NtRp2536
(dp2537
g61
(dp2538
g88
g89
ssg70
g2527
sg63
(lp2539
S':'
asbag56
(g77
g58
NtRp2540
(dp2541
g61
(dp2542
sg70
g2527
sg63
(lp2543
g56
(g57
g58
NtRp2544
(dp2545
g61
(dp2546
g69
I3
ssg70
g2540
sg63
(lp2547
g1054
asbasbasbag56
(g72
g58
NtRp2548
(dp2549
g61
(dp2550
sg70
g2523
sg63
(lp2551
g56
(g77
g58
NtRp2552
(dp2553
g61
(dp2554
g81
g82
ssg70
g2548
sg63
(lp2555
S'HTTP_ACCEPT_CHARSET'
p2556
asbag56
(g77
g58
NtRp2557
(dp2558
g61
(dp2559
g88
g89
ssg70
g2548
sg63
(lp2560
S':'
asbag56
(g77
g58
NtRp2561
(dp2562
g61
(dp2563
sg70
g2548
sg63
(lp2564
g56
(g57
g58
NtRp2565
(dp2566
g61
(dp2567
g69
I3
ssg70
g2561
sg63
(lp2568
g1076
asbasbasbag56
(g72
g58
NtRp2569
(dp2570
g61
(dp2571
sg70
g2523
sg63
(lp2572
g56
(g77
g58
NtRp2573
(dp2574
g61
(dp2575
g81
g82
ssg70
g2569
sg63
(lp2576
S'HTTP_ACCEPT_ENCODING'
p2577
asbag56
(g77
g58
NtRp2578
(dp2579
g61
(dp2580
g88
g89
ssg70
g2569
sg63
(lp2581
S':'
asbag56
(g77
g58
NtRp2582
(dp2583
g61
(dp2584
sg70
g2569
sg63
(lp2585
g56
(g57
g58
NtRp2586
(dp2587
g61
(dp2588
g69
I3
ssg70
g2582
sg63
(lp2589
g1098
asbasbasbag56
(g72
g58
NtRp2590
(dp2591
g61
(dp2592
sg70
g2523
sg63
(lp2593
g56
(g77
g58
NtRp2594
(dp2595
g61
(dp2596
g81
g82
ssg70
g2590
sg63
(lp2597
S'HTTP_ACCEPT_LANGUAGE'
p2598
asbag56
(g77
g58
NtRp2599
(dp2600
g61
(dp2601
g88
g89
ssg70
g2590
sg63
(lp2602
S':'
asbag56
(g77
g58
NtRp2603
(dp2604
g61
(dp2605
sg70
g2590
sg63
(lp2606
g56
(g57
g58
NtRp2607
(dp2608
g61
(dp2609
g69
I3
ssg70
g2603
sg63
(lp2610
g1120
asbasbasbag56
(g72
g58
NtRp2611
(dp2612
g61
(dp2613
sg70
g2523
sg63
(lp2614
g56
(g77
g58
NtRp2615
(dp2616
g61
(dp2617
g81
g82
ssg70
g2611
sg63
(lp2618
S'HTTP_CACHE_CONTROL'
p2619
asbag56
(g77
g58
NtRp2620
(dp2621
g61
(dp2622
g88
g89
ssg70
g2611
sg63
(lp2623
S':'
asbag56
(g77
g58
NtRp2624
(dp2625
g61
(dp2626
sg70
g2611
sg63
(lp2627
g56
(g57
g58
NtRp2628
(dp2629
g61
(dp2630
g69
I3
ssg70
g2624
sg63
(lp2631
g1142
asbasbasbag56
(g72
g58
NtRp2632
(dp2633
g61
(dp2634
sg70
g2523
sg63
(lp2635
g56
(g77
g58
NtRp2636
(dp2637
g61
(dp2638
g81
g82
ssg70
g2632
sg63
(lp2639
S'HTTP_CONNECTION'
p2640
asbag56
(g77
g58
NtRp2641
(dp2642
g61
(dp2643
g88
g89
ssg70
g2632
sg63
(lp2644
S':'
asbag56
(g77
g58
NtRp2645
(dp2646
g61
(dp2647
sg70
g2632
sg63
(lp2648
g56
(g57
g58
NtRp2649
(dp2650
g61
(dp2651
g69
I3
ssg70
g2645
sg63
(lp2652
g1164
asbasbasbag56
(g72
g58
NtRp2653
(dp2654
g61
(dp2655
sg70
g2523
sg63
(lp2656
g56
(g77
g58
NtRp2657
(dp2658
g61
(dp2659
g81
g82
ssg70
g2653
sg63
(lp2660
S'HTTP_COOKIE'
p2661
asbag56
(g77
g58
NtRp2662
(dp2663
g61
(dp2664
g88
g89
ssg70
g2653
sg63
(lp2665
S':'
asbag56
(g77
g58
NtRp2666
(dp2667
g61
(dp2668
sg70
g2653
sg63
(lp2669
g56
(g57
g58
NtRp2670
(dp2671
g61
(dp2672
g69
I3
ssg70
g2666
sg63
(lp2673
g1186
asbasbasbag56
(g72
g58
NtRp2674
(dp2675
g61
(dp2676
sg70
g2523
sg63
(lp2677
g56
(g77
g58
NtRp2678
(dp2679
g61
(dp2680
g81
g82
ssg70
g2674
sg63
(lp2681
S'HTTP_HOST'
p2682
asbag56
(g77
g58
NtRp2683
(dp2684
g61
(dp2685
g88
g89
ssg70
g2674
sg63
(lp2686
S':'
asbag56
(g77
g58
NtRp2687
(dp2688
g61
(dp2689
sg70
g2674
sg63
(lp2690
g56
(g57
g58
NtRp2691
(dp2692
g61
(dp2693
g69
I3
ssg70
g2687
sg63
(lp2694
g1208
asbasbasbag56
(g72
g58
NtRp2695
(dp2696
g61
(dp2697
sg70
g2523
sg63
(lp2698
g56
(g77
g58
NtRp2699
(dp2700
g61
(dp2701
g81
g82
ssg70
g2695
sg63
(lp2702
S'HTTP_REFERER'
p2703
asbag56
(g77
g58
NtRp2704
(dp2705
g61
(dp2706
g88
g89
ssg70
g2695
sg63
(lp2707
S':'
asbag56
(g77
g58
NtRp2708
(dp2709
g61
(dp2710
sg70
g2695
sg63
(lp2711
g56
(g57
g58
NtRp2712
(dp2713
g61
(dp2714
g69
I3
ssg70
g2708
sg63
(lp2715
g1230
asbasbasbag56
(g72
g58
NtRp2716
(dp2717
g61
(dp2718
sg70
g2523
sg63
(lp2719
g56
(g77
g58
NtRp2720
(dp2721
g61
(dp2722
g81
g82
ssg70
g2716
sg63
(lp2723
S'HTTP_USER_AGENT'
p2724
asbag56
(g77
g58
NtRp2725
(dp2726
g61
(dp2727
g88
g89
ssg70
g2716
sg63
(lp2728
S':'
asbag56
(g77
g58
NtRp2729
(dp2730
g61
(dp2731
sg70
g2716
sg63
(lp2732
g56
(g57
g58
NtRp2733
(dp2734
g61
(dp2735
g69
I3
ssg70
g2729
sg63
(lp2736
g1252
asbasbasbag56
(g72
g58
NtRp2737
(dp2738
g61
(dp2739
sg70
g2523
sg63
(lp2740
g56
(g77
g58
NtRp2741
(dp2742
g61
(dp2743
g81
g82
ssg70
g2737
sg63
(lp2744
S'PATH_INFO'
p2745
asbag56
(g77
g58
NtRp2746
(dp2747
g61
(dp2748
g88
g89
ssg70
g2737
sg63
(lp2749
S':'
asbag56
(g77
g58
NtRp2750
(dp2751
g61
(dp2752
sg70
g2737
sg63
(lp2753
g56
(g57
g58
NtRp2754
(dp2755
g61
(dp2756
g69
I3
ssg70
g2750
sg63
(lp2757
g1295
asbasbasbag56
(g72
g58
NtRp2758
(dp2759
g61
(dp2760
sg70
g2523
sg63
(lp2761
g56
(g77
g58
NtRp2762
(dp2763
g61
(dp2764
g81
g82
ssg70
g2758
sg63
(lp2765
S'QUERY_STRING'
p2766
asbag56
(g77
g58
NtRp2767
(dp2768
g61
(dp2769
g88
g89
ssg70
g2758
sg63
(lp2770
S':'
asbag56
(g77
g58
NtRp2771
(dp2772
g61
(dp2773
sg70
g2758
sg63
(lp2774
g56
(g57
g58
NtRp2775
(dp2776
g61
(dp2777
g69
I3
ssg70
g2771
sg63
(lp2778
S''
asbasbasbag56
(g72
g58
NtRp2779
(dp2780
g61
(dp2781
sg70
g2523
sg63
(lp2782
g56
(g77
g58
NtRp2783
(dp2784
g61
(dp2785
g81
g82
ssg70
g2779
sg63
(lp2786
S'REMOTE_ADDR'
p2787
asbag56
(g77
g58
NtRp2788
(dp2789
g61
(dp2790
g88
g89
ssg70
g2779
sg63
(lp2791
S':'
asbag56
(g77
g58
NtRp2792
(dp2793
g61
(dp2794
sg70
g2779
sg63
(lp2795
g56
(g57
g58
NtRp2796
(dp2797
g61
(dp2798
g69
I3
ssg70
g2792
sg63
(lp2799
g241
asbasbasbag56
(g72
g58
NtRp2800
(dp2801
g61
(dp2802
sg70
g2523
sg63
(lp2803
g56
(g77
g58
NtRp2804
(dp2805
g61
(dp2806
g81
g82
ssg70
g2800
sg63
(lp2807
S'REMOTE_PORT'
p2808
asbag56
(g77
g58
NtRp2809
(dp2810
g61
(dp2811
g88
g89
ssg70
g2800
sg63
(lp2812
S':'
asbag56
(g77
g58
NtRp2813
(dp2814
g61
(dp2815
sg70
g2800
sg63
(lp2816
g56
(g57
g58
NtRp2817
(dp2818
g61
(dp2819
g69
I3
ssg70
g2813
sg63
(lp2820
g1359
asbasbasbag56
(g72
g58
NtRp2821
(dp2822
g61
(dp2823
sg70
g2523
sg63
(lp2824
g56
(g77
g58
NtRp2825
(dp2826
g61
(dp2827
g81
g82
ssg70
g2821
sg63
(lp2828
S'REQUEST_METHOD'
p2829
asbag56
(g77
g58
NtRp2830
(dp2831
g61
(dp2832
g88
g89
ssg70
g2821
sg63
(lp2833
S':'
asbag56
(g77
g58
NtRp2834
(dp2835
g61
(dp2836
sg70
g2821
sg63
(lp2837
g56
(g57
g58
NtRp2838
(dp2839
g61
(dp2840
g69
I3
ssg70
g2834
sg63
(lp2841
g1381
asbasbasbag56
(g72
g58
NtRp2842
(dp2843
g61
(dp2844
sg70
g2523
sg63
(lp2845
g56
(g77
g58
NtRp2846
(dp2847
g61
(dp2848
g81
g82
ssg70
g2842
sg63
(lp2849
S'REQUEST_URI'
p2850
asbag56
(g77
g58
NtRp2851
(dp2852
g61
(dp2853
g88
g89
ssg70
g2842
sg63
(lp2854
S':'
asbag56
(g77
g58
NtRp2855
(dp2856
g61
(dp2857
sg70
g2842
sg63
(lp2858
g56
(g57
g58
NtRp2859
(dp2860
g61
(dp2861
g69
I3
ssg70
g2855
sg63
(lp2862
g1295
asbasbasbag56
(g72
g58
NtRp2863
(dp2864
g61
(dp2865
sg70
g2523
sg63
(lp2866
g56
(g77
g58
NtRp2867
(dp2868
g61
(dp2869
g81
g82
ssg70
g2863
sg63
(lp2870
S'SCRIPT_NAME'
p2871
asbag56
(g77
g58
NtRp2872
(dp2873
g61
(dp2874
g88
g89
ssg70
g2863
sg63
(lp2875
S':'
asbag56
(g77
g58
NtRp2876
(dp2877
g61
(dp2878
sg70
g2863
sg63
(lp2879
g56
(g57
g58
NtRp2880
(dp2881
g61
(dp2882
g69
I3
ssg70
g2876
sg63
(lp2883
S''
asbasbasbag56
(g72
g58
NtRp2884
(dp2885
g61
(dp2886
sg70
g2523
sg63
(lp2887
g56
(g77
g58
NtRp2888
(dp2889
g61
(dp2890
g81
g82
ssg70
g2884
sg63
(lp2891
S'SERVER_NAME'
p2892
asbag56
(g77
g58
NtRp2893
(dp2894
g61
(dp2895
g88
g89
ssg70
g2884
sg63
(lp2896
S':'
asbag56
(g77
g58
NtRp2897
(dp2898
g61
(dp2899
sg70
g2884
sg63
(lp2900
g56
(g57
g58
NtRp2901
(dp2902
g61
(dp2903
g69
I3
ssg70
g2897
sg63
(lp2904
g1445
asbasbasbag56
(g72
g58
NtRp2905
(dp2906
g61
(dp2907
sg70
g2523
sg63
(lp2908
g56
(g77
g58
NtRp2909
(dp2910
g61
(dp2911
g81
g82
ssg70
g2905
sg63
(lp2912
S'SERVER_PORT'
p2913
asbag56
(g77
g58
NtRp2914
(dp2915
g61
(dp2916
g88
g89
ssg70
g2905
sg63
(lp2917
S':'
asbag56
(g77
g58
NtRp2918
(dp2919
g61
(dp2920
sg70
g2905
sg63
(lp2921
g56
(g57
g58
NtRp2922
(dp2923
g61
(dp2924
g69
I3
ssg70
g2918
sg63
(lp2925
g1467
asbasbasbag56
(g72
g58
NtRp2926
(dp2927
g61
(dp2928
sg70
g2523
sg63
(lp2929
g56
(g77
g58
NtRp2930
(dp2931
g61
(dp2932
g81
g82
ssg70
g2926
sg63
(lp2933
S'SERVER_PROTOCOL'
p2934
asbag56
(g77
g58
NtRp2935
(dp2936
g61
(dp2937
g88
g89
ssg70
g2926
sg63
(lp2938
S':'
asbag56
(g77
g58
NtRp2939
(dp2940
g61
(dp2941
sg70
g2926
sg63
(lp2942
g56
(g57
g58
NtRp2943
(dp2944
g61
(dp2945
g69
I3
ssg70
g2939
sg63
(lp2946
g1489
asbasbasbag56
(g72
g58
NtRp2947
(dp2948
g61
(dp2949
sg70
g2523
sg63
(lp2950
g56
(g77
g58
NtRp2951
(dp2952
g61
(dp2953
g81
g82
ssg70
g2947
sg63
(lp2954
S'SERVER_SOFTWARE'
p2955
asbag56
(g77
g58
NtRp2956
(dp2957
g61
(dp2958
g88
g89
ssg70
g2947
sg63
(lp2959
S':'
asbag56
(g77
g58
NtRp2960
(dp2961
g61
(dp2962
sg70
g2947
sg63
(lp2963
g56
(g57
g58
NtRp2964
(dp2965
g61
(dp2966
g69
I3
ssg70
g2960
sg63
(lp2967
g1511
asbasbasbag56
(g72
g58
NtRp2968
(dp2969
g61
(dp2970
sg70
g2523
sg63
(lp2971
g56
(g77
g58
NtRp2972
(dp2973
g61
(dp2974
g81
g82
ssg70
g2968
sg63
(lp2975
S'WEB2PY_ORIGINAL_URI'
p2976
asbag56
(g77
g58
NtRp2977
(dp2978
g61
(dp2979
g88
g89
ssg70
g2968
sg63
(lp2980
S':'
asbag56
(g77
g58
NtRp2981
(dp2982
g61
(dp2983
sg70
g2968
sg63
(lp2984
g56
(g57
g58
NtRp2985
(dp2986
g61
(dp2987
g69
I3
ssg70
g2981
sg63
(lp2988
g1295
asbasbasbag56
(g72
g58
NtRp2989
(dp2990
g61
(dp2991
sg70
g2523
sg63
(lp2992
g56
(g77
g58
NtRp2993
(dp2994
g61
(dp2995
g81
g82
ssg70
g2989
sg63
(lp2996
S'wsgi.errors'
p2997
asbag56
(g77
g58
NtRp2998
(dp2999
g61
(dp3000
g88
g89
ssg70
g2989
sg63
(lp3001
S':'
asbag56
(g77
g58
NtRp3002
(dp3003
g61
(dp3004
sg70
g2989
sg63
(lp3005
g56
(g57
g58
NtRp3006
(dp3007
g61
(dp3008
g69
I3
ssg70
g3002
sg63
(lp3009
S"<open file '<stderr>', mode 'w' at 0x7f0d1464c1e0>"
p3010
asbasbasbag56
(g72
g58
NtRp3011
(dp3012
g61
(dp3013
sg70
g2523
sg63
(lp3014
g56
(g77
g58
NtRp3015
(dp3016
g61
(dp3017
g81
g82
ssg70
g3011
sg63
(lp3018
S'wsgi.file_wrapper'
p3019
asbag56
(g77
g58
NtRp3020
(dp3021
g61
(dp3022
g88
g89
ssg70
g3011
sg63
(lp3023
S':'
asbag56
(g77
g58
NtRp3024
(dp3025
g61
(dp3026
sg70
g3011
sg63
(lp3027
g56
(g57
g58
NtRp3028
(dp3029
g61
(dp3030
g69
I3
ssg70
g3024
sg63
(lp3031
S'<class wsgiref.util.FileWrapper at 0x24c5110>'
p3032
asbasbasbag56
(g72
g58
NtRp3033
(dp3034
g61
(dp3035
sg70
g2523
sg63
(lp3036
g56
(g77
g58
NtRp3037
(dp3038
g61
(dp3039
g81
g82
ssg70
g3033
sg63
(lp3040
S'wsgi.input'
p3041
asbag56
(g77
g58
NtRp3042
(dp3043
g61
(dp3044
g88
g89
ssg70
g3033
sg63
(lp3045
S':'
asbag56
(g77
g58
NtRp3046
(dp3047
g61
(dp3048
sg70
g3033
sg63
(lp3049
g56
(g57
g58
NtRp3050
(dp3051
g61
(dp3052
g69
I3
ssg70
g3046
sg63
(lp3053
S'<cStringIO.StringO object at 0x3558d18>'
p3054
asbasbasbag56
(g72
g58
NtRp3055
(dp3056
g61
(dp3057
sg70
g2523
sg63
(lp3058
g56
(g77
g58
NtRp3059
(dp3060
g61
(dp3061
g81
g82
ssg70
g3055
sg63
(lp3062
S'wsgi.multiprocess'
p3063
asbag56
(g77
g58
NtRp3064
(dp3065
g61
(dp3066
g88
g89
ssg70
g3055
sg63
(lp3067
S':'
asbag56
(g77
g58
NtRp3068
(dp3069
g61
(dp3070
sg70
g3055
sg63
(lp3071
g56
(g57
g58
NtRp3072
(dp3073
g61
(dp3074
g69
I3
ssg70
g3068
sg63
(lp3075
g99
asbasbasbag56
(g72
g58
NtRp3076
(dp3077
g61
(dp3078
sg70
g2523
sg63
(lp3079
g56
(g77
g58
NtRp3080
(dp3081
g61
(dp3082
g81
g82
ssg70
g3076
sg63
(lp3083
S'wsgi.multithread'
p3084
asbag56
(g77
g58
NtRp3085
(dp3086
g61
(dp3087
g88
g89
ssg70
g3076
sg63
(lp3088
S':'
asbag56
(g77
g58
NtRp3089
(dp3090
g61
(dp3091
sg70
g3076
sg63
(lp3092
g56
(g57
g58
NtRp3093
(dp3094
g61
(dp3095
g69
I3
ssg70
g3089
sg63
(lp3096
g1772
asbasbasbag56
(g72
g58
NtRp3097
(dp3098
g61
(dp3099
sg70
g2523
sg63
(lp3100
g56
(g77
g58
NtRp3101
(dp3102
g61
(dp3103
g81
g82
ssg70
g3097
sg63
(lp3104
S'wsgi.run_once'
p3105
asbag56
(g77
g58
NtRp3106
(dp3107
g61
(dp3108
g88
g89
ssg70
g3097
sg63
(lp3109
S':'
asbag56
(g77
g58
NtRp3110
(dp3111
g61
(dp3112
sg70
g3097
sg63
(lp3113
g56
(g57
g58
NtRp3114
(dp3115
g61
(dp3116
g69
I3
ssg70
g3110
sg63
(lp3117
g99
asbasbasbag56
(g72
g58
NtRp3118
(dp3119
g61
(dp3120
sg70
g2523
sg63
(lp3121
g56
(g77
g58
NtRp3122
(dp3123
g61
(dp3124
g81
g82
ssg70
g3118
sg63
(lp3125
S'wsgi.url_scheme'
p3126
asbag56
(g77
g58
NtRp3127
(dp3128
g61
(dp3129
g88
g89
ssg70
g3118
sg63
(lp3130
S':'
asbag56
(g77
g58
NtRp3131
(dp3132
g61
(dp3133
sg70
g3118
sg63
(lp3134
g56
(g57
g58
NtRp3135
(dp3136
g61
(dp3137
g69
I3
ssg70
g3131
sg63
(lp3138
g1815
asbasbasbag56
(g72
g58
NtRp3139
(dp3140
g61
(dp3141
sg70
g2523
sg63
(lp3142
g56
(g77
g58
NtRp3143
(dp3144
g61
(dp3145
g81
g82
ssg70
g3139
sg63
(lp3146
S'wsgi.version'
p3147
asbag56
(g77
g58
NtRp3148
(dp3149
g61
(dp3150
g88
g89
ssg70
g3139
sg63
(lp3151
S':'
asbag56
(g77
g58
NtRp3152
(dp3153
g61
(dp3154
sg70
g3139
sg63
(lp3155
g56
(g57
g58
NtRp3156
(dp3157
g61
(dp3158
g69
I3
ssg70
g3152
sg63
(lp3159
S'1'
asbasbasbasbasbasbasbasbasbasbasbasbasbsS'frames'
p3160
(lp3161
(dp3162
S'file'
p3163
S'/windows/Users/Thomas/Dropbox/appz/2011/GAE/ddl-lagoon/gluon/restricted.py'
p3164
sS'dump'
p3165
(dp3166
S'environment'
p3167
S"{'A': <class 'gluon.html.A'>, 'Auth': <class 'gluon.tools.Auth'>, 'B': <class 'gluon.html.B'>, 'BEAUTIFY': <class 'gluon.html.BEAUTIFY'>, 'BODY': <class 'gluon.html.BODY'>, 'BR': <class 'gluon.html.BR'>, 'BUTTON': <class 'gluon.html.BUTTON'>, 'CAT': <class 'gluon.html.CAT'>, 'CENTER': <class 'gluon.html.CENTER'>, 'CLEANUP': <class 'gluon.validators.CLEANUP'>, ...}"
p3168
sS'ccode'
p3169
S'<code object <module> at 0x3570cd8, file "/windo...pplications/ddlagoon/controllers/ddl.py", line 1>'
p3170
ssS'lnum'
p3171
I194
sS'lines'
p3172
(dp3173
I192
S'        else:'
p3174
sI193
S'            ccode = compile2(code,layer)'
p3175
sI194
S'        exec ccode in environment'
p3176
sI195
S'    except HTTP:'
p3177
sI196
S'        raise'
p3178
sI197
S'    except Exception, error:'
p3179
sI198
S'        # XXX Show exception in Wing IDE if running in debugger'
p3180
sI189
S'    try:'
p3181
sI190
S'        if type(code) == types.CodeType:'
p3182
sI191
S'            ccode = code'
p3183
ssS'call'
p3184
S"(code='import tempfile\\nfrom time import mktime\\n\\nif Fals...ad(ddlFile)\\nresponse._vars=response._caller(get)\\n', environment={'A': <class 'gluon.html.A'>, 'Auth': <class 'gluon.tools.Auth'>, 'B': <class 'gluon.html.B'>, 'BEAUTIFY': <class 'gluon.html.BEAUTIFY'>, 'BODY': <class 'gluon.html.BODY'>, 'BR': <class 'gluon.html.BR'>, 'BUTTON': <class 'gluon.html.BUTTON'>, 'CAT': <class 'gluon.html.CAT'>, 'CENTER': <class 'gluon.html.CENTER'>, 'CLEANUP': <class 'gluon.validators.CLEANUP'>, ...}, layer='/windows/Users/Thomas/Dropbox/appz/2011/GAE/ddl-lagoon/applications/ddlagoon/controllers/ddl.py')"
p3185
sS'func'
p3186
S'restricted'
p3187
sa(dp3188
g3163
S'/windows/Users/Thomas/Dropbox/appz/2011/GAE/ddl-lagoon/applications/ddlagoon/controllers/ddl.py'
p3189
sg3165
(dp3190
sg3171
I40
sg3172
(dp3191
I32
S"            'time':int(mktime(ddl.date_added.timetuple()))"
p3192
sI33
S'        }'
p3193
sI34
S'        ddlJson = json.dumps(ddl, sort_keys=True, indent=4)'
p3194
sI35
S'        # temp file'
p3195
sI36
S'        ddlFile = tempfile.TemporaryFile()'
p3196
sI37
S'        with open(ddlFile, "rb") as myFile:'
p3197
sI38
S'            myFile.write(ddlJson)'
p3198
sI39
S'        return response.download(ddlFile)'
p3199
sI30
S"            'links':ddl.links,"
p3200
sI31
S"            'version':ddl.version,"
p3201
ssg3184
S'()'
p3202
sg3186
S'<module>'
p3203
sa(dp3204
g3163
S'/windows/Users/Thomas/Dropbox/appz/2011/GAE/ddl-lagoon/gluon/globals.py'
p3205
sg3165
(dp3206
S'self'
p3207
S'undefined'
p3208
sS'f'
S'<function get>'
p3209
ssg3171
I149
sg3172
(dp3210
I144
S'        self.meta = Storage()      # used by web2py_ajax.html'
p3211
sI145
S'        self.menu = []             # used by the default view layout'
p3212
sI146
S'        self.files = []            # used by web2py_ajax.html'
p3213
sI147
S'        self.generic_patterns = [] # patterns to allow generic views'
p3214
sI148
S'        self._vars = None'
p3215
sI149
S'        self._caller = lambda f: f()'
p3216
sI150
S'        self._view_environment = None'
p3217
sI151
S'        self._custom_commit = None'
p3218
sI152
S'        self._custom_rollback = None'
p3219
sI153
S''
ssg3184
S'(f=<function get>)'
p3220
sg3186
S'<lambda>'
p3221
sa(dp3222
g3163
S'/windows/Users/Thomas/Dropbox/appz/2011/GAE/ddl-lagoon/applications/ddlagoon/controllers/ddl.py'
p3223
sg3165
(dp3224
S'global service'
p3225
S'<gluon.tools.Service object>'
p3226
ssg3171
I12
sg3172
(dp3227
I7
S'from gluon.contrib import simplejson as json'
p3228
sI8
S''
sI9
S"__author__ = 'thomas'"
p3229
sI10
S''
sI11
S'def get():'
p3230
sI12
S'    return service()'
p3231
sI13
S''
sI14
S'@service.xml'
p3232
sI15
S'def ddl(id="", filename=""):'
p3233
sI16
S'    # find the record'
p3234
ssg3184
S'()'
p3235
sg3186
S'get'
p3236
sa(dp3237
g3163
S'/windows/Users/Thomas/Dropbox/appz/2011/GAE/ddl-lagoon/gluon/tools.py'
p3238
sg3165
(dp3239
S'request.args'
p3240
S"['run', 'ddl', '14', 'The_Thing_2011_TS_XviD_READNFO___MiSTERE.avi']"
p3241
sS'self.serve_run'
p3242
S'<bound method Service.serve_run of <gluon.tools.Service object>>'
p3243
sS'self'
p3244
S'<gluon.tools.Service object>'
p3245
sS'request'
p3246
S"<Storage {'body': <cStringIO.StringO object at 0..._vars': <Storage {}>, 'post_vars': <Storage {}>}>"
p3247
ssg3171
I3834
sg3172
(dp3248
I3829
S'        request = current.request'
p3249
sI3830
S'        if len(request.args) < 1:'
p3250
sI3831
S'            raise HTTP(404, "Not Found")'
p3251
sI3832
S'        arg0 = request.args(0)'
p3252
sI3833
S"        if arg0 == 'run':"
p3253
sI3834
S'            return self.serve_run(request.args[1:])'
p3254
sI3835
S"        elif arg0 == 'rss':"
p3255
sI3836
S'            return self.serve_rss(request.args[1:])'
p3256
sI3837
S"        elif arg0 == 'csv':"
p3257
sI3838
S'            return self.serve_csv(request.args[1:])'
p3258
ssg3184
S'(self=<gluon.tools.Service object>)'
p3259
sg3186
S'__call__'
p3260
sa(dp3261
g3163
S'/windows/Users/Thomas/Dropbox/appz/2011/GAE/ddl-lagoon/gluon/tools.py'
p3262
sg3165
(dp3263
S'request.vars'
p3264
S'<Storage {}>'
p3265
sS'args'
p3266
S"['ddl', '14', 'The_Thing_2011_TS_XviD_READNFO___MiSTERE.avi']"
p3267
sS'request'
p3268
S"<Storage {'body': <cStringIO.StringO object at 0..._vars': <Storage {}>, 'post_vars': <Storage {}>}>"
p3269
sS'builtindict'
p3270
S"<type 'dict'>"
p3271
ssg3171
I3585
sg3172
(dp3272
I3584
S'            return str(universal_caller(self.run_procedures[args[0]],'
p3273
sI3585
S'                                        *args[1:], **dict(request.vars)))'
p3274
sI3586
S'        self.error()'
p3275
sI3587
S''
sI3588
S'    def serve_csv(self, args=None):'
p3276
sI3589
S'        request = current.request'
p3277
sI3580
S'        request = current.request'
p3278
sI3581
S'        if not args:'
p3279
sI3582
S'            args = request.args'
p3280
sI3583
S'        if args and args[0] in self.run_procedures:'
p3281
ssg3184
S"(self=<gluon.tools.Service object>, args=['ddl', '14', 'The_Thing_2011_TS_XviD_READNFO___MiSTERE.avi'])"
p3282
sg3186
S'serve_run'
p3283
sa(dp3284
g3163
S'/windows/Users/Thomas/Dropbox/appz/2011/GAE/ddl-lagoon/gluon/tools.py'
p3285
sg3165
(dp3286
S'arg_dict'
p3287
S"{'filename': 'The_Thing_2011_TS_XviD_READNFO___MiSTERE.avi', 'id': '14'}"
p3288
sS'f'
S'<function ddl>'
p3289
ssg3171
I3351
sg3172
(dp3290
I3346
S'        # However, we need to update the arg_dict with the values from the named arguments as well.'
p3291
sI3347
S'        for arg_name in named_args:'
p3292
sI3348
S'            if b.has_key(arg_name):'
p3293
sI3349
S'                arg_dict[arg_name] = b[arg_name]'
p3294
sI3350
S''
sI3351
S'        return f(**arg_dict)'
p3295
sI3352
S''
sI3353
S'    # Raise an error, the function cannot be called.'
p3296
sI3354
S'    raise HTTP(404, "Object does not exist")'
p3297
sI3355
S''
ssg3184
S"(f=<function ddl>, *a=('14', 'The_Thing_2011_TS_XviD_READNFO___MiSTERE.avi'), **b={})"
p3298
sg3186
S'universal_caller'
p3299
sa(dp3300
g3163
S'/windows/Users/Thomas/Dropbox/appz/2011/GAE/ddl-lagoon/applications/ddlagoon/controllers/ddl.py'
p3301
sg3165
(dp3302
S'ddlFile'
p3303
S"<open file '<fdopen>', mode 'w+b'>"
p3304
sS'builtinopen'
p3305
S'<built-in function open>'
p3306
sS'myFile'
p3307
g3208
ssg3171
I37
sg3172
(dp3308
I32
S"            'time':int(mktime(ddl.date_added.timetuple()))"
p3309
sI33
S'        }'
p3310
sI34
S'        ddlJson = json.dumps(ddl, sort_keys=True, indent=4)'
p3311
sI35
S'        # temp file'
p3312
sI36
S'        ddlFile = tempfile.TemporaryFile()'
p3313
sI37
S'        with open(ddlFile, "rb") as myFile:'
p3314
sI38
S'            myFile.write(ddlJson)'
p3315
sI39
S'        return response.download(ddlFile)'
p3316
sI30
S"            'links':ddl.links,"
p3317
sI31
S"            'version':ddl.version,"
p3318
ssg3184
S"(id='14', filename='The_Thing_2011_TS_XviD_READNFO___MiSTERE.avi')"
p3319
sg3186
S'ddl'
p3320
sasS'pyver'
p3321
S'Python 2.6.7: /usr/bin/python2.6'
p3322
sS'session'
p3323
g56
(g57
g58
NtRp3324
(dp3325
g61
(dp3326
sg63
(lp3327
g56
(g65
g58
NtRp3328
(dp3329
g61
(dp3330
g69
I5
ssg70
Nsg63
(lp3331
sbasbsS'etype'
p3332
S"<type 'exceptions.TypeError'>"
p3333
sS'date'
p3334
S'Thu Oct 27 11:01:35 2011'
p3335
sS'response'
p3336
g56
(g57
g58
NtRp3337
(dp3338
g61
(dp3339
sg63
(lp3340
g56
(g65
g58
NtRp3341
(dp3342
g61
(dp3343
g69
I5
ssg70
Nsg63
(lp3344
g56
(g72
g58
NtRp3345
(dp3346
g61
(dp3347
sg70
g3341
sg63
(lp3348
g56
(g77
g58
NtRp3349
(dp3350
g61
(dp3351
g81
g82
ssg70
g3345
sg63
(lp3352
g206
asbag56
(g77
g58
NtRp3353
(dp3354
g61
(dp3355
g88
g89
ssg70
g3345
sg63
(lp3356
S':'
asbag56
(g77
g58
NtRp3357
(dp3358
g61
(dp3359
sg70
g3345
sg63
(lp3360
g56
(g57
g58
NtRp3361
(dp3362
g61
(dp3363
g69
I5
ssg70
g3357
sg63
(lp3364
S'<cStringIO.StringO object at 0x32fae68>'
p3365
asbasbasbag56
(g72
g58
NtRp3366
(dp3367
g61
(dp3368
sg70
g3341
sg63
(lp3369
g56
(g77
g58
NtRp3370
(dp3371
g61
(dp3372
g81
g82
ssg70
g3366
sg63
(lp3373
g272
asbag56
(g77
g58
NtRp3374
(dp3375
g61
(dp3376
g88
g89
ssg70
g3366
sg63
(lp3377
S':'
asbag56
(g77
g58
NtRp3378
(dp3379
g61
(dp3380
sg70
g3366
sg63
(lp3381
g56
(g57
g58
NtRp3382
(dp3383
g61
(dp3384
g69
I5
ssg70
g3378
sg63
(lp3385
g56
(g65
g58
NtRp3386
(dp3387
g61
(dp3388
g69
I4
ssg70
Nsg63
(lp3389
g56
(g72
g58
NtRp3390
(dp3391
g61
(dp3392
sg70
g3386
sg63
(lp3393
g56
(g77
g58
NtRp3394
(dp3395
g61
(dp3396
g81
g82
ssg70
g3390
sg63
(lp3397
S'session_id_ddlagoon'
p3398
asbag56
(g77
g58
NtRp3399
(dp3400
g61
(dp3401
g88
g89
ssg70
g3390
sg63
(lp3402
S':'
asbag56
(g77
g58
NtRp3403
(dp3404
g61
(dp3405
sg70
g3390
sg63
(lp3406
g56
(g57
g58
NtRp3407
(dp3408
g61
(dp3409
g69
I4
ssg70
g3403
sg63
(lp3410
g56
(g65
g58
NtRp3411
(dp3412
g61
(dp3413
g69
I3
ssg70
Nsg63
(lp3414
g56
(g72
g58
NtRp3415
(dp3416
g61
(dp3417
sg70
g3411
sg63
(lp3418
g56
(g77
g58
NtRp3419
(dp3420
g61
(dp3421
g81
g82
ssg70
g3415
sg63
(lp3422
g322
asbag56
(g77
g58
NtRp3423
(dp3424
g61
(dp3425
g88
g89
ssg70
g3415
sg63
(lp3426
S':'
asbag56
(g77
g58
NtRp3427
(dp3428
g61
(dp3429
sg70
g3415
sg63
(lp3430
g56
(g57
g58
NtRp3431
(dp3432
g61
(dp3433
g69
I3
ssg70
g3427
sg63
(lp3434
S''
asbasbasbag56
(g72
g58
NtRp3435
(dp3436
g61
(dp3437
sg70
g3411
sg63
(lp3438
g56
(g77
g58
NtRp3439
(dp3440
g61
(dp3441
g81
g82
ssg70
g3435
sg63
(lp3442
g343
asbag56
(g77
g58
NtRp3443
(dp3444
g61
(dp3445
g88
g89
ssg70
g3435
sg63
(lp3446
S':'
asbag56
(g77
g58
NtRp3447
(dp3448
g61
(dp3449
sg70
g3435
sg63
(lp3450
g56
(g57
g58
NtRp3451
(dp3452
g61
(dp3453
g69
I3
ssg70
g3447
sg63
(lp3454
S''
asbasbasbag56
(g72
g58
NtRp3455
(dp3456
g61
(dp3457
sg70
g3411
sg63
(lp3458
g56
(g77
g58
NtRp3459
(dp3460
g61
(dp3461
g81
g82
ssg70
g3455
sg63
(lp3462
g364
asbag56
(g77
g58
NtRp3463
(dp3464
g61
(dp3465
g88
g89
ssg70
g3455
sg63
(lp3466
S':'
asbag56
(g77
g58
NtRp3467
(dp3468
g61
(dp3469
sg70
g3455
sg63
(lp3470
g56
(g57
g58
NtRp3471
(dp3472
g61
(dp3473
g69
I3
ssg70
g3467
sg63
(lp3474
S''
asbasbasbag56
(g72
g58
NtRp3475
(dp3476
g61
(dp3477
sg70
g3411
sg63
(lp3478
g56
(g77
g58
NtRp3479
(dp3480
g61
(dp3481
g81
g82
ssg70
g3475
sg63
(lp3482
g385
asbag56
(g77
g58
NtRp3483
(dp3484
g61
(dp3485
g88
g89
ssg70
g3475
sg63
(lp3486
S':'
asbag56
(g77
g58
NtRp3487
(dp3488
g61
(dp3489
sg70
g3475
sg63
(lp3490
g56
(g57
g58
NtRp3491
(dp3492
g61
(dp3493
g69
I3
ssg70
g3487
sg63
(lp3494
S''
asbasbasbag56
(g72
g58
NtRp3495
(dp3496
g61
(dp3497
sg70
g3411
sg63
(lp3498
g56
(g77
g58
NtRp3499
(dp3500
g61
(dp3501
g81
g82
ssg70
g3495
sg63
(lp3502
g406
asbag56
(g77
g58
NtRp3503
(dp3504
g61
(dp3505
g88
g89
ssg70
g3495
sg63
(lp3506
S':'
asbag56
(g77
g58
NtRp3507
(dp3508
g61
(dp3509
sg70
g3495
sg63
(lp3510
g56
(g57
g58
NtRp3511
(dp3512
g61
(dp3513
g69
I3
ssg70
g3507
sg63
(lp3514
S''
asbasbasbag56
(g72
g58
NtRp3515
(dp3516
g61
(dp3517
sg70
g3411
sg63
(lp3518
g56
(g77
g58
NtRp3519
(dp3520
g61
(dp3521
g81
g82
ssg70
g3515
sg63
(lp3522
g427
asbag56
(g77
g58
NtRp3523
(dp3524
g61
(dp3525
g88
g89
ssg70
g3515
sg63
(lp3526
S':'
asbag56
(g77
g58
NtRp3527
(dp3528
g61
(dp3529
sg70
g3515
sg63
(lp3530
g56
(g57
g58
NtRp3531
(dp3532
g61
(dp3533
g69
I3
ssg70
g3527
sg63
(lp3534
S'/'
asbasbasbag56
(g72
g58
NtRp3535
(dp3536
g61
(dp3537
sg70
g3411
sg63
(lp3538
g56
(g77
g58
NtRp3539
(dp3540
g61
(dp3541
g81
g82
ssg70
g3535
sg63
(lp3542
g448
asbag56
(g77
g58
NtRp3543
(dp3544
g61
(dp3545
g88
g89
ssg70
g3535
sg63
(lp3546
S':'
asbag56
(g77
g58
NtRp3547
(dp3548
g61
(dp3549
sg70
g3535
sg63
(lp3550
g56
(g57
g58
NtRp3551
(dp3552
g61
(dp3553
g69
I3
ssg70
g3547
sg63
(lp3554
S''
asbasbasbag56
(g72
g58
NtRp3555
(dp3556
g61
(dp3557
sg70
g3411
sg63
(lp3558
g56
(g77
g58
NtRp3559
(dp3560
g61
(dp3561
g81
g82
ssg70
g3555
sg63
(lp3562
g469
asbag56
(g77
g58
NtRp3563
(dp3564
g61
(dp3565
g88
g89
ssg70
g3555
sg63
(lp3566
S':'
asbag56
(g77
g58
NtRp3567
(dp3568
g61
(dp3569
sg70
g3555
sg63
(lp3570
g56
(g57
g58
NtRp3571
(dp3572
g61
(dp3573
g69
I3
ssg70
g3567
sg63
(lp3574
S''
asbasbasbasbasbasbasbasbasbasbasbag56
(g72
g58
NtRp3575
(dp3576
g61
(dp3577
sg70
g3341
sg63
(lp3578
g56
(g77
g58
NtRp3579
(dp3580
g61
(dp3581
g81
g82
ssg70
g3575
sg63
(lp3582
S'files'
p3583
asbag56
(g77
g58
NtRp3584
(dp3585
g61
(dp3586
g88
g89
ssg70
g3575
sg63
(lp3587
S':'
asbag56
(g77
g58
NtRp3588
(dp3589
g61
(dp3590
sg70
g3575
sg63
(lp3591
g56
(g57
g58
NtRp3592
(dp3593
g61
(dp3594
g69
I5
ssg70
g3588
sg63
(lp3595
g56
(g65
g58
NtRp3596
(dp3597
g61
(dp3598
g69
I4
ssg70
Nsg63
(lp3599
sbasbasbasbag56
(g72
g58
NtRp3600
(dp3601
g61
(dp3602
sg70
g3341
sg63
(lp3603
g56
(g77
g58
NtRp3604
(dp3605
g61
(dp3606
g81
g82
ssg70
g3600
sg63
(lp3607
S'flash'
p3608
asbag56
(g77
g58
NtRp3609
(dp3610
g61
(dp3611
g88
g89
ssg70
g3600
sg63
(lp3612
S':'
asbag56
(g77
g58
NtRp3613
(dp3614
g61
(dp3615
sg70
g3600
sg63
(lp3616
g56
(g57
g58
NtRp3617
(dp3618
g61
(dp3619
g69
I5
ssg70
g3613
sg63
(lp3620
S''
asbasbasbag56
(g72
g58
NtRp3621
(dp3622
g61
(dp3623
sg70
g3341
sg63
(lp3624
g56
(g77
g58
NtRp3625
(dp3626
g61
(dp3627
g81
g82
ssg70
g3621
sg63
(lp3628
S'generic_patterns'
p3629
asbag56
(g77
g58
NtRp3630
(dp3631
g61
(dp3632
g88
g89
ssg70
g3621
sg63
(lp3633
S':'
asbag56
(g77
g58
NtRp3634
(dp3635
g61
(dp3636
sg70
g3621
sg63
(lp3637
g56
(g57
g58
NtRp3638
(dp3639
g61
(dp3640
g69
I5
ssg70
g3634
sg63
(lp3641
g56
(g65
g58
NtRp3642
(dp3643
g61
(dp3644
g69
I4
ssg70
Nsg63
(lp3645
g56
(g72
g58
NtRp3646
(dp3647
g61
(dp3648
sg70
g3642
sg63
(lp3649
g56
(g77
g58
NtRp3650
(dp3651
g61
(dp3652
sg70
g3646
sg63
(lp3653
g56
(g57
g58
NtRp3654
(dp3655
g61
(dp3656
g69
I4
ssg70
g3650
sg63
(lp3657
S'*'
asbasbasbasbasbasbasbag56
(g72
g58
NtRp3658
(dp3659
g61
(dp3660
sg70
g3341
sg63
(lp3661
g56
(g77
g58
NtRp3662
(dp3663
g61
(dp3664
g81
g82
ssg70
g3658
sg63
(lp3665
S'headers'
p3666
asbag56
(g77
g58
NtRp3667
(dp3668
g61
(dp3669
g88
g89
ssg70
g3658
sg63
(lp3670
S':'
asbag56
(g77
g58
NtRp3671
(dp3672
g61
(dp3673
sg70
g3658
sg63
(lp3674
g56
(g57
g58
NtRp3675
(dp3676
g61
(dp3677
g69
I5
ssg70
g3671
sg63
(lp3678
g56
(g65
g58
NtRp3679
(dp3680
g61
(dp3681
g69
I4
ssg70
Nsg63
(lp3682
g56
(g72
g58
NtRp3683
(dp3684
g61
(dp3685
sg70
g3679
sg63
(lp3686
g56
(g77
g58
NtRp3687
(dp3688
g61
(dp3689
g81
g82
ssg70
g3683
sg63
(lp3690
S'Cache-Control'
p3691
asbag56
(g77
g58
NtRp3692
(dp3693
g61
(dp3694
g88
g89
ssg70
g3683
sg63
(lp3695
S':'
asbag56
(g77
g58
NtRp3696
(dp3697
g61
(dp3698
sg70
g3683
sg63
(lp3699
g56
(g57
g58
NtRp3700
(dp3701
g61
(dp3702
g69
I4
ssg70
g3696
sg63
(lp3703
S'no-store, no-cache, must-revalidate, post-check=0, pre-check=0'
p3704
asbasbasbag56
(g72
g58
NtRp3705
(dp3706
g61
(dp3707
sg70
g3679
sg63
(lp3708
g56
(g77
g58
NtRp3709
(dp3710
g61
(dp3711
g81
g82
ssg70
g3705
sg63
(lp3712
S'Content-Type'
p3713
asbag56
(g77
g58
NtRp3714
(dp3715
g61
(dp3716
g88
g89
ssg70
g3705
sg63
(lp3717
S':'
asbag56
(g77
g58
NtRp3718
(dp3719
g61
(dp3720
sg70
g3705
sg63
(lp3721
g56
(g57
g58
NtRp3722
(dp3723
g61
(dp3724
g69
I4
ssg70
g3718
sg63
(lp3725
S'text/html; charset=utf-8'
p3726
asbasbasbag56
(g72
g58
NtRp3727
(dp3728
g61
(dp3729
sg70
g3679
sg63
(lp3730
g56
(g77
g58
NtRp3731
(dp3732
g61
(dp3733
g81
g82
ssg70
g3727
sg63
(lp3734
S'Expires'
p3735
asbag56
(g77
g58
NtRp3736
(dp3737
g61
(dp3738
g88
g89
ssg70
g3727
sg63
(lp3739
S':'
asbag56
(g77
g58
NtRp3740
(dp3741
g61
(dp3742
sg70
g3727
sg63
(lp3743
g56
(g57
g58
NtRp3744
(dp3745
g61
(dp3746
g69
I4
ssg70
g3740
sg63
(lp3747
S'Thu, 27 Oct 2011 10:01:34 GMT'
p3748
asbasbasbag56
(g72
g58
NtRp3749
(dp3750
g61
(dp3751
sg70
g3679
sg63
(lp3752
g56
(g77
g58
NtRp3753
(dp3754
g61
(dp3755
g81
g82
ssg70
g3749
sg63
(lp3756
S'Pragma'
p3757
asbag56
(g77
g58
NtRp3758
(dp3759
g61
(dp3760
g88
g89
ssg70
g3749
sg63
(lp3761
S':'
asbag56
(g77
g58
NtRp3762
(dp3763
g61
(dp3764
sg70
g3749
sg63
(lp3765
g56
(g57
g58
NtRp3766
(dp3767
g61
(dp3768
g69
I4
ssg70
g3762
sg63
(lp3769
S'no-cache'
p3770
asbasbasbag56
(g72
g58
NtRp3771
(dp3772
g61
(dp3773
sg70
g3679
sg63
(lp3774
g56
(g77
g58
NtRp3775
(dp3776
g61
(dp3777
g81
g82
ssg70
g3771
sg63
(lp3778
S'X-Powered-By'
p3779
asbag56
(g77
g58
NtRp3780
(dp3781
g61
(dp3782
g88
g89
ssg70
g3771
sg63
(lp3783
S':'
asbag56
(g77
g58
NtRp3784
(dp3785
g61
(dp3786
sg70
g3771
sg63
(lp3787
g56
(g57
g58
NtRp3788
(dp3789
g61
(dp3790
g69
I4
ssg70
g3784
sg63
(lp3791
S'web2py'
p3792
asbasbasbasbasbasbasbag56
(g72
g58
NtRp3793
(dp3794
g61
(dp3795
sg70
g3341
sg63
(lp3796
g56
(g77
g58
NtRp3797
(dp3798
g61
(dp3799
g81
g82
ssg70
g3793
sg63
(lp3800
S'menu'
p3801
asbag56
(g77
g58
NtRp3802
(dp3803
g61
(dp3804
g88
g89
ssg70
g3793
sg63
(lp3805
S':'
asbag56
(g77
g58
NtRp3806
(dp3807
g61
(dp3808
sg70
g3793
sg63
(lp3809
g56
(g57
g58
NtRp3810
(dp3811
g61
(dp3812
g69
I5
ssg70
g3806
sg63
(lp3813
g56
(g65
g58
NtRp3814
(dp3815
g61
(dp3816
g69
I4
ssg70
Nsg63
(lp3817
g56
(g72
g58
NtRp3818
(dp3819
g61
(dp3820
sg70
g3814
sg63
(lp3821
g56
(g77
g58
NtRp3822
(dp3823
g61
(dp3824
sg70
g3818
sg63
(lp3825
g56
(g57
g58
NtRp3826
(dp3827
g61
(dp3828
g69
I4
ssg70
g3822
sg63
(lp3829
g56
(g65
g58
NtRp3830
(dp3831
g61
(dp3832
g69
I3
ssg70
Nsg63
(lp3833
g56
(g72
g58
NtRp3834
(dp3835
g61
(dp3836
sg70
g3830
sg63
(lp3837
g56
(g77
g58
NtRp3838
(dp3839
g61
(dp3840
sg70
g3834
sg63
(lp3841
g56
(g57
g58
NtRp3842
(dp3843
g61
(dp3844
g69
I3
ssg70
g3838
sg63
(lp3845
cgluon.languages
lazyT_unpickle
p3846
(S's\x04\x00\x00\x00Home'
tRp3847
asbasbasbag56
(g72
g58
NtRp3848
(dp3849
g61
(dp3850
sg70
g3830
sg63
(lp3851
g56
(g77
g58
NtRp3852
(dp3853
g61
(dp3854
sg70
g3848
sg63
(lp3855
g56
(g57
g58
NtRp3856
(dp3857
g61
(dp3858
g69
I3
ssg70
g3852
sg63
(lp3859
g99
asbasbasbag56
(g72
g58
NtRp3860
(dp3861
g61
(dp3862
sg70
g3830
sg63
(lp3863
g56
(g77
g58
NtRp3864
(dp3865
g61
(dp3866
sg70
g3860
sg63
(lp3867
g56
(g57
g58
NtRp3868
(dp3869
g61
(dp3870
g69
I3
ssg70
g3864
sg63
(lp3871
S'/ddlagoon/default/index'
p3872
asbasbasbag56
(g72
g58
NtRp3873
(dp3874
g61
(dp3875
sg70
g3830
sg63
(lp3876
g56
(g77
g58
NtRp3877
(dp3878
g61
(dp3879
sg70
g3873
sg63
(lp3880
g56
(g57
g58
NtRp3881
(dp3882
g61
(dp3883
g69
I3
ssg70
g3877
sg63
(lp3884
g56
(g65
g58
NtRp3885
(dp3886
g61
(dp3887
g69
I2
ssg70
Nsg63
(lp3888
sbasbasbasbasbasbasbasbag56
(g72
g58
NtRp3889
(dp3890
g61
(dp3891
sg70
g3814
sg63
(lp3892
g56
(g77
g58
NtRp3893
(dp3894
g61
(dp3895
sg70
g3889
sg63
(lp3896
g56
(g57
g58
NtRp3897
(dp3898
g61
(dp3899
g69
I4
ssg70
g3893
sg63
(lp3900
g56
(g65
g58
NtRp3901
(dp3902
g61
(dp3903
g69
I3
ssg70
Nsg63
(lp3904
g56
(g72
g58
NtRp3905
(dp3906
g61
(dp3907
sg70
g3901
sg63
(lp3908
g56
(g77
g58
NtRp3909
(dp3910
g61
(dp3911
sg70
g3905
sg63
(lp3912
g56
(g57
g58
NtRp3913
(dp3914
g61
(dp3915
g69
I3
ssg70
g3909
sg63
(lp3916
g3846
(S's\x08\x00\x00\x00This App'
tRp3917
asbasbasbag56
(g72
g58
NtRp3918
(dp3919
g61
(dp3920
sg70
g3901
sg63
(lp3921
g56
(g77
g58
NtRp3922
(dp3923
g61
(dp3924
sg70
g3918
sg63
(lp3925
g56
(g57
g58
NtRp3926
(dp3927
g61
(dp3928
g69
I3
ssg70
g3922
sg63
(lp3929
g99
asbasbasbag56
(g72
g58
NtRp3930
(dp3931
g61
(dp3932
sg70
g3901
sg63
(lp3933
g56
(g77
g58
NtRp3934
(dp3935
g61
(dp3936
sg70
g3930
sg63
(lp3937
g56
(g57
g58
NtRp3938
(dp3939
g61
(dp3940
g69
I3
ssg70
g3934
sg63
(lp3941
S'/admin/default/design/ddlagoon'
p3942
asbasbasbag56
(g72
g58
NtRp3943
(dp3944
g61
(dp3945
sg70
g3901
sg63
(lp3946
g56
(g77
g58
NtRp3947
(dp3948
g61
(dp3949
sg70
g3943
sg63
(lp3950
g56
(g57
g58
NtRp3951
(dp3952
g61
(dp3953
g69
I3
ssg70
g3947
sg63
(lp3954
g56
(g65
g58
NtRp3955
(dp3956
g61
(dp3957
g69
I2
ssg70
Nsg63
(lp3958
g56
(g72
g58
NtRp3959
(dp3960
g61
(dp3961
sg70
g3955
sg63
(lp3962
g56
(g77
g58
NtRp3963
(dp3964
g61
(dp3965
sg70
g3959
sg63
(lp3966
g56
(g57
g58
NtRp3967
(dp3968
g61
(dp3969
g69
I2
ssg70
g3963
sg63
(lp3970
g56
(g65
g58
NtRp3971
(dp3972
g61
(dp3973
g69
I1
ssg70
Nsg63
(lp3974
g56
(g72
g58
NtRp3975
(dp3976
g61
(dp3977
sg70
g3971
sg63
(lp3978
g56
(g77
g58
NtRp3979
(dp3980
g61
(dp3981
sg70
g3975
sg63
(lp3982
g56
(g57
g58
NtRp3983
(dp3984
g61
(dp3985
g69
I1
ssg70
g3979
sg63
(lp3986
g3846
(S's\n\x00\x00\x00Controller'
tRp3987
asbasbasbag56
(g72
g58
NtRp3988
(dp3989
g61
(dp3990
sg70
g3971
sg63
(lp3991
g56
(g77
g58
NtRp3992
(dp3993
g61
(dp3994
sg70
g3988
sg63
(lp3995
g56
(g57
g58
NtRp3996
(dp3997
g61
(dp3998
g69
I1
ssg70
g3992
sg63
(lp3999
I00
asbasbasbag56
(g72
g58
NtRp4000
(dp4001
g61
(dp4002
sg70
g3971
sg63
(lp4003
g56
(g77
g58
NtRp4004
(dp4005
g61
(dp4006
sg70
g4000
sg63
(lp4007
g56
(g57
g58
NtRp4008
(dp4009
g61
(dp4010
g69
I1
ssg70
g4004
sg63
(lp4011
S'/admin/default/edit/ddlagoon/controllers/ddl.py'
p4012
asbasbasbasbasbasbasbag56
(g72
g58
NtRp4013
(dp4014
g61
(dp4015
sg70
g3955
sg63
(lp4016
g56
(g77
g58
NtRp4017
(dp4018
g61
(dp4019
sg70
g4013
sg63
(lp4020
g56
(g57
g58
NtRp4021
(dp4022
g61
(dp4023
g69
I2
ssg70
g4017
sg63
(lp4024
g56
(g65
g58
NtRp4025
(dp4026
g61
(dp4027
g69
I1
ssg70
Nsg63
(lp4028
g56
(g72
g58
NtRp4029
(dp4030
g61
(dp4031
sg70
g4025
sg63
(lp4032
g56
(g77
g58
NtRp4033
(dp4034
g61
(dp4035
sg70
g4029
sg63
(lp4036
g56
(g57
g58
NtRp4037
(dp4038
g61
(dp4039
g69
I1
ssg70
g4033
sg63
(lp4040
g3846
(S's\x04\x00\x00\x00View'
tRp4041
asbasbasbag56
(g72
g58
NtRp4042
(dp4043
g61
(dp4044
sg70
g4025
sg63
(lp4045
g56
(g77
g58
NtRp4046
(dp4047
g61
(dp4048
sg70
g4042
sg63
(lp4049
g56
(g57
g58
NtRp4050
(dp4051
g61
(dp4052
g69
I1
ssg70
g4046
sg63
(lp4053
I00
asbasbasbag56
(g72
g58
NtRp4054
(dp4055
g61
(dp4056
sg70
g4025
sg63
(lp4057
g56
(g77
g58
NtRp4058
(dp4059
g61
(dp4060
sg70
g4054
sg63
(lp4061
g56
(g57
g58
NtRp4062
(dp4063
g61
(dp4064
g69
I1
ssg70
g4058
sg63
(lp4065
S'/admin/default/edit/ddlagoon/views/ddl/get.html'
p4066
asbasbasbasbasbasbasbag56
(g72
g58
NtRp4067
(dp4068
g61
(dp4069
sg70
g3955
sg63
(lp4070
g56
(g77
g58
NtRp4071
(dp4072
g61
(dp4073
sg70
g4067
sg63
(lp4074
g56
(g57
g58
NtRp4075
(dp4076
g61
(dp4077
g69
I2
ssg70
g4071
sg63
(lp4078
g56
(g65
g58
NtRp4079
(dp4080
g61
(dp4081
g69
I1
ssg70
Nsg63
(lp4082
g56
(g72
g58
NtRp4083
(dp4084
g61
(dp4085
sg70
g4079
sg63
(lp4086
g56
(g77
g58
NtRp4087
(dp4088
g61
(dp4089
sg70
g4083
sg63
(lp4090
g56
(g57
g58
NtRp4091
(dp4092
g61
(dp4093
g69
I1
ssg70
g4087
sg63
(lp4094
g3846
(S's\x06\x00\x00\x00Layout'
tRp4095
asbasbasbag56
(g72
g58
NtRp4096
(dp4097
g61
(dp4098
sg70
g4079
sg63
(lp4099
g56
(g77
g58
NtRp4100
(dp4101
g61
(dp4102
sg70
g4096
sg63
(lp4103
g56
(g57
g58
NtRp4104
(dp4105
g61
(dp4106
g69
I1
ssg70
g4100
sg63
(lp4107
I00
asbasbasbag56
(g72
g58
NtRp4108
(dp4109
g61
(dp4110
sg70
g4079
sg63
(lp4111
g56
(g77
g58
NtRp4112
(dp4113
g61
(dp4114
sg70
g4108
sg63
(lp4115
g56
(g57
g58
NtRp4116
(dp4117
g61
(dp4118
g69
I1
ssg70
g4112
sg63
(lp4119
S'/admin/default/edit/ddlagoon/views/layout.html'
p4120
asbasbasbasbasbasbasbag56
(g72
g58
NtRp4121
(dp4122
g61
(dp4123
sg70
g3955
sg63
(lp4124
g56
(g77
g58
NtRp4125
(dp4126
g61
(dp4127
sg70
g4121
sg63
(lp4128
g56
(g57
g58
NtRp4129
(dp4130
g61
(dp4131
g69
I2
ssg70
g4125
sg63
(lp4132
g56
(g65
g58
NtRp4133
(dp4134
g61
(dp4135
g69
I1
ssg70
Nsg63
(lp4136
g56
(g72
g58
NtRp4137
(dp4138
g61
(dp4139
sg70
g4133
sg63
(lp4140
g56
(g77
g58
NtRp4141
(dp4142
g61
(dp4143
sg70
g4137
sg63
(lp4144
g56
(g57
g58
NtRp4145
(dp4146
g61
(dp4147
g69
I1
ssg70
g4141
sg63
(lp4148
g3846
(S's\n\x00\x00\x00Stylesheet'
tRp4149
asbasbasbag56
(g72
g58
NtRp4150
(dp4151
g61
(dp4152
sg70
g4133
sg63
(lp4153
g56
(g77
g58
NtRp4154
(dp4155
g61
(dp4156
sg70
g4150
sg63
(lp4157
g56
(g57
g58
NtRp4158
(dp4159
g61
(dp4160
g69
I1
ssg70
g4154
sg63
(lp4161
I00
asbasbasbag56
(g72
g58
NtRp4162
(dp4163
g61
(dp4164
sg70
g4133
sg63
(lp4165
g56
(g77
g58
NtRp4166
(dp4167
g61
(dp4168
sg70
g4162
sg63
(lp4169
g56
(g57
g58
NtRp4170
(dp4171
g61
(dp4172
g69
I1
ssg70
g4166
sg63
(lp4173
S'/admin/default/edit/ddlagoon/static/base.css'
p4174
asbasbasbasbasbasbasbag56
(g72
g58
NtRp4175
(dp4176
g61
(dp4177
sg70
g3955
sg63
(lp4178
g56
(g77
g58
NtRp4179
(dp4180
g61
(dp4181
sg70
g4175
sg63
(lp4182
g56
(g57
g58
NtRp4183
(dp4184
g61
(dp4185
g69
I2
ssg70
g4179
sg63
(lp4186
g56
(g65
g58
NtRp4187
(dp4188
g61
(dp4189
g69
I1
ssg70
Nsg63
(lp4190
g56
(g72
g58
NtRp4191
(dp4192
g61
(dp4193
sg70
g4187
sg63
(lp4194
g56
(g77
g58
NtRp4195
(dp4196
g61
(dp4197
sg70
g4191
sg63
(lp4198
g56
(g57
g58
NtRp4199
(dp4200
g61
(dp4201
g69
I1
ssg70
g4195
sg63
(lp4202
g3846
(S's\x08\x00\x00\x00DB Model'
tRp4203
asbasbasbag56
(g72
g58
NtRp4204
(dp4205
g61
(dp4206
sg70
g4187
sg63
(lp4207
g56
(g77
g58
NtRp4208
(dp4209
g61
(dp4210
sg70
g4204
sg63
(lp4211
g56
(g57
g58
NtRp4212
(dp4213
g61
(dp4214
g69
I1
ssg70
g4208
sg63
(lp4215
I00
asbasbasbag56
(g72
g58
NtRp4216
(dp4217
g61
(dp4218
sg70
g4187
sg63
(lp4219
g56
(g77
g58
NtRp4220
(dp4221
g61
(dp4222
sg70
g4216
sg63
(lp4223
g56
(g57
g58
NtRp4224
(dp4225
g61
(dp4226
g69
I1
ssg70
g4220
sg63
(lp4227
S'/admin/default/edit/ddlagoon/models/db.py'
p4228
asbasbasbasbasbasbasbag56
(g72
g58
NtRp4229
(dp4230
g61
(dp4231
sg70
g3955
sg63
(lp4232
g56
(g77
g58
NtRp4233
(dp4234
g61
(dp4235
sg70
g4229
sg63
(lp4236
g56
(g57
g58
NtRp4237
(dp4238
g61
(dp4239
g69
I2
ssg70
g4233
sg63
(lp4240
g56
(g65
g58
NtRp4241
(dp4242
g61
(dp4243
g69
I1
ssg70
Nsg63
(lp4244
g56
(g72
g58
NtRp4245
(dp4246
g61
(dp4247
sg70
g4241
sg63
(lp4248
g56
(g77
g58
NtRp4249
(dp4250
g61
(dp4251
sg70
g4245
sg63
(lp4252
g56
(g57
g58
NtRp4253
(dp4254
g61
(dp4255
g69
I1
ssg70
g4249
sg63
(lp4256
g3846
(S's\n\x00\x00\x00Menu Model'
tRp4257
asbasbasbag56
(g72
g58
NtRp4258
(dp4259
g61
(dp4260
sg70
g4241
sg63
(lp4261
g56
(g77
g58
NtRp4262
(dp4263
g61
(dp4264
sg70
g4258
sg63
(lp4265
g56
(g57
g58
NtRp4266
(dp4267
g61
(dp4268
g69
I1
ssg70
g4262
sg63
(lp4269
I00
asbasbasbag56
(g72
g58
NtRp4270
(dp4271
g61
(dp4272
sg70
g4241
sg63
(lp4273
g56
(g77
g58
NtRp4274
(dp4275
g61
(dp4276
sg70
g4270
sg63
(lp4277
g56
(g57
g58
NtRp4278
(dp4279
g61
(dp4280
g69
I1
ssg70
g4274
sg63
(lp4281
S'/admin/default/edit/ddlagoon/models/menu.py'
p4282
asbasbasbasbasbasbasbag56
(g72
g58
NtRp4283
(dp4284
g61
(dp4285
sg70
g3955
sg63
(lp4286
g56
(g77
g58
NtRp4287
(dp4288
g61
(dp4289
sg70
g4283
sg63
(lp4290
g56
(g57
g58
NtRp4291
(dp4292
g61
(dp4293
g69
I2
ssg70
g4287
sg63
(lp4294
g56
(g65
g58
NtRp4295
(dp4296
g61
(dp4297
g69
I1
ssg70
Nsg63
(lp4298
g56
(g72
g58
NtRp4299
(dp4300
g61
(dp4301
sg70
g4295
sg63
(lp4302
g56
(g77
g58
NtRp4303
(dp4304
g61
(dp4305
sg70
g4299
sg63
(lp4306
g56
(g57
g58
NtRp4307
(dp4308
g61
(dp4309
g69
I1
ssg70
g4303
sg63
(lp4310
g3846
(S's\x08\x00\x00\x00Database'
tRp4311
asbasbasbag56
(g72
g58
NtRp4312
(dp4313
g61
(dp4314
sg70
g4295
sg63
(lp4315
g56
(g77
g58
NtRp4316
(dp4317
g61
(dp4318
sg70
g4312
sg63
(lp4319
g56
(g57
g58
NtRp4320
(dp4321
g61
(dp4322
g69
I1
ssg70
g4316
sg63
(lp4323
I00
asbasbasbag56
(g72
g58
NtRp4324
(dp4325
g61
(dp4326
sg70
g4295
sg63
(lp4327
g56
(g77
g58
NtRp4328
(dp4329
g61
(dp4330
sg70
g4324
sg63
(lp4331
g56
(g57
g58
NtRp4332
(dp4333
g61
(dp4334
g69
I1
ssg70
g4328
sg63
(lp4335
S'/ddlagoon/appadmin/index'
p4336
asbasbasbasbasbasbasbag56
(g72
g58
NtRp4337
(dp4338
g61
(dp4339
sg70
g3955
sg63
(lp4340
g56
(g77
g58
NtRp4341
(dp4342
g61
(dp4343
sg70
g4337
sg63
(lp4344
g56
(g57
g58
NtRp4345
(dp4346
g61
(dp4347
g69
I2
ssg70
g4341
sg63
(lp4348
g56
(g65
g58
NtRp4349
(dp4350
g61
(dp4351
g69
I1
ssg70
Nsg63
(lp4352
g56
(g72
g58
NtRp4353
(dp4354
g61
(dp4355
sg70
g4349
sg63
(lp4356
g56
(g77
g58
NtRp4357
(dp4358
g61
(dp4359
sg70
g4353
sg63
(lp4360
g56
(g57
g58
NtRp4361
(dp4362
g61
(dp4363
g69
I1
ssg70
g4357
sg63
(lp4364
g3846
(S's\x06\x00\x00\x00Errors'
tRp4365
asbasbasbag56
(g72
g58
NtRp4366
(dp4367
g61
(dp4368
sg70
g4349
sg63
(lp4369
g56
(g77
g58
NtRp4370
(dp4371
g61
(dp4372
sg70
g4366
sg63
(lp4373
g56
(g57
g58
NtRp4374
(dp4375
g61
(dp4376
g69
I1
ssg70
g4370
sg63
(lp4377
I00
asbasbasbag56
(g72
g58
NtRp4378
(dp4379
g61
(dp4380
sg70
g4349
sg63
(lp4381
g56
(g77
g58
NtRp4382
(dp4383
g61
(dp4384
sg70
g4378
sg63
(lp4385
g56
(g57
g58
NtRp4386
(dp4387
g61
(dp4388
g69
I1
ssg70
g4382
sg63
(lp4389
S'/admin/default/errors/ddlagoon'
p4390
asbasbasbasbasbasbasbag56
(g72
g58
NtRp4391
(dp4392
g61
(dp4393
sg70
g3955
sg63
(lp4394
g56
(g77
g58
NtRp4395
(dp4396
g61
(dp4397
sg70
g4391
sg63
(lp4398
g56
(g57
g58
NtRp4399
(dp4400
g61
(dp4401
g69
I2
ssg70
g4395
sg63
(lp4402
g56
(g65
g58
NtRp4403
(dp4404
g61
(dp4405
g69
I1
ssg70
Nsg63
(lp4406
g56
(g72
g58
NtRp4407
(dp4408
g61
(dp4409
sg70
g4403
sg63
(lp4410
g56
(g77
g58
NtRp4411
(dp4412
g61
(dp4413
sg70
g4407
sg63
(lp4414
g56
(g57
g58
NtRp4415
(dp4416
g61
(dp4417
g69
I1
ssg70
g4411
sg63
(lp4418
g3846
(S's\x05\x00\x00\x00About'
tRp4419
asbasbasbag56
(g72
g58
NtRp4420
(dp4421
g61
(dp4422
sg70
g4403
sg63
(lp4423
g56
(g77
g58
NtRp4424
(dp4425
g61
(dp4426
sg70
g4420
sg63
(lp4427
g56
(g57
g58
NtRp4428
(dp4429
g61
(dp4430
g69
I1
ssg70
g4424
sg63
(lp4431
I00
asbasbasbag56
(g72
g58
NtRp4432
(dp4433
g61
(dp4434
sg70
g4403
sg63
(lp4435
g56
(g77
g58
NtRp4436
(dp4437
g61
(dp4438
sg70
g4432
sg63
(lp4439
g56
(g57
g58
NtRp4440
(dp4441
g61
(dp4442
g69
I1
ssg70
g4436
sg63
(lp4443
S'/admin/default/about/ddlagoon'
p4444
asbasbasbasbasbasbasbasbasbasbasbasbasbasbasbag56
(g72
g58
NtRp4445
(dp4446
g61
(dp4447
sg70
g3814
sg63
(lp4448
g56
(g77
g58
NtRp4449
(dp4450
g61
(dp4451
sg70
g4445
sg63
(lp4452
g56
(g57
g58
NtRp4453
(dp4454
g61
(dp4455
g69
I4
ssg70
g4449
sg63
(lp4456
g56
(g65
g58
NtRp4457
(dp4458
g61
(dp4459
g69
I3
ssg70
Nsg63
(lp4460
g56
(g72
g58
NtRp4461
(dp4462
g61
(dp4463
sg70
g4457
sg63
(lp4464
g56
(g77
g58
NtRp4465
(dp4466
g61
(dp4467
sg70
g4461
sg63
(lp4468
g56
(g57
g58
NtRp4469
(dp4470
g61
(dp4471
g69
I3
ssg70
g4465
sg63
(lp4472
g3846
(S's\t\x00\x00\x00Resources'
tRp4473
asbasbasbag56
(g72
g58
NtRp4474
(dp4475
g61
(dp4476
sg70
g4457
sg63
(lp4477
g56
(g77
g58
NtRp4478
(dp4479
g61
(dp4480
sg70
g4474
sg63
(lp4481
g56
(g57
g58
NtRp4482
(dp4483
g61
(dp4484
g69
I3
ssg70
g4478
sg63
(lp4485
g99
asbasbasbag56
(g72
g58
NtRp4486
(dp4487
g61
(dp4488
sg70
g4457
sg63
(lp4489
g56
(g77
g58
NtRp4490
(dp4491
g61
(dp4492
sg70
g4486
sg63
(lp4493
g56
(g57
g58
NtRp4494
(dp4495
g61
(dp4496
g69
I3
ssg70
g4490
sg63
(lp4497
S'None'
p4498
asbasbasbag56
(g72
g58
NtRp4499
(dp4500
g61
(dp4501
sg70
g4457
sg63
(lp4502
g56
(g77
g58
NtRp4503
(dp4504
g61
(dp4505
sg70
g4499
sg63
(lp4506
g56
(g57
g58
NtRp4507
(dp4508
g61
(dp4509
g69
I3
ssg70
g4503
sg63
(lp4510
g56
(g65
g58
NtRp4511
(dp4512
g61
(dp4513
g69
I2
ssg70
Nsg63
(lp4514
g56
(g72
g58
NtRp4515
(dp4516
g61
(dp4517
sg70
g4511
sg63
(lp4518
g56
(g77
g58
NtRp4519
(dp4520
g61
(dp4521
sg70
g4515
sg63
(lp4522
g56
(g57
g58
NtRp4523
(dp4524
g61
(dp4525
g69
I2
ssg70
g4519
sg63
(lp4526
g56
(g65
g58
NtRp4527
(dp4528
g61
(dp4529
g69
I1
ssg70
Nsg63
(lp4530
g56
(g72
g58
NtRp4531
(dp4532
g61
(dp4533
sg70
g4527
sg63
(lp4534
g56
(g77
g58
NtRp4535
(dp4536
g61
(dp4537
sg70
g4531
sg63
(lp4538
g56
(g57
g58
NtRp4539
(dp4540
g61
(dp4541
g69
I1
ssg70
g4535
sg63
(lp4542
g3846
(S's\r\x00\x00\x00Documentation'
tRp4543
asbasbasbag56
(g72
g58
NtRp4544
(dp4545
g61
(dp4546
sg70
g4527
sg63
(lp4547
g56
(g77
g58
NtRp4548
(dp4549
g61
(dp4550
sg70
g4544
sg63
(lp4551
g56
(g57
g58
NtRp4552
(dp4553
g61
(dp4554
g69
I1
ssg70
g4548
sg63
(lp4555
I00
asbasbasbag56
(g72
g58
NtRp4556
(dp4557
g61
(dp4558
sg70
g4527
sg63
(lp4559
g56
(g77
g58
NtRp4560
(dp4561
g61
(dp4562
sg70
g4556
sg63
(lp4563
g56
(g57
g58
NtRp4564
(dp4565
g61
(dp4566
g69
I1
ssg70
g4560
sg63
(lp4567
S'http://www.web2py.com/book'
p4568
asbasbasbag56
(g72
g58
NtRp4569
(dp4570
g61
(dp4571
sg70
g4527
sg63
(lp4572
g56
(g77
g58
NtRp4573
(dp4574
g61
(dp4575
sg70
g4569
sg63
(lp4576
g56
(g57
g58
NtRp4577
(dp4578
g61
(dp4579
g69
I1
ssg70
g4573
sg63
(lp4580
(lp4581
(g3846
(S's\x07\x00\x00\x00Preface'
tRp4582
I00
S'http://www.web2py.com/book/default/chapter/00'
p4583
tp4584
a(g3846
(S's\x0c\x00\x00\x00Introduction'
tRp4585
I00
S'http://www.web2py.com/book/default/chapter/01'
p4586
tp4587
a(g3846
(S's\x06\x00\x00\x00Python'
tRp4588
I00
S'http://www.web2py.com/book/default/chapter/02'
p4589
tp4590
a(g3846
(S's\x08\x00\x00\x00Overview'
tRp4591
I00
S'http://www.web2py.com/book/default/chapter/03'
p4592
tp4593
a(g3846
(S's\x08\x00\x00\x00The Core'
tRp4594
I00
S'http://www.web2py.com/book/default/chapter/04'
p4595
tp4596
a(g3846
(S's\t\x00\x00\x00The Views'
tRp4597
I00
S'http://www.web2py.com/book/default/chapter/05'
p4598
tp4599
a(g3846
(S's\x08\x00\x00\x00Database'
tRp4600
I00
S'http://www.web2py.com/book/default/chapter/06'
p4601
tp4602
a(g3846
(S's\x14\x00\x00\x00Forms and Validators'
tRp4603
I00
S'http://www.web2py.com/book/default/chapter/07'
p4604
tp4605
a(g3846
(S's\x0e\x00\x00\x00Access Control'
tRp4606
I00
S'http://www.web2py.com/book/default/chapter/08'
p4607
tp4608
a(g3846
(S's\x08\x00\x00\x00Services'
tRp4609
I00
S'http://www.web2py.com/book/default/chapter/09'
p4610
tp4611
a(g3846
(S's\x0c\x00\x00\x00Ajax Recipes'
tRp4612
I00
S'http://www.web2py.com/book/default/chapter/10'
p4613
tp4614
a(g3846
(S's\x12\x00\x00\x00Deployment Recipes'
tRp4615
I00
S'http://www.web2py.com/book/default/chapter/11'
p4616
tp4617
a(g3846
(S's\r\x00\x00\x00Other Recipes'
tRp4618
I00
S'http://www.web2py.com/book/default/chapter/12'
p4619
tp4620
a(g3846
(S's\r\x00\x00\x00Buy this book'
tRp4621
I00
S'http://stores.lulu.com/web2py'
p4622
tp4623
aasbasbasbasbasbasbasbag56
(g72
g58
NtRp4624
(dp4625
g61
(dp4626
sg70
g4511
sg63
(lp4627
g56
(g77
g58
NtRp4628
(dp4629
g61
(dp4630
sg70
g4624
sg63
(lp4631
g56
(g57
g58
NtRp4632
(dp4633
g61
(dp4634
g69
I2
ssg70
g4628
sg63
(lp4635
g56
(g65
g58
NtRp4636
(dp4637
g61
(dp4638
g69
I1
ssg70
Nsg63
(lp4639
g56
(g72
g58
NtRp4640
(dp4641
g61
(dp4642
sg70
g4636
sg63
(lp4643
g56
(g77
g58
NtRp4644
(dp4645
g61
(dp4646
sg70
g4640
sg63
(lp4647
g56
(g57
g58
NtRp4648
(dp4649
g61
(dp4650
g69
I1
ssg70
g4644
sg63
(lp4651
g3846
(S's\t\x00\x00\x00Community'
tRp4652
asbasbasbag56
(g72
g58
NtRp4653
(dp4654
g61
(dp4655
sg70
g4636
sg63
(lp4656
g56
(g77
g58
NtRp4657
(dp4658
g61
(dp4659
sg70
g4653
sg63
(lp4660
g56
(g57
g58
NtRp4661
(dp4662
g61
(dp4663
g69
I1
ssg70
g4657
sg63
(lp4664
I00
asbasbasbag56
(g72
g58
NtRp4665
(dp4666
g61
(dp4667
sg70
g4636
sg63
(lp4668
g56
(g77
g58
NtRp4669
(dp4670
g61
(dp4671
sg70
g4665
sg63
(lp4672
g56
(g57
g58
NtRp4673
(dp4674
g61
(dp4675
g69
I1
ssg70
g4669
sg63
(lp4676
Nasbasbasbag56
(g72
g58
NtRp4677
(dp4678
g61
(dp4679
sg70
g4636
sg63
(lp4680
g56
(g77
g58
NtRp4681
(dp4682
g61
(dp4683
sg70
g4677
sg63
(lp4684
g56
(g57
g58
NtRp4685
(dp4686
g61
(dp4687
g69
I1
ssg70
g4681
sg63
(lp4688
(lp4689
(g3846
(S's\x06\x00\x00\x00Groups'
tRp4690
I00
S'http://www.web2py.com/examples/default/usergroups'
p4691
tp4692
a(g3846
(S's\x07\x00\x00\x00Twitter'
tRp4693
I00
S'http://twitter.com/web2py'
p4694
tp4695
a(g3846
(S's\t\x00\x00\x00Live chat'
tRp4696
I00
S'http://mibbit.com/?channel=%23web2py&server=irc.mibbit.net'
p4697
tp4698
a(g3846
(S's\n\x00\x00\x00User Voice'
tRp4699
I00
S'http://web2py.uservoice.com/'
p4700
tp4701
aasbasbasbasbasbasbasbag56
(g72
g58
NtRp4702
(dp4703
g61
(dp4704
sg70
g4511
sg63
(lp4705
g56
(g77
g58
NtRp4706
(dp4707
g61
(dp4708
sg70
g4702
sg63
(lp4709
g56
(g57
g58
NtRp4710
(dp4711
g61
(dp4712
g69
I2
ssg70
g4706
sg63
(lp4713
g56
(g65
g58
NtRp4714
(dp4715
g61
(dp4716
g69
I1
ssg70
Nsg63
(lp4717
g56
(g72
g58
NtRp4718
(dp4719
g61
(dp4720
sg70
g4714
sg63
(lp4721
g56
(g77
g58
NtRp4722
(dp4723
g61
(dp4724
sg70
g4718
sg63
(lp4725
g56
(g57
g58
NtRp4726
(dp4727
g61
(dp4728
g69
I1
ssg70
g4722
sg63
(lp4729
g3846
(S's\x06\x00\x00\x00Web2py'
tRp4730
asbasbasbag56
(g72
g58
NtRp4731
(dp4732
g61
(dp4733
sg70
g4714
sg63
(lp4734
g56
(g77
g58
NtRp4735
(dp4736
g61
(dp4737
sg70
g4731
sg63
(lp4738
g56
(g57
g58
NtRp4739
(dp4740
g61
(dp4741
g69
I1
ssg70
g4735
sg63
(lp4742
I00
asbasbasbag56
(g72
g58
NtRp4743
(dp4744
g61
(dp4745
sg70
g4714
sg63
(lp4746
g56
(g77
g58
NtRp4747
(dp4748
g61
(dp4749
sg70
g4743
sg63
(lp4750
g56
(g57
g58
NtRp4751
(dp4752
g61
(dp4753
g69
I1
ssg70
g4747
sg63
(lp4754
S'http://www.web2py.com'
p4755
asbasbasbag56
(g72
g58
NtRp4756
(dp4757
g61
(dp4758
sg70
g4714
sg63
(lp4759
g56
(g77
g58
NtRp4760
(dp4761
g61
(dp4762
sg70
g4756
sg63
(lp4763
g56
(g57
g58
NtRp4764
(dp4765
g61
(dp4766
g69
I1
ssg70
g4760
sg63
(lp4767
(lp4768
(g3846
(S's\x08\x00\x00\x00Download'
tRp4769
I00
S'http://www.web2py.com/examples/default/download'
p4770
tp4771
a(g3846
(S's\x07\x00\x00\x00Support'
tRp4772
I00
S'http://www.web2py.com/examples/default/support'
p4773
tp4774
a(g3846
(S's\x0e\x00\x00\x00Quick Examples'
tRp4775
I00
S'http://web2py.com/examples/default/examples'
p4776
tp4777
a(g3846
(S's\x03\x00\x00\x00FAQ'
tRp4778
I00
S'http://web2py.com/AlterEgo'
p4779
tp4780
a(g3846
(S's\x11\x00\x00\x00Free Applications'
tRp4781
I00
S'http://web2py.com/appliances'
p4782
tp4783
a(g3846
(S's\x07\x00\x00\x00Plugins'
tRp4784
I00
S'http://web2py.com/plugins'
p4785
tp4786
a(g3846
(S's\x07\x00\x00\x00Recipes'
tRp4787
I00
S'http://web2pyslices.com/'
p4788
tp4789
a(g3846
(S's\x04\x00\x00\x00Demo'
tRp4790
I00
S'http://web2py.com/demo_admin'
p4791
tp4792
a(g3846
(S's\x08\x00\x00\x00Semantic'
tRp4793
I00
S'http://web2py.com/semantic'
p4794
tp4795
a(g3846
(S's\x07\x00\x00\x00Layouts'
tRp4796
I00
S'http://web2py.com/layouts'
p4797
tp4798
a(g3846
(S's\x06\x00\x00\x00Videos'
tRp4799
I00
S'http://www.web2py.com/examples/default/videos/'
p4800
tp4801
aasbasbasbasbasbasbasbasbasbasbasbasbasbasbasbasbasbasbasbag56
(g72
g58
NtRp4802
(dp4803
g61
(dp4804
sg70
g3341
sg63
(lp4805
g56
(g77
g58
NtRp4806
(dp4807
g61
(dp4808
g81
g82
ssg70
g4802
sg63
(lp4809
S'meta'
p4810
asbag56
(g77
g58
NtRp4811
(dp4812
g61
(dp4813
g88
g89
ssg70
g4802
sg63
(lp4814
S':'
asbag56
(g77
g58
NtRp4815
(dp4816
g61
(dp4817
sg70
g4802
sg63
(lp4818
g56
(g57
g58
NtRp4819
(dp4820
g61
(dp4821
g69
I5
ssg70
g4815
sg63
(lp4822
g56
(g65
g58
NtRp4823
(dp4824
g61
(dp4825
g69
I4
ssg70
Nsg63
(lp4826
g56
(g72
g58
NtRp4827
(dp4828
g61
(dp4829
sg70
g4823
sg63
(lp4830
g56
(g77
g58
NtRp4831
(dp4832
g61
(dp4833
g81
g82
ssg70
g4827
sg63
(lp4834
S'author'
p4835
asbag56
(g77
g58
NtRp4836
(dp4837
g61
(dp4838
g88
g89
ssg70
g4827
sg63
(lp4839
S':'
asbag56
(g77
g58
NtRp4840
(dp4841
g61
(dp4842
sg70
g4827
sg63
(lp4843
g56
(g57
g58
NtRp4844
(dp4845
g61
(dp4846
g69
I4
ssg70
g4840
sg63
(lp4847
S'Your Name <you@example.com>'
p4848
asbasbasbag56
(g72
g58
NtRp4849
(dp4850
g61
(dp4851
sg70
g4823
sg63
(lp4852
g56
(g77
g58
NtRp4853
(dp4854
g61
(dp4855
g81
g82
ssg70
g4849
sg63
(lp4856
S'copyright'
p4857
asbag56
(g77
g58
NtRp4858
(dp4859
g61
(dp4860
g88
g89
ssg70
g4849
sg63
(lp4861
S':'
asbag56
(g77
g58
NtRp4862
(dp4863
g61
(dp4864
sg70
g4849
sg63
(lp4865
g56
(g57
g58
NtRp4866
(dp4867
g61
(dp4868
g69
I4
ssg70
g4862
sg63
(lp4869
S'Copyright 2011'
p4870
asbasbasbag56
(g72
g58
NtRp4871
(dp4872
g61
(dp4873
sg70
g4823
sg63
(lp4874
g56
(g77
g58
NtRp4875
(dp4876
g61
(dp4877
g81
g82
ssg70
g4871
sg63
(lp4878
S'description'
p4879
asbag56
(g77
g58
NtRp4880
(dp4881
g61
(dp4882
g88
g89
ssg70
g4871
sg63
(lp4883
S':'
asbag56
(g77
g58
NtRp4884
(dp4885
g61
(dp4886
sg70
g4871
sg63
(lp4887
g56
(g57
g58
NtRp4888
(dp4889
g61
(dp4890
g69
I4
ssg70
g4884
sg63
(lp4891
S'a cool new app'
p4892
asbasbasbag56
(g72
g58
NtRp4893
(dp4894
g61
(dp4895
sg70
g4823
sg63
(lp4896
g56
(g77
g58
NtRp4897
(dp4898
g61
(dp4899
g81
g82
ssg70
g4893
sg63
(lp4900
S'generator'
p4901
asbag56
(g77
g58
NtRp4902
(dp4903
g61
(dp4904
g88
g89
ssg70
g4893
sg63
(lp4905
S':'
asbag56
(g77
g58
NtRp4906
(dp4907
g61
(dp4908
sg70
g4893
sg63
(lp4909
g56
(g57
g58
NtRp4910
(dp4911
g61
(dp4912
g69
I4
ssg70
g4906
sg63
(lp4913
S'Web2py Web Framework'
p4914
asbasbasbag56
(g72
g58
NtRp4915
(dp4916
g61
(dp4917
sg70
g4823
sg63
(lp4918
g56
(g77
g58
NtRp4919
(dp4920
g61
(dp4921
g81
g82
ssg70
g4915
sg63
(lp4922
S'keywords'
p4923
asbag56
(g77
g58
NtRp4924
(dp4925
g61
(dp4926
g88
g89
ssg70
g4915
sg63
(lp4927
S':'
asbag56
(g77
g58
NtRp4928
(dp4929
g61
(dp4930
sg70
g4915
sg63
(lp4931
g56
(g57
g58
NtRp4932
(dp4933
g61
(dp4934
g69
I4
ssg70
g4928
sg63
(lp4935
S'web2py, python, framework'
p4936
asbasbasbasbasbasbasbag56
(g72
g58
NtRp4937
(dp4938
g61
(dp4939
sg70
g3341
sg63
(lp4940
g56
(g77
g58
NtRp4941
(dp4942
g61
(dp4943
g81
g82
ssg70
g4937
sg63
(lp4944
S'postprocessing'
p4945
asbag56
(g77
g58
NtRp4946
(dp4947
g61
(dp4948
g88
g89
ssg70
g4937
sg63
(lp4949
S':'
asbag56
(g77
g58
NtRp4950
(dp4951
g61
(dp4952
sg70
g4937
sg63
(lp4953
g56
(g57
g58
NtRp4954
(dp4955
g61
(dp4956
g69
I5
ssg70
g4950
sg63
(lp4957
g56
(g65
g58
NtRp4958
(dp4959
g61
(dp4960
g69
I4
ssg70
Nsg63
(lp4961
sbasbasbasbag56
(g72
g58
NtRp4962
(dp4963
g61
(dp4964
sg70
g3341
sg63
(lp4965
g56
(g77
g58
NtRp4966
(dp4967
g61
(dp4968
g81
g82
ssg70
g4962
sg63
(lp4969
S'session_filename'
p4970
asbag56
(g77
g58
NtRp4971
(dp4972
g61
(dp4973
g88
g89
ssg70
g4962
sg63
(lp4974
S':'
asbag56
(g77
g58
NtRp4975
(dp4976
g61
(dp4977
sg70
g4962
sg63
(lp4978
g56
(g57
g58
NtRp4979
(dp4980
g61
(dp4981
g69
I5
ssg70
g4975
sg63
(lp4982
S'/windows/Users/Thomas/Dropbox/appz/2011/GAE/ddl-lagoon/applications/ddlagoon/sessions/127.0.0.1-afffd808-d5ac-4eed-8217-d01f58ee8a30'
p4983
asbasbasbag56
(g72
g58
NtRp4984
(dp4985
g61
(dp4986
sg70
g3341
sg63
(lp4987
g56
(g77
g58
NtRp4988
(dp4989
g61
(dp4990
g81
g82
ssg70
g4984
sg63
(lp4991
S'session_id'
p4992
asbag56
(g77
g58
NtRp4993
(dp4994
g61
(dp4995
g88
g89
ssg70
g4984
sg63
(lp4996
S':'
asbag56
(g77
g58
NtRp4997
(dp4998
g61
(dp4999
sg70
g4984
sg63
(lp5000
g56
(g57
g58
NtRp5001
(dp5002
g61
(dp5003
g69
I5
ssg70
g4997
sg63
(lp5004
S'127.0.0.1-afffd808-d5ac-4eed-8217-d01f58ee8a30'
p5005
asbasbasbag56
(g72
g58
NtRp5006
(dp5007
g61
(dp5008
sg70
g3341
sg63
(lp5009
g56
(g77
g58
NtRp5010
(dp5011
g61
(dp5012
g81
g82
ssg70
g5006
sg63
(lp5013
S'session_id_name'
p5014
asbag56
(g77
g58
NtRp5015
(dp5016
g61
(dp5017
g88
g89
ssg70
g5006
sg63
(lp5018
S':'
asbag56
(g77
g58
NtRp5019
(dp5020
g61
(dp5021
sg70
g5006
sg63
(lp5022
g56
(g57
g58
NtRp5023
(dp5024
g61
(dp5025
g69
I5
ssg70
g5019
sg63
(lp5026
g3398
asbasbasbag56
(g72
g58
NtRp5027
(dp5028
g61
(dp5029
sg70
g3341
sg63
(lp5030
g56
(g77
g58
NtRp5031
(dp5032
g61
(dp5033
g81
g82
ssg70
g5027
sg63
(lp5034
S'session_new'
p5035
asbag56
(g77
g58
NtRp5036
(dp5037
g61
(dp5038
g88
g89
ssg70
g5027
sg63
(lp5039
S':'
asbag56
(g77
g58
NtRp5040
(dp5041
g61
(dp5042
sg70
g5027
sg63
(lp5043
g56
(g57
g58
NtRp5044
(dp5045
g61
(dp5046
g69
I5
ssg70
g5040
sg63
(lp5047
g1772
asbasbasbag56
(g72
g58
NtRp5048
(dp5049
g61
(dp5050
sg70
g3341
sg63
(lp5051
g56
(g77
g58
NtRp5052
(dp5053
g61
(dp5054
g81
g82
ssg70
g5048
sg63
(lp5055
S'status'
p5056
asbag56
(g77
g58
NtRp5057
(dp5058
g61
(dp5059
g88
g89
ssg70
g5048
sg63
(lp5060
S':'
asbag56
(g77
g58
NtRp5061
(dp5062
g61
(dp5063
sg70
g5048
sg63
(lp5064
g56
(g57
g58
NtRp5065
(dp5066
g61
(dp5067
g69
I5
ssg70
g5061
sg63
(lp5068
S'200'
p5069
asbasbasbag56
(g72
g58
NtRp5070
(dp5071
g61
(dp5072
sg70
g3341
sg63
(lp5073
g56
(g77
g58
NtRp5074
(dp5075
g61
(dp5076
g81
g82
ssg70
g5070
sg63
(lp5077
S'subtitle'
p5078
asbag56
(g77
g58
NtRp5079
(dp5080
g61
(dp5081
g88
g89
ssg70
g5070
sg63
(lp5082
S':'
asbag56
(g77
g58
NtRp5083
(dp5084
g61
(dp5085
sg70
g5070
sg63
(lp5086
g56
(g57
g58
NtRp5087
(dp5088
g61
(dp5089
g69
I5
ssg70
g5083
sg63
(lp5090
g3846
(S's\r\x00\x00\x00customize me!'
tRp5091
asbasbasbag56
(g72
g58
NtRp5092
(dp5093
g61
(dp5094
sg70
g3341
sg63
(lp5095
g56
(g77
g58
NtRp5096
(dp5097
g61
(dp5098
g81
g82
ssg70
g5092
sg63
(lp5099
S'title'
p5100
asbag56
(g77
g58
NtRp5101
(dp5102
g61
(dp5103
g88
g89
ssg70
g5092
sg63
(lp5104
S':'
asbag56
(g77
g58
NtRp5105
(dp5106
g61
(dp5107
sg70
g5092
sg63
(lp5108
g56
(g57
g58
NtRp5109
(dp5110
g61
(dp5111
g69
I5
ssg70
g5105
sg63
(lp5112
g121
asbasbasbag56
(g72
g58
NtRp5113
(dp5114
g61
(dp5115
sg70
g3341
sg63
(lp5116
g56
(g77
g58
NtRp5117
(dp5118
g61
(dp5119
g81
g82
ssg70
g5113
sg63
(lp5120
g2438
asbag56
(g77
g58
NtRp5121
(dp5122
g61
(dp5123
g88
g89
ssg70
g5113
sg63
(lp5124
S':'
asbag56
(g77
g58
NtRp5125
(dp5126
g61
(dp5127
sg70
g5113
sg63
(lp5128
g56
(g57
g58
NtRp5129
(dp5130
g61
(dp5131
g69
I5
ssg70
g5125
sg63
(lp5132
g2451
asbasbasbag56
(g72
g58
NtRp5133
(dp5134
g61
(dp5135
sg70
g3341
sg63
(lp5136
g56
(g77
g58
NtRp5137
(dp5138
g61
(dp5139
g81
g82
ssg70
g5133
sg63
(lp5140
S'view'
p5141
asbag56
(g77
g58
NtRp5142
(dp5143
g61
(dp5144
g88
g89
ssg70
g5133
sg63
(lp5145
S':'
asbag56
(g77
g58
NtRp5146
(dp5147
g61
(dp5148
sg70
g5133
sg63
(lp5149
g56
(g57
g58
NtRp5150
(dp5151
g61
(dp5152
g69
I5
ssg70
g5146
sg63
(lp5153
S'ddl/get.html'
p5154
asbasbasbasbasbsS'locals'
p5155
(dp5156
S'ddlFile'
p5157
S"<open file '<fdopen>', mode 'w+b'>"
p5158
sg3320
S"{'author': None, 'description': None, 'filename': 'The_Thing_2011_TS_XviD_READNFO___MiSTERE.avi', 'hash': '0695d08c7202912d74c5fadecf97f220', 'links': '76cx3r|76cx28|76cx40|76cx4f|76cx3n|76cx91|76cxaz...|76d4qn|76d4rc|76d4rj|76d4sa|76d4si|76d4wm|76d4wu', 'parts': 228, 'service': 'twitpic', 'size': 1432680294, 'time': 1319695724, 'version': 1.5}"
p5159
sS'ddlJson'
p5160
S'\'{\\n    "author": null, \\n    "description": null, ...4, \\n    "time": 1319695724, \\n    "version": 1.5\\n}\''
p5161
sS'id'
p5162
S"'14'"
p5163
sS'filename'
p5164
S"'The_Thing_2011_TS_XviD_READNFO___MiSTERE.avi'"
p5165
sssS'traceback'
p5166
S'Traceback (most recent call last):\n  File "/windows/Users/Thomas/Dropbox/appz/2011/GAE/ddl-lagoon/gluon/restricted.py", line 194, in restricted\n    exec ccode in environment\n  File "/windows/Users/Thomas/Dropbox/appz/2011/GAE/ddl-lagoon/applications/ddlagoon/controllers/ddl.py", line 40, in <module>\n  File "/windows/Users/Thomas/Dropbox/appz/2011/GAE/ddl-lagoon/gluon/globals.py", line 149, in <lambda>\n    self._caller = lambda f: f()\n  File "/windows/Users/Thomas/Dropbox/appz/2011/GAE/ddl-lagoon/applications/ddlagoon/controllers/ddl.py", line 12, in get\n    return service()\n  File "/windows/Users/Thomas/Dropbox/appz/2011/GAE/ddl-lagoon/gluon/tools.py", line 3834, in __call__\n    return self.serve_run(request.args[1:])\n  File "/windows/Users/Thomas/Dropbox/appz/2011/GAE/ddl-lagoon/gluon/tools.py", line 3585, in serve_run\n    *args[1:], **dict(request.vars)))\n  File "/windows/Users/Thomas/Dropbox/appz/2011/GAE/ddl-lagoon/gluon/tools.py", line 3351, in universal_caller\n    return f(**arg_dict)\n  File "/windows/Users/Thomas/Dropbox/appz/2011/GAE/ddl-lagoon/applications/ddlagoon/controllers/ddl.py", line 37, in ddl\n    with open(ddlFile, "rb") as myFile:\nTypeError: coercing to Unicode: need string or buffer, file found\n'
p5167
s.